

Microchip MPLAB XC8 Assembler V2.35 build 20211206165544 
                                                                                               Thu Mar 24 09:58:31 2022

Microchip MPLAB XC8 C Compiler v2.35 (Free license) build 20211206165544 Og1 
     1                           	processor	18F26J53
     2                           	fnconf	rparam,??,?,0
     3                           	pagewidth 120
     4                           	opt	flic
     5                           	psect	smallconst,global,reloc=2,class=SMALLCONST,delta=1,noexec
     6                           	psect	nvCOMRAM,global,class=COMRAM,space=1,delta=1,lowdata,noexec
     7                           	psect	nvBANK0,global,class=BANK0,space=1,delta=1,lowdata,noexec
     8                           	psect	cinit,global,reloc=2,class=CODE,delta=1
     9                           	psect	bssCOMRAM,global,class=COMRAM,space=1,delta=1,lowdata,noexec
    10                           	psect	bssBANK0,global,class=BANK0,space=1,delta=1,lowdata,noexec
    11                           	psect	cstackBANK0,global,class=BANK0,space=1,delta=1,lowdata,noexec
    12                           	psect	cstackCOMRAM,global,class=COMRAM,space=1,delta=1,lowdata,noexec
    13                           	psect	text0,global,reloc=2,class=CODE,delta=1
    14                           	psect	text1,global,reloc=2,class=CODE,delta=1,group=3
    15                           	psect	text2,global,reloc=2,class=CODE,delta=1,group=1
    16                           	psect	text3,global,reloc=2,class=CODE,delta=1,group=1
    17                           	psect	text4,global,reloc=2,class=CODE,delta=1,group=3
    18                           	psect	text5,global,reloc=2,class=CODE,delta=1
    19                           	psect	text6,global,reloc=2,class=CODE,delta=1
    20                           	psect	text7,global,reloc=2,class=CODE,delta=1
    21                           	psect	text8,global,reloc=2,class=CODE,delta=1
    22                           	psect	text9,global,reloc=2,class=CODE,delta=1
    23                           	psect	text10,global,reloc=2,class=CODE,delta=1
    24                           	psect	text11,global,reloc=2,class=CODE,delta=1
    25                           	psect	text12,global,reloc=2,class=CODE,delta=1
    26                           	psect	text13,global,reloc=2,class=CODE,delta=1
    27                           	psect	text14,global,reloc=2,class=CODE,delta=1
    28                           	psect	text15,global,reloc=2,class=CODE,delta=1
    29                           	psect	text16,global,reloc=2,class=CODE,delta=1
    30                           	psect	text17,global,reloc=2,class=CODE,delta=1
    31                           	psect	text18,global,reloc=2,class=CODE,delta=1
    32                           	psect	text19,global,reloc=2,class=CODE,delta=1
    33                           	psect	text20,global,reloc=2,class=CODE,delta=1
    34                           	psect	intcode,global,reloc=2,class=CODE,delta=1
    35                           	psect	text22,global,reloc=2,class=CODE,delta=1
    36                           	psect	text23,global,reloc=2,class=CODE,delta=1,inline
    37                           	psect	text24,global,reloc=2,class=CODE,delta=1,inline
    38                           	psect	text25,global,reloc=2,class=CODE,delta=1
    39                           	psect	text26,global,reloc=2,class=CODE,delta=1
    40                           	psect	text27,global,reloc=2,class=CODE,delta=1
    41                           	psect	text28,global,reloc=2,class=CODE,delta=1
    42                           	psect	text29,global,reloc=2,class=CODE,delta=1
    43                           	psect	text30,global,reloc=2,class=CODE,delta=1
    44                           	psect	text31,global,reloc=2,class=CODE,delta=1
    45                           	psect	text32,global,reloc=2,class=CODE,delta=1
    46                           	psect	text33,global,reloc=2,class=CODE,delta=1
    47                           	psect	text34,global,reloc=2,class=CODE,delta=1
    48                           	psect	text35,global,reloc=2,class=CODE,delta=1
    49                           	psect	text36,global,reloc=2,class=CODE,delta=1
    50                           	psect	text37,global,reloc=2,class=CODE,delta=1
    51                           	psect	text38,global,reloc=2,class=CODE,delta=1
    52                           	psect	text39,global,reloc=2,class=CODE,delta=1
    53                           	psect	text40,global,reloc=2,class=CODE,delta=1
    54                           	psect	text41,global,reloc=2,class=CODE,delta=1,inline
    55                           	psect	text42,global,reloc=2,class=CODE,delta=1,inline
    56                           	psect	text43,global,reloc=2,class=CODE,delta=1,inline
    57                           	psect	text44,global,reloc=2,class=CODE,delta=1,inline
    58                           	psect	text45,global,reloc=2,class=CODE,delta=1,inline
    59                           	psect	text46,global,reloc=2,class=CODE,delta=1,inline
    60                           	psect	text47,global,reloc=2,class=CODE,delta=1,inline
    61                           	psect	text48,global,reloc=2,class=CODE,delta=1
    62                           	psect	text49,global,reloc=2,class=CODE,delta=1
    63                           	psect	text50,global,reloc=2,class=CODE,delta=1
    64                           	psect	text51,global,reloc=2,class=CODE,delta=1
    65                           	psect	text52,global,reloc=2,class=CODE,delta=1
    66                           	psect	text53,global,reloc=2,class=CODE,delta=1
    67                           	psect	text54,global,reloc=2,class=CODE,delta=1
    68                           	psect	text55,global,reloc=2,class=CODE,delta=1
    69                           	psect	text56,global,reloc=2,class=CODE,delta=1
    70                           	psect	text57,global,reloc=2,class=CODE,delta=1
    71                           	psect	text58,global,reloc=2,class=CODE,delta=1,inline
    72                           	psect	text59,global,reloc=2,class=CODE,delta=1,inline
    73                           	psect	text60,global,reloc=2,class=CODE,delta=1
    74                           	psect	text61,global,reloc=2,class=CODE,delta=1
    75                           	psect	text62,global,reloc=2,class=CODE,delta=1
    76                           	psect	text63,global,reloc=2,class=CODE,delta=1
    77                           	psect	text64,global,reloc=2,class=CODE,delta=1
    78                           	psect	text65,global,reloc=2,class=CODE,delta=1
    79                           	psect	intsave_regs,global,class=BIGRAM,space=1,delta=1,noexec
    80                           	psect	text66,global,reloc=2,class=CODE,delta=1
    81                           	psect	rparam,global,class=COMRAM,space=1,delta=1,noexec
    82                           	psect	temp,global,ovrld,common,class=COMRAM,space=1,delta=1
    83                           	psect	config,global,abs,ovrld,class=CONFIG,space=4,delta=1,noexec
    84  0000                     
    85                           ; Version 2.40
    86                           ; Generated 17/11/2021 GMT
    87                           ; 
    88                           ; Copyright © 2021, Microchip Technology Inc. and its subsidiaries ("Microchip")
    89                           ; All rights reserved.
    90                           ; 
    91                           ; This software is developed by Microchip Technology Inc. and its subsidiaries ("Microch
      +                          ip").
    92                           ; 
    93                           ; Redistribution and use in source and binary forms, with or without modification, are
    94                           ; permitted provided that the following conditions are met:
    95                           ; 
    96                           ;     1. Redistributions of source code must retain the above copyright notice, this lis
      +                          t of
    97                           ;        conditions and the following disclaimer.
    98                           ; 
    99                           ;     2. Redistributions in binary form must reproduce the above copyright notice, this 
      +                          list
   100                           ;        of conditions and the following disclaimer in the documentation and/or other
   101                           ;        materials provided with the distribution. Publication is not required when
   102                           ;        this file is used in an embedded application.
   103                           ; 
   104                           ;     3. Microchip's name may not be used to endorse or promote products derived from th
      +                          is
   105                           ;        software without specific prior written permission.
   106                           ; 
   107                           ; THIS SOFTWARE IS PROVIDED BY MICROCHIP "AS IS" AND ANY EXPRESS OR IMPLIED WARRANTIES,
   108                           ; INCLUDING, BUT NOT LIMITED TO, THE IMPLIED WARRANTIES OF MERCHANTABILITY AND FITNESS F
      +                          OR
   109                           ; PURPOSE ARE DISCLAIMED.  IN NO EVENT SHALL MICROCHIP BE LIABLE FOR ANY DIRECT, INDIREC
      +                          T,
   110                           ; INCIDENTAL, SPECIAL, EXEMPLARY, OR CONSEQUENTIAL DAMAGES (INCLUDING BUT NOT LIMITED TO
   111                           ; PROCUREMENT OF SUBSTITUTE GOODS OR SERVICES; LOSS OF USE, DATA OR PROFITS; OR BUSINESS
   112                           ; INTERRUPTION) HOWSOEVER CAUSED AND ON ANY THEORY OF LIABILITY, WHETHER IN CONTRACT, ST
      +                          RICT
   113                           ; LIABILITY, OR TORT (INCLUDING NEGLIGENCE OR OTHERWISE) ARISING IN ANY WAY OUT OF THE U
      +                          SE OF
   114                           ; THIS SOFTWARE, EVEN IF ADVISED OF THE POSSIBILITY OF SUCH DAMAGE.
   115                           ; 
   116                           ; 
   117                           ; Code-generator required, PIC18F26J53 Definitions
   118                           ; 
   119                           ; SFR Addresses
   120  0000                     
   121                           	psect	smallconst
   122  000F00                     __psmallconst:
   123                           	callstack 0
   124  000F00  00                 	db	0
   125  000F01                     _i2c1_fsmStateTable:
   126                           	callstack 0
   127  000F01  44                 	db	low _I2C1_DO_IDLE
   128  000F02  19                 	db	high _I2C1_DO_IDLE
   129  000F03  1C                 	db	low _I2C1_DO_SEND_ADR_READ
   130  000F04  19                 	db	high _I2C1_DO_SEND_ADR_READ
   131  000F05  0C                 	db	low _I2C1_DO_SEND_ADR_WRITE
   132  000F06  19                 	db	high _I2C1_DO_SEND_ADR_WRITE
   133  000F07  18                 	db	low _I2C1_DO_TX
   134  000F08  10                 	db	high _I2C1_DO_TX
   135  000F09  A2                 	db	low _I2C1_DO_RX
   136  000F0A  11                 	db	high _I2C1_DO_RX
   137  000F0B  38                 	db	low _I2C1_DO_RCEN
   138  000F0C  19                 	db	high _I2C1_DO_RCEN
   139  000F0D  E2                 	db	low _I2C1_DO_TX_EMPTY
   140  000F0E  12                 	db	high _I2C1_DO_TX_EMPTY
   141  000F0F  BC                 	db	low _I2C1_DO_SEND_RESTART_READ
   142  000F10  19                 	db	high _I2C1_DO_SEND_RESTART_READ
   143  000F11  B4                 	db	low _I2C1_DO_SEND_RESTART_WRITE
   144  000F12  19                 	db	high _I2C1_DO_SEND_RESTART_WRITE
   145  000F13  AC                 	db	low _I2C1_DO_SEND_RESTART
   146  000F14  19                 	db	high _I2C1_DO_SEND_RESTART
   147  000F15  A4                 	db	low _I2C1_DO_SEND_STOP
   148  000F16  19                 	db	high _I2C1_DO_SEND_STOP
   149  000F17  9C                 	db	low _I2C1_DO_RX_ACK
   150  000F18  19                 	db	high _I2C1_DO_RX_ACK
   151  000F19  94                 	db	low _I2C1_DO_RX_NACK_STOP
   152  000F1A  19                 	db	high _I2C1_DO_RX_NACK_STOP
   153  000F1B  8C                 	db	low _I2C1_DO_RX_NACK_RESTART
   154  000F1C  19                 	db	high _I2C1_DO_RX_NACK_RESTART
   155  000F1D  2C                 	db	low _I2C1_DO_RESET
   156  000F1E  19                 	db	high _I2C1_DO_RESET
   157  000F1F  4E                 	db	low _I2C1_DO_ADDRESS_NACK
   158  000F20  14                 	db	high _I2C1_DO_ADDRESS_NACK
   159  000F21                     __end_of_i2c1_fsmStateTable:
   160                           	callstack 0
   161  0000                     _ADCON0	set	4034
   162  0000                     _ADRESH	set	4036
   163  0000                     _ADRESL	set	4035
   164  0000                     _T1CON	set	4045
   165  0000                     _TMR1L	set	4046
   166  0000                     _TMR1H	set	4047
   167  0000                     _RCONbits	set	4048
   168  0000                     _T2CON	set	4042
   169  0000                     _TMR2	set	4044
   170  0000                     _PR2	set	4043
   171  0000                     _SSP1BUF	set	4041
   172  0000                     _SSP1ADD	set	4040
   173  0000                     _RCREG2	set	4010
   174  0000                     _TXREG2	set	4009
   175  0000                     _SPBRG2	set	4011
   176  000F21                     STR_1:
   177  000F21  74                 	db	116	;'t'
   178  000F22  65                 	db	101	;'e'
   179  000F23  73                 	db	115	;'s'
   180  000F24  74                 	db	116	;'t'
   181  000F25  69                 	db	105	;'i'
   182  000F26  6E                 	db	110	;'n'
   183  000F27  67                 	db	103	;'g'
   184  000F28  00                 	db	0
   185  000F29  00                 	db	0	; dummy byte at the end
   186  0000                     
   187                           	psect	nvCOMRAM
   188  000043                     __pnvCOMRAM:
   189                           	callstack 0
   190  000043                     _timer1ReloadVal:
   191                           	callstack 0
   192  000043                     	ds	2
   193  000045                     _EUSART2_TxDefaultInterruptHandler:
   194                           	callstack 0
   195  000045                     	ds	2
   196  000047                     _eusart2TxBufferRemaining:
   197                           	callstack 0
   198  000047                     	ds	1
   199                           
   200                           	psect	nvBANK0
   201  0000C3                     __pnvBANK0:
   202                           	callstack 0
   203  0000C3                     _EUSART2_ErrorHandler:
   204                           	callstack 0
   205  0000C3                     	ds	2
   206  0000C5                     _EUSART2_OverrunErrorHandler:
   207                           	callstack 0
   208  0000C5                     	ds	2
   209  0000C7                     _EUSART2_FramingErrorHandler:
   210                           	callstack 0
   211  0000C7                     	ds	2
   212  0000C9                     _EUSART2_RxDefaultInterruptHandler:
   213                           	callstack 0
   214  0000C9                     	ds	2
   215  0000                     _LATCbits	set	3979
   216  0000                     _LATAbits	set	3977
   217  0000                     _ADCON0bits	set	4034
   218  0000                     _T1GCONbits	set	3994
   219  0000                     _T1CONbits	set	4045
   220  0000                     _T2CONbits	set	4042
   221  0000                     _SSP1STATbits	set	4039
   222  0000                     _SSP1CON2bits	set	4037
   223  0000                     _SSP1CON1bits	set	4038
   224  0000                     _RCSTA2bits	set	3996
   225  0000                     _TXSTA2bits	set	4008
   226  0000                     _ADCTRIG	set	3768
   227  0000                     _RPOR6	set	3782
   228  0000                     _RPINR16	set	3831
   229  0000                     _REFOCON	set	3901
   230  0000                     _BAUDCON2	set	3964
   231  0000                     _PIE3bits	set	4003
   232  0000                     _PIR3bits	set	4004
   233  0000                     _TXSTA2	set	4008
   234  0000                     _OSCCON2	set	3975
   235  0000                     _OSCTUNE	set	3995
   236  0000                     _SPBRGH2	set	3965
   237  0000                     _RCSTA2	set	3996
   238  0000                     _PIE2bits	set	4000
   239  0000                     _PIR1bits	set	3998
   240  0000                     _PIE1bits	set	3997
   241  0000                     _PIR2bits	set	4001
   242  0000                     _ADCON1	set	4033
   243  0000                     _SSP1CON2	set	4037
   244  0000                     _SSP1CON1	set	4038
   245  0000                     _SSP1STAT	set	4039
   246  0000                     _OSCCON	set	4051
   247  0000                     _INTCON2bits	set	4081
   248  0000                     _ODCON3	set	3904
   249  0000                     _ODCON2	set	3905
   250  0000                     _ODCON1	set	3906
   251  0000                     _ANCON0	set	3912
   252  0000                     _LATA	set	3977
   253  0000                     _TRISA	set	3986
   254  0000                     _LATC	set	3979
   255  0000                     _LATB	set	3978
   256  0000                     _T1GCON	set	3994
   257  0000                     _TRISC	set	3988
   258  0000                     _TRISB	set	3987
   259  0000                     _ANCON1	set	3913
   260  0000                     _INTCONbits	set	4082
   261                           
   262                           ; #config settings
   263                           
   264                           	psect	cinit
   265  00181E                     __pcinit:
   266                           	callstack 0
   267  00181E                     start_initialization:
   268                           	callstack 0
   269  00181E                     __initialization:
   270                           	callstack 0
   271                           
   272                           ; Clear objects allocated to BANK0 (76 bytes)
   273  00181E  EE00  F060         	lfsr	0,__pbssBANK0
   274  001822  0E4C               	movlw	76
   275  001824                     clear_0:
   276  001824  6AEE               	clrf	postinc0,c
   277  001826  06E8               	decf	wreg,f,c
   278  001828  E1FD               	bnz	clear_0
   279                           
   280                           ; Clear objects allocated to COMRAM (34 bytes)
   281  00182A  EE00  F001         	lfsr	0,__pbssCOMRAM
   282  00182E  0E22               	movlw	34
   283  001830                     clear_1:
   284  001830  6AEE               	clrf	postinc0,c
   285  001832  06E8               	decf	wreg,f,c
   286  001834  E1FD               	bnz	clear_1
   287  001836                     end_of_initialization:
   288                           	callstack 0
   289  001836                     __end_of__initialization:
   290                           	callstack 0
   291  001836  9048               	bcf	int$flags,0,c	;clear compiler interrupt flag (level 1)
   292  001838  9248               	bcf	int$flags,1,c	;clear compiler interrupt flag (level 2)
   293  00183A  0E00               	movlw	low (__Lmediumconst shr (0+16))
   294  00183C  6EF8               	movwf	tblptru,c
   295  00183E  0100               	movlb	0
   296  001840  EFC0  F00A         	goto	_main	;jump to C main() function
   297                           
   298                           	psect	bssCOMRAM
   299  000001                     __pbssCOMRAM:
   300                           	callstack 0
   301  000001                     _eusart2RxStatusBuffer:
   302                           	callstack 0
   303  000001                     	ds	8
   304  000009                     _eusart2TxBuffer:
   305                           	callstack 0
   306  000009                     	ds	8
   307  000011                     _nout:
   308                           	callstack 0
   309  000011                     	ds	2
   310  000013                     _width:
   311                           	callstack 0
   312  000013                     	ds	2
   313  000015                     _prec:
   314                           	callstack 0
   315  000015                     	ds	2
   316  000017                     _flags:
   317                           	callstack 0
   318  000017                     	ds	2
   319  000019                     _ADC_InterruptHandler:
   320                           	callstack 0
   321  000019                     	ds	2
   322  00001B                     _MSSP1_InterruptHandler:
   323                           	callstack 0
   324  00001B                     	ds	2
   325  00001D                     _eusart2RxLastError:
   326                           	callstack 0
   327  00001D                     	ds	1
   328  00001E                     _eusart2RxCount:
   329                           	callstack 0
   330  00001E                     	ds	1
   331  00001F                     _eusart2RxTail:
   332                           	callstack 0
   333  00001F                     	ds	1
   334  000020                     _eusart2RxHead:
   335                           	callstack 0
   336  000020                     	ds	1
   337  000021                     _eusart2TxTail:
   338                           	callstack 0
   339  000021                     	ds	1
   340  000022                     _eusart2TxHead:
   341                           	callstack 0
   342  000022                     	ds	1
   343                           
   344                           	psect	bssBANK0
   345  000060                     __pbssBANK0:
   346                           	callstack 0
   347  000060                     _I2C1_Status:
   348                           	callstack 0
   349  000060                     	ds	36
   350  000084                     	ds	32
   351  0000A4                     _eusart2RxBuffer:
   352                           	callstack 0
   353  0000A4                     	ds	8
   354                           
   355                           	psect	cstackBANK0
   356  0000AC                     __pcstackBANK0:
   357                           	callstack 0
   358  0000AC                     ??_fputc:
   359                           
   360                           ; 1 bytes @ 0x0
   361  0000AC                     	ds	5
   362  0000B1                     ?_vfpfcnvrt:
   363                           	callstack 0
   364  0000B1                     vfpfcnvrt@fp:
   365                           	callstack 0
   366                           
   367                           ; 2 bytes @ 0x5
   368  0000B1                     	ds	2
   369  0000B3                     vfpfcnvrt@fmt:
   370                           	callstack 0
   371                           
   372                           ; 2 bytes @ 0x7
   373  0000B3                     	ds	2
   374  0000B5                     vfpfcnvrt@ap:
   375                           	callstack 0
   376                           
   377                           ; 2 bytes @ 0x9
   378  0000B5                     	ds	2
   379  0000B7                     ?_vfprintf:
   380                           	callstack 0
   381  0000B7                     vfprintf@fp:
   382                           	callstack 0
   383                           
   384                           ; 2 bytes @ 0xB
   385  0000B7                     	ds	2
   386  0000B9                     vfprintf@fmt:
   387                           	callstack 0
   388                           
   389                           ; 2 bytes @ 0xD
   390  0000B9                     	ds	2
   391  0000BB                     vfprintf@ap:
   392                           	callstack 0
   393                           
   394                           ; 2 bytes @ 0xF
   395  0000BB                     	ds	2
   396  0000BD                     ?_printf:
   397                           	callstack 0
   398  0000BD                     printf@fmt:
   399                           	callstack 0
   400                           
   401                           ; 2 bytes @ 0x11
   402  0000BD                     	ds	2
   403  0000BF                     printf@ap:
   404                           	callstack 0
   405                           
   406                           ; 2 bytes @ 0x13
   407  0000BF                     	ds	2
   408  0000C1                     ??_main:
   409                           
   410                           ; 1 bytes @ 0x15
   411  0000C1                     	ds	2
   412                           
   413                           	psect	cstackCOMRAM
   414  000023                     __pcstackCOMRAM:
   415                           	callstack 0
   416  000023                     I2C1_MasterSendTxData@data:
   417                           	callstack 0
   418  000023                     I2C1_SetBuffer@buffer:
   419                           	callstack 0
   420  000023                     I2C1_SetCallback@cb:
   421                           	callstack 0
   422                           
   423                           ; 2 bytes @ 0x0
   424  000023                     	ds	1
   425  000024                     
   426                           ; 1 bytes @ 0x1
   427  000024                     	ds	1
   428  000025                     I2C1_SetBuffer@bufferSize:
   429                           	callstack 0
   430  000025                     I2C1_SetCallback@ptr:
   431                           	callstack 0
   432                           
   433                           ; 2 bytes @ 0x2
   434  000025                     	ds	2
   435  000027                     I2C1_SetCallback@idx:
   436                           	callstack 0
   437                           
   438                           ; 1 bytes @ 0x4
   439  000027                     	ds	1
   440  000028                     I2C1_SetDataCompleteCallback@cb:
   441                           	callstack 0
   442                           
   443                           ; 2 bytes @ 0x5
   444  000028                     	ds	2
   445  00002A                     I2C1_SetDataCompleteCallback@ptr:
   446                           	callstack 0
   447                           
   448                           ; 2 bytes @ 0x7
   449  00002A                     	ds	2
   450  00002C                     rd1RegCompleteHandler@ptr:
   451                           	callstack 0
   452  00002C                     rd2RegCompleteHandler@ptr:
   453                           	callstack 0
   454  00002C                     wr1RegCompleteHandler@ptr:
   455                           	callstack 0
   456  00002C                     wr2RegCompleteHandler@ptr:
   457                           	callstack 0
   458  00002C                     rdBlkRegCompleteHandler@ptr:
   459                           	callstack 0
   460  00002C                     I2C1_CallbackReturnReset@funPtr:
   461                           	callstack 0
   462                           
   463                           ; 2 bytes @ 0x9
   464  00002C                     	ds	2
   465  00002E                     ??_I2C1_DO_TX:
   466  00002E                     ??_I2C1_DO_RX:
   467  00002E                     ??_I2C1_DO_TX_EMPTY:
   468  00002E                     ??_I2C1_DO_ADDRESS_NACK:
   469  00002E                     
   470                           ; 1 bytes @ 0xB
   471  00002E                     	ds	2
   472  000030                     ??_INTERRUPT_InterruptManager:
   473                           
   474                           ; 1 bytes @ 0xD
   475  000030                     	ds	10
   476  00003A                     ??_TMR1_Initialize:
   477  00003A                     EUSART2_Write@txData:
   478                           	callstack 0
   479  00003A                     EUSART2_SetFramingErrorHandler@interruptHandler:
   480                           	callstack 0
   481  00003A                     EUSART2_SetOverrunErrorHandler@interruptHandler:
   482                           	callstack 0
   483  00003A                     EUSART2_SetErrorHandler@interruptHandler:
   484                           	callstack 0
   485  00003A                     EUSART2_SetTxInterruptHandler@interruptHandler:
   486                           	callstack 0
   487  00003A                     EUSART2_SetRxInterruptHandler@interruptHandler:
   488                           	callstack 0
   489                           
   490                           ; 2 bytes @ 0x17
   491  00003A                     	ds	1
   492  00003B                     putch@txData:
   493                           	callstack 0
   494                           
   495                           ; 1 bytes @ 0x18
   496  00003B                     	ds	1
   497  00003C                     fputc@c:
   498                           	callstack 0
   499                           
   500                           ; 2 bytes @ 0x19
   501  00003C                     	ds	2
   502  00003E                     fputc@fp:
   503                           	callstack 0
   504                           
   505                           ; 2 bytes @ 0x1B
   506  00003E                     	ds	2
   507  000040                     vfprintf@cfmt:
   508                           	callstack 0
   509                           
   510                           ; 2 bytes @ 0x1D
   511  000040                     	ds	2
   512  000042                     main@buffer:
   513                           	callstack 0
   514                           
   515                           ; 1 bytes @ 0x1F
   516  000042                     	ds	1
   517                           
   518 ;;
   519 ;;Main: autosize = 0, tempsize = 2, incstack = 0, save=0
   520 ;;
   521 ;; *************** function _main *****************
   522 ;; Defined at:
   523 ;;		line 66 in file "main.c"
   524 ;; Parameters:    Size  Location     Type
   525 ;;		None
   526 ;; Auto vars:     Size  Location     Type
   527 ;;  bufferPointe    2    0        PTR unsigned char 
   528 ;;		 -> main@buffer(1), 
   529 ;;  i2cSize         2    0        unsigned int 
   530 ;;  buffer          1   31[COMRAM] unsigned char 
   531 ;; Return value:  Size  Location     Type
   532 ;;                  1    wreg      void 
   533 ;; Registers used:
   534 ;;		wreg, fsr1l, fsr1h, fsr2l, fsr2h, status,2, status,0, tblptrl, tblptrh, tblptru, cstack
   535 ;; Tracked objects:
   536 ;;		On entry : 0/0
   537 ;;		On exit  : 0/0
   538 ;;		Unchanged: 0/0
   539 ;; Data sizes:     COMRAM   BANK0   BANK1   BANK2   BANK3   BANK4   BANK5   BANK6   BANK7   BANK8   BANK9  BANK10  BANK1
      +1  BANK12  BANK13  BANK14
   540 ;;      Params:         0       0       0       0       0       0       0       0       0       0       0       0       
      +0       0       0       0
   541 ;;      Locals:         1       0       0       0       0       0       0       0       0       0       0       0       
      +0       0       0       0
   542 ;;      Temps:          0       2       0       0       0       0       0       0       0       0       0       0       
      +0       0       0       0
   543 ;;      Totals:         1       2       0       0       0       0       0       0       0       0       0       0       
      +0       0       0       0
   544 ;;Total ram usage:        3 bytes
   545 ;; Hardware stack levels required when called: 13
   546 ;; This function calls:
   547 ;;		_SYSTEM_Initialize
   548 ;;		_printf
   549 ;; This function is called by:
   550 ;;		Startup code after reset
   551 ;; This function uses a non-reentrant model
   552 ;;
   553                           
   554                           	psect	text0
   555  001580                     __ptext0:
   556                           	callstack 0
   557  001580                     _main:
   558                           	callstack 18
   559  001580                     
   560                           ;main.c: 69:     SYSTEM_Initialize();
   561  001580  EC34  F00C         	call	_SYSTEM_Initialize	;wreg free
   562  001584                     
   563                           ;main.c: 76:     (INTCONbits.GIE = 1);
   564  001584  8EF2               	bsf	242,7,c	;volatile
   565  001586                     
   566                           ;main.c: 82:     (INTCONbits.PEIE = 1);
   567  001586  8CF2               	bsf	242,6,c	;volatile
   568  001588  8E89               	bsf	137,7,c	;volatile
   569  00158A  8C89               	bsf	137,6,c	;volatile
   570  00158C  908B               	bcf	139,0,c	;volatile
   571  00158E                     
   572                           ;main.c: 89:     char *bufferPointer;;main.c: 90:     char buffer = 'A';
   573  00158E  0E41               	movlw	65
   574  001590  6E42               	movwf	main@buffer^0,c
   575  001592                     l3550:
   576  001592  9C89               	bcf	137,6,c	;volatile
   577  001594                     
   578                           ;main.c: 101:         _delay((unsigned long)((50)*(48000000/4000.0)));
   579  001594  0E04               	movlw	4
   580  001596  0100               	movlb	0	; () banked
   581  001598  6FC2               	movwf	(??_main+1)& (0+255),b
   582  00159A  0E0C               	movlw	12
   583  00159C  6FC1               	movwf	??_main& (0+255),b
   584  00159E  0E33               	movlw	51
   585  0015A0                     u1477:
   586  0015A0  2EE8               	decfsz	wreg,f,c
   587  0015A2  D7FE               	bra	u1477
   588  0015A4  2FC1               	decfsz	??_main& (0+255),f,b
   589  0015A6  D7FC               	bra	u1477
   590  0015A8  2FC2               	decfsz	(??_main+1)& (0+255),f,b
   591  0015AA  D7FA               	bra	u1477
   592  0015AC  D000               	nop2	
   593  0015AE  8C89               	bsf	137,6,c	;volatile
   594  0015B0                     
   595                           ;main.c: 103:         _delay((unsigned long)((50)*(48000000/4000.0)));
   596  0015B0  0E04               	movlw	4
   597  0015B2  0100               	movlb	0	; () banked
   598  0015B4  6FC2               	movwf	(??_main+1)& (0+255),b
   599  0015B6  0E0C               	movlw	12
   600  0015B8  6FC1               	movwf	??_main& (0+255),b
   601  0015BA  0E33               	movlw	51
   602  0015BC                     u1487:
   603  0015BC  2EE8               	decfsz	wreg,f,c
   604  0015BE  D7FE               	bra	u1487
   605  0015C0  2FC1               	decfsz	??_main& (0+255),f,b
   606  0015C2  D7FC               	bra	u1487
   607  0015C4  2FC2               	decfsz	(??_main+1)& (0+255),f,b
   608  0015C6  D7FA               	bra	u1487
   609  0015C8  D000               	nop2	
   610  0015CA                     
   611                           ;main.c: 104:         printf("testing");
   612  0015CA  0E21               	movlw	low STR_1
   613  0015CC  0100               	movlb	0	; () banked
   614  0015CE  6FBD               	movwf	printf@fmt& (0+255),b
   615  0015D0  0E0F               	movlw	high STR_1
   616  0015D2  6FBE               	movwf	(printf@fmt+1)& (0+255),b
   617  0015D4  ECFB  F00B         	call	_printf	;wreg free
   618  0015D8  EFC9  F00A         	goto	l3550
   619  0015DC  EF9E  F000         	goto	start
   620  0015E0                     __end_of_main:
   621                           	callstack 0
   622                           
   623 ;; *************** function _printf *****************
   624 ;; Defined at:
   625 ;;		line 5 in file "C:\Program Files\Microchip\xc8\v2.35\pic\sources\c99\common\printf.c"
   626 ;; Parameters:    Size  Location     Type
   627 ;;  fmt             2   17[BANK0 ] PTR const unsigned char 
   628 ;;		 -> STR_1(8), 
   629 ;; Auto vars:     Size  Location     Type
   630 ;;  ap              2   19[BANK0 ] PTR void [1]
   631 ;;		 -> ?_printf(2), 
   632 ;;  ret             2    0        int 
   633 ;; Return value:  Size  Location     Type
   634 ;;                  2   17[BANK0 ] int 
   635 ;; Registers used:
   636 ;;		wreg, fsr1l, fsr1h, fsr2l, fsr2h, status,2, status,0, tblptrl, tblptrh, tblptru, cstack
   637 ;; Tracked objects:
   638 ;;		On entry : 0/0
   639 ;;		On exit  : 0/0
   640 ;;		Unchanged: 0/0
   641 ;; Data sizes:     COMRAM   BANK0   BANK1   BANK2   BANK3   BANK4   BANK5   BANK6   BANK7   BANK8   BANK9  BANK10  BANK1
      +1  BANK12  BANK13  BANK14
   642 ;;      Params:         0       2       0       0       0       0       0       0       0       0       0       0       
      +0       0       0       0
   643 ;;      Locals:         0       2       0       0       0       0       0       0       0       0       0       0       
      +0       0       0       0
   644 ;;      Temps:          0       0       0       0       0       0       0       0       0       0       0       0       
      +0       0       0       0
   645 ;;      Totals:         0       4       0       0       0       0       0       0       0       0       0       0       
      +0       0       0       0
   646 ;;Total ram usage:        4 bytes
   647 ;; Hardware stack levels used: 1
   648 ;; Hardware stack levels required when called: 12
   649 ;; This function calls:
   650 ;;		_vfprintf
   651 ;; This function is called by:
   652 ;;		_main
   653 ;; This function uses a non-reentrant model
   654 ;;
   655                           
   656                           	psect	text1
   657  0017F6                     __ptext1:
   658                           	callstack 0
   659  0017F6                     _printf:
   660                           	callstack 18
   661  0017F6  0EBF               	movlw	low (?_printf+2)
   662  0017F8  0100               	movlb	0	; () banked
   663  0017FA  6FBF               	movwf	printf@ap& (0+255),b
   664  0017FC  0E00               	movlw	high (?_printf+2)
   665  0017FE  6FC0               	movwf	(printf@ap+1)& (0+255),b
   666  001800                     
   667                           ; BSR set to: 0
   668  001800  0E00               	movlw	0
   669  001802  6FB7               	movwf	vfprintf@fp& (0+255),b
   670  001804  0E00               	movlw	0
   671  001806  6FB8               	movwf	(vfprintf@fp+1)& (0+255),b
   672  001808  C0BD  F0B9         	movff	printf@fmt,vfprintf@fmt
   673  00180C  C0BE  F0BA         	movff	printf@fmt+1,vfprintf@fmt+1
   674  001810  0EBF               	movlw	low printf@ap
   675  001812  6FBB               	movwf	vfprintf@ap& (0+255),b
   676  001814  0E00               	movlw	high printf@ap
   677  001816  6FBC               	movwf	(vfprintf@ap+1)& (0+255),b
   678  001818  EC8F  F00A         	call	_vfprintf	;wreg free
   679  00181C  0012               	return		;funcret
   680  00181E                     __end_of_printf:
   681                           	callstack 0
   682                           
   683 ;; *************** function _vfprintf *****************
   684 ;; Defined at:
   685 ;;		line 1390 in file "C:\Program Files\Microchip\xc8\v2.35\pic\sources\c99\common\doprnt.c"
   686 ;; Parameters:    Size  Location     Type
   687 ;;  fp              2   11[BANK0 ] PTR struct _IO_FILE
   688 ;;		 -> NULL(0), 
   689 ;;  fmt             2   13[BANK0 ] PTR const unsigned char 
   690 ;;		 -> STR_1(8), 
   691 ;;  ap              2   15[BANK0 ] PTR PTR void 
   692 ;;		 -> printf@ap(2), 
   693 ;; Auto vars:     Size  Location     Type
   694 ;;  cfmt            2   29[COMRAM] PTR unsigned char 
   695 ;;		 -> STR_1(8), 
   696 ;; Return value:  Size  Location     Type
   697 ;;                  2   11[BANK0 ] int 
   698 ;; Registers used:
   699 ;;		wreg, fsr1l, fsr1h, fsr2l, fsr2h, status,2, status,0, tblptrl, tblptrh, tblptru, cstack
   700 ;; Tracked objects:
   701 ;;		On entry : 0/0
   702 ;;		On exit  : 0/0
   703 ;;		Unchanged: 0/0
   704 ;; Data sizes:     COMRAM   BANK0   BANK1   BANK2   BANK3   BANK4   BANK5   BANK6   BANK7   BANK8   BANK9  BANK10  BANK1
      +1  BANK12  BANK13  BANK14
   705 ;;      Params:         0       6       0       0       0       0       0       0       0       0       0       0       
      +0       0       0       0
   706 ;;      Locals:         2       0       0       0       0       0       0       0       0       0       0       0       
      +0       0       0       0
   707 ;;      Temps:          0       0       0       0       0       0       0       0       0       0       0       0       
      +0       0       0       0
   708 ;;      Totals:         2       6       0       0       0       0       0       0       0       0       0       0       
      +0       0       0       0
   709 ;;Total ram usage:        8 bytes
   710 ;; Hardware stack levels used: 1
   711 ;; Hardware stack levels required when called: 11
   712 ;; This function calls:
   713 ;;		_vfpfcnvrt
   714 ;; This function is called by:
   715 ;;		_printf
   716 ;; This function uses a non-reentrant model
   717 ;;
   718                           
   719                           	psect	text2
   720  00151E                     __ptext2:
   721                           	callstack 0
   722  00151E                     _vfprintf:
   723                           	callstack 18
   724  00151E                     
   725                           ;C:\Program Files\Microchip\xc8\v2.35\pic\sources\c99\common\doprnt.c: 1390: int vfprint
      +                          f(FILE *fp, const char *fmt, va_list ap);C:\Program Files\Microchip\xc8\v2.35\pic\source
      +                          s\c99\common\doprnt.c: 1391: {;C:\Program Files\Microchip\xc8\v2.35\pic\sources\c99\comm
      +                          on\doprnt.c: 1393:     char *cfmt;;C:\Program Files\Microchip\xc8\v2.35\pic\sources\c99\
      +                          common\doprnt.c: 1395:     cfmt = (char *)fmt;
   726  00151E  C0B9  F040         	movff	vfprintf@fmt,vfprintf@cfmt
   727  001522  C0BA  F041         	movff	vfprintf@fmt+1,vfprintf@cfmt+1
   728  001526                     
   729                           ;C:\Program Files\Microchip\xc8\v2.35\pic\sources\c99\common\doprnt.c: 1396:     nout = 
      +                          0;
   730  001526  0E00               	movlw	0
   731  001528  6E12               	movwf	(_nout+1)^0,c
   732  00152A  0E00               	movlw	0
   733  00152C  6E11               	movwf	_nout^0,c
   734                           
   735                           ;C:\Program Files\Microchip\xc8\v2.35\pic\sources\c99\common\doprnt.c: 1397:     while (
      +                          *cfmt) {
   736  00152E  EFAD  F00A         	goto	l3524
   737  001532                     l3522:
   738                           
   739                           ;C:\Program Files\Microchip\xc8\v2.35\pic\sources\c99\common\doprnt.c: 1398:         nou
      +                          t += vfpfcnvrt(fp, &cfmt, ap);
   740  001532  C0B7  F0B1         	movff	vfprintf@fp,vfpfcnvrt@fp
   741  001536  C0B8  F0B2         	movff	vfprintf@fp+1,vfpfcnvrt@fp+1
   742  00153A  0E40               	movlw	low vfprintf@cfmt
   743  00153C  0100               	movlb	0	; () banked
   744  00153E  6FB3               	movwf	vfpfcnvrt@fmt& (0+255),b
   745  001540  0E00               	movlw	high vfprintf@cfmt
   746  001542  6FB4               	movwf	(vfpfcnvrt@fmt+1)& (0+255),b
   747  001544  C0BB  F0B5         	movff	vfprintf@ap,vfpfcnvrt@ap
   748  001548  C0BC  F0B6         	movff	vfprintf@ap+1,vfpfcnvrt@ap+1
   749  00154C  EC95  F007         	call	_vfpfcnvrt	;wreg free
   750  001550  0100               	movlb	0	; () banked
   751  001552  51B1               	movf	?_vfpfcnvrt& (0+255),w,b
   752  001554  2611               	addwf	_nout^0,f,c
   753  001556  51B2               	movf	(?_vfpfcnvrt+1)& (0+255),w,b
   754  001558  2212               	addwfc	(_nout+1)^0,f,c
   755  00155A                     l3524:
   756                           
   757                           ;C:\Program Files\Microchip\xc8\v2.35\pic\sources\c99\common\doprnt.c: 1397:     while (
      +                          *cfmt) {
   758  00155A  C040  FFF6         	movff	vfprintf@cfmt,tblptrl
   759  00155E  C041  FFF7         	movff	vfprintf@cfmt+1,tblptrh
   760  001562                     	if	0	;tblptru may be non-zero
   761  001562                     	endif
   762  001562                     	if	0	;tblptru may be non-zero
   763  001562                     	endif
   764  001562  0008               	tblrd		*
   765  001564  50F5               	movf	tablat,w,c
   766  001566  0900               	iorlw	0
   767  001568  A4D8               	btfss	status,2,c
   768  00156A  EFB9  F00A         	goto	u1461
   769  00156E  EFBB  F00A         	goto	u1460
   770  001572                     u1461:
   771  001572  EF99  F00A         	goto	l3522
   772  001576                     u1460:
   773  001576                     
   774                           ;C:\Program Files\Microchip\xc8\v2.35\pic\sources\c99\common\doprnt.c: 1400:     return 
      +                          nout;
   775  001576  C011  F0B7         	movff	_nout,?_vfprintf
   776  00157A  C012  F0B8         	movff	_nout+1,?_vfprintf+1
   777  00157E  0012               	return		;funcret
   778  001580                     __end_of_vfprintf:
   779                           	callstack 0
   780                           
   781 ;; *************** function _vfpfcnvrt *****************
   782 ;; Defined at:
   783 ;;		line 692 in file "C:\Program Files\Microchip\xc8\v2.35\pic\sources\c99\common\doprnt.c"
   784 ;; Parameters:    Size  Location     Type
   785 ;;  fp              2    5[BANK0 ] PTR struct _IO_FILE
   786 ;;		 -> NULL(0), 
   787 ;;  fmt             2    7[BANK0 ] PTR PTR unsigned char 
   788 ;;		 -> vfprintf@cfmt(2), 
   789 ;;  ap              2    9[BANK0 ] PTR PTR void 
   790 ;;		 -> printf@ap(2), 
   791 ;; Auto vars:     Size  Location     Type
   792 ;;  llu             8    0        unsigned long long 
   793 ;;  ll              8    0        long long 
   794 ;;  f               4    0        long long 
   795 ;;  vp              3    0        PTR void 
   796 ;;  ct              3    0        unsigned char [3]
   797 ;;  cp              3    0        PTR unsigned char 
   798 ;;  i               2    0        int 
   799 ;;  done            2    0        int 
   800 ;;  c               1    0        unsigned char 
   801 ;; Return value:  Size  Location     Type
   802 ;;                  2    5[BANK0 ] int 
   803 ;; Registers used:
   804 ;;		wreg, fsr1l, fsr1h, fsr2l, fsr2h, status,2, status,0, tblptrl, tblptrh, tblptru, cstack
   805 ;; Tracked objects:
   806 ;;		On entry : 0/0
   807 ;;		On exit  : 0/0
   808 ;;		Unchanged: 0/0
   809 ;; Data sizes:     COMRAM   BANK0   BANK1   BANK2   BANK3   BANK4   BANK5   BANK6   BANK7   BANK8   BANK9  BANK10  BANK1
      +1  BANK12  BANK13  BANK14
   810 ;;      Params:         0       6       0       0       0       0       0       0       0       0       0       0       
      +0       0       0       0
   811 ;;      Locals:         0       0       0       0       0       0       0       0       0       0       0       0       
      +0       0       0       0
   812 ;;      Temps:          0       0       0       0       0       0       0       0       0       0       0       0       
      +0       0       0       0
   813 ;;      Totals:         0       6       0       0       0       0       0       0       0       0       0       0       
      +0       0       0       0
   814 ;;Total ram usage:        6 bytes
   815 ;; Hardware stack levels used: 1
   816 ;; Hardware stack levels required when called: 10
   817 ;; This function calls:
   818 ;;		_fputc
   819 ;; This function is called by:
   820 ;;		_vfprintf
   821 ;; This function uses a non-reentrant model
   822 ;;
   823                           
   824                           	psect	text3
   825  000F2A                     __ptext3:
   826                           	callstack 0
   827  000F2A                     _vfpfcnvrt:
   828                           	callstack 18
   829  000F2A                     
   830                           ;C:\Program Files\Microchip\xc8\v2.35\pic\sources\c99\common\doprnt.c: 692: static int v
      +                          fpfcnvrt(FILE *fp, char *fmt[], va_list ap);C:\Program Files\Microchip\xc8\v2.35\pic\sou
      +                          rces\c99\common\doprnt.c: 693: {;C:\Program Files\Microchip\xc8\v2.35\pic\sources\c99\co
      +                          mmon\doprnt.c: 694:     char c, *cp, ct[3];;C:\Program Files\Microchip\xc8\v2.35\pic\sou
      +                          rces\c99\common\doprnt.c: 695:     int done, i;;C:\Program Files\Microchip\xc8\v2.35\pic
      +                          \sources\c99\common\doprnt.c: 696:     long long ll;;C:\Program Files\Microchip\xc8\v2.3
      +                          5\pic\sources\c99\common\doprnt.c: 697:     unsigned long long llu;
   831  000F2A  C0B3  FFD9         	movff	vfpfcnvrt@fmt,fsr2l
   832  000F2E  C0B4  FFDA         	movff	vfpfcnvrt@fmt+1,fsr2h
   833  000F32  CFDE FFF6          	movff	postinc2,tblptrl
   834  000F36  CFDD FFF7          	movff	postdec2,tblptrh
   835  000F3A                     	if	0	;tblptru may be non-zero
   836  000F3A                     	endif
   837  000F3A                     	if	0	;tblptru may be non-zero
   838  000F3A                     	endif
   839  000F3A  0008               	tblrd		*
   840  000F3C  50F5               	movf	tablat,w,c
   841  000F3E  0A25               	xorlw	37
   842  000F40  A4D8               	btfss	status,2,c
   843  000F42  EFA5  F007         	goto	u1441
   844  000F46  EFA7  F007         	goto	u1440
   845  000F4A                     u1441:
   846  000F4A  EFF0  F007         	goto	l3510
   847  000F4E                     u1440:
   848  000F4E                     
   849                           ;C:\Program Files\Microchip\xc8\v2.35\pic\sources\c99\common\doprnt.c: 703:         ++*f
      +                          mt;
   850  000F4E  C0B3  FFD9         	movff	vfpfcnvrt@fmt,fsr2l
   851  000F52  C0B4  FFDA         	movff	vfpfcnvrt@fmt+1,fsr2h
   852  000F56  2ADE               	incf	postinc2,f,c
   853  000F58  0E00               	movlw	0
   854  000F5A  22DD               	addwfc	postdec2,f,c
   855  000F5C                     
   856                           ;C:\Program Files\Microchip\xc8\v2.35\pic\sources\c99\common\doprnt.c: 705:         flag
      +                          s = width = 0;
   857  000F5C  0E00               	movlw	0
   858  000F5E  6E14               	movwf	(_width+1)^0,c
   859  000F60  0E00               	movlw	0
   860  000F62  6E13               	movwf	_width^0,c
   861  000F64  C013  F017         	movff	_width,_flags
   862  000F68  C014  F018         	movff	_width+1,_flags+1
   863  000F6C                     
   864                           ;C:\Program Files\Microchip\xc8\v2.35\pic\sources\c99\common\doprnt.c: 706:         prec
      +                           = -1;
   865  000F6C  6815               	setf	_prec^0,c
   866  000F6E  6816               	setf	(_prec+1)^0,c
   867  000F70                     
   868                           ;C:\Program Files\Microchip\xc8\v2.35\pic\sources\c99\common\doprnt.c: 1372:         if 
      +                          ((*fmt)[0] == '%') {
   869  000F70  C0B3  FFD9         	movff	vfpfcnvrt@fmt,fsr2l
   870  000F74  C0B4  FFDA         	movff	vfpfcnvrt@fmt+1,fsr2h
   871  000F78  CFDE FFF6          	movff	postinc2,tblptrl
   872  000F7C  CFDD FFF7          	movff	postdec2,tblptrh
   873  000F80                     	if	0	;tblptru may be non-zero
   874  000F80                     	endif
   875  000F80                     	if	0	;tblptru may be non-zero
   876  000F80                     	endif
   877  000F80  0008               	tblrd		*
   878  000F82  50F5               	movf	tablat,w,c
   879  000F84  0A25               	xorlw	37
   880  000F86  A4D8               	btfss	status,2,c
   881  000F88  EFC8  F007         	goto	u1451
   882  000F8C  EFCA  F007         	goto	u1450
   883  000F90                     u1451:
   884  000F90  EFE2  F007         	goto	l3504
   885  000F94                     u1450:
   886  000F94                     
   887                           ;C:\Program Files\Microchip\xc8\v2.35\pic\sources\c99\common\doprnt.c: 1373:            
      +                           ++*fmt;
   888  000F94  C0B3  FFD9         	movff	vfpfcnvrt@fmt,fsr2l
   889  000F98  C0B4  FFDA         	movff	vfpfcnvrt@fmt+1,fsr2h
   890  000F9C  2ADE               	incf	postinc2,f,c
   891  000F9E  0E00               	movlw	0
   892  000FA0  22DD               	addwfc	postdec2,f,c
   893  000FA2                     
   894                           ;C:\Program Files\Microchip\xc8\v2.35\pic\sources\c99\common\doprnt.c: 1374:            
      +                           fputc((int)'%', fp);
   895  000FA2  0E00               	movlw	0
   896  000FA4  6E3D               	movwf	(fputc@c+1)^0,c
   897  000FA6  0E25               	movlw	37
   898  000FA8  6E3C               	movwf	fputc@c^0,c
   899  000FAA  C0B1  F03E         	movff	vfpfcnvrt@fp,fputc@fp
   900  000FAE  C0B2  F03F         	movff	vfpfcnvrt@fp+1,fputc@fp+1
   901  000FB2  EC25  F009         	call	_fputc	;wreg free
   902  000FB6                     l3500:
   903                           
   904                           ;C:\Program Files\Microchip\xc8\v2.35\pic\sources\c99\common\doprnt.c: 1375:            
      +                           return 1;
   905  000FB6  0E00               	movlw	0
   906  000FB8  0100               	movlb	0	; () banked
   907  000FBA  6FB2               	movwf	(?_vfpfcnvrt+1)& (0+255),b
   908  000FBC  0E01               	movlw	1
   909  000FBE  6FB1               	movwf	?_vfpfcnvrt& (0+255),b
   910  000FC0  EF0B  F008         	goto	l1566
   911  000FC4                     l3504:
   912                           
   913                           ;C:\Program Files\Microchip\xc8\v2.35\pic\sources\c99\common\doprnt.c: 1379:         ++*
      +                          fmt;
   914  000FC4  C0B3  FFD9         	movff	vfpfcnvrt@fmt,fsr2l
   915  000FC8  C0B4  FFDA         	movff	vfpfcnvrt@fmt+1,fsr2h
   916  000FCC  2ADE               	incf	postinc2,f,c
   917  000FCE  0E00               	movlw	0
   918  000FD0  22DD               	addwfc	postdec2,f,c
   919  000FD2                     
   920                           ;C:\Program Files\Microchip\xc8\v2.35\pic\sources\c99\common\doprnt.c: 1380:         ret
      +                          urn 0;
   921  000FD2  0E00               	movlw	0
   922  000FD4  0100               	movlb	0	; () banked
   923  000FD6  6FB2               	movwf	(?_vfpfcnvrt+1)& (0+255),b
   924  000FD8  0E00               	movlw	0
   925  000FDA  6FB1               	movwf	?_vfpfcnvrt& (0+255),b
   926  000FDC  EF0B  F008         	goto	l1566
   927  000FE0                     l3510:
   928                           
   929                           ;C:\Program Files\Microchip\xc8\v2.35\pic\sources\c99\common\doprnt.c: 1384:     fputc((
      +                          int)(*fmt)[0], fp);
   930  000FE0  C0B3  FFD9         	movff	vfpfcnvrt@fmt,fsr2l
   931  000FE4  C0B4  FFDA         	movff	vfpfcnvrt@fmt+1,fsr2h
   932  000FE8  CFDE FFF6          	movff	postinc2,tblptrl
   933  000FEC  CFDD FFF7          	movff	postdec2,tblptrh
   934  000FF0                     	if	0	;tblptru may be non-zero
   935  000FF0                     	endif
   936  000FF0                     	if	0	;tblptru may be non-zero
   937  000FF0                     	endif
   938  000FF0  0008               	tblrd		*
   939  000FF2  50F5               	movf	tablat,w,c
   940  000FF4  6E3C               	movwf	fputc@c^0,c
   941  000FF6  6A3D               	clrf	(fputc@c+1)^0,c
   942  000FF8  C0B1  F03E         	movff	vfpfcnvrt@fp,fputc@fp
   943  000FFC  C0B2  F03F         	movff	vfpfcnvrt@fp+1,fputc@fp+1
   944  001000  EC25  F009         	call	_fputc	;wreg free
   945  001004                     
   946                           ;C:\Program Files\Microchip\xc8\v2.35\pic\sources\c99\common\doprnt.c: 1385:     ++*fmt;
   947  001004  C0B3  FFD9         	movff	vfpfcnvrt@fmt,fsr2l
   948  001008  C0B4  FFDA         	movff	vfpfcnvrt@fmt+1,fsr2h
   949  00100C  2ADE               	incf	postinc2,f,c
   950  00100E  0E00               	movlw	0
   951  001010  22DD               	addwfc	postdec2,f,c
   952  001012  EFDB  F007         	goto	l3500
   953  001016                     l1566:
   954                           
   955                           ; BSR set to: 0
   956  001016  0012               	return		;funcret
   957  001018                     __end_of_vfpfcnvrt:
   958                           	callstack 0
   959                           
   960 ;; *************** function _fputc *****************
   961 ;; Defined at:
   962 ;;		line 8 in file "C:\Program Files\Microchip\xc8\v2.35\pic\sources\c99\common\nf_fputc.c"
   963 ;; Parameters:    Size  Location     Type
   964 ;;  c               2   25[COMRAM] int 
   965 ;;  fp              2   27[COMRAM] PTR struct _IO_FILE
   966 ;;		 -> NULL(0), 
   967 ;; Auto vars:     Size  Location     Type
   968 ;;		None
   969 ;; Return value:  Size  Location     Type
   970 ;;                  2   25[COMRAM] int 
   971 ;; Registers used:
   972 ;;		wreg, fsr1l, fsr1h, fsr2l, fsr2h, status,2, status,0, cstack
   973 ;; Tracked objects:
   974 ;;		On entry : 0/0
   975 ;;		On exit  : 0/0
   976 ;;		Unchanged: 0/0
   977 ;; Data sizes:     COMRAM   BANK0   BANK1   BANK2   BANK3   BANK4   BANK5   BANK6   BANK7   BANK8   BANK9  BANK10  BANK1
      +1  BANK12  BANK13  BANK14
   978 ;;      Params:         4       0       0       0       0       0       0       0       0       0       0       0       
      +0       0       0       0
   979 ;;      Locals:         0       0       0       0       0       0       0       0       0       0       0       0       
      +0       0       0       0
   980 ;;      Temps:          0       5       0       0       0       0       0       0       0       0       0       0       
      +0       0       0       0
   981 ;;      Totals:         4       5       0       0       0       0       0       0       0       0       0       0       
      +0       0       0       0
   982 ;;Total ram usage:        9 bytes
   983 ;; Hardware stack levels used: 1
   984 ;; Hardware stack levels required when called: 9
   985 ;; This function calls:
   986 ;;		_putch
   987 ;; This function is called by:
   988 ;;		_vfpfcnvrt
   989 ;; This function uses a non-reentrant model
   990 ;;
   991                           
   992                           	psect	text4
   993  00124A                     __ptext4:
   994                           	callstack 0
   995  00124A                     _fputc:
   996                           	callstack 18
   997  00124A  503E               	movf	fputc@fp^0,w,c
   998  00124C  103F               	iorwf	(fputc@fp+1)^0,w,c
   999  00124E  B4D8               	btfsc	status,2,c
  1000  001250  EF2C  F009         	goto	u1401
  1001  001254  EF2E  F009         	goto	u1400
  1002  001258                     u1401:
  1003  001258  EF37  F009         	goto	l3476
  1004  00125C                     u1400:
  1005  00125C  503E               	movf	fputc@fp^0,w,c
  1006  00125E  103F               	iorwf	(fputc@fp+1)^0,w,c
  1007  001260  A4D8               	btfss	status,2,c
  1008  001262  EF35  F009         	goto	u1411
  1009  001266  EF37  F009         	goto	u1410
  1010  00126A                     u1411:
  1011  00126A  EF3C  F009         	goto	l3478
  1012  00126E                     u1410:
  1013  00126E                     l3476:
  1014  00126E  503C               	movf	fputc@c^0,w,c
  1015  001270  ECA8  F00C         	call	_putch
  1016  001274  EF70  F009         	goto	l1584
  1017  001278                     l3478:
  1018  001278  EE20 F009          	lfsr	2,9
  1019  00127C  503E               	movf	fputc@fp^0,w,c
  1020  00127E  26D9               	addwf	fsr2l,f,c
  1021  001280  503F               	movf	(fputc@fp+1)^0,w,c
  1022  001282  22DA               	addwfc	fsr2h,f,c
  1023  001284  50DE               	movf	postinc2,w,c
  1024  001286  10DE               	iorwf	postinc2,w,c
  1025  001288  B4D8               	btfsc	status,2,c
  1026  00128A  EF49  F009         	goto	u1421
  1027  00128E  EF4B  F009         	goto	u1420
  1028  001292                     u1421:
  1029  001292  EF67  F009         	goto	l3482
  1030  001296                     u1420:
  1031  001296  EE20 F009          	lfsr	2,9
  1032  00129A  503E               	movf	fputc@fp^0,w,c
  1033  00129C  26D9               	addwf	fsr2l,f,c
  1034  00129E  503F               	movf	(fputc@fp+1)^0,w,c
  1035  0012A0  22DA               	addwfc	fsr2h,f,c
  1036  0012A2  EE10 F003          	lfsr	1,3
  1037  0012A6  503E               	movf	fputc@fp^0,w,c
  1038  0012A8  26E1               	addwf	fsr1l,f,c
  1039  0012AA  503F               	movf	(fputc@fp+1)^0,w,c
  1040  0012AC  22E2               	addwfc	fsr1h,f,c
  1041  0012AE  50DE               	movf	postinc2,w,c
  1042  0012B0  5CE6               	subwf	postinc1,w,c
  1043  0012B2  50E6               	movf	postinc1,w,c
  1044  0012B4  0A80               	xorlw	128
  1045  0012B6  0100               	movlb	0	; () banked
  1046  0012B8  6FB0               	movwf	(??_fputc+4)& (0+255),b
  1047  0012BA  50DE               	movf	postinc2,w,c
  1048  0012BC  0A80               	xorlw	128
  1049  0012BE  59B0               	subwfb	(??_fputc+4)& (0+255),w,b
  1050  0012C0  B0D8               	btfsc	status,0,c
  1051  0012C2  EF65  F009         	goto	u1431
  1052  0012C6  EF67  F009         	goto	u1430
  1053  0012CA                     u1431:
  1054  0012CA  EF70  F009         	goto	l1584
  1055  0012CE                     u1430:
  1056  0012CE                     l3482:
  1057  0012CE  EE20 F003          	lfsr	2,3
  1058  0012D2  503E               	movf	fputc@fp^0,w,c
  1059  0012D4  26D9               	addwf	fsr2l,f,c
  1060  0012D6  503F               	movf	(fputc@fp+1)^0,w,c
  1061  0012D8  22DA               	addwfc	fsr2h,f,c
  1062  0012DA  2ADE               	incf	postinc2,f,c
  1063  0012DC  0E00               	movlw	0
  1064  0012DE  22DD               	addwfc	postdec2,f,c
  1065  0012E0                     l1584:
  1066  0012E0  0012               	return		;funcret
  1067  0012E2                     __end_of_fputc:
  1068                           	callstack 0
  1069                           
  1070 ;; *************** function _putch *****************
  1071 ;; Defined at:
  1072 ;;		line 201 in file "mcc_generated_files/eusart2.c"
  1073 ;; Parameters:    Size  Location     Type
  1074 ;;  txData          1    wreg     unsigned char 
  1075 ;; Auto vars:     Size  Location     Type
  1076 ;;  txData          1   24[COMRAM] unsigned char 
  1077 ;; Return value:  Size  Location     Type
  1078 ;;                  1    wreg      void 
  1079 ;; Registers used:
  1080 ;;		wreg, fsr2l, fsr2h, status,2, status,0, cstack
  1081 ;; Tracked objects:
  1082 ;;		On entry : 0/0
  1083 ;;		On exit  : 0/0
  1084 ;;		Unchanged: 0/0
  1085 ;; Data sizes:     COMRAM   BANK0   BANK1   BANK2   BANK3   BANK4   BANK5   BANK6   BANK7   BANK8   BANK9  BANK10  BANK1
      +1  BANK12  BANK13  BANK14
  1086 ;;      Params:         0       0       0       0       0       0       0       0       0       0       0       0       
      +0       0       0       0
  1087 ;;      Locals:         1       0       0       0       0       0       0       0       0       0       0       0       
      +0       0       0       0
  1088 ;;      Temps:          0       0       0       0       0       0       0       0       0       0       0       0       
      +0       0       0       0
  1089 ;;      Totals:         1       0       0       0       0       0       0       0       0       0       0       0       
      +0       0       0       0
  1090 ;;Total ram usage:        1 bytes
  1091 ;; Hardware stack levels used: 1
  1092 ;; Hardware stack levels required when called: 8
  1093 ;; This function calls:
  1094 ;;		_EUSART2_Write
  1095 ;; This function is called by:
  1096 ;;		_fputc
  1097 ;; This function uses a non-reentrant model
  1098 ;;
  1099                           
  1100                           	psect	text5
  1101  001950                     __ptext5:
  1102                           	callstack 0
  1103  001950                     _putch:
  1104                           	callstack 18
  1105                           
  1106                           ;incstack = 0
  1107                           ;putch@txData stored from wreg
  1108  001950  6E3B               	movwf	putch@txData^0,c
  1109  001952                     
  1110                           ;mcc_generated_files/eusart2.c: 201: void putch(char txData);mcc_generated_files/eusart2
      +                          .c: 202: {;mcc_generated_files/eusart2.c: 203:     EUSART2_Write(txData);
  1111  001952  503B               	movf	putch@txData^0,w,c
  1112  001954  ECF0  F00A         	call	_EUSART2_Write
  1113  001958  0012               	return		;funcret
  1114  00195A                     __end_of_putch:
  1115                           	callstack 0
  1116                           
  1117 ;; *************** function _EUSART2_Write *****************
  1118 ;; Defined at:
  1119 ;;		line 173 in file "mcc_generated_files/eusart2.c"
  1120 ;; Parameters:    Size  Location     Type
  1121 ;;  txData          1    wreg     unsigned char 
  1122 ;; Auto vars:     Size  Location     Type
  1123 ;;  txData          1   23[COMRAM] unsigned char 
  1124 ;; Return value:  Size  Location     Type
  1125 ;;                  1    wreg      void 
  1126 ;; Registers used:
  1127 ;;		wreg, fsr2l, fsr2h, status,2, status,0
  1128 ;; Tracked objects:
  1129 ;;		On entry : 0/0
  1130 ;;		On exit  : 0/0
  1131 ;;		Unchanged: 0/0
  1132 ;; Data sizes:     COMRAM   BANK0   BANK1   BANK2   BANK3   BANK4   BANK5   BANK6   BANK7   BANK8   BANK9  BANK10  BANK1
      +1  BANK12  BANK13  BANK14
  1133 ;;      Params:         0       0       0       0       0       0       0       0       0       0       0       0       
      +0       0       0       0
  1134 ;;      Locals:         1       0       0       0       0       0       0       0       0       0       0       0       
      +0       0       0       0
  1135 ;;      Temps:          0       0       0       0       0       0       0       0       0       0       0       0       
      +0       0       0       0
  1136 ;;      Totals:         1       0       0       0       0       0       0       0       0       0       0       0       
      +0       0       0       0
  1137 ;;Total ram usage:        1 bytes
  1138 ;; Hardware stack levels used: 1
  1139 ;; Hardware stack levels required when called: 7
  1140 ;; This function calls:
  1141 ;;		Nothing
  1142 ;; This function is called by:
  1143 ;;		_putch
  1144 ;; This function uses a non-reentrant model
  1145 ;;
  1146                           
  1147                           	psect	text6
  1148  0015E0                     __ptext6:
  1149                           	callstack 0
  1150  0015E0                     _EUSART2_Write:
  1151                           	callstack 18
  1152                           
  1153                           ;incstack = 0
  1154                           ;EUSART2_Write@txData stored from wreg
  1155  0015E0  6E3A               	movwf	EUSART2_Write@txData^0,c
  1156  0015E2                     l3454:
  1157                           
  1158                           ;mcc_generated_files/eusart2.c: 175:     while(0 == eusart2TxBufferRemaining)
  1159  0015E2  5047               	movf	_eusart2TxBufferRemaining^0,w,c	;volatile
  1160  0015E4  B4D8               	btfsc	status,2,c
  1161  0015E6  EFF7  F00A         	goto	u1371
  1162  0015EA  EFF9  F00A         	goto	u1370
  1163  0015EE                     u1371:
  1164  0015EE  EFF1  F00A         	goto	l3454
  1165  0015F2                     u1370:
  1166  0015F2                     
  1167                           ;mcc_generated_files/eusart2.c: 179:     if(0 == PIE3bits.TX2IE)
  1168  0015F2  B8A3               	btfsc	163,4,c	;volatile
  1169  0015F4  EFFE  F00A         	goto	u1381
  1170  0015F8  EF00  F00B         	goto	u1380
  1171  0015FC                     u1381:
  1172  0015FC  EF04  F00B         	goto	l204
  1173  001600                     u1380:
  1174  001600                     
  1175                           ;mcc_generated_files/eusart2.c: 180:     {;mcc_generated_files/eusart2.c: 181:         T
      +                          XREG2 = txData;
  1176  001600  C03A  FFA9         	movff	EUSART2_Write@txData,4009	;volatile
  1177                           
  1178                           ;mcc_generated_files/eusart2.c: 182:     }
  1179  001604  EF19  F00B         	goto	l3468
  1180  001608                     l204:
  1181                           
  1182                           ;mcc_generated_files/eusart2.c: 184:     {;mcc_generated_files/eusart2.c: 185:         P
      +                          IE3bits.TX2IE = 0;
  1183  001608  98A3               	bcf	163,4,c	;volatile
  1184  00160A                     
  1185                           ;mcc_generated_files/eusart2.c: 186:         eusart2TxBuffer[eusart2TxHead++] = txData;
  1186  00160A  0E09               	movlw	low _eusart2TxBuffer
  1187  00160C  2422               	addwf	_eusart2TxHead^0,w,c	;volatile
  1188  00160E  6ED9               	movwf	fsr2l,c
  1189  001610  6ADA               	clrf	fsr2h,c
  1190  001612  0E00               	movlw	high _eusart2TxBuffer
  1191  001614  22DA               	addwfc	fsr2h,f,c
  1192  001616  C03A  FFDF         	movff	EUSART2_Write@txData,indf2
  1193  00161A  2A22               	incf	_eusart2TxHead^0,f,c	;volatile
  1194  00161C                     
  1195                           ;mcc_generated_files/eusart2.c: 187:         if(sizeof(eusart2TxBuffer) <= eusart2TxHead
      +                          )
  1196  00161C  0E07               	movlw	7
  1197  00161E  6422               	cpfsgt	_eusart2TxHead^0,c	;volatile
  1198  001620  EF14  F00B         	goto	u1391
  1199  001624  EF16  F00B         	goto	u1390
  1200  001628                     u1391:
  1201  001628  EF18  F00B         	goto	l3466
  1202  00162C                     u1390:
  1203  00162C                     
  1204                           ;mcc_generated_files/eusart2.c: 188:         {;mcc_generated_files/eusart2.c: 189:      
      +                                 eusart2TxHead = 0;
  1205  00162C  0E00               	movlw	0
  1206  00162E  6E22               	movwf	_eusart2TxHead^0,c	;volatile
  1207  001630                     l3466:
  1208                           
  1209                           ;mcc_generated_files/eusart2.c: 191:         eusart2TxBufferRemaining--;
  1210  001630  0647               	decf	_eusart2TxBufferRemaining^0,f,c	;volatile
  1211  001632                     l3468:
  1212                           
  1213                           ;mcc_generated_files/eusart2.c: 193:     PIE3bits.TX2IE = 1;
  1214  001632  88A3               	bsf	163,4,c	;volatile
  1215  001634  0012               	return		;funcret
  1216  001636                     __end_of_EUSART2_Write:
  1217                           	callstack 0
  1218                           
  1219 ;; *************** function _SYSTEM_Initialize *****************
  1220 ;; Defined at:
  1221 ;;		line 50 in file "mcc_generated_files/mcc.c"
  1222 ;; Parameters:    Size  Location     Type
  1223 ;;		None
  1224 ;; Auto vars:     Size  Location     Type
  1225 ;;		None
  1226 ;; Return value:  Size  Location     Type
  1227 ;;                  1    wreg      void 
  1228 ;; Registers used:
  1229 ;;		wreg, status,2, status,0, cstack
  1230 ;; Tracked objects:
  1231 ;;		On entry : 0/0
  1232 ;;		On exit  : 0/0
  1233 ;;		Unchanged: 0/0
  1234 ;; Data sizes:     COMRAM   BANK0   BANK1   BANK2   BANK3   BANK4   BANK5   BANK6   BANK7   BANK8   BANK9  BANK10  BANK1
      +1  BANK12  BANK13  BANK14
  1235 ;;      Params:         0       0       0       0       0       0       0       0       0       0       0       0       
      +0       0       0       0
  1236 ;;      Locals:         0       0       0       0       0       0       0       0       0       0       0       0       
      +0       0       0       0
  1237 ;;      Temps:          0       0       0       0       0       0       0       0       0       0       0       0       
      +0       0       0       0
  1238 ;;      Totals:         0       0       0       0       0       0       0       0       0       0       0       0       
      +0       0       0       0
  1239 ;;Total ram usage:        0 bytes
  1240 ;; Hardware stack levels used: 1
  1241 ;; Hardware stack levels required when called: 9
  1242 ;; This function calls:
  1243 ;;		_ADC_Initialize
  1244 ;;		_EUSART2_Initialize
  1245 ;;		_I2C1_Initialize
  1246 ;;		_INTERRUPT_Initialize
  1247 ;;		_OSCILLATOR_Initialize
  1248 ;;		_PIN_MANAGER_Initialize
  1249 ;;		_TMR1_Initialize
  1250 ;;		_TMR2_Initialize
  1251 ;; This function is called by:
  1252 ;;		_main
  1253 ;; This function uses a non-reentrant model
  1254 ;;
  1255                           
  1256                           	psect	text7
  1257  001868                     __ptext7:
  1258                           	callstack 0
  1259  001868                     _SYSTEM_Initialize:
  1260                           	callstack 21
  1261  001868                     
  1262                           ;mcc_generated_files/mcc.c: 53:     INTERRUPT_Initialize();
  1263  001868  ECF5  F00C         	call	_INTERRUPT_Initialize	;wreg free
  1264  00186C                     
  1265                           ;mcc_generated_files/mcc.c: 54:     I2C1_Initialize();
  1266  00186C  EC6A  F00C         	call	_I2C1_Initialize	;wreg free
  1267  001870                     
  1268                           ;mcc_generated_files/mcc.c: 55:     PIN_MANAGER_Initialize();
  1269  001870  EC5B  F00B         	call	_PIN_MANAGER_Initialize	;wreg free
  1270  001874                     
  1271                           ;mcc_generated_files/mcc.c: 56:     OSCILLATOR_Initialize();
  1272  001874  EC60  F00C         	call	_OSCILLATOR_Initialize	;wreg free
  1273  001878                     
  1274                           ;mcc_generated_files/mcc.c: 57:     ADC_Initialize();
  1275  001878  EC45  F00C         	call	_ADC_Initialize	;wreg free
  1276  00187C                     
  1277                           ;mcc_generated_files/mcc.c: 58:     TMR2_Initialize();
  1278  00187C  EC7E  F00C         	call	_TMR2_Initialize	;wreg free
  1279  001880                     
  1280                           ;mcc_generated_files/mcc.c: 59:     TMR1_Initialize();
  1281  001880  ECD1  F00B         	call	_TMR1_Initialize	;wreg free
  1282  001884                     
  1283                           ;mcc_generated_files/mcc.c: 60:     EUSART2_Initialize();
  1284  001884  ECED  F009         	call	_EUSART2_Initialize	;wreg free
  1285  001888  0012               	return		;funcret
  1286  00188A                     __end_of_SYSTEM_Initialize:
  1287                           	callstack 0
  1288                           
  1289 ;; *************** function _TMR2_Initialize *****************
  1290 ;; Defined at:
  1291 ;;		line 62 in file "mcc_generated_files/tmr2.c"
  1292 ;; Parameters:    Size  Location     Type
  1293 ;;		None
  1294 ;; Auto vars:     Size  Location     Type
  1295 ;;		None
  1296 ;; Return value:  Size  Location     Type
  1297 ;;                  1    wreg      void 
  1298 ;; Registers used:
  1299 ;;		wreg, status,2
  1300 ;; Tracked objects:
  1301 ;;		On entry : 0/0
  1302 ;;		On exit  : 0/0
  1303 ;;		Unchanged: 0/0
  1304 ;; Data sizes:     COMRAM   BANK0   BANK1   BANK2   BANK3   BANK4   BANK5   BANK6   BANK7   BANK8   BANK9  BANK10  BANK1
      +1  BANK12  BANK13  BANK14
  1305 ;;      Params:         0       0       0       0       0       0       0       0       0       0       0       0       
      +0       0       0       0
  1306 ;;      Locals:         0       0       0       0       0       0       0       0       0       0       0       0       
      +0       0       0       0
  1307 ;;      Temps:          0       0       0       0       0       0       0       0       0       0       0       0       
      +0       0       0       0
  1308 ;;      Totals:         0       0       0       0       0       0       0       0       0       0       0       0       
      +0       0       0       0
  1309 ;;Total ram usage:        0 bytes
  1310 ;; Hardware stack levels used: 1
  1311 ;; Hardware stack levels required when called: 7
  1312 ;; This function calls:
  1313 ;;		Nothing
  1314 ;; This function is called by:
  1315 ;;		_SYSTEM_Initialize
  1316 ;; This function uses a non-reentrant model
  1317 ;;
  1318                           
  1319                           	psect	text8
  1320  0018FC                     __ptext8:
  1321                           	callstack 0
  1322  0018FC                     _TMR2_Initialize:
  1323                           	callstack 22
  1324  0018FC                     
  1325                           ;mcc_generated_files/tmr2.c: 67:     PR2 = 0xF9;
  1326  0018FC  0EF9               	movlw	249
  1327  0018FE  6ECB               	movwf	203,c	;volatile
  1328                           
  1329                           ;mcc_generated_files/tmr2.c: 70:     TMR2 = 0x00;
  1330  001900  0E00               	movlw	0
  1331  001902  6ECC               	movwf	204,c	;volatile
  1332  001904                     
  1333                           ;mcc_generated_files/tmr2.c: 73:     PIR1bits.TMR2IF = 0;
  1334  001904  929E               	bcf	158,1,c	;volatile
  1335                           
  1336                           ;mcc_generated_files/tmr2.c: 76:     T2CON = 0x5D;
  1337  001906  0E5D               	movlw	93
  1338  001908  6ECA               	movwf	202,c	;volatile
  1339  00190A  0012               	return		;funcret
  1340  00190C                     __end_of_TMR2_Initialize:
  1341                           	callstack 0
  1342                           
  1343 ;; *************** function _TMR1_Initialize *****************
  1344 ;; Defined at:
  1345 ;;		line 63 in file "mcc_generated_files/tmr1.c"
  1346 ;; Parameters:    Size  Location     Type
  1347 ;;		None
  1348 ;; Auto vars:     Size  Location     Type
  1349 ;;		None
  1350 ;; Return value:  Size  Location     Type
  1351 ;;                  1    wreg      void 
  1352 ;; Registers used:
  1353 ;;		wreg, status,2, status,0
  1354 ;; Tracked objects:
  1355 ;;		On entry : 0/0
  1356 ;;		On exit  : 0/0
  1357 ;;		Unchanged: 0/0
  1358 ;; Data sizes:     COMRAM   BANK0   BANK1   BANK2   BANK3   BANK4   BANK5   BANK6   BANK7   BANK8   BANK9  BANK10  BANK1
      +1  BANK12  BANK13  BANK14
  1359 ;;      Params:         0       0       0       0       0       0       0       0       0       0       0       0       
      +0       0       0       0
  1360 ;;      Locals:         0       0       0       0       0       0       0       0       0       0       0       0       
      +0       0       0       0
  1361 ;;      Temps:          2       0       0       0       0       0       0       0       0       0       0       0       
      +0       0       0       0
  1362 ;;      Totals:         2       0       0       0       0       0       0       0       0       0       0       0       
      +0       0       0       0
  1363 ;;Total ram usage:        2 bytes
  1364 ;; Hardware stack levels used: 1
  1365 ;; Hardware stack levels required when called: 7
  1366 ;; This function calls:
  1367 ;;		Nothing
  1368 ;; This function is called by:
  1369 ;;		_SYSTEM_Initialize
  1370 ;; This function uses a non-reentrant model
  1371 ;;
  1372                           
  1373                           	psect	text9
  1374  0017A2                     __ptext9:
  1375                           	callstack 0
  1376  0017A2                     _TMR1_Initialize:
  1377                           	callstack 22
  1378  0017A2                     
  1379                           ;mcc_generated_files/tmr1.c: 68:     T1GCON = 0x00;
  1380  0017A2  0E00               	movlw	0
  1381  0017A4  6E9A               	movwf	154,c	;volatile
  1382                           
  1383                           ;mcc_generated_files/tmr1.c: 71:     TMR1H = 0xD1;
  1384  0017A6  0ED1               	movlw	209
  1385  0017A8  6ECF               	movwf	207,c	;volatile
  1386                           
  1387                           ;mcc_generated_files/tmr1.c: 74:     TMR1L = 0x20;
  1388  0017AA  0E20               	movlw	32
  1389  0017AC  6ECE               	movwf	206,c	;volatile
  1390  0017AE                     
  1391                           ;mcc_generated_files/tmr1.c: 77:     PIR1bits.TMR1IF = 0;
  1392  0017AE  909E               	bcf	158,0,c	;volatile
  1393  0017B0                     
  1394                           ;mcc_generated_files/tmr1.c: 80:     timer1ReloadVal=(uint16_t)((TMR1H << 8) | TMR1L);
  1395  0017B0  50CE               	movf	206,w,c	;volatile
  1396  0017B2  CFCF F03A          	movff	4047,??_TMR1_Initialize	;volatile
  1397  0017B6  6A3B               	clrf	(??_TMR1_Initialize+1)^0,c
  1398  0017B8  C03A  F03B         	movff	??_TMR1_Initialize,??_TMR1_Initialize+1
  1399  0017BC  6A3A               	clrf	??_TMR1_Initialize^0,c
  1400  0017BE  103A               	iorwf	??_TMR1_Initialize^0,w,c
  1401  0017C0  6E43               	movwf	_timer1ReloadVal^0,c	;volatile
  1402  0017C2  503B               	movf	(??_TMR1_Initialize+1)^0,w,c
  1403  0017C4  6E44               	movwf	(_timer1ReloadVal+1)^0,c	;volatile
  1404  0017C6                     
  1405                           ;mcc_generated_files/tmr1.c: 83:     T1CON = 0x01;
  1406  0017C6  0E01               	movlw	1
  1407  0017C8  6ECD               	movwf	205,c	;volatile
  1408  0017CA  0012               	return		;funcret
  1409  0017CC                     __end_of_TMR1_Initialize:
  1410                           	callstack 0
  1411                           
  1412 ;; *************** function _PIN_MANAGER_Initialize *****************
  1413 ;; Defined at:
  1414 ;;		line 52 in file "mcc_generated_files/pin_manager.c"
  1415 ;; Parameters:    Size  Location     Type
  1416 ;;		None
  1417 ;; Auto vars:     Size  Location     Type
  1418 ;;		None
  1419 ;; Return value:  Size  Location     Type
  1420 ;;                  1    wreg      void 
  1421 ;; Registers used:
  1422 ;;		wreg, status,2
  1423 ;; Tracked objects:
  1424 ;;		On entry : 0/0
  1425 ;;		On exit  : 0/0
  1426 ;;		Unchanged: 0/0
  1427 ;; Data sizes:     COMRAM   BANK0   BANK1   BANK2   BANK3   BANK4   BANK5   BANK6   BANK7   BANK8   BANK9  BANK10  BANK1
      +1  BANK12  BANK13  BANK14
  1428 ;;      Params:         0       0       0       0       0       0       0       0       0       0       0       0       
      +0       0       0       0
  1429 ;;      Locals:         0       0       0       0       0       0       0       0       0       0       0       0       
      +0       0       0       0
  1430 ;;      Temps:          0       0       0       0       0       0       0       0       0       0       0       0       
      +0       0       0       0
  1431 ;;      Totals:         0       0       0       0       0       0       0       0       0       0       0       0       
      +0       0       0       0
  1432 ;;Total ram usage:        0 bytes
  1433 ;; Hardware stack levels used: 1
  1434 ;; Hardware stack levels required when called: 7
  1435 ;; This function calls:
  1436 ;;		Nothing
  1437 ;; This function is called by:
  1438 ;;		_SYSTEM_Initialize
  1439 ;; This function uses a non-reentrant model
  1440 ;;
  1441                           
  1442                           	psect	text10
  1443  0016B6                     __ptext10:
  1444                           	callstack 0
  1445  0016B6                     _PIN_MANAGER_Initialize:
  1446                           	callstack 22
  1447  0016B6                     
  1448                           ;mcc_generated_files/pin_manager.c: 57:     LATA = 0x00;
  1449  0016B6  0E00               	movlw	0
  1450  0016B8  6E89               	movwf	137,c	;volatile
  1451                           
  1452                           ;mcc_generated_files/pin_manager.c: 58:     LATB = 0x00;
  1453  0016BA  0E00               	movlw	0
  1454  0016BC  6E8A               	movwf	138,c	;volatile
  1455                           
  1456                           ;mcc_generated_files/pin_manager.c: 59:     LATC = 0x00;
  1457  0016BE  0E00               	movlw	0
  1458  0016C0  6E8B               	movwf	139,c	;volatile
  1459                           
  1460                           ;mcc_generated_files/pin_manager.c: 64:     TRISA = 0x2F;
  1461  0016C2  0E2F               	movlw	47
  1462  0016C4  6E92               	movwf	146,c	;volatile
  1463                           
  1464                           ;mcc_generated_files/pin_manager.c: 65:     TRISB = 0xF7;
  1465  0016C6  0EF7               	movlw	247
  1466  0016C8  6E93               	movwf	147,c	;volatile
  1467                           
  1468                           ;mcc_generated_files/pin_manager.c: 66:     TRISC = 0xC4;
  1469  0016CA  0EC4               	movlw	196
  1470  0016CC  6E94               	movwf	148,c	;volatile
  1471                           
  1472                           ;mcc_generated_files/pin_manager.c: 71:     ANCON0 = 0x00;
  1473  0016CE  0E00               	movlw	0
  1474  0016D0  010F               	movlb	15	; () banked
  1475  0016D2  6F48               	movwf	72,b	;volatile
  1476                           
  1477                           ;mcc_generated_files/pin_manager.c: 72:     ANCON1 = 0x0F;
  1478  0016D4  0E0F               	movlw	15
  1479  0016D6  6F49               	movwf	73,b	;volatile
  1480  0016D8                     
  1481                           ; BSR set to: 15
  1482                           ;mcc_generated_files/pin_manager.c: 77:     INTCON2bits.nRBPU = 1;
  1483  0016D8  8EF1               	bsf	241,7,c	;volatile
  1484                           
  1485                           ;mcc_generated_files/pin_manager.c: 82:     ODCON1 = 0x00;
  1486  0016DA  0E00               	movlw	0
  1487  0016DC  6F42               	movwf	66,b	;volatile
  1488                           
  1489                           ;mcc_generated_files/pin_manager.c: 83:     ODCON2 = 0x00;
  1490  0016DE  0E00               	movlw	0
  1491  0016E0  6F41               	movwf	65,b	;volatile
  1492                           
  1493                           ;mcc_generated_files/pin_manager.c: 84:     ODCON3 = 0x00;
  1494  0016E2  0E00               	movlw	0
  1495  0016E4  6F40               	movwf	64,b	;volatile
  1496                           
  1497                           ;mcc_generated_files/pin_manager.c: 90:     RPINR16 = 0x05;
  1498  0016E6  0E05               	movlw	5
  1499  0016E8  010E               	movlb	14	; () banked
  1500  0016EA  6FF7               	movwf	247,b	;volatile
  1501                           
  1502                           ;mcc_generated_files/pin_manager.c: 91:     RPOR6 = 0x06;
  1503  0016EC  0E06               	movlw	6
  1504  0016EE  6FC6               	movwf	198,b	;volatile
  1505  0016F0                     
  1506                           ; BSR set to: 14
  1507  0016F0  0012               	return		;funcret
  1508  0016F2                     __end_of_PIN_MANAGER_Initialize:
  1509                           	callstack 0
  1510                           
  1511 ;; *************** function _OSCILLATOR_Initialize *****************
  1512 ;; Defined at:
  1513 ;;		line 63 in file "mcc_generated_files/mcc.c"
  1514 ;; Parameters:    Size  Location     Type
  1515 ;;		None
  1516 ;; Auto vars:     Size  Location     Type
  1517 ;;		None
  1518 ;; Return value:  Size  Location     Type
  1519 ;;                  1    wreg      void 
  1520 ;; Registers used:
  1521 ;;		wreg, status,2
  1522 ;; Tracked objects:
  1523 ;;		On entry : 0/0
  1524 ;;		On exit  : 0/0
  1525 ;;		Unchanged: 0/0
  1526 ;; Data sizes:     COMRAM   BANK0   BANK1   BANK2   BANK3   BANK4   BANK5   BANK6   BANK7   BANK8   BANK9  BANK10  BANK1
      +1  BANK12  BANK13  BANK14
  1527 ;;      Params:         0       0       0       0       0       0       0       0       0       0       0       0       
      +0       0       0       0
  1528 ;;      Locals:         0       0       0       0       0       0       0       0       0       0       0       0       
      +0       0       0       0
  1529 ;;      Temps:          0       0       0       0       0       0       0       0       0       0       0       0       
      +0       0       0       0
  1530 ;;      Totals:         0       0       0       0       0       0       0       0       0       0       0       0       
      +0       0       0       0
  1531 ;;Total ram usage:        0 bytes
  1532 ;; Hardware stack levels used: 1
  1533 ;; Hardware stack levels required when called: 7
  1534 ;; This function calls:
  1535 ;;		Nothing
  1536 ;; This function is called by:
  1537 ;;		_SYSTEM_Initialize
  1538 ;; This function uses a non-reentrant model
  1539 ;;
  1540                           
  1541                           	psect	text11
  1542  0018C0                     __ptext11:
  1543                           	callstack 0
  1544  0018C0                     _OSCILLATOR_Initialize:
  1545                           	callstack 22
  1546  0018C0                     
  1547                           ;mcc_generated_files/mcc.c: 66:     OSCCON = 0x60;
  1548  0018C0  0E60               	movlw	96
  1549  0018C2  6ED3               	movwf	211,c	;volatile
  1550                           
  1551                           ;mcc_generated_files/mcc.c: 68:     OSCTUNE = 0x00;
  1552  0018C4  0E00               	movlw	0
  1553  0018C6  6E9B               	movwf	155,c	;volatile
  1554                           
  1555                           ;mcc_generated_files/mcc.c: 70:     REFOCON = 0x00;
  1556  0018C8  0E00               	movlw	0
  1557  0018CA  010F               	movlb	15	; () banked
  1558  0018CC  6F3D               	movwf	61,b	;volatile
  1559                           
  1560                           ;mcc_generated_files/mcc.c: 72:     OSCCON2 = 0x14;
  1561  0018CE  0E14               	movlw	20
  1562  0018D0  6E87               	movwf	135,c	;volatile
  1563  0018D2                     
  1564                           ; BSR set to: 15
  1565  0018D2  0012               	return		;funcret
  1566  0018D4                     __end_of_OSCILLATOR_Initialize:
  1567                           	callstack 0
  1568                           
  1569 ;; *************** function _INTERRUPT_Initialize *****************
  1570 ;; Defined at:
  1571 ;;		line 52 in file "mcc_generated_files/interrupt_manager.c"
  1572 ;; Parameters:    Size  Location     Type
  1573 ;;		None
  1574 ;; Auto vars:     Size  Location     Type
  1575 ;;		None
  1576 ;; Return value:  Size  Location     Type
  1577 ;;                  1    wreg      void 
  1578 ;; Registers used:
  1579 ;;		None
  1580 ;; Tracked objects:
  1581 ;;		On entry : 0/0
  1582 ;;		On exit  : 0/0
  1583 ;;		Unchanged: 0/0
  1584 ;; Data sizes:     COMRAM   BANK0   BANK1   BANK2   BANK3   BANK4   BANK5   BANK6   BANK7   BANK8   BANK9  BANK10  BANK1
      +1  BANK12  BANK13  BANK14
  1585 ;;      Params:         0       0       0       0       0       0       0       0       0       0       0       0       
      +0       0       0       0
  1586 ;;      Locals:         0       0       0       0       0       0       0       0       0       0       0       0       
      +0       0       0       0
  1587 ;;      Temps:          0       0       0       0       0       0       0       0       0       0       0       0       
      +0       0       0       0
  1588 ;;      Totals:         0       0       0       0       0       0       0       0       0       0       0       0       
      +0       0       0       0
  1589 ;;Total ram usage:        0 bytes
  1590 ;; Hardware stack levels used: 1
  1591 ;; Hardware stack levels required when called: 7
  1592 ;; This function calls:
  1593 ;;		Nothing
  1594 ;; This function is called by:
  1595 ;;		_SYSTEM_Initialize
  1596 ;; This function uses a non-reentrant model
  1597 ;;
  1598                           
  1599                           	psect	text12
  1600  0019EA                     __ptext12:
  1601                           	callstack 0
  1602  0019EA                     _INTERRUPT_Initialize:
  1603                           	callstack 22
  1604  0019EA                     
  1605                           ;mcc_generated_files/interrupt_manager.c: 55:     RCONbits.IPEN = 0;
  1606  0019EA  9ED0               	bcf	208,7,c	;volatile
  1607  0019EC  0012               	return		;funcret
  1608  0019EE                     __end_of_INTERRUPT_Initialize:
  1609                           	callstack 0
  1610                           
  1611 ;; *************** function _I2C1_Initialize *****************
  1612 ;; Defined at:
  1613 ;;		line 167 in file "mcc_generated_files/i2c1_master.c"
  1614 ;; Parameters:    Size  Location     Type
  1615 ;;		None
  1616 ;; Auto vars:     Size  Location     Type
  1617 ;;		None
  1618 ;; Return value:  Size  Location     Type
  1619 ;;                  1    wreg      void 
  1620 ;; Registers used:
  1621 ;;		wreg, status,2
  1622 ;; Tracked objects:
  1623 ;;		On entry : 0/0
  1624 ;;		On exit  : 0/0
  1625 ;;		Unchanged: 0/0
  1626 ;; Data sizes:     COMRAM   BANK0   BANK1   BANK2   BANK3   BANK4   BANK5   BANK6   BANK7   BANK8   BANK9  BANK10  BANK1
      +1  BANK12  BANK13  BANK14
  1627 ;;      Params:         0       0       0       0       0       0       0       0       0       0       0       0       
      +0       0       0       0
  1628 ;;      Locals:         0       0       0       0       0       0       0       0       0       0       0       0       
      +0       0       0       0
  1629 ;;      Temps:          0       0       0       0       0       0       0       0       0       0       0       0       
      +0       0       0       0
  1630 ;;      Totals:         0       0       0       0       0       0       0       0       0       0       0       0       
      +0       0       0       0
  1631 ;;Total ram usage:        0 bytes
  1632 ;; Hardware stack levels used: 1
  1633 ;; Hardware stack levels required when called: 7
  1634 ;; This function calls:
  1635 ;;		Nothing
  1636 ;; This function is called by:
  1637 ;;		_SYSTEM_Initialize
  1638 ;; This function uses a non-reentrant model
  1639 ;;
  1640                           
  1641                           	psect	text13
  1642  0018D4                     __ptext13:
  1643                           	callstack 0
  1644  0018D4                     _I2C1_Initialize:
  1645                           	callstack 22
  1646  0018D4                     
  1647                           ;mcc_generated_files/i2c1_master.c: 169:     SSP1STAT = 0x80;
  1648  0018D4  0E80               	movlw	128
  1649  0018D6  6EC7               	movwf	199,c	;volatile
  1650                           
  1651                           ;mcc_generated_files/i2c1_master.c: 170:     SSP1CON1 = 0x08;
  1652  0018D8  0E08               	movlw	8
  1653  0018DA  6EC6               	movwf	198,c	;volatile
  1654                           
  1655                           ;mcc_generated_files/i2c1_master.c: 171:     SSP1CON2 = 0x00;
  1656  0018DC  0E00               	movlw	0
  1657  0018DE  6EC5               	movwf	197,c	;volatile
  1658                           
  1659                           ;mcc_generated_files/i2c1_master.c: 172:     SSP1ADD = 0xEF;
  1660  0018E0  0EEF               	movlw	239
  1661  0018E2  6EC8               	movwf	200,c	;volatile
  1662  0018E4                     
  1663                           ;mcc_generated_files/i2c1_master.c: 173:     SSP1CON1bits.SSPEN = 0;
  1664  0018E4  9AC6               	bcf	198,5,c	;volatile
  1665  0018E6  0012               	return		;funcret
  1666  0018E8                     __end_of_I2C1_Initialize:
  1667                           	callstack 0
  1668                           
  1669 ;; *************** function _EUSART2_Initialize *****************
  1670 ;; Defined at:
  1671 ;;		line 88 in file "mcc_generated_files/eusart2.c"
  1672 ;; Parameters:    Size  Location     Type
  1673 ;;		None
  1674 ;; Auto vars:     Size  Location     Type
  1675 ;;		None
  1676 ;; Return value:  Size  Location     Type
  1677 ;;                  1    wreg      void 
  1678 ;; Registers used:
  1679 ;;		wreg, status,2, status,0, cstack
  1680 ;; Tracked objects:
  1681 ;;		On entry : 0/0
  1682 ;;		On exit  : 0/0
  1683 ;;		Unchanged: 0/0
  1684 ;; Data sizes:     COMRAM   BANK0   BANK1   BANK2   BANK3   BANK4   BANK5   BANK6   BANK7   BANK8   BANK9  BANK10  BANK1
      +1  BANK12  BANK13  BANK14
  1685 ;;      Params:         0       0       0       0       0       0       0       0       0       0       0       0       
      +0       0       0       0
  1686 ;;      Locals:         0       0       0       0       0       0       0       0       0       0       0       0       
      +0       0       0       0
  1687 ;;      Temps:          0       0       0       0       0       0       0       0       0       0       0       0       
      +0       0       0       0
  1688 ;;      Totals:         0       0       0       0       0       0       0       0       0       0       0       0       
      +0       0       0       0
  1689 ;;Total ram usage:        0 bytes
  1690 ;; Hardware stack levels used: 1
  1691 ;; Hardware stack levels required when called: 8
  1692 ;; This function calls:
  1693 ;;		_EUSART2_SetErrorHandler
  1694 ;;		_EUSART2_SetFramingErrorHandler
  1695 ;;		_EUSART2_SetOverrunErrorHandler
  1696 ;;		_EUSART2_SetRxInterruptHandler
  1697 ;;		_EUSART2_SetTxInterruptHandler
  1698 ;; This function is called by:
  1699 ;;		_SYSTEM_Initialize
  1700 ;; This function uses a non-reentrant model
  1701 ;;
  1702                           
  1703                           	psect	text14
  1704  0013DA                     __ptext14:
  1705                           	callstack 0
  1706  0013DA                     _EUSART2_Initialize:
  1707                           	callstack 21
  1708  0013DA                     
  1709                           ;mcc_generated_files/eusart2.c: 91:     PIE3bits.RC2IE = 0;
  1710  0013DA  9AA3               	bcf	163,5,c	;volatile
  1711  0013DC                     
  1712                           ;mcc_generated_files/eusart2.c: 92:     EUSART2_SetRxInterruptHandler(EUSART2_Receive_IS
      +                          R);
  1713  0013DC  0EE0               	movlw	low _EUSART2_Receive_ISR
  1714  0013DE  6E3A               	movwf	EUSART2_SetRxInterruptHandler@interruptHandler^0,c
  1715  0013E0  0E10               	movlw	high _EUSART2_Receive_ISR
  1716  0013E2  6E3B               	movwf	(EUSART2_SetRxInterruptHandler@interruptHandler+1)^0,c
  1717  0013E4  ECB2  F00C         	call	_EUSART2_SetRxInterruptHandler	;wreg free
  1718  0013E8                     
  1719                           ;mcc_generated_files/eusart2.c: 93:     PIE3bits.TX2IE = 0;
  1720  0013E8  98A3               	bcf	163,4,c	;volatile
  1721                           
  1722                           ;mcc_generated_files/eusart2.c: 94:     EUSART2_SetTxInterruptHandler(EUSART2_Transmit_I
      +                          SR);
  1723  0013EA  0E76               	movlw	low _EUSART2_Transmit_ISR
  1724  0013EC  6E3A               	movwf	EUSART2_SetTxInterruptHandler@interruptHandler^0,c
  1725  0013EE  0E16               	movlw	high _EUSART2_Transmit_ISR
  1726  0013F0  6E3B               	movwf	(EUSART2_SetTxInterruptHandler@interruptHandler+1)^0,c
  1727  0013F2  ECAD  F00C         	call	_EUSART2_SetTxInterruptHandler	;wreg free
  1728  0013F6                     
  1729                           ;mcc_generated_files/eusart2.c: 98:     BAUDCON2 = 0x08;
  1730  0013F6  0E08               	movlw	8
  1731  0013F8  6E7C               	movwf	124,c	;volatile
  1732  0013FA                     
  1733                           ;mcc_generated_files/eusart2.c: 101:     RCSTA2 = 0x90;
  1734  0013FA  0E90               	movlw	144
  1735  0013FC  6E9C               	movwf	156,c	;volatile
  1736  0013FE                     
  1737                           ;mcc_generated_files/eusart2.c: 104:     TXSTA2 = 0x24;
  1738  0013FE  0E24               	movlw	36
  1739  001400  6EA8               	movwf	168,c	;volatile
  1740  001402                     
  1741                           ;mcc_generated_files/eusart2.c: 107:     SPBRG2 = 0x0F;
  1742  001402  0E0F               	movlw	15
  1743  001404  6EAB               	movwf	171,c	;volatile
  1744  001406                     
  1745                           ;mcc_generated_files/eusart2.c: 110:     SPBRGH2 = 0x27;
  1746  001406  0E27               	movlw	39
  1747  001408  6E7D               	movwf	125,c	;volatile
  1748  00140A                     
  1749                           ;mcc_generated_files/eusart2.c: 113:     EUSART2_SetFramingErrorHandler(EUSART2_DefaultF
      +                          ramingErrorHandler);
  1750  00140A  0E0E               	movlw	low _EUSART2_DefaultFramingErrorHandler
  1751  00140C  6E3A               	movwf	EUSART2_SetFramingErrorHandler@interruptHandler^0,c
  1752  00140E  0E1A               	movlw	high _EUSART2_DefaultFramingErrorHandler
  1753  001410  6E3B               	movwf	(EUSART2_SetFramingErrorHandler@interruptHandler+1)^0,c
  1754  001412  ECBC  F00C         	call	_EUSART2_SetFramingErrorHandler	;wreg free
  1755  001416                     
  1756                           ;mcc_generated_files/eusart2.c: 114:     EUSART2_SetOverrunErrorHandler(EUSART2_DefaultO
      +                          verrunErrorHandler);
  1757  001416  0EDE               	movlw	low _EUSART2_DefaultOverrunErrorHandler
  1758  001418  6E3A               	movwf	EUSART2_SetOverrunErrorHandler@interruptHandler^0,c
  1759  00141A  0E19               	movlw	high _EUSART2_DefaultOverrunErrorHandler
  1760  00141C  6E3B               	movwf	(EUSART2_SetOverrunErrorHandler@interruptHandler+1)^0,c
  1761  00141E  ECB7  F00C         	call	_EUSART2_SetOverrunErrorHandler	;wreg free
  1762  001422                     
  1763                           ;mcc_generated_files/eusart2.c: 115:     EUSART2_SetErrorHandler(EUSART2_DefaultErrorHan
      +                          dler);
  1764  001422  0EE4               	movlw	low _EUSART2_DefaultErrorHandler
  1765  001424  6E3A               	movwf	EUSART2_SetErrorHandler@interruptHandler^0,c
  1766  001426  0E19               	movlw	high _EUSART2_DefaultErrorHandler
  1767  001428  6E3B               	movwf	(EUSART2_SetErrorHandler@interruptHandler+1)^0,c
  1768  00142A  ECC1  F00C         	call	_EUSART2_SetErrorHandler	;wreg free
  1769                           
  1770                           ;mcc_generated_files/eusart2.c: 117:     eusart2RxLastError.status = 0;
  1771  00142E  0E00               	movlw	0
  1772  001430  6E1D               	movwf	_eusart2RxLastError^0,c	;volatile
  1773                           
  1774                           ;mcc_generated_files/eusart2.c: 120:     eusart2TxHead = 0;
  1775  001432  0E00               	movlw	0
  1776  001434  6E22               	movwf	_eusart2TxHead^0,c	;volatile
  1777                           
  1778                           ;mcc_generated_files/eusart2.c: 121:     eusart2TxTail = 0;
  1779  001436  0E00               	movlw	0
  1780  001438  6E21               	movwf	_eusart2TxTail^0,c	;volatile
  1781                           
  1782                           ;mcc_generated_files/eusart2.c: 122:     eusart2TxBufferRemaining = sizeof(eusart2TxBuff
      +                          er);
  1783  00143A  0E08               	movlw	8
  1784  00143C  6E47               	movwf	_eusart2TxBufferRemaining^0,c	;volatile
  1785                           
  1786                           ;mcc_generated_files/eusart2.c: 124:     eusart2RxHead = 0;
  1787  00143E  0E00               	movlw	0
  1788  001440  6E20               	movwf	_eusart2RxHead^0,c	;volatile
  1789                           
  1790                           ;mcc_generated_files/eusart2.c: 125:     eusart2RxTail = 0;
  1791  001442  0E00               	movlw	0
  1792  001444  6E1F               	movwf	_eusart2RxTail^0,c	;volatile
  1793                           
  1794                           ;mcc_generated_files/eusart2.c: 126:     eusart2RxCount = 0;
  1795  001446  0E00               	movlw	0
  1796  001448  6E1E               	movwf	_eusart2RxCount^0,c	;volatile
  1797  00144A                     
  1798                           ;mcc_generated_files/eusart2.c: 129:     PIE3bits.RC2IE = 1;
  1799  00144A  8AA3               	bsf	163,5,c	;volatile
  1800  00144C  0012               	return		;funcret
  1801  00144E                     __end_of_EUSART2_Initialize:
  1802                           	callstack 0
  1803                           
  1804 ;; *************** function _EUSART2_SetTxInterruptHandler *****************
  1805 ;; Defined at:
  1806 ;;		line 285 in file "mcc_generated_files/eusart2.c"
  1807 ;; Parameters:    Size  Location     Type
  1808 ;;  interruptHan    2   23[COMRAM] PTR FTN()void 
  1809 ;;		 -> EUSART2_Transmit_ISR(1), 
  1810 ;; Auto vars:     Size  Location     Type
  1811 ;;		None
  1812 ;; Return value:  Size  Location     Type
  1813 ;;                  1    wreg      void 
  1814 ;; Registers used:
  1815 ;;		wreg, status,2, status,0
  1816 ;; Tracked objects:
  1817 ;;		On entry : 0/0
  1818 ;;		On exit  : 0/0
  1819 ;;		Unchanged: 0/0
  1820 ;; Data sizes:     COMRAM   BANK0   BANK1   BANK2   BANK3   BANK4   BANK5   BANK6   BANK7   BANK8   BANK9  BANK10  BANK1
      +1  BANK12  BANK13  BANK14
  1821 ;;      Params:         2       0       0       0       0       0       0       0       0       0       0       0       
      +0       0       0       0
  1822 ;;      Locals:         0       0       0       0       0       0       0       0       0       0       0       0       
      +0       0       0       0
  1823 ;;      Temps:          0       0       0       0       0       0       0       0       0       0       0       0       
      +0       0       0       0
  1824 ;;      Totals:         2       0       0       0       0       0       0       0       0       0       0       0       
      +0       0       0       0
  1825 ;;Total ram usage:        2 bytes
  1826 ;; Hardware stack levels used: 1
  1827 ;; Hardware stack levels required when called: 7
  1828 ;; This function calls:
  1829 ;;		Nothing
  1830 ;; This function is called by:
  1831 ;;		_EUSART2_Initialize
  1832 ;; This function uses a non-reentrant model
  1833 ;;
  1834                           
  1835                           	psect	text15
  1836  00195A                     __ptext15:
  1837                           	callstack 0
  1838  00195A                     _EUSART2_SetTxInterruptHandler:
  1839                           	callstack 21
  1840  00195A                     
  1841                           ;mcc_generated_files/eusart2.c: 286:     EUSART2_TxDefaultInterruptHandler = interruptHa
      +                          ndler;
  1842  00195A  C03A  F045         	movff	EUSART2_SetTxInterruptHandler@interruptHandler,_EUSART2_TxDefaultInterruptHandler
  1843  00195E  C03B  F046         	movff	EUSART2_SetTxInterruptHandler@interruptHandler+1,_EUSART2_TxDefaultInterruptHandl
      +                          er+1
  1844  001962  0012               	return		;funcret
  1845  001964                     __end_of_EUSART2_SetTxInterruptHandler:
  1846                           	callstack 0
  1847                           
  1848 ;; *************** function _EUSART2_SetRxInterruptHandler *****************
  1849 ;; Defined at:
  1850 ;;		line 289 in file "mcc_generated_files/eusart2.c"
  1851 ;; Parameters:    Size  Location     Type
  1852 ;;  interruptHan    2   23[COMRAM] PTR FTN()void 
  1853 ;;		 -> EUSART2_Receive_ISR(1), 
  1854 ;; Auto vars:     Size  Location     Type
  1855 ;;		None
  1856 ;; Return value:  Size  Location     Type
  1857 ;;                  1    wreg      void 
  1858 ;; Registers used:
  1859 ;;		wreg, status,2, status,0
  1860 ;; Tracked objects:
  1861 ;;		On entry : 0/0
  1862 ;;		On exit  : 0/0
  1863 ;;		Unchanged: 0/0
  1864 ;; Data sizes:     COMRAM   BANK0   BANK1   BANK2   BANK3   BANK4   BANK5   BANK6   BANK7   BANK8   BANK9  BANK10  BANK1
      +1  BANK12  BANK13  BANK14
  1865 ;;      Params:         2       0       0       0       0       0       0       0       0       0       0       0       
      +0       0       0       0
  1866 ;;      Locals:         0       0       0       0       0       0       0       0       0       0       0       0       
      +0       0       0       0
  1867 ;;      Temps:          0       0       0       0       0       0       0       0       0       0       0       0       
      +0       0       0       0
  1868 ;;      Totals:         2       0       0       0       0       0       0       0       0       0       0       0       
      +0       0       0       0
  1869 ;;Total ram usage:        2 bytes
  1870 ;; Hardware stack levels used: 1
  1871 ;; Hardware stack levels required when called: 7
  1872 ;; This function calls:
  1873 ;;		Nothing
  1874 ;; This function is called by:
  1875 ;;		_EUSART2_Initialize
  1876 ;; This function uses a non-reentrant model
  1877 ;;
  1878                           
  1879                           	psect	text16
  1880  001964                     __ptext16:
  1881                           	callstack 0
  1882  001964                     _EUSART2_SetRxInterruptHandler:
  1883                           	callstack 21
  1884  001964                     
  1885                           ;mcc_generated_files/eusart2.c: 290:     EUSART2_RxDefaultInterruptHandler = interruptHa
      +                          ndler;
  1886  001964  C03A  F0C9         	movff	EUSART2_SetRxInterruptHandler@interruptHandler,_EUSART2_RxDefaultInterruptHandler
  1887  001968  C03B  F0CA         	movff	EUSART2_SetRxInterruptHandler@interruptHandler+1,_EUSART2_RxDefaultInterruptHandl
      +                          er+1
  1888  00196C  0012               	return		;funcret
  1889  00196E                     __end_of_EUSART2_SetRxInterruptHandler:
  1890                           	callstack 0
  1891                           
  1892 ;; *************** function _EUSART2_SetOverrunErrorHandler *****************
  1893 ;; Defined at:
  1894 ;;		line 277 in file "mcc_generated_files/eusart2.c"
  1895 ;; Parameters:    Size  Location     Type
  1896 ;;  interruptHan    2   23[COMRAM] PTR FTN()void 
  1897 ;;		 -> EUSART2_DefaultOverrunErrorHandler(1), 
  1898 ;; Auto vars:     Size  Location     Type
  1899 ;;		None
  1900 ;; Return value:  Size  Location     Type
  1901 ;;                  1    wreg      void 
  1902 ;; Registers used:
  1903 ;;		wreg, status,2, status,0
  1904 ;; Tracked objects:
  1905 ;;		On entry : 0/0
  1906 ;;		On exit  : 0/0
  1907 ;;		Unchanged: 0/0
  1908 ;; Data sizes:     COMRAM   BANK0   BANK1   BANK2   BANK3   BANK4   BANK5   BANK6   BANK7   BANK8   BANK9  BANK10  BANK1
      +1  BANK12  BANK13  BANK14
  1909 ;;      Params:         2       0       0       0       0       0       0       0       0       0       0       0       
      +0       0       0       0
  1910 ;;      Locals:         0       0       0       0       0       0       0       0       0       0       0       0       
      +0       0       0       0
  1911 ;;      Temps:          0       0       0       0       0       0       0       0       0       0       0       0       
      +0       0       0       0
  1912 ;;      Totals:         2       0       0       0       0       0       0       0       0       0       0       0       
      +0       0       0       0
  1913 ;;Total ram usage:        2 bytes
  1914 ;; Hardware stack levels used: 1
  1915 ;; Hardware stack levels required when called: 7
  1916 ;; This function calls:
  1917 ;;		Nothing
  1918 ;; This function is called by:
  1919 ;;		_EUSART2_Initialize
  1920 ;; This function uses a non-reentrant model
  1921 ;;
  1922                           
  1923                           	psect	text17
  1924  00196E                     __ptext17:
  1925                           	callstack 0
  1926  00196E                     _EUSART2_SetOverrunErrorHandler:
  1927                           	callstack 21
  1928  00196E                     
  1929                           ;mcc_generated_files/eusart2.c: 278:     EUSART2_OverrunErrorHandler = interruptHandler;
  1930  00196E  C03A  F0C5         	movff	EUSART2_SetOverrunErrorHandler@interruptHandler,_EUSART2_OverrunErrorHandler
  1931  001972  C03B  F0C6         	movff	EUSART2_SetOverrunErrorHandler@interruptHandler+1,_EUSART2_OverrunErrorHandler+1
  1932  001976  0012               	return		;funcret
  1933  001978                     __end_of_EUSART2_SetOverrunErrorHandler:
  1934                           	callstack 0
  1935                           
  1936 ;; *************** function _EUSART2_SetFramingErrorHandler *****************
  1937 ;; Defined at:
  1938 ;;		line 273 in file "mcc_generated_files/eusart2.c"
  1939 ;; Parameters:    Size  Location     Type
  1940 ;;  interruptHan    2   23[COMRAM] PTR FTN()void 
  1941 ;;		 -> EUSART2_DefaultFramingErrorHandler(1), 
  1942 ;; Auto vars:     Size  Location     Type
  1943 ;;		None
  1944 ;; Return value:  Size  Location     Type
  1945 ;;                  1    wreg      void 
  1946 ;; Registers used:
  1947 ;;		wreg, status,2, status,0
  1948 ;; Tracked objects:
  1949 ;;		On entry : 0/0
  1950 ;;		On exit  : 0/0
  1951 ;;		Unchanged: 0/0
  1952 ;; Data sizes:     COMRAM   BANK0   BANK1   BANK2   BANK3   BANK4   BANK5   BANK6   BANK7   BANK8   BANK9  BANK10  BANK1
      +1  BANK12  BANK13  BANK14
  1953 ;;      Params:         2       0       0       0       0       0       0       0       0       0       0       0       
      +0       0       0       0
  1954 ;;      Locals:         0       0       0       0       0       0       0       0       0       0       0       0       
      +0       0       0       0
  1955 ;;      Temps:          0       0       0       0       0       0       0       0       0       0       0       0       
      +0       0       0       0
  1956 ;;      Totals:         2       0       0       0       0       0       0       0       0       0       0       0       
      +0       0       0       0
  1957 ;;Total ram usage:        2 bytes
  1958 ;; Hardware stack levels used: 1
  1959 ;; Hardware stack levels required when called: 7
  1960 ;; This function calls:
  1961 ;;		Nothing
  1962 ;; This function is called by:
  1963 ;;		_EUSART2_Initialize
  1964 ;; This function uses a non-reentrant model
  1965 ;;
  1966                           
  1967                           	psect	text18
  1968  001978                     __ptext18:
  1969                           	callstack 0
  1970  001978                     _EUSART2_SetFramingErrorHandler:
  1971                           	callstack 21
  1972  001978                     
  1973                           ;mcc_generated_files/eusart2.c: 274:     EUSART2_FramingErrorHandler = interruptHandler;
  1974  001978  C03A  F0C7         	movff	EUSART2_SetFramingErrorHandler@interruptHandler,_EUSART2_FramingErrorHandler
  1975  00197C  C03B  F0C8         	movff	EUSART2_SetFramingErrorHandler@interruptHandler+1,_EUSART2_FramingErrorHandler+1
  1976  001980  0012               	return		;funcret
  1977  001982                     __end_of_EUSART2_SetFramingErrorHandler:
  1978                           	callstack 0
  1979                           
  1980 ;; *************** function _EUSART2_SetErrorHandler *****************
  1981 ;; Defined at:
  1982 ;;		line 281 in file "mcc_generated_files/eusart2.c"
  1983 ;; Parameters:    Size  Location     Type
  1984 ;;  interruptHan    2   23[COMRAM] PTR FTN()void 
  1985 ;;		 -> EUSART2_DefaultErrorHandler(1), 
  1986 ;; Auto vars:     Size  Location     Type
  1987 ;;		None
  1988 ;; Return value:  Size  Location     Type
  1989 ;;                  1    wreg      void 
  1990 ;; Registers used:
  1991 ;;		wreg, status,2, status,0
  1992 ;; Tracked objects:
  1993 ;;		On entry : 0/0
  1994 ;;		On exit  : 0/0
  1995 ;;		Unchanged: 0/0
  1996 ;; Data sizes:     COMRAM   BANK0   BANK1   BANK2   BANK3   BANK4   BANK5   BANK6   BANK7   BANK8   BANK9  BANK10  BANK1
      +1  BANK12  BANK13  BANK14
  1997 ;;      Params:         2       0       0       0       0       0       0       0       0       0       0       0       
      +0       0       0       0
  1998 ;;      Locals:         0       0       0       0       0       0       0       0       0       0       0       0       
      +0       0       0       0
  1999 ;;      Temps:          0       0       0       0       0       0       0       0       0       0       0       0       
      +0       0       0       0
  2000 ;;      Totals:         2       0       0       0       0       0       0       0       0       0       0       0       
      +0       0       0       0
  2001 ;;Total ram usage:        2 bytes
  2002 ;; Hardware stack levels used: 1
  2003 ;; Hardware stack levels required when called: 7
  2004 ;; This function calls:
  2005 ;;		Nothing
  2006 ;; This function is called by:
  2007 ;;		_EUSART2_Initialize
  2008 ;; This function uses a non-reentrant model
  2009 ;;
  2010                           
  2011                           	psect	text19
  2012  001982                     __ptext19:
  2013                           	callstack 0
  2014  001982                     _EUSART2_SetErrorHandler:
  2015                           	callstack 21
  2016  001982                     
  2017                           ;mcc_generated_files/eusart2.c: 282:     EUSART2_ErrorHandler = interruptHandler;
  2018  001982  C03A  F0C3         	movff	EUSART2_SetErrorHandler@interruptHandler,_EUSART2_ErrorHandler
  2019  001986  C03B  F0C4         	movff	EUSART2_SetErrorHandler@interruptHandler+1,_EUSART2_ErrorHandler+1
  2020  00198A  0012               	return		;funcret
  2021  00198C                     __end_of_EUSART2_SetErrorHandler:
  2022                           	callstack 0
  2023                           
  2024 ;; *************** function _ADC_Initialize *****************
  2025 ;; Defined at:
  2026 ;;		line 61 in file "mcc_generated_files/adc.c"
  2027 ;; Parameters:    Size  Location     Type
  2028 ;;		None
  2029 ;; Auto vars:     Size  Location     Type
  2030 ;;		None
  2031 ;; Return value:  Size  Location     Type
  2032 ;;                  1    wreg      void 
  2033 ;; Registers used:
  2034 ;;		wreg, status,2
  2035 ;; Tracked objects:
  2036 ;;		On entry : 0/0
  2037 ;;		On exit  : 0/0
  2038 ;;		Unchanged: 0/0
  2039 ;; Data sizes:     COMRAM   BANK0   BANK1   BANK2   BANK3   BANK4   BANK5   BANK6   BANK7   BANK8   BANK9  BANK10  BANK1
      +1  BANK12  BANK13  BANK14
  2040 ;;      Params:         0       0       0       0       0       0       0       0       0       0       0       0       
      +0       0       0       0
  2041 ;;      Locals:         0       0       0       0       0       0       0       0       0       0       0       0       
      +0       0       0       0
  2042 ;;      Temps:          0       0       0       0       0       0       0       0       0       0       0       0       
      +0       0       0       0
  2043 ;;      Totals:         0       0       0       0       0       0       0       0       0       0       0       0       
      +0       0       0       0
  2044 ;;Total ram usage:        0 bytes
  2045 ;; Hardware stack levels used: 1
  2046 ;; Hardware stack levels required when called: 7
  2047 ;; This function calls:
  2048 ;;		Nothing
  2049 ;; This function is called by:
  2050 ;;		_SYSTEM_Initialize
  2051 ;; This function uses a non-reentrant model
  2052 ;;
  2053                           
  2054                           	psect	text20
  2055  00188A                     __ptext20:
  2056                           	callstack 0
  2057  00188A                     _ADC_Initialize:
  2058                           	callstack 22
  2059  00188A                     
  2060                           ;mcc_generated_files/adc.c: 66:     ADCON1 = 0x01;
  2061  00188A  0E01               	movlw	1
  2062  00188C  6EC1               	movwf	193,c	;volatile
  2063                           
  2064                           ;mcc_generated_files/adc.c: 69:     ADCTRIG = 0x02;
  2065  00188E  0E02               	movlw	2
  2066  001890  010E               	movlb	14	; () banked
  2067  001892  6FB8               	movwf	184,b	;volatile
  2068                           
  2069                           ;mcc_generated_files/adc.c: 72:     ANCON1 = 0x00;
  2070  001894  0E00               	movlw	0
  2071  001896  010F               	movlb	15	; () banked
  2072  001898  6F49               	movwf	73,b	;volatile
  2073                           
  2074                           ;mcc_generated_files/adc.c: 75:     ADRESL = 0x00;
  2075  00189A  0E00               	movlw	0
  2076  00189C  6EC3               	movwf	195,c	;volatile
  2077                           
  2078                           ;mcc_generated_files/adc.c: 78:     ADRESH = 0x00;
  2079  00189E  0E00               	movlw	0
  2080  0018A0  6EC4               	movwf	196,c	;volatile
  2081                           
  2082                           ;mcc_generated_files/adc.c: 81:     ADCON0 = 0x01;
  2083  0018A2  0E01               	movlw	1
  2084  0018A4  6EC2               	movwf	194,c	;volatile
  2085  0018A6                     
  2086                           ; BSR set to: 15
  2087  0018A6  0012               	return		;funcret
  2088  0018A8                     __end_of_ADC_Initialize:
  2089                           	callstack 0
  2090                           
  2091 ;; *************** function _INTERRUPT_InterruptManager *****************
  2092 ;; Defined at:
  2093 ;;		line 58 in file "mcc_generated_files/interrupt_manager.c"
  2094 ;; Parameters:    Size  Location     Type
  2095 ;;		None
  2096 ;; Auto vars:     Size  Location     Type
  2097 ;;		None
  2098 ;; Return value:  Size  Location     Type
  2099 ;;                  1    wreg      void 
  2100 ;; Registers used:
  2101 ;;		wreg, fsr2l, fsr2h, status,2, status,0, pcl, pclath, pclatu, tosl, tblptrl, tblptrh, tblptru, prodl, prodh, cstack
  2102 ;; Tracked objects:
  2103 ;;		On entry : 0/0
  2104 ;;		On exit  : 0/0
  2105 ;;		Unchanged: 0/0
  2106 ;; Data sizes:     COMRAM   BANK0   BANK1   BANK2   BANK3   BANK4   BANK5   BANK6   BANK7   BANK8   BANK9  BANK10  BANK1
      +1  BANK12  BANK13  BANK14
  2107 ;;      Params:         0       0       0       0       0       0       0       0       0       0       0       0       
      +0       0       0       0
  2108 ;;      Locals:         0       0       0       0       0       0       0       0       0       0       0       0       
      +0       0       0       0
  2109 ;;      Temps:         10       0       0       0       0       0       0       0       0       0       0       0       
      +0       0       0       0
  2110 ;;      Totals:        10       0       0       0       0       0       0       0       0       0       0       0       
      +0       0       0       0
  2111 ;;Total ram usage:       10 bytes
  2112 ;; Hardware stack levels used: 1
  2113 ;; Hardware stack levels required when called: 6
  2114 ;; This function calls:
  2115 ;;		Absolute function
  2116 ;;		_EUSART2_Receive_ISR
  2117 ;;		_EUSART2_Transmit_ISR
  2118 ;;		_I2C1_MasterIsr
  2119 ;; This function is called by:
  2120 ;;		Interrupt level 2
  2121 ;; This function uses a non-reentrant model
  2122 ;;
  2123                           
  2124                           	psect	intcode
  2125  000008                     __pintcode:
  2126                           	callstack 0
  2127  000008                     _INTERRUPT_InterruptManager:
  2128                           	callstack 18
  2129                           
  2130                           ; BSR set to: 15
  2131                           ;incstack = 0
  2132  000008  8248               	bsf	int$flags,1,c	;set compiler interrupt flag (level 2)
  2133  00000A  CFFA F030          	movff	pclath,??_INTERRUPT_InterruptManager
  2134  00000E  CFFB F031          	movff	pclatu,??_INTERRUPT_InterruptManager+1
  2135  000012  CFD9 F032          	movff	fsr2l,??_INTERRUPT_InterruptManager+2
  2136  000016  CFDA F033          	movff	fsr2h,??_INTERRUPT_InterruptManager+3
  2137  00001A  CFF3 F034          	movff	prodl,??_INTERRUPT_InterruptManager+4
  2138  00001E  CFF4 F035          	movff	prodh,??_INTERRUPT_InterruptManager+5
  2139  000022  CFF6 F036          	movff	tblptrl,??_INTERRUPT_InterruptManager+6
  2140  000026  CFF7 F037          	movff	tblptrh,??_INTERRUPT_InterruptManager+7
  2141  00002A  CFF8 F038          	movff	tblptru,??_INTERRUPT_InterruptManager+8
  2142  00002E  CFF5 F039          	movff	tablat,??_INTERRUPT_InterruptManager+9
  2143  000032                     
  2144                           ;mcc_generated_files/interrupt_manager.c: 61:     if(INTCONbits.PEIE == 1)
  2145  000032  ACF2               	btfss	242,6,c	;volatile
  2146  000034  EF1E  F000         	goto	i2u125_41
  2147  000038  EF20  F000         	goto	i2u125_40
  2148  00003C                     i2u125_41:
  2149  00003C  EF88  F000         	goto	i2l733
  2150  000040                     i2u125_40:
  2151  000040                     
  2152                           ;mcc_generated_files/interrupt_manager.c: 62:     {;mcc_generated_files/interrupt_manage
      +                          r.c: 63:         if(PIE3bits.TX2IE == 1 && PIR3bits.TX2IF == 1)
  2153  000040  A8A3               	btfss	163,4,c	;volatile
  2154  000042  EF25  F000         	goto	i2u126_41
  2155  000046  EF27  F000         	goto	i2u126_40
  2156  00004A                     i2u126_41:
  2157  00004A  EF3D  F000         	goto	i2l724
  2158  00004E                     i2u126_40:
  2159  00004E  A8A4               	btfss	164,4,c	;volatile
  2160  000050  EF2C  F000         	goto	i2u127_41
  2161  000054  EF2E  F000         	goto	i2u127_40
  2162  000058                     i2u127_41:
  2163  000058  EF3D  F000         	goto	i2l724
  2164  00005C                     i2u127_40:
  2165  00005C                     
  2166                           ;mcc_generated_files/interrupt_manager.c: 64:         {;mcc_generated_files/interrupt_ma
      +                          nager.c: 65:             EUSART2_TxDefaultInterruptHandler();
  2167  00005C  D802               	call	i2u128_48
  2168  00005E  EF3B  F000         	goto	i2u128_49
  2169  000062                     i2u128_48:
  2170  000062  0005               	push	
  2171  000064  6EFA               	movwf	pclath,c
  2172  000066  5045               	movf	_EUSART2_TxDefaultInterruptHandler^0,w,c
  2173  000068  6EFD               	movwf	tosl,c
  2174  00006A  5046               	movf	(_EUSART2_TxDefaultInterruptHandler+1)^0,w,c
  2175  00006C  6EFE               	movwf	tosh,c
  2176  00006E  50F8               	movf	tblptru,w,c
  2177  000070  6EFF               	movwf	tosu,c
  2178  000072  50FA               	movf	pclath,w,c
  2179  000074  0012               	return		;indir
  2180  000076                     i2u128_49:
  2181                           
  2182                           ;mcc_generated_files/interrupt_manager.c: 66:         }
  2183  000076  EF88  F000         	goto	i2l733
  2184  00007A                     i2l724:
  2185  00007A  AAA3               	btfss	163,5,c	;volatile
  2186  00007C  EF42  F000         	goto	i2u129_41
  2187  000080  EF44  F000         	goto	i2u129_40
  2188  000084                     i2u129_41:
  2189  000084  EF5B  F000         	goto	i2l726
  2190  000088                     i2u129_40:
  2191  000088  AAA4               	btfss	164,5,c	;volatile
  2192  00008A  EF49  F000         	goto	i2u130_41
  2193  00008E  EF4B  F000         	goto	i2u130_40
  2194  000092                     i2u130_41:
  2195  000092  EF5B  F000         	goto	i2l726
  2196  000096                     i2u130_40:
  2197  000096                     
  2198                           ;mcc_generated_files/interrupt_manager.c: 68:         {;mcc_generated_files/interrupt_ma
      +                          nager.c: 69:             EUSART2_RxDefaultInterruptHandler();
  2199  000096  D802               	call	i2u131_48
  2200  000098  EF59  F000         	goto	i2u131_49
  2201  00009C                     i2u131_48:
  2202  00009C  0005               	push	
  2203  00009E  0100               	movlb	0	; () banked
  2204  0000A0  6EFA               	movwf	pclath,c
  2205  0000A2  51C9               	movf	_EUSART2_RxDefaultInterruptHandler& (0+255),w,b
  2206  0000A4  6EFD               	movwf	tosl,c
  2207  0000A6  51CA               	movf	(_EUSART2_RxDefaultInterruptHandler+1)& (0+255),w,b
  2208  0000A8  6EFE               	movwf	tosh,c
  2209  0000AA  50F8               	movf	tblptru,w,c
  2210  0000AC  6EFF               	movwf	tosu,c
  2211  0000AE  50FA               	movf	pclath,w,c
  2212  0000B0  0012               	return		;indir
  2213  0000B2                     i2u131_49:
  2214                           
  2215                           ;mcc_generated_files/interrupt_manager.c: 70:         }
  2216  0000B2  EF88  F000         	goto	i2l733
  2217  0000B6                     i2l726:
  2218  0000B6  A6A0               	btfss	160,3,c	;volatile
  2219  0000B8  EF60  F000         	goto	i2u132_41
  2220  0000BC  EF62  F000         	goto	i2u132_40
  2221  0000C0                     i2u132_41:
  2222  0000C0  EF78  F000         	goto	i2l728
  2223  0000C4                     i2u132_40:
  2224  0000C4  A6A1               	btfss	161,3,c	;volatile
  2225  0000C6  EF67  F000         	goto	i2u133_41
  2226  0000CA  EF69  F000         	goto	i2u133_40
  2227  0000CE                     i2u133_41:
  2228  0000CE  EF78  F000         	goto	i2l728
  2229  0000D2                     i2u133_40:
  2230  0000D2                     i2l3338:
  2231                           
  2232                           ;mcc_generated_files/interrupt_manager.c: 72:         {;mcc_generated_files/interrupt_ma
      +                          nager.c: 73:             MSSP1_InterruptHandler();
  2233  0000D2  D802               	call	i2u134_48
  2234  0000D4  EF76  F000         	goto	i2u134_49
  2235  0000D8                     i2u134_48:
  2236  0000D8  0005               	push	
  2237  0000DA  6EFA               	movwf	pclath,c
  2238  0000DC  501B               	movf	_MSSP1_InterruptHandler^0,w,c
  2239  0000DE  6EFD               	movwf	tosl,c
  2240  0000E0  501C               	movf	(_MSSP1_InterruptHandler+1)^0,w,c
  2241  0000E2  6EFE               	movwf	tosh,c
  2242  0000E4  50F8               	movf	tblptru,w,c
  2243  0000E6  6EFF               	movwf	tosu,c
  2244  0000E8  50FA               	movf	pclath,w,c
  2245  0000EA  0012               	return		;indir
  2246  0000EC                     i2u134_49:
  2247                           
  2248                           ;mcc_generated_files/interrupt_manager.c: 74:         }
  2249  0000EC  EF88  F000         	goto	i2l733
  2250  0000F0                     i2l728:
  2251  0000F0  A69D               	btfss	157,3,c	;volatile
  2252  0000F2  EF7D  F000         	goto	i2u135_41
  2253  0000F6  EF7F  F000         	goto	i2u135_40
  2254  0000FA                     i2u135_41:
  2255  0000FA  EF88  F000         	goto	i2l727
  2256  0000FE                     i2u135_40:
  2257  0000FE  A69E               	btfss	158,3,c	;volatile
  2258  000100  EF84  F000         	goto	i2u136_41
  2259  000104  EF86  F000         	goto	i2u136_40
  2260  000108                     i2u136_41:
  2261  000108  EF88  F000         	goto	i2l727
  2262  00010C                     i2u136_40:
  2263  00010C  EF69  F000         	goto	i2l3338
  2264  000110                     i2l727:
  2265  000110                     i2l733:
  2266  000110  C039  FFF5         	movff	??_INTERRUPT_InterruptManager+9,tablat
  2267  000114  C038  FFF8         	movff	??_INTERRUPT_InterruptManager+8,tblptru
  2268  000118  C037  FFF7         	movff	??_INTERRUPT_InterruptManager+7,tblptrh
  2269  00011C  C036  FFF6         	movff	??_INTERRUPT_InterruptManager+6,tblptrl
  2270  000120  C035  FFF4         	movff	??_INTERRUPT_InterruptManager+5,prodh
  2271  000124  C034  FFF3         	movff	??_INTERRUPT_InterruptManager+4,prodl
  2272  000128  C033  FFDA         	movff	??_INTERRUPT_InterruptManager+3,fsr2h
  2273  00012C  C032  FFD9         	movff	??_INTERRUPT_InterruptManager+2,fsr2l
  2274  000130  C031  FFFB         	movff	??_INTERRUPT_InterruptManager+1,pclatu
  2275  000134  C030  FFFA         	movff	??_INTERRUPT_InterruptManager,pclath
  2276  000138  9248               	bcf	int$flags,1,c	;clear compiler interrupt flag (level 2)
  2277  00013A  0011               	retfie		f
  2278  00013C                     __end_of_INTERRUPT_InterruptManager:
  2279                           	callstack 0
  2280                           
  2281 ;; *************** function _I2C1_MasterIsr *****************
  2282 ;; Defined at:
  2283 ;;		line 318 in file "mcc_generated_files/i2c1_master.c"
  2284 ;; Parameters:    Size  Location     Type
  2285 ;;		None
  2286 ;; Auto vars:     Size  Location     Type
  2287 ;;		None
  2288 ;; Return value:  Size  Location     Type
  2289 ;;                  1    wreg      void 
  2290 ;; Registers used:
  2291 ;;		wreg, fsr2l, fsr2h, status,2, status,0, pcl, pclath, pclatu, tosl, tblptrl, tblptrh, tblptru, prodl, prodh, cstack
  2292 ;; Tracked objects:
  2293 ;;		On entry : 0/0
  2294 ;;		On exit  : 0/0
  2295 ;;		Unchanged: 0/0
  2296 ;; Data sizes:     COMRAM   BANK0   BANK1   BANK2   BANK3   BANK4   BANK5   BANK6   BANK7   BANK8   BANK9  BANK10  BANK1
      +1  BANK12  BANK13  BANK14
  2297 ;;      Params:         0       0       0       0       0       0       0       0       0       0       0       0       
      +0       0       0       0
  2298 ;;      Locals:         0       0       0       0       0       0       0       0       0       0       0       0       
      +0       0       0       0
  2299 ;;      Temps:          0       0       0       0       0       0       0       0       0       0       0       0       
      +0       0       0       0
  2300 ;;      Totals:         0       0       0       0       0       0       0       0       0       0       0       0       
      +0       0       0       0
  2301 ;;Total ram usage:        0 bytes
  2302 ;; Hardware stack levels used: 1
  2303 ;; Hardware stack levels required when called: 5
  2304 ;; This function calls:
  2305 ;;		_I2C1_MasterFsm
  2306 ;; This function is called by:
  2307 ;;		_I2C1_Open
  2308 ;;		_INTERRUPT_InterruptManager
  2309 ;; This function uses a non-reentrant model
  2310 ;;
  2311                           
  2312                           	psect	text22
  2313  0019CC                     __ptext22:
  2314                           	callstack 0
  2315  0019CC                     _I2C1_MasterIsr:
  2316                           	callstack 18
  2317  0019CC                     
  2318                           ;mcc_generated_files/i2c1_master.c: 320:     I2C1_MasterFsm();
  2319  0019CC  EC5D  F00A         	call	_I2C1_MasterFsm	;wreg free
  2320  0019D0  0012               	return		;funcret
  2321  0019D2                     __end_of_I2C1_MasterIsr:
  2322                           	callstack 0
  2323                           
  2324 ;; *************** function _I2C1_MasterFsm *****************
  2325 ;; Defined at:
  2326 ;;		line 323 in file "mcc_generated_files/i2c1_master.c"
  2327 ;; Parameters:    Size  Location     Type
  2328 ;;		None
  2329 ;; Auto vars:     Size  Location     Type
  2330 ;;		None
  2331 ;; Return value:  Size  Location     Type
  2332 ;;                  1    wreg      void 
  2333 ;; Registers used:
  2334 ;;		wreg, fsr2l, fsr2h, status,2, status,0, pcl, pclath, pclatu, tosl, tblptrl, tblptrh, tblptru, prodl, prodh, cstack
  2335 ;; Tracked objects:
  2336 ;;		On entry : 0/0
  2337 ;;		On exit  : 0/0
  2338 ;;		Unchanged: 0/0
  2339 ;; Data sizes:     COMRAM   BANK0   BANK1   BANK2   BANK3   BANK4   BANK5   BANK6   BANK7   BANK8   BANK9  BANK10  BANK1
      +1  BANK12  BANK13  BANK14
  2340 ;;      Params:         0       0       0       0       0       0       0       0       0       0       0       0       
      +0       0       0       0
  2341 ;;      Locals:         0       0       0       0       0       0       0       0       0       0       0       0       
      +0       0       0       0
  2342 ;;      Temps:          0       0       0       0       0       0       0       0       0       0       0       0       
      +0       0       0       0
  2343 ;;      Totals:         0       0       0       0       0       0       0       0       0       0       0       0       
      +0       0       0       0
  2344 ;;Total ram usage:        0 bytes
  2345 ;; Hardware stack levels used: 1
  2346 ;; Hardware stack levels required when called: 4
  2347 ;; This function calls:
  2348 ;;		_I2C1_DO_ADDRESS_NACK
  2349 ;;		_I2C1_DO_IDLE
  2350 ;;		_I2C1_DO_RCEN
  2351 ;;		_I2C1_DO_RESET
  2352 ;;		_I2C1_DO_RX
  2353 ;;		_I2C1_DO_RX_ACK
  2354 ;;		_I2C1_DO_RX_NACK_RESTART
  2355 ;;		_I2C1_DO_RX_NACK_STOP
  2356 ;;		_I2C1_DO_SEND_ADR_READ
  2357 ;;		_I2C1_DO_SEND_ADR_WRITE
  2358 ;;		_I2C1_DO_SEND_RESTART
  2359 ;;		_I2C1_DO_SEND_RESTART_READ
  2360 ;;		_I2C1_DO_SEND_RESTART_WRITE
  2361 ;;		_I2C1_DO_SEND_STOP
  2362 ;;		_I2C1_DO_TX
  2363 ;;		_I2C1_DO_TX_EMPTY
  2364 ;;		_I2C1_MasterClearIrq
  2365 ;;		_I2C1_MasterIsNack
  2366 ;; This function is called by:
  2367 ;;		_I2C1_MasterIsr
  2368 ;; This function uses a non-reentrant model
  2369 ;;
  2370                           
  2371                           	psect	text23
  2372  0014BA                     __ptext23:
  2373                           	callstack 0
  2374  0014BA                     _I2C1_MasterFsm:
  2375                           	callstack 18
  2376  0014BA                     
  2377                           ;mcc_generated_files/i2c1_master.c: 325:     I2C1_MasterClearIrq();
  2378  0014BA  ECF7  F00C         	call	_I2C1_MasterClearIrq	;wreg free
  2379  0014BE                     
  2380                           ;mcc_generated_files/i2c1_master.c: 327:     if(I2C1_Status.addressNackCheck && I2C1_Mas
      +                          terIsNack())
  2381  0014BE  0100               	movlb	0	; () banked
  2382  0014C0  A183               	btfss	(_I2C1_Status+35)& (0+255),0,b
  2383  0014C2  EF65  F00A         	goto	i2u90_41
  2384  0014C6  EF67  F00A         	goto	i2u90_40
  2385  0014CA                     i2u90_41:
  2386  0014CA  EF74  F00A         	goto	i2l2982
  2387  0014CE                     i2u90_40:
  2388  0014CE                     
  2389                           ; BSR set to: 0
  2390  0014CE  EC74  F00C         	call	_I2C1_MasterIsNack	;wreg free
  2391  0014D2  0900               	iorlw	0
  2392  0014D4  B4D8               	btfsc	status,2,c
  2393  0014D6  EF6F  F00A         	goto	i2u91_41
  2394  0014DA  EF71  F00A         	goto	i2u91_40
  2395  0014DE                     i2u91_41:
  2396  0014DE  EF74  F00A         	goto	i2l2982
  2397  0014E2                     i2u91_40:
  2398  0014E2                     
  2399                           ;mcc_generated_files/i2c1_master.c: 328:     {;mcc_generated_files/i2c1_master.c: 329:  
      +                                 I2C1_Status.state = I2C1_ADDRESS_NACK;
  2400  0014E2  0E0F               	movlw	15
  2401  0014E4  0100               	movlb	0	; () banked
  2402  0014E6  6F81               	movwf	(_I2C1_Status+33)& (0+255),b
  2403  0014E8                     i2l2982:
  2404                           
  2405                           ;mcc_generated_files/i2c1_master.c: 331:     I2C1_Status.state = i2c1_fsmStateTable[I2C1
      +                          _Status.state]();
  2406  0014E8  0100               	movlb	0	; () banked
  2407  0014EA  5181               	movf	(_I2C1_Status+33)& (0+255),w,b
  2408  0014EC  0D02               	mullw	2
  2409  0014EE  0E01               	movlw	low _i2c1_fsmStateTable
  2410  0014F0  24F3               	addwf	243,w,c
  2411  0014F2  6EF6               	movwf	tblptrl,c
  2412  0014F4  0E0F               	movlw	high _i2c1_fsmStateTable
  2413  0014F6  20F4               	addwfc	244,w,c
  2414  0014F8  6EF7               	movwf	tblptrh,c
  2415  0014FA                     	if	0	;There are less than 3 active tblptr bytes
  2416  0014FA                     	endif
  2417  0014FA  D802               	call	i2u92_48
  2418  0014FC  EF8C  F00A         	goto	i2u92_49
  2419  001500                     i2u92_48:
  2420  001500  0005               	push	
  2421  001502  6EFA               	movwf	pclath,c
  2422  001504  0009               	tblrd		*+
  2423  001506  50F5               	movf	tablat,w,c
  2424  001508  6EFD               	movwf	tosl,c
  2425  00150A  0009               	tblrd		*+
  2426  00150C  50F5               	movf	tablat,w,c
  2427  00150E  6EFE               	movwf	tosh,c
  2428  001510  50F8               	movf	tblptru,w,c
  2429  001512  6EFF               	movwf	tosu,c
  2430  001514  50FA               	movf	pclath,w,c
  2431  001516  0012               	return		;indir
  2432  001518                     i2u92_49:
  2433  001518  0100               	movlb	0	; () banked
  2434  00151A  6F81               	movwf	(_I2C1_Status+33)& (0+255),b
  2435  00151C                     
  2436                           ; BSR set to: 0
  2437  00151C  0012               	return		;funcret
  2438  00151E                     __end_of_I2C1_MasterFsm:
  2439                           	callstack 0
  2440                           
  2441 ;; *************** function _I2C1_MasterClearIrq *****************
  2442 ;; Defined at:
  2443 ;;		line 642 in file "mcc_generated_files/i2c1_master.c"
  2444 ;; Parameters:    Size  Location     Type
  2445 ;;		None
  2446 ;; Auto vars:     Size  Location     Type
  2447 ;;		None
  2448 ;; Return value:  Size  Location     Type
  2449 ;;                  1    wreg      void 
  2450 ;; Registers used:
  2451 ;;		None
  2452 ;; Tracked objects:
  2453 ;;		On entry : 0/0
  2454 ;;		On exit  : 0/0
  2455 ;;		Unchanged: 0/0
  2456 ;; Data sizes:     COMRAM   BANK0   BANK1   BANK2   BANK3   BANK4   BANK5   BANK6   BANK7   BANK8   BANK9  BANK10  BANK1
      +1  BANK12  BANK13  BANK14
  2457 ;;      Params:         0       0       0       0       0       0       0       0       0       0       0       0       
      +0       0       0       0
  2458 ;;      Locals:         0       0       0       0       0       0       0       0       0       0       0       0       
      +0       0       0       0
  2459 ;;      Temps:          0       0       0       0       0       0       0       0       0       0       0       0       
      +0       0       0       0
  2460 ;;      Totals:         0       0       0       0       0       0       0       0       0       0       0       0       
      +0       0       0       0
  2461 ;;Total ram usage:        0 bytes
  2462 ;; Hardware stack levels used: 1
  2463 ;; This function calls:
  2464 ;;		Nothing
  2465 ;; This function is called by:
  2466 ;;		_I2C1_MasterFsm
  2467 ;;		_I2C1_Open
  2468 ;;		_I2C1_Close
  2469 ;; This function uses a non-reentrant model
  2470 ;;
  2471                           
  2472                           	psect	text24
  2473  0019EE                     __ptext24:
  2474                           	callstack 0
  2475  0019EE                     _I2C1_MasterClearIrq:
  2476                           	callstack 21
  2477  0019EE                     
  2478                           ;mcc_generated_files/i2c1_master.c: 644:     PIR1bits.SSP1IF = 0;
  2479  0019EE  969E               	bcf	158,3,c	;volatile
  2480  0019F0  0012               	return		;funcret
  2481  0019F2                     __end_of_I2C1_MasterClearIrq:
  2482                           	callstack 0
  2483                           
  2484 ;; *************** function _I2C1_DO_ADDRESS_NACK *****************
  2485 ;; Defined at:
  2486 ;;		line 501 in file "mcc_generated_files/i2c1_master.c"
  2487 ;; Parameters:    Size  Location     Type
  2488 ;;		None
  2489 ;; Auto vars:     Size  Location     Type
  2490 ;;		None
  2491 ;; Return value:  Size  Location     Type
  2492 ;;                  1    wreg      enum E6655
  2493 ;; Registers used:
  2494 ;;		wreg, fsr2l, fsr2h, status,2, status,0, pcl, pclath, pclatu, tosl, prodl, prodh, cstack
  2495 ;; Tracked objects:
  2496 ;;		On entry : 0/0
  2497 ;;		On exit  : 0/0
  2498 ;;		Unchanged: 0/0
  2499 ;; Data sizes:     COMRAM   BANK0   BANK1   BANK2   BANK3   BANK4   BANK5   BANK6   BANK7   BANK8   BANK9  BANK10  BANK1
      +1  BANK12  BANK13  BANK14
  2500 ;;      Params:         0       0       0       0       0       0       0       0       0       0       0       0       
      +0       0       0       0
  2501 ;;      Locals:         0       0       0       0       0       0       0       0       0       0       0       0       
      +0       0       0       0
  2502 ;;      Temps:          2       0       0       0       0       0       0       0       0       0       0       0       
      +0       0       0       0
  2503 ;;      Totals:         2       0       0       0       0       0       0       0       0       0       0       0       
      +0       0       0       0
  2504 ;;Total ram usage:        2 bytes
  2505 ;; Hardware stack levels used: 1
  2506 ;; Hardware stack levels required when called: 3
  2507 ;; This function calls:
  2508 ;;		Absolute function
  2509 ;;		_I2C1_CallbackReturnReset
  2510 ;;		_I2C1_CallbackReturnStop
  2511 ;;		_I2C1_DO_SEND_RESTART
  2512 ;;		_I2C1_DO_SEND_STOP
  2513 ;;		_rd1RegCompleteHandler
  2514 ;;		_rd2RegCompleteHandler
  2515 ;;		_rdBlkRegCompleteHandler
  2516 ;;		_wr1RegCompleteHandler
  2517 ;;		_wr2RegCompleteHandler
  2518 ;; This function is called by:
  2519 ;;		_I2C1_MasterFsm
  2520 ;; This function uses a non-reentrant model
  2521 ;;
  2522                           
  2523                           	psect	text25
  2524  00144E                     __ptext25:
  2525                           	callstack 0
  2526  00144E                     _I2C1_DO_ADDRESS_NACK:
  2527                           	callstack 18
  2528  00144E                     
  2529                           ;mcc_generated_files/i2c1_master.c: 503:     I2C1_Status.addressNackCheck = 0;
  2530  00144E  0100               	movlb	0	; () banked
  2531  001450  9183               	bcf	(_I2C1_Status+35)& (0+255),0,b
  2532  001452                     
  2533                           ; BSR set to: 0
  2534                           ;mcc_generated_files/i2c1_master.c: 504:     I2C1_Status.error = I2C1_FAIL;
  2535  001452  0E02               	movlw	2
  2536  001454  6F82               	movwf	(_I2C1_Status+34)& (0+255),b
  2537                           
  2538                           ;mcc_generated_files/i2c1_master.c: 505:     switch(I2C1_Status.callbackTable[I2C1_ADDR_
      +                          NACK](I2C1_Status.callbackPayload[I2C1_ADDR_NACK]))
  2539  001456  EF35  F00A         	goto	i2l2908
  2540  00145A                     i2l2898:
  2541                           
  2542                           ;mcc_generated_files/i2c1_master.c: 509:             return I2C1_DO_SEND_RESTART();
  2543  00145A  ECD6  F00C         	call	_I2C1_DO_SEND_RESTART	;wreg free
  2544  00145E  EF5C  F00A         	goto	i2l543
  2545  001462                     i2l2902:
  2546                           
  2547                           ;mcc_generated_files/i2c1_master.c: 511:             return I2C1_DO_SEND_STOP();
  2548  001462  ECD2  F00C         	call	_I2C1_DO_SEND_STOP	;wreg free
  2549  001466  EF5C  F00A         	goto	i2l543
  2550  00146A                     i2l2908:
  2551                           
  2552                           ; BSR set to: 0
  2553  00146A  C070  F02C         	movff	_I2C1_Status+16,I2C1_CallbackReturnReset@funPtr
  2554  00146E  C071  F02D         	movff	_I2C1_Status+17,I2C1_CallbackReturnReset@funPtr+1
  2555  001472  EE20  F064         	lfsr	2,_I2C1_Status+4
  2556  001476  D802               	call	i2u87_48
  2557  001478  EF48  F00A         	goto	i2u87_49
  2558  00147C                     i2u87_48:
  2559  00147C  0005               	push	
  2560  00147E  6EFA               	movwf	pclath,c
  2561  001480  50DE               	movf	postinc2,w,c
  2562  001482  6EFD               	movwf	tosl,c
  2563  001484  50DE               	movf	postinc2,w,c
  2564  001486  6EFE               	movwf	tosh,c
  2565  001488  50F8               	movf	tblptru,w,c
  2566  00148A  6EFF               	movwf	tosu,c
  2567  00148C  50FA               	movf	pclath,w,c
  2568  00148E  0012               	return		;indir
  2569  001490                     i2u87_49:
  2570  001490  6E2E               	movwf	??_I2C1_DO_ADDRESS_NACK^0,c
  2571  001492  6A2F               	clrf	(??_I2C1_DO_ADDRESS_NACK+1)^0,c
  2572                           
  2573                           ; Switch on 2 bytes has been partitioned into a top level switch of size 1, and 1 sub-sw
      +                          itches
  2574                           ; Switch size 1, requested type "simple"
  2575                           ; Number of cases is 1, Range of values is 0 to 0
  2576                           ; switch strategies available:
  2577                           ; Name         Instructions Cycles
  2578                           ; simple_byte            4     3 (average)
  2579                           ;	Chosen strategy is simple_byte
  2580  001494  502F               	movf	(??_I2C1_DO_ADDRESS_NACK+1)^0,w,c
  2581  001496  0A00               	xorlw	0	; case 0
  2582  001498  B4D8               	btfsc	status,2,c
  2583  00149A  EF51  F00A         	goto	i2l3640
  2584  00149E  EF31  F00A         	goto	i2l2902
  2585  0014A2                     i2l3640:
  2586                           
  2587                           ; Switch size 1, requested type "simple"
  2588                           ; Number of cases is 2, Range of values is 2 to 3
  2589                           ; switch strategies available:
  2590                           ; Name         Instructions Cycles
  2591                           ; simple_byte            7     4 (average)
  2592                           ;	Chosen strategy is simple_byte
  2593  0014A2  502E               	movf	??_I2C1_DO_ADDRESS_NACK^0,w,c
  2594  0014A4  0A02               	xorlw	2	; case 2
  2595  0014A6  B4D8               	btfsc	status,2,c
  2596  0014A8  EF2D  F00A         	goto	i2l2898
  2597  0014AC  0A01               	xorlw	1	; case 3
  2598  0014AE  B4D8               	btfsc	status,2,c
  2599  0014B0  EF2D  F00A         	goto	i2l2898
  2600  0014B4  EF31  F00A         	goto	i2l2902
  2601  0014B8                     i2l543:
  2602  0014B8  0012               	return		;funcret
  2603  0014BA                     __end_of_I2C1_DO_ADDRESS_NACK:
  2604                           	callstack 0
  2605                           
  2606 ;; *************** function _I2C1_DO_RESET *****************
  2607 ;; Defined at:
  2608 ;;		line 495 in file "mcc_generated_files/i2c1_master.c"
  2609 ;; Parameters:    Size  Location     Type
  2610 ;;		None
  2611 ;; Auto vars:     Size  Location     Type
  2612 ;;		None
  2613 ;; Return value:  Size  Location     Type
  2614 ;;                  1    wreg      enum E6655
  2615 ;; Registers used:
  2616 ;;		wreg, status,2
  2617 ;; Tracked objects:
  2618 ;;		On entry : 0/0
  2619 ;;		On exit  : 0/0
  2620 ;;		Unchanged: 0/0
  2621 ;; Data sizes:     COMRAM   BANK0   BANK1   BANK2   BANK3   BANK4   BANK5   BANK6   BANK7   BANK8   BANK9  BANK10  BANK1
      +1  BANK12  BANK13  BANK14
  2622 ;;      Params:         0       0       0       0       0       0       0       0       0       0       0       0       
      +0       0       0       0
  2623 ;;      Locals:         0       0       0       0       0       0       0       0       0       0       0       0       
      +0       0       0       0
  2624 ;;      Temps:          0       0       0       0       0       0       0       0       0       0       0       0       
      +0       0       0       0
  2625 ;;      Totals:         0       0       0       0       0       0       0       0       0       0       0       0       
      +0       0       0       0
  2626 ;;Total ram usage:        0 bytes
  2627 ;; Hardware stack levels used: 1
  2628 ;; This function calls:
  2629 ;;		Nothing
  2630 ;; This function is called by:
  2631 ;;		_I2C1_MasterFsm
  2632 ;; This function uses a non-reentrant model
  2633 ;;
  2634                           
  2635                           	psect	text26
  2636  00192C                     __ptext26:
  2637                           	callstack 0
  2638  00192C                     _I2C1_DO_RESET:
  2639                           	callstack 21
  2640  00192C                     
  2641                           ;mcc_generated_files/i2c1_master.c: 497:     I2C1_Status.busy = 0;
  2642  00192C  0100               	movlb	0	; () banked
  2643  00192E  9383               	bcf	(_I2C1_Status+35)& (0+255),1,b
  2644  001930                     
  2645                           ; BSR set to: 0
  2646                           ;mcc_generated_files/i2c1_master.c: 498:     I2C1_Status.error = I2C1_NOERR;
  2647  001930  0E00               	movlw	0
  2648  001932  6F82               	movwf	(_I2C1_Status+34)& (0+255),b
  2649  001934                     
  2650                           ; BSR set to: 0
  2651                           ;mcc_generated_files/i2c1_master.c: 499:     return I2C1_RESET;
  2652  001934  0E0E               	movlw	14
  2653  001936                     
  2654                           ; BSR set to: 0
  2655  001936  0012               	return		;funcret
  2656  001938                     __end_of_I2C1_DO_RESET:
  2657                           	callstack 0
  2658                           
  2659 ;; *************** function _I2C1_DO_RX_NACK_RESTART *****************
  2660 ;; Defined at:
  2661 ;;		line 489 in file "mcc_generated_files/i2c1_master.c"
  2662 ;; Parameters:    Size  Location     Type
  2663 ;;		None
  2664 ;; Auto vars:     Size  Location     Type
  2665 ;;		None
  2666 ;; Return value:  Size  Location     Type
  2667 ;;                  1    wreg      enum E6655
  2668 ;; Registers used:
  2669 ;;		wreg, cstack
  2670 ;; Tracked objects:
  2671 ;;		On entry : 0/0
  2672 ;;		On exit  : 0/0
  2673 ;;		Unchanged: 0/0
  2674 ;; Data sizes:     COMRAM   BANK0   BANK1   BANK2   BANK3   BANK4   BANK5   BANK6   BANK7   BANK8   BANK9  BANK10  BANK1
      +1  BANK12  BANK13  BANK14
  2675 ;;      Params:         0       0       0       0       0       0       0       0       0       0       0       0       
      +0       0       0       0
  2676 ;;      Locals:         0       0       0       0       0       0       0       0       0       0       0       0       
      +0       0       0       0
  2677 ;;      Temps:          0       0       0       0       0       0       0       0       0       0       0       0       
      +0       0       0       0
  2678 ;;      Totals:         0       0       0       0       0       0       0       0       0       0       0       0       
      +0       0       0       0
  2679 ;;Total ram usage:        0 bytes
  2680 ;; Hardware stack levels used: 1
  2681 ;; Hardware stack levels required when called: 1
  2682 ;; This function calls:
  2683 ;;		_I2C1_MasterSendNack
  2684 ;; This function is called by:
  2685 ;;		_I2C1_DO_RX
  2686 ;;		_I2C1_MasterFsm
  2687 ;; This function uses a non-reentrant model
  2688 ;;
  2689                           
  2690                           	psect	text27
  2691  00198C                     __ptext27:
  2692                           	callstack 0
  2693  00198C                     _I2C1_DO_RX_NACK_RESTART:
  2694                           	callstack 20
  2695  00198C                     
  2696                           ;mcc_generated_files/i2c1_master.c: 491:     I2C1_MasterSendNack();
  2697  00198C  ECEC  F00C         	call	_I2C1_MasterSendNack	;wreg free
  2698  001990                     
  2699                           ;mcc_generated_files/i2c1_master.c: 492:     return I2C1_SEND_RESTART;
  2700  001990  0E09               	movlw	9
  2701  001992  0012               	return		;funcret
  2702  001994                     __end_of_I2C1_DO_RX_NACK_RESTART:
  2703                           	callstack 0
  2704                           
  2705 ;; *************** function _I2C1_DO_RX_NACK_STOP *****************
  2706 ;; Defined at:
  2707 ;;		line 483 in file "mcc_generated_files/i2c1_master.c"
  2708 ;; Parameters:    Size  Location     Type
  2709 ;;		None
  2710 ;; Auto vars:     Size  Location     Type
  2711 ;;		None
  2712 ;; Return value:  Size  Location     Type
  2713 ;;                  1    wreg      enum E6655
  2714 ;; Registers used:
  2715 ;;		wreg, cstack
  2716 ;; Tracked objects:
  2717 ;;		On entry : 0/0
  2718 ;;		On exit  : 0/0
  2719 ;;		Unchanged: 0/0
  2720 ;; Data sizes:     COMRAM   BANK0   BANK1   BANK2   BANK3   BANK4   BANK5   BANK6   BANK7   BANK8   BANK9  BANK10  BANK1
      +1  BANK12  BANK13  BANK14
  2721 ;;      Params:         0       0       0       0       0       0       0       0       0       0       0       0       
      +0       0       0       0
  2722 ;;      Locals:         0       0       0       0       0       0       0       0       0       0       0       0       
      +0       0       0       0
  2723 ;;      Temps:          0       0       0       0       0       0       0       0       0       0       0       0       
      +0       0       0       0
  2724 ;;      Totals:         0       0       0       0       0       0       0       0       0       0       0       0       
      +0       0       0       0
  2725 ;;Total ram usage:        0 bytes
  2726 ;; Hardware stack levels used: 1
  2727 ;; Hardware stack levels required when called: 1
  2728 ;; This function calls:
  2729 ;;		_I2C1_MasterSendNack
  2730 ;; This function is called by:
  2731 ;;		_I2C1_DO_RX
  2732 ;;		_I2C1_MasterFsm
  2733 ;; This function uses a non-reentrant model
  2734 ;;
  2735                           
  2736                           	psect	text28
  2737  001994                     __ptext28:
  2738                           	callstack 0
  2739  001994                     _I2C1_DO_RX_NACK_STOP:
  2740                           	callstack 20
  2741  001994                     
  2742                           ;mcc_generated_files/i2c1_master.c: 485:     I2C1_MasterSendNack();
  2743  001994  ECEC  F00C         	call	_I2C1_MasterSendNack	;wreg free
  2744  001998                     
  2745                           ;mcc_generated_files/i2c1_master.c: 486:     return I2C1_SEND_STOP;
  2746  001998  0E0A               	movlw	10
  2747  00199A  0012               	return		;funcret
  2748  00199C                     __end_of_I2C1_DO_RX_NACK_STOP:
  2749                           	callstack 0
  2750                           
  2751 ;; *************** function _I2C1_DO_RX_ACK *****************
  2752 ;; Defined at:
  2753 ;;		line 476 in file "mcc_generated_files/i2c1_master.c"
  2754 ;; Parameters:    Size  Location     Type
  2755 ;;		None
  2756 ;; Auto vars:     Size  Location     Type
  2757 ;;		None
  2758 ;; Return value:  Size  Location     Type
  2759 ;;                  1    wreg      enum E6655
  2760 ;; Registers used:
  2761 ;;		wreg, cstack
  2762 ;; Tracked objects:
  2763 ;;		On entry : 0/0
  2764 ;;		On exit  : 0/0
  2765 ;;		Unchanged: 0/0
  2766 ;; Data sizes:     COMRAM   BANK0   BANK1   BANK2   BANK3   BANK4   BANK5   BANK6   BANK7   BANK8   BANK9  BANK10  BANK1
      +1  BANK12  BANK13  BANK14
  2767 ;;      Params:         0       0       0       0       0       0       0       0       0       0       0       0       
      +0       0       0       0
  2768 ;;      Locals:         0       0       0       0       0       0       0       0       0       0       0       0       
      +0       0       0       0
  2769 ;;      Temps:          0       0       0       0       0       0       0       0       0       0       0       0       
      +0       0       0       0
  2770 ;;      Totals:         0       0       0       0       0       0       0       0       0       0       0       0       
      +0       0       0       0
  2771 ;;Total ram usage:        0 bytes
  2772 ;; Hardware stack levels used: 1
  2773 ;; Hardware stack levels required when called: 1
  2774 ;; This function calls:
  2775 ;;		_I2C1_MasterSendAck
  2776 ;; This function is called by:
  2777 ;;		_I2C1_MasterFsm
  2778 ;; This function uses a non-reentrant model
  2779 ;;
  2780                           
  2781                           	psect	text29
  2782  00199C                     __ptext29:
  2783                           	callstack 0
  2784  00199C                     _I2C1_DO_RX_ACK:
  2785                           	callstack 20
  2786  00199C                     
  2787                           ;mcc_generated_files/i2c1_master.c: 478:     I2C1_MasterSendAck();
  2788  00199C  ECE9  F00C         	call	_I2C1_MasterSendAck	;wreg free
  2789  0019A0                     
  2790                           ;mcc_generated_files/i2c1_master.c: 479:     return I2C1_RCEN;
  2791  0019A0  0E05               	movlw	5
  2792  0019A2  0012               	return		;funcret
  2793  0019A4                     __end_of_I2C1_DO_RX_ACK:
  2794                           	callstack 0
  2795                           
  2796 ;; *************** function _I2C1_DO_SEND_STOP *****************
  2797 ;; Defined at:
  2798 ;;		line 470 in file "mcc_generated_files/i2c1_master.c"
  2799 ;; Parameters:    Size  Location     Type
  2800 ;;		None
  2801 ;; Auto vars:     Size  Location     Type
  2802 ;;		None
  2803 ;; Return value:  Size  Location     Type
  2804 ;;                  1    wreg      enum E6655
  2805 ;; Registers used:
  2806 ;;		wreg, cstack
  2807 ;; Tracked objects:
  2808 ;;		On entry : 0/0
  2809 ;;		On exit  : 0/0
  2810 ;;		Unchanged: 0/0
  2811 ;; Data sizes:     COMRAM   BANK0   BANK1   BANK2   BANK3   BANK4   BANK5   BANK6   BANK7   BANK8   BANK9  BANK10  BANK1
      +1  BANK12  BANK13  BANK14
  2812 ;;      Params:         0       0       0       0       0       0       0       0       0       0       0       0       
      +0       0       0       0
  2813 ;;      Locals:         0       0       0       0       0       0       0       0       0       0       0       0       
      +0       0       0       0
  2814 ;;      Temps:          0       0       0       0       0       0       0       0       0       0       0       0       
      +0       0       0       0
  2815 ;;      Totals:         0       0       0       0       0       0       0       0       0       0       0       0       
      +0       0       0       0
  2816 ;;Total ram usage:        0 bytes
  2817 ;; Hardware stack levels used: 1
  2818 ;; Hardware stack levels required when called: 1
  2819 ;; This function calls:
  2820 ;;		_I2C1_MasterStop
  2821 ;; This function is called by:
  2822 ;;		_I2C1_DO_TX
  2823 ;;		_I2C1_DO_TX_EMPTY
  2824 ;;		_I2C1_DO_ADDRESS_NACK
  2825 ;;		_I2C1_MasterFsm
  2826 ;; This function uses a non-reentrant model
  2827 ;;
  2828                           
  2829                           	psect	text30
  2830  0019A4                     __ptext30:
  2831                           	callstack 0
  2832  0019A4                     _I2C1_DO_SEND_STOP:
  2833                           	callstack 19
  2834  0019A4                     
  2835                           ;mcc_generated_files/i2c1_master.c: 472:     I2C1_MasterStop();
  2836  0019A4  EC03  F00D         	call	_I2C1_MasterStop	;wreg free
  2837  0019A8                     
  2838                           ;mcc_generated_files/i2c1_master.c: 473:     return I2C1_IDLE;
  2839  0019A8  0E00               	movlw	0
  2840  0019AA  0012               	return		;funcret
  2841  0019AC                     __end_of_I2C1_DO_SEND_STOP:
  2842                           	callstack 0
  2843                           
  2844 ;; *************** function _I2C1_DO_SEND_RESTART *****************
  2845 ;; Defined at:
  2846 ;;		line 464 in file "mcc_generated_files/i2c1_master.c"
  2847 ;; Parameters:    Size  Location     Type
  2848 ;;		None
  2849 ;; Auto vars:     Size  Location     Type
  2850 ;;		None
  2851 ;; Return value:  Size  Location     Type
  2852 ;;                  1    wreg      enum E6655
  2853 ;; Registers used:
  2854 ;;		wreg, cstack
  2855 ;; Tracked objects:
  2856 ;;		On entry : 0/0
  2857 ;;		On exit  : 0/0
  2858 ;;		Unchanged: 0/0
  2859 ;; Data sizes:     COMRAM   BANK0   BANK1   BANK2   BANK3   BANK4   BANK5   BANK6   BANK7   BANK8   BANK9  BANK10  BANK1
      +1  BANK12  BANK13  BANK14
  2860 ;;      Params:         0       0       0       0       0       0       0       0       0       0       0       0       
      +0       0       0       0
  2861 ;;      Locals:         0       0       0       0       0       0       0       0       0       0       0       0       
      +0       0       0       0
  2862 ;;      Temps:          0       0       0       0       0       0       0       0       0       0       0       0       
      +0       0       0       0
  2863 ;;      Totals:         0       0       0       0       0       0       0       0       0       0       0       0       
      +0       0       0       0
  2864 ;;Total ram usage:        0 bytes
  2865 ;; Hardware stack levels used: 1
  2866 ;; Hardware stack levels required when called: 1
  2867 ;; This function calls:
  2868 ;;		_I2C1_MasterEnableRestart
  2869 ;; This function is called by:
  2870 ;;		_I2C1_DO_TX_EMPTY
  2871 ;;		_I2C1_DO_ADDRESS_NACK
  2872 ;;		_I2C1_MasterFsm
  2873 ;; This function uses a non-reentrant model
  2874 ;;
  2875                           
  2876                           	psect	text31
  2877  0019AC                     __ptext31:
  2878                           	callstack 0
  2879  0019AC                     _I2C1_DO_SEND_RESTART:
  2880                           	callstack 19
  2881  0019AC                     
  2882                           ;mcc_generated_files/i2c1_master.c: 466:     I2C1_MasterEnableRestart();
  2883  0019AC  EC05  F00D         	call	_I2C1_MasterEnableRestart	;wreg free
  2884  0019B0                     
  2885                           ;mcc_generated_files/i2c1_master.c: 467:     return I2C1_SEND_ADR_READ;
  2886  0019B0  0E01               	movlw	1
  2887  0019B2  0012               	return		;funcret
  2888  0019B4                     __end_of_I2C1_DO_SEND_RESTART:
  2889                           	callstack 0
  2890                           
  2891 ;; *************** function _I2C1_DO_SEND_RESTART_WRITE *****************
  2892 ;; Defined at:
  2893 ;;		line 457 in file "mcc_generated_files/i2c1_master.c"
  2894 ;; Parameters:    Size  Location     Type
  2895 ;;		None
  2896 ;; Auto vars:     Size  Location     Type
  2897 ;;		None
  2898 ;; Return value:  Size  Location     Type
  2899 ;;                  1    wreg      enum E6655
  2900 ;; Registers used:
  2901 ;;		wreg, cstack
  2902 ;; Tracked objects:
  2903 ;;		On entry : 0/0
  2904 ;;		On exit  : 0/0
  2905 ;;		Unchanged: 0/0
  2906 ;; Data sizes:     COMRAM   BANK0   BANK1   BANK2   BANK3   BANK4   BANK5   BANK6   BANK7   BANK8   BANK9  BANK10  BANK1
      +1  BANK12  BANK13  BANK14
  2907 ;;      Params:         0       0       0       0       0       0       0       0       0       0       0       0       
      +0       0       0       0
  2908 ;;      Locals:         0       0       0       0       0       0       0       0       0       0       0       0       
      +0       0       0       0
  2909 ;;      Temps:          0       0       0       0       0       0       0       0       0       0       0       0       
      +0       0       0       0
  2910 ;;      Totals:         0       0       0       0       0       0       0       0       0       0       0       0       
      +0       0       0       0
  2911 ;;Total ram usage:        0 bytes
  2912 ;; Hardware stack levels used: 1
  2913 ;; Hardware stack levels required when called: 1
  2914 ;; This function calls:
  2915 ;;		_I2C1_MasterEnableRestart
  2916 ;; This function is called by:
  2917 ;;		_I2C1_DO_TX
  2918 ;;		_I2C1_MasterFsm
  2919 ;; This function uses a non-reentrant model
  2920 ;;
  2921                           
  2922                           	psect	text32
  2923  0019B4                     __ptext32:
  2924                           	callstack 0
  2925  0019B4                     _I2C1_DO_SEND_RESTART_WRITE:
  2926                           	callstack 19
  2927  0019B4                     
  2928                           ;mcc_generated_files/i2c1_master.c: 459:     I2C1_MasterEnableRestart();
  2929  0019B4  EC05  F00D         	call	_I2C1_MasterEnableRestart	;wreg free
  2930  0019B8                     
  2931                           ;mcc_generated_files/i2c1_master.c: 460:     return I2C1_SEND_ADR_WRITE;
  2932  0019B8  0E02               	movlw	2
  2933  0019BA  0012               	return		;funcret
  2934  0019BC                     __end_of_I2C1_DO_SEND_RESTART_WRITE:
  2935                           	callstack 0
  2936                           
  2937 ;; *************** function _I2C1_DO_SEND_RESTART_READ *****************
  2938 ;; Defined at:
  2939 ;;		line 451 in file "mcc_generated_files/i2c1_master.c"
  2940 ;; Parameters:    Size  Location     Type
  2941 ;;		None
  2942 ;; Auto vars:     Size  Location     Type
  2943 ;;		None
  2944 ;; Return value:  Size  Location     Type
  2945 ;;                  1    wreg      enum E6655
  2946 ;; Registers used:
  2947 ;;		wreg, cstack
  2948 ;; Tracked objects:
  2949 ;;		On entry : 0/0
  2950 ;;		On exit  : 0/0
  2951 ;;		Unchanged: 0/0
  2952 ;; Data sizes:     COMRAM   BANK0   BANK1   BANK2   BANK3   BANK4   BANK5   BANK6   BANK7   BANK8   BANK9  BANK10  BANK1
      +1  BANK12  BANK13  BANK14
  2953 ;;      Params:         0       0       0       0       0       0       0       0       0       0       0       0       
      +0       0       0       0
  2954 ;;      Locals:         0       0       0       0       0       0       0       0       0       0       0       0       
      +0       0       0       0
  2955 ;;      Temps:          0       0       0       0       0       0       0       0       0       0       0       0       
      +0       0       0       0
  2956 ;;      Totals:         0       0       0       0       0       0       0       0       0       0       0       0       
      +0       0       0       0
  2957 ;;Total ram usage:        0 bytes
  2958 ;; Hardware stack levels used: 1
  2959 ;; Hardware stack levels required when called: 1
  2960 ;; This function calls:
  2961 ;;		_I2C1_MasterEnableRestart
  2962 ;; This function is called by:
  2963 ;;		_I2C1_DO_TX
  2964 ;;		_I2C1_MasterFsm
  2965 ;; This function uses a non-reentrant model
  2966 ;;
  2967                           
  2968                           	psect	text33
  2969  0019BC                     __ptext33:
  2970                           	callstack 0
  2971  0019BC                     _I2C1_DO_SEND_RESTART_READ:
  2972                           	callstack 19
  2973  0019BC                     
  2974                           ;mcc_generated_files/i2c1_master.c: 453:     I2C1_MasterEnableRestart();
  2975  0019BC  EC05  F00D         	call	_I2C1_MasterEnableRestart	;wreg free
  2976  0019C0                     
  2977                           ;mcc_generated_files/i2c1_master.c: 454:     return I2C1_SEND_ADR_READ;
  2978  0019C0  0E01               	movlw	1
  2979  0019C2  0012               	return		;funcret
  2980  0019C4                     __end_of_I2C1_DO_SEND_RESTART_READ:
  2981                           	callstack 0
  2982                           
  2983 ;; *************** function _I2C1_DO_RCEN *****************
  2984 ;; Defined at:
  2985 ;;		line 404 in file "mcc_generated_files/i2c1_master.c"
  2986 ;; Parameters:    Size  Location     Type
  2987 ;;		None
  2988 ;; Auto vars:     Size  Location     Type
  2989 ;;		None
  2990 ;; Return value:  Size  Location     Type
  2991 ;;                  1    wreg      enum E6655
  2992 ;; Registers used:
  2993 ;;		wreg, cstack
  2994 ;; Tracked objects:
  2995 ;;		On entry : 0/0
  2996 ;;		On exit  : 0/0
  2997 ;;		Unchanged: 0/0
  2998 ;; Data sizes:     COMRAM   BANK0   BANK1   BANK2   BANK3   BANK4   BANK5   BANK6   BANK7   BANK8   BANK9  BANK10  BANK1
      +1  BANK12  BANK13  BANK14
  2999 ;;      Params:         0       0       0       0       0       0       0       0       0       0       0       0       
      +0       0       0       0
  3000 ;;      Locals:         0       0       0       0       0       0       0       0       0       0       0       0       
      +0       0       0       0
  3001 ;;      Temps:          0       0       0       0       0       0       0       0       0       0       0       0       
      +0       0       0       0
  3002 ;;      Totals:         0       0       0       0       0       0       0       0       0       0       0       0       
      +0       0       0       0
  3003 ;;Total ram usage:        0 bytes
  3004 ;; Hardware stack levels used: 1
  3005 ;; Hardware stack levels required when called: 1
  3006 ;; This function calls:
  3007 ;;		_I2C1_MasterStartRx
  3008 ;; This function is called by:
  3009 ;;		_I2C1_MasterFsm
  3010 ;; This function uses a non-reentrant model
  3011 ;;
  3012                           
  3013                           	psect	text34
  3014  001938                     __ptext34:
  3015                           	callstack 0
  3016  001938                     _I2C1_DO_RCEN:
  3017                           	callstack 20
  3018  001938                     
  3019                           ;mcc_generated_files/i2c1_master.c: 406:     I2C1_Status.addressNackCheck = 0;
  3020  001938  0100               	movlb	0	; () banked
  3021  00193A  9183               	bcf	(_I2C1_Status+35)& (0+255),0,b
  3022  00193C                     
  3023                           ; BSR set to: 0
  3024                           ;mcc_generated_files/i2c1_master.c: 407:     I2C1_MasterStartRx();
  3025  00193C  ECFD  F00C         	call	_I2C1_MasterStartRx	;wreg free
  3026  001940                     
  3027                           ;mcc_generated_files/i2c1_master.c: 408:     return I2C1_RX;
  3028  001940  0E04               	movlw	4
  3029  001942  0012               	return		;funcret
  3030  001944                     __end_of_I2C1_DO_RCEN:
  3031                           	callstack 0
  3032                           
  3033 ;; *************** function _I2C1_DO_RX *****************
  3034 ;; Defined at:
  3035 ;;		line 380 in file "mcc_generated_files/i2c1_master.c"
  3036 ;; Parameters:    Size  Location     Type
  3037 ;;		None
  3038 ;; Auto vars:     Size  Location     Type
  3039 ;;		None
  3040 ;; Return value:  Size  Location     Type
  3041 ;;                  1    wreg      enum E6655
  3042 ;; Registers used:
  3043 ;;		wreg, fsr2l, fsr2h, status,2, status,0, pcl, pclath, pclatu, tosl, prodl, prodh, cstack
  3044 ;; Tracked objects:
  3045 ;;		On entry : 0/0
  3046 ;;		On exit  : 0/0
  3047 ;;		Unchanged: 0/0
  3048 ;; Data sizes:     COMRAM   BANK0   BANK1   BANK2   BANK3   BANK4   BANK5   BANK6   BANK7   BANK8   BANK9  BANK10  BANK1
      +1  BANK12  BANK13  BANK14
  3049 ;;      Params:         0       0       0       0       0       0       0       0       0       0       0       0       
      +0       0       0       0
  3050 ;;      Locals:         0       0       0       0       0       0       0       0       0       0       0       0       
      +0       0       0       0
  3051 ;;      Temps:          2       0       0       0       0       0       0       0       0       0       0       0       
      +0       0       0       0
  3052 ;;      Totals:         2       0       0       0       0       0       0       0       0       0       0       0       
      +0       0       0       0
  3053 ;;Total ram usage:        2 bytes
  3054 ;; Hardware stack levels used: 1
  3055 ;; Hardware stack levels required when called: 3
  3056 ;; This function calls:
  3057 ;;		Absolute function
  3058 ;;		_I2C1_CallbackReturnReset
  3059 ;;		_I2C1_CallbackReturnStop
  3060 ;;		_I2C1_DO_RX_NACK_RESTART
  3061 ;;		_I2C1_DO_RX_NACK_STOP
  3062 ;;		_I2C1_MasterGetRxData
  3063 ;;		_I2C1_MasterSendAck
  3064 ;;		_rd1RegCompleteHandler
  3065 ;;		_rd2RegCompleteHandler
  3066 ;;		_rdBlkRegCompleteHandler
  3067 ;;		_wr1RegCompleteHandler
  3068 ;;		_wr2RegCompleteHandler
  3069 ;; This function is called by:
  3070 ;;		_I2C1_MasterFsm
  3071 ;; This function uses a non-reentrant model
  3072 ;;
  3073                           
  3074                           	psect	text35
  3075  0011A2                     __ptext35:
  3076                           	callstack 0
  3077  0011A2                     _I2C1_DO_RX:
  3078                           	callstack 18
  3079  0011A2                     
  3080                           ;mcc_generated_files/i2c1_master.c: 382:     *I2C1_Status.data_ptr++ = I2C1_MasterGetRxD
      +                          ata();
  3081  0011A2  ECFB  F00C         	call	_I2C1_MasterGetRxData	;wreg free
  3082  0011A6  C07D  FFD9         	movff	_I2C1_Status+29,fsr2l
  3083  0011AA  C07E  FFDA         	movff	_I2C1_Status+30,fsr2h
  3084  0011AE  6EDF               	movwf	indf2,c
  3085  0011B0  0100               	movlb	0	; () banked
  3086  0011B2  4B7D               	infsnz	(_I2C1_Status+29)& (0+255),f,b
  3087  0011B4  2B7E               	incf	(_I2C1_Status+30)& (0+255),f,b
  3088  0011B6                     
  3089                           ; BSR set to: 0
  3090                           ;mcc_generated_files/i2c1_master.c: 383:     if(--I2C1_Status.data_length)
  3091  0011B6  077F               	decf	(_I2C1_Status+31)& (0+255),f,b
  3092  0011B8  A0D8               	btfss	status,0,c
  3093  0011BA  0780               	decf	(_I2C1_Status+32)& (0+255),f,b
  3094  0011BC  517F               	movf	(_I2C1_Status+31)& (0+255),w,b
  3095  0011BE  1180               	iorwf	(_I2C1_Status+32)& (0+255),w,b
  3096  0011C0  B4D8               	btfsc	status,2,c
  3097  0011C2  EFE5  F008         	goto	i2u84_41
  3098  0011C6  EFE7  F008         	goto	i2u84_40
  3099  0011CA                     i2u84_41:
  3100  0011CA  EFEC  F008         	goto	i2l480
  3101  0011CE                     i2u84_40:
  3102  0011CE                     
  3103                           ; BSR set to: 0
  3104                           ;mcc_generated_files/i2c1_master.c: 384:     {;mcc_generated_files/i2c1_master.c: 385:  
      +                                 I2C1_MasterSendAck();
  3105  0011CE  ECE9  F00C         	call	_I2C1_MasterSendAck	;wreg free
  3106  0011D2                     
  3107                           ;mcc_generated_files/i2c1_master.c: 386:         return I2C1_RCEN;
  3108  0011D2  0E05               	movlw	5
  3109  0011D4  EF24  F009         	goto	i2l481
  3110  0011D8                     i2l480:
  3111                           
  3112                           ; BSR set to: 0
  3113                           ;mcc_generated_files/i2c1_master.c: 389:     {;mcc_generated_files/i2c1_master.c: 390:  
      +                                 I2C1_Status.bufferFree = 1;
  3114  0011D8  8783               	bsf	(_I2C1_Status+35)& (0+255),3,b
  3115                           
  3116                           ;mcc_generated_files/i2c1_master.c: 391:         switch(I2C1_Status.callbackTable[I2C1_D
      +                          ATA_COMPLETE](I2C1_Status.callbackPayload[I2C1_DATA_COMPLETE]))
  3117  0011DA  EFF7  F008         	goto	i2l2842
  3118  0011DE                     i2l2832:
  3119                           
  3120                           ;mcc_generated_files/i2c1_master.c: 395:                 return I2C1_DO_RX_NACK_RESTART(
      +                          );
  3121  0011DE  ECC6  F00C         	call	_I2C1_DO_RX_NACK_RESTART	;wreg free
  3122  0011E2  EF24  F009         	goto	i2l481
  3123  0011E6                     i2l2836:
  3124                           
  3125                           ;mcc_generated_files/i2c1_master.c: 399:                 return I2C1_DO_RX_NACK_STOP();
  3126  0011E6  ECCA  F00C         	call	_I2C1_DO_RX_NACK_STOP	;wreg free
  3127  0011EA  EF24  F009         	goto	i2l481
  3128  0011EE                     i2l2842:
  3129                           
  3130                           ; BSR set to: 0
  3131  0011EE  C06C  F02C         	movff	_I2C1_Status+12,I2C1_CallbackReturnReset@funPtr
  3132  0011F2  C06D  F02D         	movff	_I2C1_Status+13,I2C1_CallbackReturnReset@funPtr+1
  3133  0011F6  D802               	call	i2u85_48
  3134  0011F8  EF08  F009         	goto	i2u85_49
  3135  0011FC                     i2u85_48:
  3136  0011FC  0005               	push	
  3137  0011FE  6EFA               	movwf	pclath,c
  3138  001200  5160               	movf	_I2C1_Status& (0+255),w,b
  3139  001202  6EFD               	movwf	tosl,c
  3140  001204  5161               	movf	(_I2C1_Status+1)& (0+255),w,b
  3141  001206  6EFE               	movwf	tosh,c
  3142  001208  50F8               	movf	tblptru,w,c
  3143  00120A  6EFF               	movwf	tosu,c
  3144  00120C  50FA               	movf	pclath,w,c
  3145  00120E  0012               	return		;indir
  3146  001210                     i2u85_49:
  3147  001210  6E2E               	movwf	??_I2C1_DO_RX^0,c
  3148  001212  6A2F               	clrf	(??_I2C1_DO_RX+1)^0,c
  3149                           
  3150                           ; Switch on 2 bytes has been partitioned into a top level switch of size 1, and 1 sub-sw
      +                          itches
  3151                           ; Switch size 1, requested type "simple"
  3152                           ; Number of cases is 1, Range of values is 0 to 0
  3153                           ; switch strategies available:
  3154                           ; Name         Instructions Cycles
  3155                           ; simple_byte            4     3 (average)
  3156                           ;	Chosen strategy is simple_byte
  3157  001214  502F               	movf	(??_I2C1_DO_RX+1)^0,w,c
  3158  001216  0A00               	xorlw	0	; case 0
  3159  001218  B4D8               	btfsc	status,2,c
  3160  00121A  EF11  F009         	goto	i2l3642
  3161  00121E  EFF3  F008         	goto	i2l2836
  3162  001222                     i2l3642:
  3163                           
  3164                           ; Switch size 1, requested type "simple"
  3165                           ; Number of cases is 4, Range of values is 1 to 4
  3166                           ; switch strategies available:
  3167                           ; Name         Instructions Cycles
  3168                           ; simple_byte           13     7 (average)
  3169                           ;	Chosen strategy is simple_byte
  3170  001222  502E               	movf	??_I2C1_DO_RX^0,w,c
  3171  001224  0A01               	xorlw	1	; case 1
  3172  001226  B4D8               	btfsc	status,2,c
  3173  001228  EFF3  F008         	goto	i2l2836
  3174  00122C  0A03               	xorlw	3	; case 2
  3175  00122E  B4D8               	btfsc	status,2,c
  3176  001230  EFEF  F008         	goto	i2l2832
  3177  001234  0A01               	xorlw	1	; case 3
  3178  001236  B4D8               	btfsc	status,2,c
  3179  001238  EFEF  F008         	goto	i2l2832
  3180  00123C  0A07               	xorlw	7	; case 4
  3181  00123E  B4D8               	btfsc	status,2,c
  3182  001240  EFF3  F008         	goto	i2l2836
  3183  001244  EFF3  F008         	goto	i2l2836
  3184  001248                     i2l481:
  3185  001248  0012               	return		;funcret
  3186  00124A                     __end_of_I2C1_DO_RX:
  3187                           	callstack 0
  3188                           
  3189 ;; *************** function _I2C1_DO_TX *****************
  3190 ;; Defined at:
  3191 ;;		line 356 in file "mcc_generated_files/i2c1_master.c"
  3192 ;; Parameters:    Size  Location     Type
  3193 ;;		None
  3194 ;; Auto vars:     Size  Location     Type
  3195 ;;		None
  3196 ;; Return value:  Size  Location     Type
  3197 ;;                  1    wreg      enum E6655
  3198 ;; Registers used:
  3199 ;;		wreg, fsr2l, fsr2h, status,2, status,0, pcl, pclath, pclatu, tosl, prodl, prodh, cstack
  3200 ;; Tracked objects:
  3201 ;;		On entry : 0/0
  3202 ;;		On exit  : 0/0
  3203 ;;		Unchanged: 0/0
  3204 ;; Data sizes:     COMRAM   BANK0   BANK1   BANK2   BANK3   BANK4   BANK5   BANK6   BANK7   BANK8   BANK9  BANK10  BANK1
      +1  BANK12  BANK13  BANK14
  3205 ;;      Params:         0       0       0       0       0       0       0       0       0       0       0       0       
      +0       0       0       0
  3206 ;;      Locals:         0       0       0       0       0       0       0       0       0       0       0       0       
      +0       0       0       0
  3207 ;;      Temps:          2       0       0       0       0       0       0       0       0       0       0       0       
      +0       0       0       0
  3208 ;;      Totals:         2       0       0       0       0       0       0       0       0       0       0       0       
      +0       0       0       0
  3209 ;;Total ram usage:        2 bytes
  3210 ;; Hardware stack levels used: 1
  3211 ;; Hardware stack levels required when called: 3
  3212 ;; This function calls:
  3213 ;;		Absolute function
  3214 ;;		_I2C1_CallbackReturnReset
  3215 ;;		_I2C1_CallbackReturnStop
  3216 ;;		_I2C1_DO_SEND_RESTART_READ
  3217 ;;		_I2C1_DO_SEND_RESTART_WRITE
  3218 ;;		_I2C1_DO_SEND_STOP
  3219 ;;		_I2C1_MasterIsNack
  3220 ;;		_I2C1_MasterSendTxData
  3221 ;;		_rd1RegCompleteHandler
  3222 ;;		_rd2RegCompleteHandler
  3223 ;;		_rdBlkRegCompleteHandler
  3224 ;;		_wr1RegCompleteHandler
  3225 ;;		_wr2RegCompleteHandler
  3226 ;; This function is called by:
  3227 ;;		_I2C1_MasterFsm
  3228 ;; This function uses a non-reentrant model
  3229 ;;
  3230                           
  3231                           	psect	text36
  3232  001018                     __ptext36:
  3233                           	callstack 0
  3234  001018                     _I2C1_DO_TX:
  3235                           	callstack 18
  3236  001018                     
  3237                           ;mcc_generated_files/i2c1_master.c: 358:     if(I2C1_MasterIsNack())
  3238  001018  EC74  F00C         	call	_I2C1_MasterIsNack	;wreg free
  3239  00101C  0900               	iorlw	0
  3240  00101E  B4D8               	btfsc	status,2,c
  3241  001020  EF14  F008         	goto	i2u81_41
  3242  001024  EF16  F008         	goto	i2u81_40
  3243  001028                     i2u81_41:
  3244  001028  EF53  F008         	goto	i2l464
  3245  00102C                     i2u81_40:
  3246  00102C  EF24  F008         	goto	i2l2802
  3247  001030                     i2l2788:
  3248                           
  3249                           ;mcc_generated_files/i2c1_master.c: 363:                 return I2C1_DO_SEND_RESTART_REA
      +                          D();
  3250  001030  ECDE  F00C         	call	_I2C1_DO_SEND_RESTART_READ	;wreg free
  3251  001034  EF6F  F008         	goto	i2l467
  3252  001038                     i2l2792:
  3253                           
  3254                           ;mcc_generated_files/i2c1_master.c: 365:                   return I2C1_DO_SEND_RESTART_W
      +                          RITE();
  3255  001038  ECDA  F00C         	call	_I2C1_DO_SEND_RESTART_WRITE	;wreg free
  3256  00103C  EF6F  F008         	goto	i2l467
  3257  001040                     i2l2796:
  3258                           
  3259                           ;mcc_generated_files/i2c1_master.c: 369:                 return I2C1_DO_SEND_STOP();
  3260  001040  ECD2  F00C         	call	_I2C1_DO_SEND_STOP	;wreg free
  3261  001044  EF6F  F008         	goto	i2l467
  3262  001048                     i2l2802:
  3263  001048  C072  F02C         	movff	_I2C1_Status+18,I2C1_CallbackReturnReset@funPtr
  3264  00104C  C073  F02D         	movff	_I2C1_Status+19,I2C1_CallbackReturnReset@funPtr+1
  3265  001050  EE20  F066         	lfsr	2,_I2C1_Status+6
  3266  001054  D802               	call	i2u82_48
  3267  001056  EF37  F008         	goto	i2u82_49
  3268  00105A                     i2u82_48:
  3269  00105A  0005               	push	
  3270  00105C  6EFA               	movwf	pclath,c
  3271  00105E  50DE               	movf	postinc2,w,c
  3272  001060  6EFD               	movwf	tosl,c
  3273  001062  50DE               	movf	postinc2,w,c
  3274  001064  6EFE               	movwf	tosh,c
  3275  001066  50F8               	movf	tblptru,w,c
  3276  001068  6EFF               	movwf	tosu,c
  3277  00106A  50FA               	movf	pclath,w,c
  3278  00106C  0012               	return		;indir
  3279  00106E                     i2u82_49:
  3280  00106E  6E2E               	movwf	??_I2C1_DO_TX^0,c
  3281  001070  6A2F               	clrf	(??_I2C1_DO_TX+1)^0,c
  3282                           
  3283                           ; Switch on 2 bytes has been partitioned into a top level switch of size 1, and 1 sub-sw
      +                          itches
  3284                           ; Switch size 1, requested type "simple"
  3285                           ; Number of cases is 1, Range of values is 0 to 0
  3286                           ; switch strategies available:
  3287                           ; Name         Instructions Cycles
  3288                           ; simple_byte            4     3 (average)
  3289                           ;	Chosen strategy is simple_byte
  3290  001072  502F               	movf	(??_I2C1_DO_TX+1)^0,w,c
  3291  001074  0A00               	xorlw	0	; case 0
  3292  001076  B4D8               	btfsc	status,2,c
  3293  001078  EF40  F008         	goto	i2l3644
  3294  00107C  EF20  F008         	goto	i2l2796
  3295  001080                     i2l3644:
  3296                           
  3297                           ; Switch size 1, requested type "simple"
  3298                           ; Number of cases is 4, Range of values is 1 to 4
  3299                           ; switch strategies available:
  3300                           ; Name         Instructions Cycles
  3301                           ; simple_byte           13     7 (average)
  3302                           ;	Chosen strategy is simple_byte
  3303  001080  502E               	movf	??_I2C1_DO_TX^0,w,c
  3304  001082  0A01               	xorlw	1	; case 1
  3305  001084  B4D8               	btfsc	status,2,c
  3306  001086  EF20  F008         	goto	i2l2796
  3307  00108A  0A03               	xorlw	3	; case 2
  3308  00108C  B4D8               	btfsc	status,2,c
  3309  00108E  EF18  F008         	goto	i2l2788
  3310  001092  0A01               	xorlw	1	; case 3
  3311  001094  B4D8               	btfsc	status,2,c
  3312  001096  EF1C  F008         	goto	i2l2792
  3313  00109A  0A07               	xorlw	7	; case 4
  3314  00109C  B4D8               	btfsc	status,2,c
  3315  00109E  EF20  F008         	goto	i2l2796
  3316  0010A2  EF20  F008         	goto	i2l2796
  3317  0010A6                     i2l464:
  3318                           
  3319                           ;mcc_generated_files/i2c1_master.c: 373:     {;mcc_generated_files/i2c1_master.c: 374:  
      +                                 I2C1_Status.addressNackCheck = 0;
  3320  0010A6  0100               	movlb	0	; () banked
  3321  0010A8  9183               	bcf	(_I2C1_Status+35)& (0+255),0,b
  3322  0010AA                     
  3323                           ; BSR set to: 0
  3324                           ;mcc_generated_files/i2c1_master.c: 375:         I2C1_MasterSendTxData(*I2C1_Status.data
      +                          _ptr++);
  3325  0010AA  C07D  FFD9         	movff	_I2C1_Status+29,fsr2l
  3326  0010AE  C07E  FFDA         	movff	_I2C1_Status+30,fsr2h
  3327  0010B2  4B7D               	infsnz	(_I2C1_Status+29)& (0+255),f,b
  3328  0010B4  2B7E               	incf	(_I2C1_Status+30)& (0+255),f,b
  3329  0010B6  50DF               	movf	indf2,w,c
  3330  0010B8  ECE2  F00C         	call	_I2C1_MasterSendTxData
  3331  0010BC                     
  3332                           ;mcc_generated_files/i2c1_master.c: 376:         return (--I2C1_Status.data_length)?I2C1
      +                          _TX:I2C1_TX_EMPTY;
  3333  0010BC  0100               	movlb	0	; () banked
  3334  0010BE  077F               	decf	(_I2C1_Status+31)& (0+255),f,b
  3335  0010C0  A0D8               	btfss	status,0,c
  3336  0010C2  0780               	decf	(_I2C1_Status+32)& (0+255),f,b
  3337  0010C4  517F               	movf	(_I2C1_Status+31)& (0+255),w,b
  3338  0010C6  1180               	iorwf	(_I2C1_Status+32)& (0+255),w,b
  3339  0010C8  A4D8               	btfss	status,2,c
  3340  0010CA  EF69  F008         	goto	i2u83_41
  3341  0010CE  EF6B  F008         	goto	i2u83_40
  3342  0010D2                     i2u83_41:
  3343  0010D2  EF6E  F008         	goto	i2l2810
  3344  0010D6                     i2u83_40:
  3345  0010D6                     
  3346                           ; BSR set to: 0
  3347  0010D6  0E06               	movlw	6
  3348  0010D8  EF6F  F008         	goto	i2l467
  3349  0010DC                     i2l2810:
  3350                           
  3351                           ; BSR set to: 0
  3352  0010DC  0E03               	movlw	3
  3353  0010DE                     i2l467:
  3354  0010DE  0012               	return		;funcret
  3355  0010E0                     __end_of_I2C1_DO_TX:
  3356                           	callstack 0
  3357                           
  3358 ;; *************** function _I2C1_DO_SEND_ADR_WRITE *****************
  3359 ;; Defined at:
  3360 ;;		line 349 in file "mcc_generated_files/i2c1_master.c"
  3361 ;; Parameters:    Size  Location     Type
  3362 ;;		None
  3363 ;; Auto vars:     Size  Location     Type
  3364 ;;		None
  3365 ;; Return value:  Size  Location     Type
  3366 ;;                  1    wreg      enum E6655
  3367 ;; Registers used:
  3368 ;;		wreg, status,2, status,0, cstack
  3369 ;; Tracked objects:
  3370 ;;		On entry : 0/0
  3371 ;;		On exit  : 0/0
  3372 ;;		Unchanged: 0/0
  3373 ;; Data sizes:     COMRAM   BANK0   BANK1   BANK2   BANK3   BANK4   BANK5   BANK6   BANK7   BANK8   BANK9  BANK10  BANK1
      +1  BANK12  BANK13  BANK14
  3374 ;;      Params:         0       0       0       0       0       0       0       0       0       0       0       0       
      +0       0       0       0
  3375 ;;      Locals:         0       0       0       0       0       0       0       0       0       0       0       0       
      +0       0       0       0
  3376 ;;      Temps:          0       0       0       0       0       0       0       0       0       0       0       0       
      +0       0       0       0
  3377 ;;      Totals:         0       0       0       0       0       0       0       0       0       0       0       0       
      +0       0       0       0
  3378 ;;Total ram usage:        0 bytes
  3379 ;; Hardware stack levels used: 1
  3380 ;; Hardware stack levels required when called: 1
  3381 ;; This function calls:
  3382 ;;		_I2C1_MasterSendTxData
  3383 ;; This function is called by:
  3384 ;;		_I2C1_MasterFsm
  3385 ;; This function uses a non-reentrant model
  3386 ;;
  3387                           
  3388                           	psect	text37
  3389  00190C                     __ptext37:
  3390                           	callstack 0
  3391  00190C                     _I2C1_DO_SEND_ADR_WRITE:
  3392                           	callstack 20
  3393  00190C                     
  3394                           ;mcc_generated_files/i2c1_master.c: 351:     I2C1_Status.addressNackCheck = 1;
  3395  00190C  0100               	movlb	0	; () banked
  3396  00190E  8183               	bsf	(_I2C1_Status+35)& (0+255),0,b
  3397  001910                     
  3398                           ; BSR set to: 0
  3399                           ;mcc_generated_files/i2c1_master.c: 352:     I2C1_MasterSendTxData((uint8_t) (I2C1_Statu
      +                          s.address << 1));
  3400  001910  517C               	movf	(_I2C1_Status+28)& (0+255),w,b
  3401  001912  257C               	addwf	(_I2C1_Status+28)& (0+255),w,b
  3402  001914  ECE2  F00C         	call	_I2C1_MasterSendTxData
  3403  001918                     
  3404                           ;mcc_generated_files/i2c1_master.c: 353:     return I2C1_TX;
  3405  001918  0E03               	movlw	3
  3406  00191A  0012               	return		;funcret
  3407  00191C                     __end_of_I2C1_DO_SEND_ADR_WRITE:
  3408                           	callstack 0
  3409                           
  3410 ;; *************** function _I2C1_DO_SEND_ADR_READ *****************
  3411 ;; Defined at:
  3412 ;;		line 342 in file "mcc_generated_files/i2c1_master.c"
  3413 ;; Parameters:    Size  Location     Type
  3414 ;;		None
  3415 ;; Auto vars:     Size  Location     Type
  3416 ;;		None
  3417 ;; Return value:  Size  Location     Type
  3418 ;;                  1    wreg      enum E6655
  3419 ;; Registers used:
  3420 ;;		wreg, status,0, cstack
  3421 ;; Tracked objects:
  3422 ;;		On entry : 0/0
  3423 ;;		On exit  : 0/0
  3424 ;;		Unchanged: 0/0
  3425 ;; Data sizes:     COMRAM   BANK0   BANK1   BANK2   BANK3   BANK4   BANK5   BANK6   BANK7   BANK8   BANK9  BANK10  BANK1
      +1  BANK12  BANK13  BANK14
  3426 ;;      Params:         0       0       0       0       0       0       0       0       0       0       0       0       
      +0       0       0       0
  3427 ;;      Locals:         0       0       0       0       0       0       0       0       0       0       0       0       
      +0       0       0       0
  3428 ;;      Temps:          0       0       0       0       0       0       0       0       0       0       0       0       
      +0       0       0       0
  3429 ;;      Totals:         0       0       0       0       0       0       0       0       0       0       0       0       
      +0       0       0       0
  3430 ;;Total ram usage:        0 bytes
  3431 ;; Hardware stack levels used: 1
  3432 ;; Hardware stack levels required when called: 1
  3433 ;; This function calls:
  3434 ;;		_I2C1_MasterSendTxData
  3435 ;; This function is called by:
  3436 ;;		_I2C1_MasterFsm
  3437 ;; This function uses a non-reentrant model
  3438 ;;
  3439                           
  3440                           	psect	text38
  3441  00191C                     __ptext38:
  3442                           	callstack 0
  3443  00191C                     _I2C1_DO_SEND_ADR_READ:
  3444                           	callstack 20
  3445  00191C                     
  3446                           ;mcc_generated_files/i2c1_master.c: 344:     I2C1_Status.addressNackCheck = 1;
  3447  00191C  0100               	movlb	0	; () banked
  3448  00191E  8183               	bsf	(_I2C1_Status+35)& (0+255),0,b
  3449  001920                     
  3450                           ; BSR set to: 0
  3451                           ;mcc_generated_files/i2c1_master.c: 345:     I2C1_MasterSendTxData((uint8_t) (I2C1_Statu
      +                          s.address << 1 | 1));
  3452  001920  80D8               	bsf	status,0,c
  3453  001922  357C               	rlcf	(_I2C1_Status+28)& (0+255),w,b
  3454  001924  ECE2  F00C         	call	_I2C1_MasterSendTxData
  3455  001928                     
  3456                           ;mcc_generated_files/i2c1_master.c: 346:     return I2C1_RCEN;
  3457  001928  0E05               	movlw	5
  3458  00192A  0012               	return		;funcret
  3459  00192C                     __end_of_I2C1_DO_SEND_ADR_READ:
  3460                           	callstack 0
  3461                           
  3462 ;; *************** function _I2C1_DO_IDLE *****************
  3463 ;; Defined at:
  3464 ;;		line 335 in file "mcc_generated_files/i2c1_master.c"
  3465 ;; Parameters:    Size  Location     Type
  3466 ;;		None
  3467 ;; Auto vars:     Size  Location     Type
  3468 ;;		None
  3469 ;; Return value:  Size  Location     Type
  3470 ;;                  1    wreg      enum E6655
  3471 ;; Registers used:
  3472 ;;		wreg, status,2
  3473 ;; Tracked objects:
  3474 ;;		On entry : 0/0
  3475 ;;		On exit  : 0/0
  3476 ;;		Unchanged: 0/0
  3477 ;; Data sizes:     COMRAM   BANK0   BANK1   BANK2   BANK3   BANK4   BANK5   BANK6   BANK7   BANK8   BANK9  BANK10  BANK1
      +1  BANK12  BANK13  BANK14
  3478 ;;      Params:         0       0       0       0       0       0       0       0       0       0       0       0       
      +0       0       0       0
  3479 ;;      Locals:         0       0       0       0       0       0       0       0       0       0       0       0       
      +0       0       0       0
  3480 ;;      Temps:          0       0       0       0       0       0       0       0       0       0       0       0       
      +0       0       0       0
  3481 ;;      Totals:         0       0       0       0       0       0       0       0       0       0       0       0       
      +0       0       0       0
  3482 ;;Total ram usage:        0 bytes
  3483 ;; Hardware stack levels used: 1
  3484 ;; This function calls:
  3485 ;;		Nothing
  3486 ;; This function is called by:
  3487 ;;		_I2C1_MasterFsm
  3488 ;; This function uses a non-reentrant model
  3489 ;;
  3490                           
  3491                           	psect	text39
  3492  001944                     __ptext39:
  3493                           	callstack 0
  3494  001944                     _I2C1_DO_IDLE:
  3495                           	callstack 21
  3496  001944                     
  3497                           ;mcc_generated_files/i2c1_master.c: 337:     I2C1_Status.busy = 0;
  3498  001944  0100               	movlb	0	; () banked
  3499  001946  9383               	bcf	(_I2C1_Status+35)& (0+255),1,b
  3500  001948                     
  3501                           ; BSR set to: 0
  3502                           ;mcc_generated_files/i2c1_master.c: 338:     I2C1_Status.error = I2C1_NOERR;
  3503  001948  0E00               	movlw	0
  3504  00194A  6F82               	movwf	(_I2C1_Status+34)& (0+255),b
  3505  00194C                     
  3506                           ; BSR set to: 0
  3507                           ;mcc_generated_files/i2c1_master.c: 339:     return I2C1_RESET;
  3508  00194C  0E0E               	movlw	14
  3509  00194E                     
  3510                           ; BSR set to: 0
  3511  00194E  0012               	return		;funcret
  3512  001950                     __end_of_I2C1_DO_IDLE:
  3513                           	callstack 0
  3514                           
  3515 ;; *************** function _I2C1_DO_TX_EMPTY *****************
  3516 ;; Defined at:
  3517 ;;		line 411 in file "mcc_generated_files/i2c1_master.c"
  3518 ;; Parameters:    Size  Location     Type
  3519 ;;		None
  3520 ;; Auto vars:     Size  Location     Type
  3521 ;;		None
  3522 ;; Return value:  Size  Location     Type
  3523 ;;                  1    wreg      enum E6655
  3524 ;; Registers used:
  3525 ;;		wreg, fsr2l, fsr2h, status,2, status,0, pcl, pclath, pclatu, tosl, prodl, prodh, cstack
  3526 ;; Tracked objects:
  3527 ;;		On entry : 0/0
  3528 ;;		On exit  : 0/0
  3529 ;;		Unchanged: 0/0
  3530 ;; Data sizes:     COMRAM   BANK0   BANK1   BANK2   BANK3   BANK4   BANK5   BANK6   BANK7   BANK8   BANK9  BANK10  BANK1
      +1  BANK12  BANK13  BANK14
  3531 ;;      Params:         0       0       0       0       0       0       0       0       0       0       0       0       
      +0       0       0       0
  3532 ;;      Locals:         0       0       0       0       0       0       0       0       0       0       0       0       
      +0       0       0       0
  3533 ;;      Temps:          2       0       0       0       0       0       0       0       0       0       0       0       
      +0       0       0       0
  3534 ;;      Totals:         2       0       0       0       0       0       0       0       0       0       0       0       
      +0       0       0       0
  3535 ;;Total ram usage:        2 bytes
  3536 ;; Hardware stack levels used: 1
  3537 ;; Hardware stack levels required when called: 3
  3538 ;; This function calls:
  3539 ;;		Absolute function
  3540 ;;		_I2C1_CallbackReturnReset
  3541 ;;		_I2C1_CallbackReturnStop
  3542 ;;		_I2C1_DO_SEND_RESTART
  3543 ;;		_I2C1_DO_SEND_STOP
  3544 ;;		_I2C1_MasterSetIrq
  3545 ;;		_rd1RegCompleteHandler
  3546 ;;		_rd2RegCompleteHandler
  3547 ;;		_rdBlkRegCompleteHandler
  3548 ;;		_wr1RegCompleteHandler
  3549 ;;		_wr2RegCompleteHandler
  3550 ;; This function is called by:
  3551 ;;		_I2C1_MasterFsm
  3552 ;; This function uses a non-reentrant model
  3553 ;;
  3554                           
  3555                           	psect	text40
  3556  0012E2                     __ptext40:
  3557                           	callstack 0
  3558  0012E2                     _I2C1_DO_TX_EMPTY:
  3559                           	callstack 18
  3560  0012E2                     
  3561                           ;mcc_generated_files/i2c1_master.c: 413:     I2C1_Status.bufferFree = 1;
  3562  0012E2  0100               	movlb	0	; () banked
  3563  0012E4  8783               	bsf	(_I2C1_Status+35)& (0+255),3,b
  3564                           
  3565                           ;mcc_generated_files/i2c1_master.c: 414:     switch(I2C1_Status.callbackTable[I2C1_DATA_
      +                          COMPLETE](I2C1_Status.callbackPayload[I2C1_DATA_COMPLETE]))
  3566  0012E6  EF82  F009         	goto	i2l2874
  3567  0012EA                     i2l2858:
  3568                           
  3569                           ;mcc_generated_files/i2c1_master.c: 418:             return I2C1_DO_SEND_RESTART();
  3570  0012EA  ECD6  F00C         	call	_I2C1_DO_SEND_RESTART	;wreg free
  3571  0012EE  EFAF  F009         	goto	i2l498
  3572  0012F2                     i2l2862:
  3573                           
  3574                           ;mcc_generated_files/i2c1_master.c: 420:             I2C1_MasterSetIrq();
  3575  0012F2  ECF9  F00C         	call	_I2C1_MasterSetIrq	;wreg free
  3576  0012F6                     
  3577                           ;mcc_generated_files/i2c1_master.c: 421:             return I2C1_TX;
  3578  0012F6  0E03               	movlw	3
  3579  0012F8  EFAF  F009         	goto	i2l498
  3580  0012FC                     i2l2868:
  3581                           
  3582                           ;mcc_generated_files/i2c1_master.c: 424:             return I2C1_DO_SEND_STOP();
  3583  0012FC  ECD2  F00C         	call	_I2C1_DO_SEND_STOP	;wreg free
  3584  001300  EFAF  F009         	goto	i2l498
  3585  001304                     i2l2874:
  3586                           
  3587                           ; BSR set to: 0
  3588  001304  C06C  F02C         	movff	_I2C1_Status+12,I2C1_CallbackReturnReset@funPtr
  3589  001308  C06D  F02D         	movff	_I2C1_Status+13,I2C1_CallbackReturnReset@funPtr+1
  3590  00130C  D802               	call	i2u86_48
  3591  00130E  EF93  F009         	goto	i2u86_49
  3592  001312                     i2u86_48:
  3593  001312  0005               	push	
  3594  001314  6EFA               	movwf	pclath,c
  3595  001316  5160               	movf	_I2C1_Status& (0+255),w,b
  3596  001318  6EFD               	movwf	tosl,c
  3597  00131A  5161               	movf	(_I2C1_Status+1)& (0+255),w,b
  3598  00131C  6EFE               	movwf	tosh,c
  3599  00131E  50F8               	movf	tblptru,w,c
  3600  001320  6EFF               	movwf	tosu,c
  3601  001322  50FA               	movf	pclath,w,c
  3602  001324  0012               	return		;indir
  3603  001326                     i2u86_49:
  3604  001326  6E2E               	movwf	??_I2C1_DO_TX_EMPTY^0,c
  3605  001328  6A2F               	clrf	(??_I2C1_DO_TX_EMPTY+1)^0,c
  3606                           
  3607                           ; Switch on 2 bytes has been partitioned into a top level switch of size 1, and 1 sub-sw
      +                          itches
  3608                           ; Switch size 1, requested type "simple"
  3609                           ; Number of cases is 1, Range of values is 0 to 0
  3610                           ; switch strategies available:
  3611                           ; Name         Instructions Cycles
  3612                           ; simple_byte            4     3 (average)
  3613                           ;	Chosen strategy is simple_byte
  3614  00132A  502F               	movf	(??_I2C1_DO_TX_EMPTY+1)^0,w,c
  3615  00132C  0A00               	xorlw	0	; case 0
  3616  00132E  B4D8               	btfsc	status,2,c
  3617  001330  EF9C  F009         	goto	i2l3646
  3618  001334  EF7E  F009         	goto	i2l2868
  3619  001338                     i2l3646:
  3620                           
  3621                           ; Switch size 1, requested type "simple"
  3622                           ; Number of cases is 4, Range of values is 1 to 4
  3623                           ; switch strategies available:
  3624                           ; Name         Instructions Cycles
  3625                           ; simple_byte           13     7 (average)
  3626                           ;	Chosen strategy is simple_byte
  3627  001338  502E               	movf	??_I2C1_DO_TX_EMPTY^0,w,c
  3628  00133A  0A01               	xorlw	1	; case 1
  3629  00133C  B4D8               	btfsc	status,2,c
  3630  00133E  EF7E  F009         	goto	i2l2868
  3631  001342  0A03               	xorlw	3	; case 2
  3632  001344  B4D8               	btfsc	status,2,c
  3633  001346  EF75  F009         	goto	i2l2858
  3634  00134A  0A01               	xorlw	1	; case 3
  3635  00134C  B4D8               	btfsc	status,2,c
  3636  00134E  EF75  F009         	goto	i2l2858
  3637  001352  0A07               	xorlw	7	; case 4
  3638  001354  B4D8               	btfsc	status,2,c
  3639  001356  EF79  F009         	goto	i2l2862
  3640  00135A  EF7E  F009         	goto	i2l2868
  3641  00135E                     i2l498:
  3642  00135E  0012               	return		;funcret
  3643  001360                     __end_of_I2C1_DO_TX_EMPTY:
  3644                           	callstack 0
  3645                           
  3646 ;; *************** function _I2C1_MasterSetIrq *****************
  3647 ;; Defined at:
  3648 ;;		line 647 in file "mcc_generated_files/i2c1_master.c"
  3649 ;; Parameters:    Size  Location     Type
  3650 ;;		None
  3651 ;; Auto vars:     Size  Location     Type
  3652 ;;		None
  3653 ;; Return value:  Size  Location     Type
  3654 ;;                  1    wreg      void 
  3655 ;; Registers used:
  3656 ;;		None
  3657 ;; Tracked objects:
  3658 ;;		On entry : 0/0
  3659 ;;		On exit  : 0/0
  3660 ;;		Unchanged: 0/0
  3661 ;; Data sizes:     COMRAM   BANK0   BANK1   BANK2   BANK3   BANK4   BANK5   BANK6   BANK7   BANK8   BANK9  BANK10  BANK1
      +1  BANK12  BANK13  BANK14
  3662 ;;      Params:         0       0       0       0       0       0       0       0       0       0       0       0       
      +0       0       0       0
  3663 ;;      Locals:         0       0       0       0       0       0       0       0       0       0       0       0       
      +0       0       0       0
  3664 ;;      Temps:          0       0       0       0       0       0       0       0       0       0       0       0       
      +0       0       0       0
  3665 ;;      Totals:         0       0       0       0       0       0       0       0       0       0       0       0       
      +0       0       0       0
  3666 ;;Total ram usage:        0 bytes
  3667 ;; Hardware stack levels used: 1
  3668 ;; This function calls:
  3669 ;;		Nothing
  3670 ;; This function is called by:
  3671 ;;		_I2C1_DO_TX_EMPTY
  3672 ;; This function uses a non-reentrant model
  3673 ;;
  3674                           
  3675                           	psect	text41
  3676  0019F2                     __ptext41:
  3677                           	callstack 0
  3678  0019F2                     _I2C1_MasterSetIrq:
  3679                           	callstack 20
  3680  0019F2                     
  3681                           ;mcc_generated_files/i2c1_master.c: 649:     PIR1bits.SSP1IF = 1;
  3682  0019F2  869E               	bsf	158,3,c	;volatile
  3683  0019F4  0012               	return		;funcret
  3684  0019F6                     __end_of_I2C1_MasterSetIrq:
  3685                           	callstack 0
  3686                           
  3687 ;; *************** function _I2C1_MasterIsNack *****************
  3688 ;; Defined at:
  3689 ;;		line 599 in file "mcc_generated_files/i2c1_master.c"
  3690 ;; Parameters:    Size  Location     Type
  3691 ;;		None
  3692 ;; Auto vars:     Size  Location     Type
  3693 ;;		None
  3694 ;; Return value:  Size  Location     Type
  3695 ;;                  1    wreg      _Bool 
  3696 ;; Registers used:
  3697 ;;		wreg
  3698 ;; Tracked objects:
  3699 ;;		On entry : 0/0
  3700 ;;		On exit  : 0/0
  3701 ;;		Unchanged: 0/0
  3702 ;; Data sizes:     COMRAM   BANK0   BANK1   BANK2   BANK3   BANK4   BANK5   BANK6   BANK7   BANK8   BANK9  BANK10  BANK1
      +1  BANK12  BANK13  BANK14
  3703 ;;      Params:         0       0       0       0       0       0       0       0       0       0       0       0       
      +0       0       0       0
  3704 ;;      Locals:         0       0       0       0       0       0       0       0       0       0       0       0       
      +0       0       0       0
  3705 ;;      Temps:          0       0       0       0       0       0       0       0       0       0       0       0       
      +0       0       0       0
  3706 ;;      Totals:         0       0       0       0       0       0       0       0       0       0       0       0       
      +0       0       0       0
  3707 ;;Total ram usage:        0 bytes
  3708 ;; Hardware stack levels used: 1
  3709 ;; This function calls:
  3710 ;;		Nothing
  3711 ;; This function is called by:
  3712 ;;		_I2C1_MasterFsm
  3713 ;;		_I2C1_DO_TX
  3714 ;; This function uses a non-reentrant model
  3715 ;;
  3716                           
  3717                           	psect	text42
  3718  0018E8                     __ptext42:
  3719                           	callstack 0
  3720  0018E8                     _I2C1_MasterIsNack:
  3721                           	callstack 21
  3722  0018E8                     
  3723                           ;mcc_generated_files/i2c1_master.c: 601:     return SSP1CON2bits.ACKSTAT;
  3724  0018E8  BCC5               	btfsc	197,6,c	;volatile
  3725  0018EA  EF79  F00C         	goto	i2u75_41
  3726  0018EE  EF7C  F00C         	goto	i2u75_40
  3727  0018F2                     i2u75_41:
  3728  0018F2  0E01               	movlw	1
  3729  0018F4  EF7D  F00C         	goto	i2u75_46
  3730  0018F8                     i2u75_40:
  3731  0018F8  0E00               	movlw	0
  3732  0018FA                     i2u75_46:
  3733  0018FA  0012               	return		;funcret
  3734  0018FC                     __end_of_I2C1_MasterIsNack:
  3735                           	callstack 0
  3736                           
  3737 ;; *************** function _I2C1_MasterSendTxData *****************
  3738 ;; Defined at:
  3739 ;;		line 569 in file "mcc_generated_files/i2c1_master.c"
  3740 ;; Parameters:    Size  Location     Type
  3741 ;;  data            1    wreg     unsigned char 
  3742 ;; Auto vars:     Size  Location     Type
  3743 ;;  data            1    0[COMRAM] unsigned char 
  3744 ;; Return value:  Size  Location     Type
  3745 ;;                  1    wreg      void 
  3746 ;; Registers used:
  3747 ;;		wreg
  3748 ;; Tracked objects:
  3749 ;;		On entry : 0/0
  3750 ;;		On exit  : 0/0
  3751 ;;		Unchanged: 0/0
  3752 ;; Data sizes:     COMRAM   BANK0   BANK1   BANK2   BANK3   BANK4   BANK5   BANK6   BANK7   BANK8   BANK9  BANK10  BANK1
      +1  BANK12  BANK13  BANK14
  3753 ;;      Params:         0       0       0       0       0       0       0       0       0       0       0       0       
      +0       0       0       0
  3754 ;;      Locals:         1       0       0       0       0       0       0       0       0       0       0       0       
      +0       0       0       0
  3755 ;;      Temps:          0       0       0       0       0       0       0       0       0       0       0       0       
      +0       0       0       0
  3756 ;;      Totals:         1       0       0       0       0       0       0       0       0       0       0       0       
      +0       0       0       0
  3757 ;;Total ram usage:        1 bytes
  3758 ;; Hardware stack levels used: 1
  3759 ;; This function calls:
  3760 ;;		Nothing
  3761 ;; This function is called by:
  3762 ;;		_I2C1_DO_SEND_ADR_READ
  3763 ;;		_I2C1_DO_SEND_ADR_WRITE
  3764 ;;		_I2C1_DO_TX
  3765 ;; This function uses a non-reentrant model
  3766 ;;
  3767                           
  3768                           	psect	text43
  3769  0019C4                     __ptext43:
  3770                           	callstack 0
  3771  0019C4                     _I2C1_MasterSendTxData:
  3772                           	callstack 20
  3773                           
  3774                           ;incstack = 0
  3775                           ;I2C1_MasterSendTxData@data stored from wreg
  3776  0019C4  6E23               	movwf	I2C1_MasterSendTxData@data^0,c
  3777  0019C6                     
  3778                           ;mcc_generated_files/i2c1_master.c: 569: static __attribute__((inline)) void I2C1_Master
      +                          SendTxData(uint8_t data);mcc_generated_files/i2c1_master.c: 570: {;mcc_generated_files/i
      +                          2c1_master.c: 571:     SSP1BUF = data;
  3779  0019C6  C023  FFC9         	movff	I2C1_MasterSendTxData@data,4041	;volatile
  3780  0019CA  0012               	return		;funcret
  3781  0019CC                     __end_of_I2C1_MasterSendTxData:
  3782                           	callstack 0
  3783                           
  3784 ;; *************** function _I2C1_MasterSendAck *****************
  3785 ;; Defined at:
  3786 ;;		line 604 in file "mcc_generated_files/i2c1_master.c"
  3787 ;; Parameters:    Size  Location     Type
  3788 ;;		None
  3789 ;; Auto vars:     Size  Location     Type
  3790 ;;		None
  3791 ;; Return value:  Size  Location     Type
  3792 ;;                  1    wreg      void 
  3793 ;; Registers used:
  3794 ;;		None
  3795 ;; Tracked objects:
  3796 ;;		On entry : 0/0
  3797 ;;		On exit  : 0/0
  3798 ;;		Unchanged: 0/0
  3799 ;; Data sizes:     COMRAM   BANK0   BANK1   BANK2   BANK3   BANK4   BANK5   BANK6   BANK7   BANK8   BANK9  BANK10  BANK1
      +1  BANK12  BANK13  BANK14
  3800 ;;      Params:         0       0       0       0       0       0       0       0       0       0       0       0       
      +0       0       0       0
  3801 ;;      Locals:         0       0       0       0       0       0       0       0       0       0       0       0       
      +0       0       0       0
  3802 ;;      Temps:          0       0       0       0       0       0       0       0       0       0       0       0       
      +0       0       0       0
  3803 ;;      Totals:         0       0       0       0       0       0       0       0       0       0       0       0       
      +0       0       0       0
  3804 ;;Total ram usage:        0 bytes
  3805 ;; Hardware stack levels used: 1
  3806 ;; This function calls:
  3807 ;;		Nothing
  3808 ;; This function is called by:
  3809 ;;		_I2C1_DO_RX
  3810 ;;		_I2C1_DO_RX_ACK
  3811 ;; This function uses a non-reentrant model
  3812 ;;
  3813                           
  3814                           	psect	text44
  3815  0019D2                     __ptext44:
  3816                           	callstack 0
  3817  0019D2                     _I2C1_MasterSendAck:
  3818                           	callstack 20
  3819  0019D2                     
  3820                           ;mcc_generated_files/i2c1_master.c: 606:     SSP1CON2bits.ACKDT = 0;
  3821  0019D2  9AC5               	bcf	197,5,c	;volatile
  3822                           
  3823                           ;mcc_generated_files/i2c1_master.c: 607:     SSP1CON2bits.ACKEN = 1;
  3824  0019D4  88C5               	bsf	197,4,c	;volatile
  3825  0019D6  0012               	return		;funcret
  3826  0019D8                     __end_of_I2C1_MasterSendAck:
  3827                           	callstack 0
  3828                           
  3829 ;; *************** function _I2C1_MasterGetRxData *****************
  3830 ;; Defined at:
  3831 ;;		line 564 in file "mcc_generated_files/i2c1_master.c"
  3832 ;; Parameters:    Size  Location     Type
  3833 ;;		None
  3834 ;; Auto vars:     Size  Location     Type
  3835 ;;		None
  3836 ;; Return value:  Size  Location     Type
  3837 ;;                  1    wreg      unsigned char 
  3838 ;; Registers used:
  3839 ;;		wreg, status,2
  3840 ;; Tracked objects:
  3841 ;;		On entry : 0/0
  3842 ;;		On exit  : 0/0
  3843 ;;		Unchanged: 0/0
  3844 ;; Data sizes:     COMRAM   BANK0   BANK1   BANK2   BANK3   BANK4   BANK5   BANK6   BANK7   BANK8   BANK9  BANK10  BANK1
      +1  BANK12  BANK13  BANK14
  3845 ;;      Params:         0       0       0       0       0       0       0       0       0       0       0       0       
      +0       0       0       0
  3846 ;;      Locals:         0       0       0       0       0       0       0       0       0       0       0       0       
      +0       0       0       0
  3847 ;;      Temps:          0       0       0       0       0       0       0       0       0       0       0       0       
      +0       0       0       0
  3848 ;;      Totals:         0       0       0       0       0       0       0       0       0       0       0       0       
      +0       0       0       0
  3849 ;;Total ram usage:        0 bytes
  3850 ;; Hardware stack levels used: 1
  3851 ;; This function calls:
  3852 ;;		Nothing
  3853 ;; This function is called by:
  3854 ;;		_I2C1_DO_RX
  3855 ;; This function uses a non-reentrant model
  3856 ;;
  3857                           
  3858                           	psect	text45
  3859  0019F6                     __ptext45:
  3860                           	callstack 0
  3861  0019F6                     _I2C1_MasterGetRxData:
  3862                           	callstack 20
  3863  0019F6                     
  3864                           ;mcc_generated_files/i2c1_master.c: 566:     return SSP1BUF;
  3865  0019F6  50C9               	movf	201,w,c	;volatile
  3866  0019F8  0012               	return		;funcret
  3867  0019FA                     __end_of_I2C1_MasterGetRxData:
  3868                           	callstack 0
  3869                           
  3870 ;; *************** function _I2C1_MasterSendNack *****************
  3871 ;; Defined at:
  3872 ;;		line 610 in file "mcc_generated_files/i2c1_master.c"
  3873 ;; Parameters:    Size  Location     Type
  3874 ;;		None
  3875 ;; Auto vars:     Size  Location     Type
  3876 ;;		None
  3877 ;; Return value:  Size  Location     Type
  3878 ;;                  1    wreg      void 
  3879 ;; Registers used:
  3880 ;;		None
  3881 ;; Tracked objects:
  3882 ;;		On entry : 0/0
  3883 ;;		On exit  : 0/0
  3884 ;;		Unchanged: 0/0
  3885 ;; Data sizes:     COMRAM   BANK0   BANK1   BANK2   BANK3   BANK4   BANK5   BANK6   BANK7   BANK8   BANK9  BANK10  BANK1
      +1  BANK12  BANK13  BANK14
  3886 ;;      Params:         0       0       0       0       0       0       0       0       0       0       0       0       
      +0       0       0       0
  3887 ;;      Locals:         0       0       0       0       0       0       0       0       0       0       0       0       
      +0       0       0       0
  3888 ;;      Temps:          0       0       0       0       0       0       0       0       0       0       0       0       
      +0       0       0       0
  3889 ;;      Totals:         0       0       0       0       0       0       0       0       0       0       0       0       
      +0       0       0       0
  3890 ;;Total ram usage:        0 bytes
  3891 ;; Hardware stack levels used: 1
  3892 ;; This function calls:
  3893 ;;		Nothing
  3894 ;; This function is called by:
  3895 ;;		_I2C1_DO_RX_NACK_STOP
  3896 ;;		_I2C1_DO_RX_NACK_RESTART
  3897 ;; This function uses a non-reentrant model
  3898 ;;
  3899                           
  3900                           	psect	text46
  3901  0019D8                     __ptext46:
  3902                           	callstack 0
  3903  0019D8                     _I2C1_MasterSendNack:
  3904                           	callstack 20
  3905  0019D8                     
  3906                           ;mcc_generated_files/i2c1_master.c: 612:     SSP1CON2bits.ACKDT = 1;
  3907  0019D8  8AC5               	bsf	197,5,c	;volatile
  3908                           
  3909                           ;mcc_generated_files/i2c1_master.c: 613:     SSP1CON2bits.ACKEN = 1;
  3910  0019DA  88C5               	bsf	197,4,c	;volatile
  3911  0019DC  0012               	return		;funcret
  3912  0019DE                     __end_of_I2C1_MasterSendNack:
  3913                           	callstack 0
  3914                           
  3915 ;; *************** function _I2C1_MasterStartRx *****************
  3916 ;; Defined at:
  3917 ;;		line 584 in file "mcc_generated_files/i2c1_master.c"
  3918 ;; Parameters:    Size  Location     Type
  3919 ;;		None
  3920 ;; Auto vars:     Size  Location     Type
  3921 ;;		None
  3922 ;; Return value:  Size  Location     Type
  3923 ;;                  1    wreg      void 
  3924 ;; Registers used:
  3925 ;;		None
  3926 ;; Tracked objects:
  3927 ;;		On entry : 0/0
  3928 ;;		On exit  : 0/0
  3929 ;;		Unchanged: 0/0
  3930 ;; Data sizes:     COMRAM   BANK0   BANK1   BANK2   BANK3   BANK4   BANK5   BANK6   BANK7   BANK8   BANK9  BANK10  BANK1
      +1  BANK12  BANK13  BANK14
  3931 ;;      Params:         0       0       0       0       0       0       0       0       0       0       0       0       
      +0       0       0       0
  3932 ;;      Locals:         0       0       0       0       0       0       0       0       0       0       0       0       
      +0       0       0       0
  3933 ;;      Temps:          0       0       0       0       0       0       0       0       0       0       0       0       
      +0       0       0       0
  3934 ;;      Totals:         0       0       0       0       0       0       0       0       0       0       0       0       
      +0       0       0       0
  3935 ;;Total ram usage:        0 bytes
  3936 ;; Hardware stack levels used: 1
  3937 ;; This function calls:
  3938 ;;		Nothing
  3939 ;; This function is called by:
  3940 ;;		_I2C1_DO_RCEN
  3941 ;; This function uses a non-reentrant model
  3942 ;;
  3943                           
  3944                           	psect	text47
  3945  0019FA                     __ptext47:
  3946                           	callstack 0
  3947  0019FA                     _I2C1_MasterStartRx:
  3948                           	callstack 20
  3949  0019FA                     
  3950                           ;mcc_generated_files/i2c1_master.c: 586:     SSP1CON2bits.RCEN = 1;
  3951  0019FA  86C5               	bsf	197,3,c	;volatile
  3952  0019FC  0012               	return		;funcret
  3953  0019FE                     __end_of_I2C1_MasterStartRx:
  3954                           	callstack 0
  3955                           
  3956 ;; *************** function _I2C1_CallbackReturnReset *****************
  3957 ;; Defined at:
  3958 ;;		line 526 in file "mcc_generated_files/i2c1_master.c"
  3959 ;; Parameters:    Size  Location     Type
  3960 ;;  funPtr          2    9[COMRAM] PTR void 
  3961 ;;		 -> I2C1_ReadDataBlock@bufferBlock(4), I2C1_Write2ByteRegister@data(2), I2C1_Write1ByteRegister@data(1), I2C1_Read2B
      +yteRegister@returnValue(2), 
  3962 ;;		 -> NULL(0), I2C1_Read1ByteRegister@returnValue(1), 
  3963 ;; Auto vars:     Size  Location     Type
  3964 ;;		None
  3965 ;; Return value:  Size  Location     Type
  3966 ;;                  1    wreg      enum E360
  3967 ;; Registers used:
  3968 ;;		wreg
  3969 ;; Tracked objects:
  3970 ;;		On entry : 0/0
  3971 ;;		On exit  : 0/0
  3972 ;;		Unchanged: 0/0
  3973 ;; Data sizes:     COMRAM   BANK0   BANK1   BANK2   BANK3   BANK4   BANK5   BANK6   BANK7   BANK8   BANK9  BANK10  BANK1
      +1  BANK12  BANK13  BANK14
  3974 ;;      Params:         2       0       0       0       0       0       0       0       0       0       0       0       
      +0       0       0       0
  3975 ;;      Locals:         0       0       0       0       0       0       0       0       0       0       0       0       
      +0       0       0       0
  3976 ;;      Temps:          0       0       0       0       0       0       0       0       0       0       0       0       
      +0       0       0       0
  3977 ;;      Totals:         2       0       0       0       0       0       0       0       0       0       0       0       
      +0       0       0       0
  3978 ;;Total ram usage:        2 bytes
  3979 ;; Hardware stack levels used: 1
  3980 ;; This function calls:
  3981 ;;		Nothing
  3982 ;; This function is called by:
  3983 ;;		_I2C1_Open
  3984 ;;		_I2C1_DO_TX
  3985 ;;		_I2C1_DO_RX
  3986 ;;		_I2C1_DO_TX_EMPTY
  3987 ;;		_I2C1_DO_ADDRESS_NACK
  3988 ;;		_I2C1_DO_RX_EMPTY
  3989 ;; This function uses a non-reentrant model
  3990 ;;
  3991                           
  3992                           	psect	text48
  3993  0019FE                     __ptext48:
  3994                           	callstack 0
  3995  0019FE                     _I2C1_CallbackReturnReset:
  3996                           	callstack 20
  3997  0019FE                     
  3998                           ;mcc_generated_files/i2c1_master.c: 526: i2c1_operations_t I2C1_CallbackReturnReset(void
      +                           *funPtr);mcc_generated_files/i2c1_master.c: 527: {;mcc_generated_files/i2c1_master.c: 5
      +                          28:     return I2C1_RESET_LINK;
  3999  0019FE  0E05               	movlw	5
  4000  001A00  0012               	return		;funcret
  4001  001A02                     __end_of_I2C1_CallbackReturnReset:
  4002                           	callstack 0
  4003                           
  4004 ;; *************** function _I2C1_CallbackReturnStop *****************
  4005 ;; Defined at:
  4006 ;;		line 521 in file "mcc_generated_files/i2c1_master.c"
  4007 ;; Parameters:    Size  Location     Type
  4008 ;;  funPtr          2    9[COMRAM] PTR void 
  4009 ;;		 -> I2C1_ReadDataBlock@bufferBlock(4), I2C1_Write2ByteRegister@data(2), I2C1_Write1ByteRegister@data(1), I2C1_Read2B
      +yteRegister@returnValue(2), 
  4010 ;;		 -> NULL(0), I2C1_Read1ByteRegister@returnValue(1), 
  4011 ;; Auto vars:     Size  Location     Type
  4012 ;;		None
  4013 ;; Return value:  Size  Location     Type
  4014 ;;                  1    wreg      enum E360
  4015 ;; Registers used:
  4016 ;;		wreg
  4017 ;; Tracked objects:
  4018 ;;		On entry : 0/0
  4019 ;;		On exit  : 0/0
  4020 ;;		Unchanged: 0/0
  4021 ;; Data sizes:     COMRAM   BANK0   BANK1   BANK2   BANK3   BANK4   BANK5   BANK6   BANK7   BANK8   BANK9  BANK10  BANK1
      +1  BANK12  BANK13  BANK14
  4022 ;;      Params:         2       0       0       0       0       0       0       0       0       0       0       0       
      +0       0       0       0
  4023 ;;      Locals:         0       0       0       0       0       0       0       0       0       0       0       0       
      +0       0       0       0
  4024 ;;      Temps:          0       0       0       0       0       0       0       0       0       0       0       0       
      +0       0       0       0
  4025 ;;      Totals:         2       0       0       0       0       0       0       0       0       0       0       0       
      +0       0       0       0
  4026 ;;Total ram usage:        2 bytes
  4027 ;; Hardware stack levels used: 1
  4028 ;; This function calls:
  4029 ;;		Nothing
  4030 ;; This function is called by:
  4031 ;;		_I2C1_SetCallback
  4032 ;;		_I2C1_Open
  4033 ;;		_I2C1_DO_TX
  4034 ;;		_I2C1_DO_RX
  4035 ;;		_I2C1_DO_TX_EMPTY
  4036 ;;		_I2C1_DO_ADDRESS_NACK
  4037 ;;		_I2C1_DO_RX_EMPTY
  4038 ;; This function uses a non-reentrant model
  4039 ;;
  4040                           
  4041                           	psect	text49
  4042  001A02                     __ptext49:
  4043                           	callstack 0
  4044  001A02                     _I2C1_CallbackReturnStop:
  4045                           	callstack 20
  4046  001A02                     
  4047                           ;mcc_generated_files/i2c1_master.c: 521: i2c1_operations_t I2C1_CallbackReturnStop(void 
      +                          *funPtr);mcc_generated_files/i2c1_master.c: 522: {;mcc_generated_files/i2c1_master.c: 52
      +                          3:     return I2C1_STOP;
  4048  001A02  0E01               	movlw	1
  4049  001A04  0012               	return		;funcret
  4050  001A06                     __end_of_I2C1_CallbackReturnStop:
  4051                           	callstack 0
  4052                           
  4053 ;; *************** function _rdBlkRegCompleteHandler *****************
  4054 ;; Defined at:
  4055 ;;		line 170 in file "mcc_generated_files/examples/i2c1_master_example.c"
  4056 ;; Parameters:    Size  Location     Type
  4057 ;;  ptr             2    9[COMRAM] PTR void 
  4058 ;;		 -> I2C1_ReadDataBlock@bufferBlock(4), I2C1_Write2ByteRegister@data(2), I2C1_Write1ByteRegister@data(1), I2C1_Read2B
      +yteRegister@returnValue(2), 
  4059 ;;		 -> NULL(0), I2C1_Read1ByteRegister@returnValue(1), 
  4060 ;; Auto vars:     Size  Location     Type
  4061 ;;		None
  4062 ;; Return value:  Size  Location     Type
  4063 ;;                  1    wreg      enum E360
  4064 ;; Registers used:
  4065 ;;		wreg, fsr2l, fsr2h, status,2, status,0, prodl, prodh, cstack
  4066 ;; Tracked objects:
  4067 ;;		On entry : 0/0
  4068 ;;		On exit  : 0/0
  4069 ;;		Unchanged: 0/0
  4070 ;; Data sizes:     COMRAM   BANK0   BANK1   BANK2   BANK3   BANK4   BANK5   BANK6   BANK7   BANK8   BANK9  BANK10  BANK1
      +1  BANK12  BANK13  BANK14
  4071 ;;      Params:         2       0       0       0       0       0       0       0       0       0       0       0       
      +0       0       0       0
  4072 ;;      Locals:         0       0       0       0       0       0       0       0       0       0       0       0       
      +0       0       0       0
  4073 ;;      Temps:          0       0       0       0       0       0       0       0       0       0       0       0       
      +0       0       0       0
  4074 ;;      Totals:         2       0       0       0       0       0       0       0       0       0       0       0       
      +0       0       0       0
  4075 ;;Total ram usage:        2 bytes
  4076 ;; Hardware stack levels used: 1
  4077 ;; Hardware stack levels required when called: 2
  4078 ;; This function calls:
  4079 ;;		_I2C1_SetBuffer
  4080 ;;		_I2C1_SetDataCompleteCallback
  4081 ;; This function is called by:
  4082 ;;		_I2C1_ReadDataBlock
  4083 ;;		_I2C1_DO_TX
  4084 ;;		_I2C1_DO_RX
  4085 ;;		_I2C1_DO_TX_EMPTY
  4086 ;;		_I2C1_DO_ADDRESS_NACK
  4087 ;;		_I2C1_DO_RX_EMPTY
  4088 ;; This function uses a non-reentrant model
  4089 ;;
  4090                           
  4091                           	psect	text50
  4092  001636                     __ptext50:
  4093                           	callstack 0
  4094  001636                     _rdBlkRegCompleteHandler:
  4095                           	callstack 18
  4096  001636                     
  4097                           ;mcc_generated_files/examples/i2c1_master_example.c: 170: static i2c1_operations_t rdBlk
      +                          RegCompleteHandler(void *ptr);mcc_generated_files/examples/i2c1_master_example.c: 171: {
      +                          ;mcc_generated_files/examples/i2c1_master_example.c: 172:     I2C1_SetBuffer(((i2c1_buff
      +                          er_t *)ptr)->data,((i2c1_buffer_t*)ptr)->len);
  4098  001636  EE20 F002          	lfsr	2,2
  4099  00163A  502C               	movf	rdBlkRegCompleteHandler@ptr^0,w,c
  4100  00163C  26D9               	addwf	fsr2l,f,c
  4101  00163E  502D               	movf	(rdBlkRegCompleteHandler@ptr+1)^0,w,c
  4102  001640  22DA               	addwfc	fsr2h,f,c
  4103  001642  CFDE F023          	movff	postinc2,I2C1_SetBuffer@buffer
  4104  001646  CFDD F024          	movff	postdec2,I2C1_SetBuffer@buffer+1
  4105  00164A  C02C  FFD9         	movff	rdBlkRegCompleteHandler@ptr,fsr2l
  4106  00164E  C02D  FFDA         	movff	rdBlkRegCompleteHandler@ptr+1,fsr2h
  4107  001652  CFDE F025          	movff	postinc2,I2C1_SetBuffer@bufferSize
  4108  001656  CFDD F026          	movff	postdec2,I2C1_SetBuffer@bufferSize+1
  4109  00165A  EC22  F00C         	call	_I2C1_SetBuffer	;wreg free
  4110  00165E                     
  4111                           ;mcc_generated_files/examples/i2c1_master_example.c: 173:     I2C1_SetDataCompleteCallba
      +                          ck(((void*)0),((void*)0));
  4112  00165E  0E00               	movlw	0
  4113  001660  6E28               	movwf	I2C1_SetDataCompleteCallback@cb^0,c
  4114  001662  0E00               	movlw	0
  4115  001664  6E29               	movwf	(I2C1_SetDataCompleteCallback@cb+1)^0,c
  4116  001666  0E00               	movlw	0
  4117  001668  6E2A               	movwf	I2C1_SetDataCompleteCallback@ptr^0,c
  4118  00166A  0E00               	movlw	0
  4119  00166C  6E2B               	movwf	(I2C1_SetDataCompleteCallback@ptr+1)^0,c
  4120  00166E  EC54  F00C         	call	_I2C1_SetDataCompleteCallback	;wreg free
  4121  001672                     
  4122                           ;mcc_generated_files/examples/i2c1_master_example.c: 174:     return I2C1_RESTART_READ;
  4123  001672  0E02               	movlw	2
  4124  001674  0012               	return		;funcret
  4125  001676                     __end_of_rdBlkRegCompleteHandler:
  4126                           	callstack 0
  4127                           
  4128 ;; *************** function _wr1RegCompleteHandler *****************
  4129 ;; Defined at:
  4130 ;;		line 156 in file "mcc_generated_files/examples/i2c1_master_example.c"
  4131 ;; Parameters:    Size  Location     Type
  4132 ;;  ptr             2    9[COMRAM] PTR void 
  4133 ;;		 -> I2C1_ReadDataBlock@bufferBlock(4), I2C1_Write2ByteRegister@data(2), I2C1_Write1ByteRegister@data(1), I2C1_Read2B
      +yteRegister@returnValue(2), 
  4134 ;;		 -> NULL(0), I2C1_Read1ByteRegister@returnValue(1), 
  4135 ;; Auto vars:     Size  Location     Type
  4136 ;;		None
  4137 ;; Return value:  Size  Location     Type
  4138 ;;                  1    wreg      enum E360
  4139 ;; Registers used:
  4140 ;;		wreg, fsr2l, fsr2h, status,2, status,0, prodl, prodh, cstack
  4141 ;; Tracked objects:
  4142 ;;		On entry : 0/0
  4143 ;;		On exit  : 0/0
  4144 ;;		Unchanged: 0/0
  4145 ;; Data sizes:     COMRAM   BANK0   BANK1   BANK2   BANK3   BANK4   BANK5   BANK6   BANK7   BANK8   BANK9  BANK10  BANK1
      +1  BANK12  BANK13  BANK14
  4146 ;;      Params:         2       0       0       0       0       0       0       0       0       0       0       0       
      +0       0       0       0
  4147 ;;      Locals:         0       0       0       0       0       0       0       0       0       0       0       0       
      +0       0       0       0
  4148 ;;      Temps:          0       0       0       0       0       0       0       0       0       0       0       0       
      +0       0       0       0
  4149 ;;      Totals:         2       0       0       0       0       0       0       0       0       0       0       0       
      +0       0       0       0
  4150 ;;Total ram usage:        2 bytes
  4151 ;; Hardware stack levels used: 1
  4152 ;; Hardware stack levels required when called: 2
  4153 ;; This function calls:
  4154 ;;		_I2C1_SetBuffer
  4155 ;;		_I2C1_SetDataCompleteCallback
  4156 ;; This function is called by:
  4157 ;;		_I2C1_Write1ByteRegister
  4158 ;;		_I2C1_DO_TX
  4159 ;;		_I2C1_DO_RX
  4160 ;;		_I2C1_DO_TX_EMPTY
  4161 ;;		_I2C1_DO_ADDRESS_NACK
  4162 ;;		_I2C1_DO_RX_EMPTY
  4163 ;; This function uses a non-reentrant model
  4164 ;;
  4165                           
  4166                           	psect	text51
  4167  0016F2                     __ptext51:
  4168                           	callstack 0
  4169  0016F2                     _wr1RegCompleteHandler:
  4170                           	callstack 18
  4171  0016F2                     
  4172                           ;mcc_generated_files/examples/i2c1_master_example.c: 156: static i2c1_operations_t wr1Re
      +                          gCompleteHandler(void *ptr);mcc_generated_files/examples/i2c1_master_example.c: 157: {;m
      +                          cc_generated_files/examples/i2c1_master_example.c: 158:     I2C1_SetBuffer(ptr,1);
  4173  0016F2  C02C  F023         	movff	wr1RegCompleteHandler@ptr,I2C1_SetBuffer@buffer
  4174  0016F6  C02D  F024         	movff	wr1RegCompleteHandler@ptr+1,I2C1_SetBuffer@buffer+1
  4175  0016FA  0E00               	movlw	0
  4176  0016FC  6E26               	movwf	(I2C1_SetBuffer@bufferSize+1)^0,c
  4177  0016FE  0E01               	movlw	1
  4178  001700  6E25               	movwf	I2C1_SetBuffer@bufferSize^0,c
  4179  001702  EC22  F00C         	call	_I2C1_SetBuffer	;wreg free
  4180  001706                     
  4181                           ;mcc_generated_files/examples/i2c1_master_example.c: 159:     I2C1_SetDataCompleteCallba
      +                          ck(((void*)0),((void*)0));
  4182  001706  0E00               	movlw	0
  4183  001708  6E28               	movwf	I2C1_SetDataCompleteCallback@cb^0,c
  4184  00170A  0E00               	movlw	0
  4185  00170C  6E29               	movwf	(I2C1_SetDataCompleteCallback@cb+1)^0,c
  4186  00170E  0E00               	movlw	0
  4187  001710  6E2A               	movwf	I2C1_SetDataCompleteCallback@ptr^0,c
  4188  001712  0E00               	movlw	0
  4189  001714  6E2B               	movwf	(I2C1_SetDataCompleteCallback@ptr+1)^0,c
  4190  001716  EC54  F00C         	call	_I2C1_SetDataCompleteCallback	;wreg free
  4191  00171A                     
  4192                           ;mcc_generated_files/examples/i2c1_master_example.c: 160:     return I2C1_CONTINUE;
  4193  00171A  0E04               	movlw	4
  4194  00171C  0012               	return		;funcret
  4195  00171E                     __end_of_wr1RegCompleteHandler:
  4196                           	callstack 0
  4197                           
  4198 ;; *************** function _rd2RegCompleteHandler *****************
  4199 ;; Defined at:
  4200 ;;		line 149 in file "mcc_generated_files/examples/i2c1_master_example.c"
  4201 ;; Parameters:    Size  Location     Type
  4202 ;;  ptr             2    9[COMRAM] PTR void 
  4203 ;;		 -> I2C1_ReadDataBlock@bufferBlock(4), I2C1_Write2ByteRegister@data(2), I2C1_Write1ByteRegister@data(1), I2C1_Read2B
      +yteRegister@returnValue(2), 
  4204 ;;		 -> NULL(0), I2C1_Read1ByteRegister@returnValue(1), 
  4205 ;; Auto vars:     Size  Location     Type
  4206 ;;		None
  4207 ;; Return value:  Size  Location     Type
  4208 ;;                  1    wreg      enum E360
  4209 ;; Registers used:
  4210 ;;		wreg, fsr2l, fsr2h, status,2, status,0, prodl, prodh, cstack
  4211 ;; Tracked objects:
  4212 ;;		On entry : 0/0
  4213 ;;		On exit  : 0/0
  4214 ;;		Unchanged: 0/0
  4215 ;; Data sizes:     COMRAM   BANK0   BANK1   BANK2   BANK3   BANK4   BANK5   BANK6   BANK7   BANK8   BANK9  BANK10  BANK1
      +1  BANK12  BANK13  BANK14
  4216 ;;      Params:         2       0       0       0       0       0       0       0       0       0       0       0       
      +0       0       0       0
  4217 ;;      Locals:         0       0       0       0       0       0       0       0       0       0       0       0       
      +0       0       0       0
  4218 ;;      Temps:          0       0       0       0       0       0       0       0       0       0       0       0       
      +0       0       0       0
  4219 ;;      Totals:         2       0       0       0       0       0       0       0       0       0       0       0       
      +0       0       0       0
  4220 ;;Total ram usage:        2 bytes
  4221 ;; Hardware stack levels used: 1
  4222 ;; Hardware stack levels required when called: 2
  4223 ;; This function calls:
  4224 ;;		_I2C1_SetBuffer
  4225 ;;		_I2C1_SetDataCompleteCallback
  4226 ;; This function is called by:
  4227 ;;		_I2C1_Read2ByteRegister
  4228 ;;		_I2C1_DO_TX
  4229 ;;		_I2C1_DO_RX
  4230 ;;		_I2C1_DO_TX_EMPTY
  4231 ;;		_I2C1_DO_ADDRESS_NACK
  4232 ;;		_I2C1_DO_RX_EMPTY
  4233 ;; This function uses a non-reentrant model
  4234 ;;
  4235                           
  4236                           	psect	text52
  4237  00171E                     __ptext52:
  4238                           	callstack 0
  4239  00171E                     _rd2RegCompleteHandler:
  4240                           	callstack 18
  4241  00171E                     
  4242                           ;mcc_generated_files/examples/i2c1_master_example.c: 149: static i2c1_operations_t rd2Re
      +                          gCompleteHandler(void *ptr);mcc_generated_files/examples/i2c1_master_example.c: 150: {;m
      +                          cc_generated_files/examples/i2c1_master_example.c: 151:     I2C1_SetBuffer(ptr,2);
  4243  00171E  C02C  F023         	movff	rd2RegCompleteHandler@ptr,I2C1_SetBuffer@buffer
  4244  001722  C02D  F024         	movff	rd2RegCompleteHandler@ptr+1,I2C1_SetBuffer@buffer+1
  4245  001726  0E00               	movlw	0
  4246  001728  6E26               	movwf	(I2C1_SetBuffer@bufferSize+1)^0,c
  4247  00172A  0E02               	movlw	2
  4248  00172C  6E25               	movwf	I2C1_SetBuffer@bufferSize^0,c
  4249  00172E  EC22  F00C         	call	_I2C1_SetBuffer	;wreg free
  4250  001732                     
  4251                           ;mcc_generated_files/examples/i2c1_master_example.c: 152:     I2C1_SetDataCompleteCallba
      +                          ck(((void*)0),((void*)0));
  4252  001732  0E00               	movlw	0
  4253  001734  6E28               	movwf	I2C1_SetDataCompleteCallback@cb^0,c
  4254  001736  0E00               	movlw	0
  4255  001738  6E29               	movwf	(I2C1_SetDataCompleteCallback@cb+1)^0,c
  4256  00173A  0E00               	movlw	0
  4257  00173C  6E2A               	movwf	I2C1_SetDataCompleteCallback@ptr^0,c
  4258  00173E  0E00               	movlw	0
  4259  001740  6E2B               	movwf	(I2C1_SetDataCompleteCallback@ptr+1)^0,c
  4260  001742  EC54  F00C         	call	_I2C1_SetDataCompleteCallback	;wreg free
  4261  001746                     
  4262                           ;mcc_generated_files/examples/i2c1_master_example.c: 153:     return I2C1_RESTART_READ;
  4263  001746  0E02               	movlw	2
  4264  001748  0012               	return		;funcret
  4265  00174A                     __end_of_rd2RegCompleteHandler:
  4266                           	callstack 0
  4267                           
  4268 ;; *************** function _rd1RegCompleteHandler *****************
  4269 ;; Defined at:
  4270 ;;		line 142 in file "mcc_generated_files/examples/i2c1_master_example.c"
  4271 ;; Parameters:    Size  Location     Type
  4272 ;;  ptr             2    9[COMRAM] PTR void 
  4273 ;;		 -> I2C1_ReadDataBlock@bufferBlock(4), I2C1_Write2ByteRegister@data(2), I2C1_Write1ByteRegister@data(1), I2C1_Read2B
      +yteRegister@returnValue(2), 
  4274 ;;		 -> NULL(0), I2C1_Read1ByteRegister@returnValue(1), 
  4275 ;; Auto vars:     Size  Location     Type
  4276 ;;		None
  4277 ;; Return value:  Size  Location     Type
  4278 ;;                  1    wreg      enum E360
  4279 ;; Registers used:
  4280 ;;		wreg, fsr2l, fsr2h, status,2, status,0, prodl, prodh, cstack
  4281 ;; Tracked objects:
  4282 ;;		On entry : 0/0
  4283 ;;		On exit  : 0/0
  4284 ;;		Unchanged: 0/0
  4285 ;; Data sizes:     COMRAM   BANK0   BANK1   BANK2   BANK3   BANK4   BANK5   BANK6   BANK7   BANK8   BANK9  BANK10  BANK1
      +1  BANK12  BANK13  BANK14
  4286 ;;      Params:         2       0       0       0       0       0       0       0       0       0       0       0       
      +0       0       0       0
  4287 ;;      Locals:         0       0       0       0       0       0       0       0       0       0       0       0       
      +0       0       0       0
  4288 ;;      Temps:          0       0       0       0       0       0       0       0       0       0       0       0       
      +0       0       0       0
  4289 ;;      Totals:         2       0       0       0       0       0       0       0       0       0       0       0       
      +0       0       0       0
  4290 ;;Total ram usage:        2 bytes
  4291 ;; Hardware stack levels used: 1
  4292 ;; Hardware stack levels required when called: 2
  4293 ;; This function calls:
  4294 ;;		_I2C1_SetBuffer
  4295 ;;		_I2C1_SetDataCompleteCallback
  4296 ;; This function is called by:
  4297 ;;		_I2C1_Read1ByteRegister
  4298 ;;		_I2C1_DO_TX
  4299 ;;		_I2C1_DO_RX
  4300 ;;		_I2C1_DO_TX_EMPTY
  4301 ;;		_I2C1_DO_ADDRESS_NACK
  4302 ;;		_I2C1_DO_RX_EMPTY
  4303 ;; This function uses a non-reentrant model
  4304 ;;
  4305                           
  4306                           	psect	text53
  4307  00174A                     __ptext53:
  4308                           	callstack 0
  4309  00174A                     _rd1RegCompleteHandler:
  4310                           	callstack 18
  4311  00174A                     
  4312                           ;mcc_generated_files/examples/i2c1_master_example.c: 142: static i2c1_operations_t rd1Re
      +                          gCompleteHandler(void *ptr);mcc_generated_files/examples/i2c1_master_example.c: 143: {;m
      +                          cc_generated_files/examples/i2c1_master_example.c: 144:     I2C1_SetBuffer(ptr,1);
  4313  00174A  C02C  F023         	movff	rd1RegCompleteHandler@ptr,I2C1_SetBuffer@buffer
  4314  00174E  C02D  F024         	movff	rd1RegCompleteHandler@ptr+1,I2C1_SetBuffer@buffer+1
  4315  001752  0E00               	movlw	0
  4316  001754  6E26               	movwf	(I2C1_SetBuffer@bufferSize+1)^0,c
  4317  001756  0E01               	movlw	1
  4318  001758  6E25               	movwf	I2C1_SetBuffer@bufferSize^0,c
  4319  00175A  EC22  F00C         	call	_I2C1_SetBuffer	;wreg free
  4320  00175E                     
  4321                           ;mcc_generated_files/examples/i2c1_master_example.c: 145:     I2C1_SetDataCompleteCallba
      +                          ck(((void*)0),((void*)0));
  4322  00175E  0E00               	movlw	0
  4323  001760  6E28               	movwf	I2C1_SetDataCompleteCallback@cb^0,c
  4324  001762  0E00               	movlw	0
  4325  001764  6E29               	movwf	(I2C1_SetDataCompleteCallback@cb+1)^0,c
  4326  001766  0E00               	movlw	0
  4327  001768  6E2A               	movwf	I2C1_SetDataCompleteCallback@ptr^0,c
  4328  00176A  0E00               	movlw	0
  4329  00176C  6E2B               	movwf	(I2C1_SetDataCompleteCallback@ptr+1)^0,c
  4330  00176E  EC54  F00C         	call	_I2C1_SetDataCompleteCallback	;wreg free
  4331  001772                     
  4332                           ;mcc_generated_files/examples/i2c1_master_example.c: 146:     return I2C1_RESTART_READ;
  4333  001772  0E02               	movlw	2
  4334  001774  0012               	return		;funcret
  4335  001776                     __end_of_rd1RegCompleteHandler:
  4336                           	callstack 0
  4337                           
  4338 ;; *************** function _wr2RegCompleteHandler *****************
  4339 ;; Defined at:
  4340 ;;		line 163 in file "mcc_generated_files/examples/i2c1_master_example.c"
  4341 ;; Parameters:    Size  Location     Type
  4342 ;;  ptr             2    9[COMRAM] PTR void 
  4343 ;;		 -> I2C1_ReadDataBlock@bufferBlock(4), I2C1_Write2ByteRegister@data(2), I2C1_Write1ByteRegister@data(1), I2C1_Read2B
      +yteRegister@returnValue(2), 
  4344 ;;		 -> NULL(0), I2C1_Read1ByteRegister@returnValue(1), 
  4345 ;; Auto vars:     Size  Location     Type
  4346 ;;		None
  4347 ;; Return value:  Size  Location     Type
  4348 ;;                  1    wreg      enum E360
  4349 ;; Registers used:
  4350 ;;		wreg, fsr2l, fsr2h, status,2, status,0, prodl, prodh, cstack
  4351 ;; Tracked objects:
  4352 ;;		On entry : 0/0
  4353 ;;		On exit  : 0/0
  4354 ;;		Unchanged: 0/0
  4355 ;; Data sizes:     COMRAM   BANK0   BANK1   BANK2   BANK3   BANK4   BANK5   BANK6   BANK7   BANK8   BANK9  BANK10  BANK1
      +1  BANK12  BANK13  BANK14
  4356 ;;      Params:         2       0       0       0       0       0       0       0       0       0       0       0       
      +0       0       0       0
  4357 ;;      Locals:         0       0       0       0       0       0       0       0       0       0       0       0       
      +0       0       0       0
  4358 ;;      Temps:          0       0       0       0       0       0       0       0       0       0       0       0       
      +0       0       0       0
  4359 ;;      Totals:         2       0       0       0       0       0       0       0       0       0       0       0       
      +0       0       0       0
  4360 ;;Total ram usage:        2 bytes
  4361 ;; Hardware stack levels used: 1
  4362 ;; Hardware stack levels required when called: 2
  4363 ;; This function calls:
  4364 ;;		_I2C1_SetBuffer
  4365 ;;		_I2C1_SetDataCompleteCallback
  4366 ;; This function is called by:
  4367 ;;		_I2C1_Write2ByteRegister
  4368 ;;		_I2C1_DO_TX
  4369 ;;		_I2C1_DO_RX
  4370 ;;		_I2C1_DO_TX_EMPTY
  4371 ;;		_I2C1_DO_ADDRESS_NACK
  4372 ;;		_I2C1_DO_RX_EMPTY
  4373 ;; This function uses a non-reentrant model
  4374 ;;
  4375                           
  4376                           	psect	text54
  4377  001776                     __ptext54:
  4378                           	callstack 0
  4379  001776                     _wr2RegCompleteHandler:
  4380                           	callstack 18
  4381  001776                     
  4382                           ;mcc_generated_files/examples/i2c1_master_example.c: 163: static i2c1_operations_t wr2Re
      +                          gCompleteHandler(void *ptr);mcc_generated_files/examples/i2c1_master_example.c: 164: {;m
      +                          cc_generated_files/examples/i2c1_master_example.c: 165:     I2C1_SetBuffer(ptr,2);
  4383  001776  C02C  F023         	movff	wr2RegCompleteHandler@ptr,I2C1_SetBuffer@buffer
  4384  00177A  C02D  F024         	movff	wr2RegCompleteHandler@ptr+1,I2C1_SetBuffer@buffer+1
  4385  00177E  0E00               	movlw	0
  4386  001780  6E26               	movwf	(I2C1_SetBuffer@bufferSize+1)^0,c
  4387  001782  0E02               	movlw	2
  4388  001784  6E25               	movwf	I2C1_SetBuffer@bufferSize^0,c
  4389  001786  EC22  F00C         	call	_I2C1_SetBuffer	;wreg free
  4390  00178A                     
  4391                           ;mcc_generated_files/examples/i2c1_master_example.c: 166:     I2C1_SetDataCompleteCallba
      +                          ck(((void*)0),((void*)0));
  4392  00178A  0E00               	movlw	0
  4393  00178C  6E28               	movwf	I2C1_SetDataCompleteCallback@cb^0,c
  4394  00178E  0E00               	movlw	0
  4395  001790  6E29               	movwf	(I2C1_SetDataCompleteCallback@cb+1)^0,c
  4396  001792  0E00               	movlw	0
  4397  001794  6E2A               	movwf	I2C1_SetDataCompleteCallback@ptr^0,c
  4398  001796  0E00               	movlw	0
  4399  001798  6E2B               	movwf	(I2C1_SetDataCompleteCallback@ptr+1)^0,c
  4400  00179A  EC54  F00C         	call	_I2C1_SetDataCompleteCallback	;wreg free
  4401  00179E                     
  4402                           ;mcc_generated_files/examples/i2c1_master_example.c: 167:     return I2C1_CONTINUE;
  4403  00179E  0E04               	movlw	4
  4404  0017A0  0012               	return		;funcret
  4405  0017A2                     __end_of_wr2RegCompleteHandler:
  4406                           	callstack 0
  4407                           
  4408 ;; *************** function _I2C1_SetDataCompleteCallback *****************
  4409 ;; Defined at:
  4410 ;;		line 274 in file "mcc_generated_files/i2c1_master.c"
  4411 ;; Parameters:    Size  Location     Type
  4412 ;;  cb              2    5[COMRAM] PTR FTN(PTR void ,)enum 
  4413 ;;		 -> Absolute function(1), rdBlkRegCompleteHandler(1), wr2RegCompleteHandler(1), wr1RegCompleteHandler(1), 
  4414 ;;		 -> rd2RegCompleteHandler(1), rd1RegCompleteHandler(1), 
  4415 ;;  ptr             2    7[COMRAM] PTR void 
  4416 ;;		 -> I2C1_ReadDataBlock@bufferBlock(4), I2C1_Write2ByteRegister@data(2), I2C1_Write1ByteRegister@data(1), I2C1_Read2B
      +yteRegister@returnValue(2), 
  4417 ;;		 -> NULL(0), I2C1_Read1ByteRegister@returnValue(1), 
  4418 ;; Auto vars:     Size  Location     Type
  4419 ;;		None
  4420 ;; Return value:  Size  Location     Type
  4421 ;;                  1    wreg      void 
  4422 ;; Registers used:
  4423 ;;		wreg, fsr2l, fsr2h, status,2, status,0, prodl, prodh, cstack
  4424 ;; Tracked objects:
  4425 ;;		On entry : 0/0
  4426 ;;		On exit  : 0/0
  4427 ;;		Unchanged: 0/0
  4428 ;; Data sizes:     COMRAM   BANK0   BANK1   BANK2   BANK3   BANK4   BANK5   BANK6   BANK7   BANK8   BANK9  BANK10  BANK1
      +1  BANK12  BANK13  BANK14
  4429 ;;      Params:         4       0       0       0       0       0       0       0       0       0       0       0       
      +0       0       0       0
  4430 ;;      Locals:         0       0       0       0       0       0       0       0       0       0       0       0       
      +0       0       0       0
  4431 ;;      Temps:          0       0       0       0       0       0       0       0       0       0       0       0       
      +0       0       0       0
  4432 ;;      Totals:         4       0       0       0       0       0       0       0       0       0       0       0       
      +0       0       0       0
  4433 ;;Total ram usage:        4 bytes
  4434 ;; Hardware stack levels used: 1
  4435 ;; Hardware stack levels required when called: 1
  4436 ;; This function calls:
  4437 ;;		_I2C1_SetCallback
  4438 ;; This function is called by:
  4439 ;;		_rd1RegCompleteHandler
  4440 ;;		_rd2RegCompleteHandler
  4441 ;;		_wr1RegCompleteHandler
  4442 ;;		_wr2RegCompleteHandler
  4443 ;;		_rdBlkRegCompleteHandler
  4444 ;;		_I2C1_Read1ByteRegister
  4445 ;;		_I2C1_Read2ByteRegister
  4446 ;;		_I2C1_Write1ByteRegister
  4447 ;;		_I2C1_Write2ByteRegister
  4448 ;;		_I2C1_ReadDataBlock
  4449 ;; This function uses a non-reentrant model
  4450 ;;
  4451                           
  4452                           	psect	text55
  4453  0018A8                     __ptext55:
  4454                           	callstack 0
  4455  0018A8                     _I2C1_SetDataCompleteCallback:
  4456                           	callstack 18
  4457  0018A8                     
  4458                           ;mcc_generated_files/i2c1_master.c: 274: void I2C1_SetDataCompleteCallback(i2c1_callback
      +                          _t cb, void *ptr);mcc_generated_files/i2c1_master.c: 275: {;mcc_generated_files/i2c1_mas
      +                          ter.c: 276:     I2C1_SetCallback(I2C1_DATA_COMPLETE, cb, ptr);
  4459  0018A8  C028  F023         	movff	I2C1_SetDataCompleteCallback@cb,I2C1_SetCallback@cb
  4460  0018AC  C029  F024         	movff	I2C1_SetDataCompleteCallback@cb+1,I2C1_SetCallback@cb+1
  4461  0018B0  C02A  F025         	movff	I2C1_SetDataCompleteCallback@ptr,I2C1_SetCallback@ptr
  4462  0018B4  C02B  F026         	movff	I2C1_SetDataCompleteCallback@ptr+1,I2C1_SetCallback@ptr+1
  4463  0018B8  0E00               	movlw	0
  4464  0018BA  ECB0  F009         	call	_I2C1_SetCallback
  4465  0018BE  0012               	return		;funcret
  4466  0018C0                     __end_of_I2C1_SetDataCompleteCallback:
  4467                           	callstack 0
  4468                           
  4469 ;; *************** function _I2C1_SetCallback *****************
  4470 ;; Defined at:
  4471 ;;		line 304 in file "mcc_generated_files/i2c1_master.c"
  4472 ;; Parameters:    Size  Location     Type
  4473 ;;  idx             1    wreg     enum E6673
  4474 ;;  cb              2    0[COMRAM] PTR FTN(PTR void ,)enum 
  4475 ;;		 -> Absolute function(1), rdBlkRegCompleteHandler(1), wr2RegCompleteHandler(1), wr1RegCompleteHandler(1), 
  4476 ;;		 -> rd2RegCompleteHandler(1), rd1RegCompleteHandler(1), 
  4477 ;;  ptr             2    2[COMRAM] PTR void 
  4478 ;;		 -> I2C1_ReadDataBlock@bufferBlock(4), I2C1_Write2ByteRegister@data(2), I2C1_Write1ByteRegister@data(1), I2C1_Read2B
      +yteRegister@returnValue(2), 
  4479 ;;		 -> NULL(0), I2C1_Read1ByteRegister@returnValue(1), 
  4480 ;; Auto vars:     Size  Location     Type
  4481 ;;  idx             1    4[COMRAM] enum E6673
  4482 ;; Return value:  Size  Location     Type
  4483 ;;                  1    wreg      void 
  4484 ;; Registers used:
  4485 ;;		wreg, fsr2l, fsr2h, status,2, status,0, prodl, prodh
  4486 ;; Tracked objects:
  4487 ;;		On entry : 0/0
  4488 ;;		On exit  : 0/0
  4489 ;;		Unchanged: 0/0
  4490 ;; Data sizes:     COMRAM   BANK0   BANK1   BANK2   BANK3   BANK4   BANK5   BANK6   BANK7   BANK8   BANK9  BANK10  BANK1
      +1  BANK12  BANK13  BANK14
  4491 ;;      Params:         4       0       0       0       0       0       0       0       0       0       0       0       
      +0       0       0       0
  4492 ;;      Locals:         1       0       0       0       0       0       0       0       0       0       0       0       
      +0       0       0       0
  4493 ;;      Temps:          0       0       0       0       0       0       0       0       0       0       0       0       
      +0       0       0       0
  4494 ;;      Totals:         5       0       0       0       0       0       0       0       0       0       0       0       
      +0       0       0       0
  4495 ;;Total ram usage:        5 bytes
  4496 ;; Hardware stack levels used: 1
  4497 ;; This function calls:
  4498 ;;		Nothing
  4499 ;; This function is called by:
  4500 ;;		_I2C1_SetDataCompleteCallback
  4501 ;;		_I2C1_SetWriteCollisionCallback
  4502 ;;		_I2C1_SetAddressNackCallback
  4503 ;;		_I2C1_SetDataNackCallback
  4504 ;;		_I2C1_SetTimeoutCallback
  4505 ;; This function uses a non-reentrant model
  4506 ;;
  4507                           
  4508                           	psect	text56
  4509  001360                     __ptext56:
  4510                           	callstack 0
  4511  001360                     _I2C1_SetCallback:
  4512                           	callstack 18
  4513                           
  4514                           ;incstack = 0
  4515                           ;I2C1_SetCallback@idx stored from wreg
  4516  001360  6E27               	movwf	I2C1_SetCallback@idx^0,c
  4517  001362                     
  4518                           ;mcc_generated_files/i2c1_master.c: 304: static void I2C1_SetCallback(i2c1_callbackIndex
      +                          _t idx, i2c1_callback_t cb, void *ptr);mcc_generated_files/i2c1_master.c: 305: {;mcc_gen
      +                          erated_files/i2c1_master.c: 306:     if(cb)
  4519  001362  5023               	movf	I2C1_SetCallback@cb^0,w,c
  4520  001364  1024               	iorwf	(I2C1_SetCallback@cb+1)^0,w,c
  4521  001366  B4D8               	btfsc	status,2,c
  4522  001368  EFB8  F009         	goto	i2u73_41
  4523  00136C  EFBA  F009         	goto	i2u73_40
  4524  001370                     i2u73_41:
  4525  001370  EFD4  F009         	goto	i2l2606
  4526  001374                     i2u73_40:
  4527  001374                     
  4528                           ;mcc_generated_files/i2c1_master.c: 307:     {;mcc_generated_files/i2c1_master.c: 308:  
      +                                 I2C1_Status.callbackTable[idx] = cb;
  4529  001374  5027               	movf	I2C1_SetCallback@idx^0,w,c
  4530  001376  0D02               	mullw	2
  4531  001378  0E60               	movlw	low _I2C1_Status
  4532  00137A  24F3               	addwf	243,w,c
  4533  00137C  6ED9               	movwf	fsr2l,c
  4534  00137E  0E00               	movlw	high _I2C1_Status
  4535  001380  20F4               	addwfc	prodh,w,c
  4536  001382  6EDA               	movwf	fsr2h,c
  4537  001384  C023  FFDE         	movff	I2C1_SetCallback@cb,postinc2
  4538  001388  C024  FFDD         	movff	I2C1_SetCallback@cb+1,postdec2
  4539                           
  4540                           ;mcc_generated_files/i2c1_master.c: 309:         I2C1_Status.callbackPayload[idx] = ptr;
  4541  00138C  5027               	movf	I2C1_SetCallback@idx^0,w,c
  4542  00138E  0D02               	mullw	2
  4543  001390  0E6C               	movlw	low (_I2C1_Status+12)
  4544  001392  24F3               	addwf	243,w,c
  4545  001394  6ED9               	movwf	fsr2l,c
  4546  001396  0E00               	movlw	high (_I2C1_Status+12)
  4547  001398  20F4               	addwfc	prodh,w,c
  4548  00139A  6EDA               	movwf	fsr2h,c
  4549  00139C  C025  FFDE         	movff	I2C1_SetCallback@ptr,postinc2
  4550  0013A0  C026  FFDD         	movff	I2C1_SetCallback@ptr+1,postdec2
  4551                           
  4552                           ;mcc_generated_files/i2c1_master.c: 310:     }
  4553  0013A4  EFEC  F009         	goto	i2l445
  4554  0013A8                     i2l2606:
  4555                           
  4556                           ;mcc_generated_files/i2c1_master.c: 312:     {;mcc_generated_files/i2c1_master.c: 313:  
      +                                 I2C1_Status.callbackTable[idx] = I2C1_CallbackReturnStop;
  4557  0013A8  5027               	movf	I2C1_SetCallback@idx^0,w,c
  4558  0013AA  0D02               	mullw	2
  4559  0013AC  0E60               	movlw	low _I2C1_Status
  4560  0013AE  24F3               	addwf	243,w,c
  4561  0013B0  6ED9               	movwf	fsr2l,c
  4562  0013B2  0E00               	movlw	high _I2C1_Status
  4563  0013B4  20F4               	addwfc	prodh,w,c
  4564  0013B6  6EDA               	movwf	fsr2h,c
  4565  0013B8  0E02               	movlw	low _I2C1_CallbackReturnStop
  4566  0013BA  6EDE               	movwf	postinc2,c
  4567  0013BC  0E1A               	movlw	high _I2C1_CallbackReturnStop
  4568  0013BE  6EDD               	movwf	postdec2,c
  4569                           
  4570                           ;mcc_generated_files/i2c1_master.c: 314:         I2C1_Status.callbackPayload[idx] = ((vo
      +                          id*)0);
  4571  0013C0  5027               	movf	I2C1_SetCallback@idx^0,w,c
  4572  0013C2  0D02               	mullw	2
  4573  0013C4  0E6C               	movlw	low (_I2C1_Status+12)
  4574  0013C6  24F3               	addwf	243,w,c
  4575  0013C8  6ED9               	movwf	fsr2l,c
  4576  0013CA  0E00               	movlw	high (_I2C1_Status+12)
  4577  0013CC  20F4               	addwfc	prodh,w,c
  4578  0013CE  6EDA               	movwf	fsr2h,c
  4579  0013D0  0E00               	movlw	0
  4580  0013D2  6EDE               	movwf	postinc2,c
  4581  0013D4  0E00               	movlw	0
  4582  0013D6  6EDD               	movwf	postdec2,c
  4583  0013D8                     i2l445:
  4584  0013D8  0012               	return		;funcret
  4585  0013DA                     __end_of_I2C1_SetCallback:
  4586                           	callstack 0
  4587                           
  4588 ;; *************** function _I2C1_SetBuffer *****************
  4589 ;; Defined at:
  4590 ;;		line 264 in file "mcc_generated_files/i2c1_master.c"
  4591 ;; Parameters:    Size  Location     Type
  4592 ;;  buffer          2    0[COMRAM] PTR void 
  4593 ;;		 -> I2C1_Read1ByteRegister@returnValue.data(3), I2C1_Read2ByteRegister@returnValue.data(3), I2C1_Write1ByteRegister@
      +data.data(3), I2C1_Write2ByteRegister@data.data(3), 
  4594 ;;		 -> I2C1_ReadDataBlock@reg(1), I2C1_ReadDataBlock@bufferBlock(4), bufferBlock.data(3), I2C1_Write2ByteRegister@reg(1
      +), 
  4595 ;;		 -> I2C1_Write2ByteRegister@data(2), I2C1_Write1ByteRegister@reg(1), I2C1_Write1ByteRegister@data(1), I2C1_Read2Byte
      +Register@reg(1), 
  4596 ;;		 -> I2C1_Read2ByteRegister@returnValue(2), NULL(0), I2C1_Read1ByteRegister@reg(1), I2C1_Read1ByteRegister@returnValu
      +e(1), 
  4597 ;;  bufferSize      2    2[COMRAM] unsigned int 
  4598 ;; Auto vars:     Size  Location     Type
  4599 ;;		None
  4600 ;; Return value:  Size  Location     Type
  4601 ;;                  1    wreg      void 
  4602 ;; Registers used:
  4603 ;;		wreg, status,2, status,0
  4604 ;; Tracked objects:
  4605 ;;		On entry : 0/0
  4606 ;;		On exit  : 0/0
  4607 ;;		Unchanged: 0/0
  4608 ;; Data sizes:     COMRAM   BANK0   BANK1   BANK2   BANK3   BANK4   BANK5   BANK6   BANK7   BANK8   BANK9  BANK10  BANK1
      +1  BANK12  BANK13  BANK14
  4609 ;;      Params:         4       0       0       0       0       0       0       0       0       0       0       0       
      +0       0       0       0
  4610 ;;      Locals:         0       0       0       0       0       0       0       0       0       0       0       0       
      +0       0       0       0
  4611 ;;      Temps:          0       0       0       0       0       0       0       0       0       0       0       0       
      +0       0       0       0
  4612 ;;      Totals:         4       0       0       0       0       0       0       0       0       0       0       0       
      +0       0       0       0
  4613 ;;Total ram usage:        4 bytes
  4614 ;; Hardware stack levels used: 1
  4615 ;; This function calls:
  4616 ;;		Nothing
  4617 ;; This function is called by:
  4618 ;;		_rd1RegCompleteHandler
  4619 ;;		_rd2RegCompleteHandler
  4620 ;;		_wr1RegCompleteHandler
  4621 ;;		_wr2RegCompleteHandler
  4622 ;;		_rdBlkRegCompleteHandler
  4623 ;;		_I2C1_Read1ByteRegister
  4624 ;;		_I2C1_Read2ByteRegister
  4625 ;;		_I2C1_Write1ByteRegister
  4626 ;;		_I2C1_Write2ByteRegister
  4627 ;;		_I2C1_WriteNBytes
  4628 ;;		_I2C1_ReadNBytes
  4629 ;;		_I2C1_ReadDataBlock
  4630 ;; This function uses a non-reentrant model
  4631 ;;
  4632                           
  4633                           	psect	text57
  4634  001844                     __ptext57:
  4635                           	callstack 0
  4636  001844                     _I2C1_SetBuffer:
  4637                           	callstack 19
  4638  001844                     
  4639                           ;mcc_generated_files/i2c1_master.c: 264: void I2C1_SetBuffer(void *buffer, size_t buffer
      +                          Size);mcc_generated_files/i2c1_master.c: 265: {;mcc_generated_files/i2c1_master.c: 266: 
      +                              if(I2C1_Status.bufferFree)
  4640  001844  0100               	movlb	0	; () banked
  4641  001846  A783               	btfss	(_I2C1_Status+35)& (0+255),3,b
  4642  001848  EF28  F00C         	goto	i2u74_41
  4643  00184C  EF2A  F00C         	goto	i2u74_40
  4644  001850                     i2u74_41:
  4645  001850  EF33  F00C         	goto	i2l422
  4646  001854                     i2u74_40:
  4647  001854                     
  4648                           ; BSR set to: 0
  4649                           ;mcc_generated_files/i2c1_master.c: 267:     {;mcc_generated_files/i2c1_master.c: 268:  
      +                                 I2C1_Status.data_ptr = buffer;
  4650  001854  C023  F07D         	movff	I2C1_SetBuffer@buffer,_I2C1_Status+29
  4651  001858  C024  F07E         	movff	I2C1_SetBuffer@buffer+1,_I2C1_Status+30
  4652  00185C                     
  4653                           ; BSR set to: 0
  4654                           ;mcc_generated_files/i2c1_master.c: 269:         I2C1_Status.data_length = bufferSize;
  4655  00185C  C025  F07F         	movff	I2C1_SetBuffer@bufferSize,_I2C1_Status+31
  4656  001860  C026  F080         	movff	I2C1_SetBuffer@bufferSize+1,_I2C1_Status+32
  4657  001864                     
  4658                           ; BSR set to: 0
  4659                           ;mcc_generated_files/i2c1_master.c: 270:         I2C1_Status.bufferFree = 0;
  4660  001864  9783               	bcf	(_I2C1_Status+35)& (0+255),3,b
  4661  001866                     i2l422:
  4662                           
  4663                           ; BSR set to: 0
  4664  001866  0012               	return		;funcret
  4665  001868                     __end_of_I2C1_SetBuffer:
  4666                           	callstack 0
  4667                           
  4668 ;; *************** function _I2C1_MasterStop *****************
  4669 ;; Defined at:
  4670 ;;		line 594 in file "mcc_generated_files/i2c1_master.c"
  4671 ;; Parameters:    Size  Location     Type
  4672 ;;		None
  4673 ;; Auto vars:     Size  Location     Type
  4674 ;;		None
  4675 ;; Return value:  Size  Location     Type
  4676 ;;                  1    wreg      void 
  4677 ;; Registers used:
  4678 ;;		None
  4679 ;; Tracked objects:
  4680 ;;		On entry : 0/0
  4681 ;;		On exit  : 0/0
  4682 ;;		Unchanged: 0/0
  4683 ;; Data sizes:     COMRAM   BANK0   BANK1   BANK2   BANK3   BANK4   BANK5   BANK6   BANK7   BANK8   BANK9  BANK10  BANK1
      +1  BANK12  BANK13  BANK14
  4684 ;;      Params:         0       0       0       0       0       0       0       0       0       0       0       0       
      +0       0       0       0
  4685 ;;      Locals:         0       0       0       0       0       0       0       0       0       0       0       0       
      +0       0       0       0
  4686 ;;      Temps:          0       0       0       0       0       0       0       0       0       0       0       0       
      +0       0       0       0
  4687 ;;      Totals:         0       0       0       0       0       0       0       0       0       0       0       0       
      +0       0       0       0
  4688 ;;Total ram usage:        0 bytes
  4689 ;; Hardware stack levels used: 1
  4690 ;; This function calls:
  4691 ;;		Nothing
  4692 ;; This function is called by:
  4693 ;;		_I2C1_DO_SEND_STOP
  4694 ;; This function uses a non-reentrant model
  4695 ;;
  4696                           
  4697                           	psect	text58
  4698  001A06                     __ptext58:
  4699                           	callstack 0
  4700  001A06                     _I2C1_MasterStop:
  4701                           	callstack 19
  4702  001A06                     
  4703                           ;mcc_generated_files/i2c1_master.c: 596:     SSP1CON2bits.PEN = 1;
  4704  001A06  84C5               	bsf	197,2,c	;volatile
  4705  001A08  0012               	return		;funcret
  4706  001A0A                     __end_of_I2C1_MasterStop:
  4707                           	callstack 0
  4708                           
  4709 ;; *************** function _I2C1_MasterEnableRestart *****************
  4710 ;; Defined at:
  4711 ;;		line 574 in file "mcc_generated_files/i2c1_master.c"
  4712 ;; Parameters:    Size  Location     Type
  4713 ;;		None
  4714 ;; Auto vars:     Size  Location     Type
  4715 ;;		None
  4716 ;; Return value:  Size  Location     Type
  4717 ;;                  1    wreg      void 
  4718 ;; Registers used:
  4719 ;;		None
  4720 ;; Tracked objects:
  4721 ;;		On entry : 0/0
  4722 ;;		On exit  : 0/0
  4723 ;;		Unchanged: 0/0
  4724 ;; Data sizes:     COMRAM   BANK0   BANK1   BANK2   BANK3   BANK4   BANK5   BANK6   BANK7   BANK8   BANK9  BANK10  BANK1
      +1  BANK12  BANK13  BANK14
  4725 ;;      Params:         0       0       0       0       0       0       0       0       0       0       0       0       
      +0       0       0       0
  4726 ;;      Locals:         0       0       0       0       0       0       0       0       0       0       0       0       
      +0       0       0       0
  4727 ;;      Temps:          0       0       0       0       0       0       0       0       0       0       0       0       
      +0       0       0       0
  4728 ;;      Totals:         0       0       0       0       0       0       0       0       0       0       0       0       
      +0       0       0       0
  4729 ;;Total ram usage:        0 bytes
  4730 ;; Hardware stack levels used: 1
  4731 ;; This function calls:
  4732 ;;		Nothing
  4733 ;; This function is called by:
  4734 ;;		_I2C1_DO_SEND_RESTART_READ
  4735 ;;		_I2C1_DO_SEND_RESTART_WRITE
  4736 ;;		_I2C1_DO_SEND_RESTART
  4737 ;;		_I2C1_DO_RX_EMPTY
  4738 ;; This function uses a non-reentrant model
  4739 ;;
  4740                           
  4741                           	psect	text59
  4742  001A0A                     __ptext59:
  4743                           	callstack 0
  4744  001A0A                     _I2C1_MasterEnableRestart:
  4745                           	callstack 19
  4746  001A0A                     
  4747                           ;mcc_generated_files/i2c1_master.c: 576:     SSP1CON2bits.RSEN = 1;
  4748  001A0A  82C5               	bsf	197,1,c	;volatile
  4749  001A0C  0012               	return		;funcret
  4750  001A0E                     __end_of_I2C1_MasterEnableRestart:
  4751                           	callstack 0
  4752                           
  4753 ;; *************** function _EUSART2_Transmit_ISR *****************
  4754 ;; Defined at:
  4755 ;;		line 206 in file "mcc_generated_files/eusart2.c"
  4756 ;; Parameters:    Size  Location     Type
  4757 ;;		None
  4758 ;; Auto vars:     Size  Location     Type
  4759 ;;		None
  4760 ;; Return value:  Size  Location     Type
  4761 ;;                  1    wreg      void 
  4762 ;; Registers used:
  4763 ;;		wreg, fsr2l, fsr2h, status,2, status,0
  4764 ;; Tracked objects:
  4765 ;;		On entry : 0/0
  4766 ;;		On exit  : 0/0
  4767 ;;		Unchanged: 0/0
  4768 ;; Data sizes:     COMRAM   BANK0   BANK1   BANK2   BANK3   BANK4   BANK5   BANK6   BANK7   BANK8   BANK9  BANK10  BANK1
      +1  BANK12  BANK13  BANK14
  4769 ;;      Params:         0       0       0       0       0       0       0       0       0       0       0       0       
      +0       0       0       0
  4770 ;;      Locals:         0       0       0       0       0       0       0       0       0       0       0       0       
      +0       0       0       0
  4771 ;;      Temps:          0       0       0       0       0       0       0       0       0       0       0       0       
      +0       0       0       0
  4772 ;;      Totals:         0       0       0       0       0       0       0       0       0       0       0       0       
      +0       0       0       0
  4773 ;;Total ram usage:        0 bytes
  4774 ;; Hardware stack levels used: 1
  4775 ;; This function calls:
  4776 ;;		Nothing
  4777 ;; This function is called by:
  4778 ;;		_EUSART2_Initialize
  4779 ;;		_INTERRUPT_InterruptManager
  4780 ;; This function uses a non-reentrant model
  4781 ;;
  4782                           
  4783                           	psect	text60
  4784  001676                     __ptext60:
  4785                           	callstack 0
  4786  001676                     _EUSART2_Transmit_ISR:
  4787                           	callstack 23
  4788  001676                     
  4789                           ;mcc_generated_files/eusart2.c: 210:     if(sizeof(eusart2TxBuffer) > eusart2TxBufferRem
      +                          aining)
  4790  001676  0E08               	movlw	8
  4791  001678  6047               	cpfslt	_eusart2TxBufferRemaining^0,c	;volatile
  4792  00167A  EF41  F00B         	goto	i2u96_41
  4793  00167E  EF43  F00B         	goto	i2u96_40
  4794  001682                     i2u96_41:
  4795  001682  EF59  F00B         	goto	i2l216
  4796  001686                     i2u96_40:
  4797  001686                     
  4798                           ;mcc_generated_files/eusart2.c: 211:     {;mcc_generated_files/eusart2.c: 212:         T
      +                          XREG2 = eusart2TxBuffer[eusart2TxTail++];
  4799  001686  0E09               	movlw	low _eusart2TxBuffer
  4800  001688  2421               	addwf	_eusart2TxTail^0,w,c	;volatile
  4801  00168A  6ED9               	movwf	fsr2l,c
  4802  00168C  6ADA               	clrf	fsr2h,c
  4803  00168E  0E00               	movlw	high _eusart2TxBuffer
  4804  001690  22DA               	addwfc	fsr2h,f,c
  4805  001692  50DF               	movf	indf2,w,c
  4806  001694  6EA9               	movwf	169,c	;volatile
  4807  001696  2A21               	incf	_eusart2TxTail^0,f,c	;volatile
  4808  001698                     
  4809                           ;mcc_generated_files/eusart2.c: 213:         if(sizeof(eusart2TxBuffer) <= eusart2TxTail
      +                          )
  4810  001698  0E07               	movlw	7
  4811  00169A  6421               	cpfsgt	_eusart2TxTail^0,c	;volatile
  4812  00169C  EF52  F00B         	goto	i2u97_41
  4813  0016A0  EF54  F00B         	goto	i2u97_40
  4814  0016A4                     i2u97_41:
  4815  0016A4  EF56  F00B         	goto	i2l3024
  4816  0016A8                     i2u97_40:
  4817  0016A8                     
  4818                           ;mcc_generated_files/eusart2.c: 214:         {;mcc_generated_files/eusart2.c: 215:      
      +                                 eusart2TxTail = 0;
  4819  0016A8  0E00               	movlw	0
  4820  0016AA  6E21               	movwf	_eusart2TxTail^0,c	;volatile
  4821  0016AC                     i2l3024:
  4822                           
  4823                           ;mcc_generated_files/eusart2.c: 217:         eusart2TxBufferRemaining++;
  4824  0016AC  2A47               	incf	_eusart2TxBufferRemaining^0,f,c	;volatile
  4825                           
  4826                           ;mcc_generated_files/eusart2.c: 218:     }
  4827  0016AE  EF5A  F00B         	goto	i2l219
  4828  0016B2                     i2l216:
  4829                           
  4830                           ;mcc_generated_files/eusart2.c: 220:     {;mcc_generated_files/eusart2.c: 221:         P
      +                          IE3bits.TX2IE = 0;
  4831  0016B2  98A3               	bcf	163,4,c	;volatile
  4832  0016B4                     i2l219:
  4833  0016B4  0012               	return		;funcret
  4834  0016B6                     __end_of_EUSART2_Transmit_ISR:
  4835                           	callstack 0
  4836                           
  4837 ;; *************** function _EUSART2_Receive_ISR *****************
  4838 ;; Defined at:
  4839 ;;		line 225 in file "mcc_generated_files/eusart2.c"
  4840 ;; Parameters:    Size  Location     Type
  4841 ;;		None
  4842 ;; Auto vars:     Size  Location     Type
  4843 ;;		None
  4844 ;; Return value:  Size  Location     Type
  4845 ;;                  1    wreg      void 
  4846 ;; Registers used:
  4847 ;;		wreg, fsr2l, fsr2h, status,2, status,0, pcl, pclath, pclatu, tosl, cstack
  4848 ;; Tracked objects:
  4849 ;;		On entry : 0/0
  4850 ;;		On exit  : 0/0
  4851 ;;		Unchanged: 0/0
  4852 ;; Data sizes:     COMRAM   BANK0   BANK1   BANK2   BANK3   BANK4   BANK5   BANK6   BANK7   BANK8   BANK9  BANK10  BANK1
      +1  BANK12  BANK13  BANK14
  4853 ;;      Params:         0       0       0       0       0       0       0       0       0       0       0       0       
      +0       0       0       0
  4854 ;;      Locals:         0       0       0       0       0       0       0       0       0       0       0       0       
      +0       0       0       0
  4855 ;;      Temps:          0       0       0       0       0       0       0       0       0       0       0       0       
      +0       0       0       0
  4856 ;;      Totals:         0       0       0       0       0       0       0       0       0       0       0       0       
      +0       0       0       0
  4857 ;;Total ram usage:        0 bytes
  4858 ;; Hardware stack levels used: 1
  4859 ;; Hardware stack levels required when called: 2
  4860 ;; This function calls:
  4861 ;;		Absolute function
  4862 ;;		_EUSART2_DefaultErrorHandler
  4863 ;;		_EUSART2_DefaultFramingErrorHandler
  4864 ;;		_EUSART2_DefaultOverrunErrorHandler
  4865 ;;		_EUSART2_RxDataHandler
  4866 ;; This function is called by:
  4867 ;;		_EUSART2_Initialize
  4868 ;;		_INTERRUPT_InterruptManager
  4869 ;; This function uses a non-reentrant model
  4870 ;;
  4871                           
  4872                           	psect	text61
  4873  0010E0                     __ptext61:
  4874                           	callstack 0
  4875  0010E0                     _EUSART2_Receive_ISR:
  4876                           	callstack 21
  4877  0010E0                     
  4878                           ;mcc_generated_files/eusart2.c: 228:     eusart2RxStatusBuffer[eusart2RxHead].status = 0
      +                          ;
  4879  0010E0  0E01               	movlw	low _eusart2RxStatusBuffer
  4880  0010E2  2420               	addwf	_eusart2RxHead^0,w,c	;volatile
  4881  0010E4  6ED9               	movwf	fsr2l,c
  4882  0010E6  6ADA               	clrf	fsr2h,c
  4883  0010E8  0E00               	movlw	high _eusart2RxStatusBuffer
  4884  0010EA  22DA               	addwfc	fsr2h,f,c
  4885  0010EC  0E00               	movlw	0
  4886  0010EE  6EDF               	movwf	indf2,c
  4887  0010F0                     
  4888                           ;mcc_generated_files/eusart2.c: 230:     if(RCSTA2bits.FERR){
  4889  0010F0  A49C               	btfss	156,2,c	;volatile
  4890  0010F2  EF7D  F008         	goto	i2u98_41
  4891  0010F6  EF7F  F008         	goto	i2u98_40
  4892  0010FA                     i2u98_41:
  4893  0010FA  EF94  F008         	goto	i2l3034
  4894  0010FE                     i2u98_40:
  4895  0010FE                     
  4896                           ;mcc_generated_files/eusart2.c: 231:         eusart2RxStatusBuffer[eusart2RxHead].ferr =
      +                           1;
  4897  0010FE  0E01               	movlw	low _eusart2RxStatusBuffer
  4898  001100  2420               	addwf	_eusart2RxHead^0,w,c	;volatile
  4899  001102  6ED9               	movwf	fsr2l,c
  4900  001104  6ADA               	clrf	fsr2h,c
  4901  001106  0E00               	movlw	high _eusart2RxStatusBuffer
  4902  001108  22DA               	addwfc	fsr2h,f,c
  4903  00110A  82DF               	bsf	indf2,1,c
  4904  00110C                     
  4905                           ;mcc_generated_files/eusart2.c: 232:         EUSART2_FramingErrorHandler();
  4906  00110C  D802               	call	i2u99_48
  4907  00110E  EF94  F008         	goto	i2u99_49
  4908  001112                     i2u99_48:
  4909  001112  0005               	push	
  4910  001114  0100               	movlb	0	; () banked
  4911  001116  6EFA               	movwf	pclath,c
  4912  001118  51C7               	movf	_EUSART2_FramingErrorHandler& (0+255),w,b
  4913  00111A  6EFD               	movwf	tosl,c
  4914  00111C  51C8               	movf	(_EUSART2_FramingErrorHandler+1)& (0+255),w,b
  4915  00111E  6EFE               	movwf	tosh,c
  4916  001120  50F8               	movf	tblptru,w,c
  4917  001122  6EFF               	movwf	tosu,c
  4918  001124  50FA               	movf	pclath,w,c
  4919  001126  0012               	return		;indir
  4920  001128                     i2u99_49:
  4921  001128                     i2l3034:
  4922                           
  4923                           ;mcc_generated_files/eusart2.c: 235:     if(RCSTA2bits.OERR){
  4924  001128  A29C               	btfss	156,1,c	;volatile
  4925  00112A  EF99  F008         	goto	i2u100_41
  4926  00112E  EF9B  F008         	goto	i2u100_40
  4927  001132                     i2u100_41:
  4928  001132  EFB0  F008         	goto	i2l3040
  4929  001136                     i2u100_40:
  4930  001136                     
  4931                           ;mcc_generated_files/eusart2.c: 236:         eusart2RxStatusBuffer[eusart2RxHead].oerr =
      +                           1;
  4932  001136  0E01               	movlw	low _eusart2RxStatusBuffer
  4933  001138  2420               	addwf	_eusart2RxHead^0,w,c	;volatile
  4934  00113A  6ED9               	movwf	fsr2l,c
  4935  00113C  6ADA               	clrf	fsr2h,c
  4936  00113E  0E00               	movlw	high _eusart2RxStatusBuffer
  4937  001140  22DA               	addwfc	fsr2h,f,c
  4938  001142  84DF               	bsf	indf2,2,c
  4939  001144                     
  4940                           ;mcc_generated_files/eusart2.c: 237:         EUSART2_OverrunErrorHandler();
  4941  001144  D802               	call	i2u101_48
  4942  001146  EFB0  F008         	goto	i2u101_49
  4943  00114A                     i2u101_48:
  4944  00114A  0005               	push	
  4945  00114C  0100               	movlb	0	; () banked
  4946  00114E  6EFA               	movwf	pclath,c
  4947  001150  51C5               	movf	_EUSART2_OverrunErrorHandler& (0+255),w,b
  4948  001152  6EFD               	movwf	tosl,c
  4949  001154  51C6               	movf	(_EUSART2_OverrunErrorHandler+1)& (0+255),w,b
  4950  001156  6EFE               	movwf	tosh,c
  4951  001158  50F8               	movf	tblptru,w,c
  4952  00115A  6EFF               	movwf	tosu,c
  4953  00115C  50FA               	movf	pclath,w,c
  4954  00115E  0012               	return		;indir
  4955  001160                     i2u101_49:
  4956  001160                     i2l3040:
  4957                           
  4958                           ;mcc_generated_files/eusart2.c: 240:     if(eusart2RxStatusBuffer[eusart2RxHead].status)
      +                          {
  4959  001160  0E01               	movlw	low _eusart2RxStatusBuffer
  4960  001162  2420               	addwf	_eusart2RxHead^0,w,c	;volatile
  4961  001164  6ED9               	movwf	fsr2l,c
  4962  001166  6ADA               	clrf	fsr2h,c
  4963  001168  0E00               	movlw	high _eusart2RxStatusBuffer
  4964  00116A  22DA               	addwfc	fsr2h,f,c
  4965  00116C  50DF               	movf	indf2,w,c
  4966  00116E  B4D8               	btfsc	status,2,c
  4967  001170  EFBC  F008         	goto	i2u102_41
  4968  001174  EFBE  F008         	goto	i2u102_40
  4969  001178                     i2u102_41:
  4970  001178  EFCE  F008         	goto	i2l3044
  4971  00117C                     i2u102_40:
  4972  00117C                     
  4973                           ;mcc_generated_files/eusart2.c: 241:         EUSART2_ErrorHandler();
  4974  00117C  D802               	call	i2u103_48
  4975  00117E  EFCC  F008         	goto	i2u103_49
  4976  001182                     i2u103_48:
  4977  001182  0005               	push	
  4978  001184  0100               	movlb	0	; () banked
  4979  001186  6EFA               	movwf	pclath,c
  4980  001188  51C3               	movf	_EUSART2_ErrorHandler& (0+255),w,b
  4981  00118A  6EFD               	movwf	tosl,c
  4982  00118C  51C4               	movf	(_EUSART2_ErrorHandler+1)& (0+255),w,b
  4983  00118E  6EFE               	movwf	tosh,c
  4984  001190  50F8               	movf	tblptru,w,c
  4985  001192  6EFF               	movwf	tosu,c
  4986  001194  50FA               	movf	pclath,w,c
  4987  001196  0012               	return		;indir
  4988  001198                     i2u103_49:
  4989                           
  4990                           ;mcc_generated_files/eusart2.c: 242:     } else {
  4991  001198  EFD0  F008         	goto	i2l226
  4992  00119C                     i2l3044:
  4993                           
  4994                           ;mcc_generated_files/eusart2.c: 243:         EUSART2_RxDataHandler();
  4995  00119C  ECE6  F00B         	call	_EUSART2_RxDataHandler	;wreg free
  4996  0011A0                     i2l226:
  4997  0011A0  0012               	return		;funcret
  4998  0011A2                     __end_of_EUSART2_Receive_ISR:
  4999                           	callstack 0
  5000                           
  5001 ;; *************** function _EUSART2_DefaultOverrunErrorHandler *****************
  5002 ;; Defined at:
  5003 ;;		line 261 in file "mcc_generated_files/eusart2.c"
  5004 ;; Parameters:    Size  Location     Type
  5005 ;;		None
  5006 ;; Auto vars:     Size  Location     Type
  5007 ;;		None
  5008 ;; Return value:  Size  Location     Type
  5009 ;;                  1    wreg      void 
  5010 ;; Registers used:
  5011 ;;		None
  5012 ;; Tracked objects:
  5013 ;;		On entry : 0/0
  5014 ;;		On exit  : 0/0
  5015 ;;		Unchanged: 0/0
  5016 ;; Data sizes:     COMRAM   BANK0   BANK1   BANK2   BANK3   BANK4   BANK5   BANK6   BANK7   BANK8   BANK9  BANK10  BANK1
      +1  BANK12  BANK13  BANK14
  5017 ;;      Params:         0       0       0       0       0       0       0       0       0       0       0       0       
      +0       0       0       0
  5018 ;;      Locals:         0       0       0       0       0       0       0       0       0       0       0       0       
      +0       0       0       0
  5019 ;;      Temps:          0       0       0       0       0       0       0       0       0       0       0       0       
      +0       0       0       0
  5020 ;;      Totals:         0       0       0       0       0       0       0       0       0       0       0       0       
      +0       0       0       0
  5021 ;;Total ram usage:        0 bytes
  5022 ;; Hardware stack levels used: 1
  5023 ;; This function calls:
  5024 ;;		Nothing
  5025 ;; This function is called by:
  5026 ;;		_EUSART2_Initialize
  5027 ;;		_EUSART2_Receive_ISR
  5028 ;; This function uses a non-reentrant model
  5029 ;;
  5030                           
  5031                           	psect	text62
  5032  0019DE                     __ptext62:
  5033                           	callstack 0
  5034  0019DE                     _EUSART2_DefaultOverrunErrorHandler:
  5035                           	callstack 22
  5036  0019DE                     
  5037                           ;mcc_generated_files/eusart2.c: 264:     RCSTA2bits.CREN = 0;
  5038  0019DE  989C               	bcf	156,4,c	;volatile
  5039                           
  5040                           ;mcc_generated_files/eusart2.c: 265:     RCSTA2bits.CREN = 1;
  5041  0019E0  889C               	bsf	156,4,c	;volatile
  5042  0019E2  0012               	return		;funcret
  5043  0019E4                     __end_of_EUSART2_DefaultOverrunErrorHandler:
  5044                           	callstack 0
  5045                           
  5046 ;; *************** function _EUSART2_DefaultFramingErrorHandler *****************
  5047 ;; Defined at:
  5048 ;;		line 259 in file "mcc_generated_files/eusart2.c"
  5049 ;; Parameters:    Size  Location     Type
  5050 ;;		None
  5051 ;; Auto vars:     Size  Location     Type
  5052 ;;		None
  5053 ;; Return value:  Size  Location     Type
  5054 ;;                  1    wreg      void 
  5055 ;; Registers used:
  5056 ;;		None
  5057 ;; Tracked objects:
  5058 ;;		On entry : 0/0
  5059 ;;		On exit  : 0/0
  5060 ;;		Unchanged: 0/0
  5061 ;; Data sizes:     COMRAM   BANK0   BANK1   BANK2   BANK3   BANK4   BANK5   BANK6   BANK7   BANK8   BANK9  BANK10  BANK1
      +1  BANK12  BANK13  BANK14
  5062 ;;      Params:         0       0       0       0       0       0       0       0       0       0       0       0       
      +0       0       0       0
  5063 ;;      Locals:         0       0       0       0       0       0       0       0       0       0       0       0       
      +0       0       0       0
  5064 ;;      Temps:          0       0       0       0       0       0       0       0       0       0       0       0       
      +0       0       0       0
  5065 ;;      Totals:         0       0       0       0       0       0       0       0       0       0       0       0       
      +0       0       0       0
  5066 ;;Total ram usage:        0 bytes
  5067 ;; Hardware stack levels used: 1
  5068 ;; This function calls:
  5069 ;;		Nothing
  5070 ;; This function is called by:
  5071 ;;		_EUSART2_Initialize
  5072 ;;		_EUSART2_Receive_ISR
  5073 ;; This function uses a non-reentrant model
  5074 ;;
  5075                           
  5076                           	psect	text63
  5077  001A0E                     __ptext63:
  5078                           	callstack 0
  5079  001A0E                     _EUSART2_DefaultFramingErrorHandler:
  5080                           	callstack 22
  5081  001A0E  0012               	return		;funcret
  5082  001A10                     __end_of_EUSART2_DefaultFramingErrorHandler:
  5083                           	callstack 0
  5084                           
  5085 ;; *************** function _EUSART2_DefaultErrorHandler *****************
  5086 ;; Defined at:
  5087 ;;		line 269 in file "mcc_generated_files/eusart2.c"
  5088 ;; Parameters:    Size  Location     Type
  5089 ;;		None
  5090 ;; Auto vars:     Size  Location     Type
  5091 ;;		None
  5092 ;; Return value:  Size  Location     Type
  5093 ;;                  1    wreg      void 
  5094 ;; Registers used:
  5095 ;;		wreg, fsr2l, fsr2h, status,2, status,0, cstack
  5096 ;; Tracked objects:
  5097 ;;		On entry : 0/0
  5098 ;;		On exit  : 0/0
  5099 ;;		Unchanged: 0/0
  5100 ;; Data sizes:     COMRAM   BANK0   BANK1   BANK2   BANK3   BANK4   BANK5   BANK6   BANK7   BANK8   BANK9  BANK10  BANK1
      +1  BANK12  BANK13  BANK14
  5101 ;;      Params:         0       0       0       0       0       0       0       0       0       0       0       0       
      +0       0       0       0
  5102 ;;      Locals:         0       0       0       0       0       0       0       0       0       0       0       0       
      +0       0       0       0
  5103 ;;      Temps:          0       0       0       0       0       0       0       0       0       0       0       0       
      +0       0       0       0
  5104 ;;      Totals:         0       0       0       0       0       0       0       0       0       0       0       0       
      +0       0       0       0
  5105 ;;Total ram usage:        0 bytes
  5106 ;; Hardware stack levels used: 1
  5107 ;; Hardware stack levels required when called: 1
  5108 ;; This function calls:
  5109 ;;		_EUSART2_RxDataHandler
  5110 ;; This function is called by:
  5111 ;;		_EUSART2_Initialize
  5112 ;;		_EUSART2_Receive_ISR
  5113 ;; This function uses a non-reentrant model
  5114 ;;
  5115                           
  5116                           	psect	text64
  5117  0019E4                     __ptext64:
  5118                           	callstack 0
  5119  0019E4                     _EUSART2_DefaultErrorHandler:
  5120                           	callstack 21
  5121  0019E4                     
  5122                           ;mcc_generated_files/eusart2.c: 270:     EUSART2_RxDataHandler();
  5123  0019E4  ECE6  F00B         	call	_EUSART2_RxDataHandler	;wreg free
  5124  0019E8  0012               	return		;funcret
  5125  0019EA                     __end_of_EUSART2_DefaultErrorHandler:
  5126                           	callstack 0
  5127                           
  5128 ;; *************** function _EUSART2_RxDataHandler *****************
  5129 ;; Defined at:
  5130 ;;		line 249 in file "mcc_generated_files/eusart2.c"
  5131 ;; Parameters:    Size  Location     Type
  5132 ;;		None
  5133 ;; Auto vars:     Size  Location     Type
  5134 ;;		None
  5135 ;; Return value:  Size  Location     Type
  5136 ;;                  1    wreg      void 
  5137 ;; Registers used:
  5138 ;;		wreg, fsr2l, fsr2h, status,2, status,0
  5139 ;; Tracked objects:
  5140 ;;		On entry : 0/0
  5141 ;;		On exit  : 0/0
  5142 ;;		Unchanged: 0/0
  5143 ;; Data sizes:     COMRAM   BANK0   BANK1   BANK2   BANK3   BANK4   BANK5   BANK6   BANK7   BANK8   BANK9  BANK10  BANK1
      +1  BANK12  BANK13  BANK14
  5144 ;;      Params:         0       0       0       0       0       0       0       0       0       0       0       0       
      +0       0       0       0
  5145 ;;      Locals:         0       0       0       0       0       0       0       0       0       0       0       0       
      +0       0       0       0
  5146 ;;      Temps:          0       0       0       0       0       0       0       0       0       0       0       0       
      +0       0       0       0
  5147 ;;      Totals:         0       0       0       0       0       0       0       0       0       0       0       0       
      +0       0       0       0
  5148 ;;Total ram usage:        0 bytes
  5149 ;; Hardware stack levels used: 1
  5150 ;; This function calls:
  5151 ;;		Nothing
  5152 ;; This function is called by:
  5153 ;;		_EUSART2_Receive_ISR
  5154 ;;		_EUSART2_DefaultErrorHandler
  5155 ;; This function uses a non-reentrant model
  5156 ;;
  5157                           
  5158                           	psect	text65
  5159  0017CC                     __ptext65:
  5160                           	callstack 0
  5161  0017CC                     _EUSART2_RxDataHandler:
  5162                           	callstack 22
  5163  0017CC                     
  5164                           ;mcc_generated_files/eusart2.c: 251:     eusart2RxBuffer[eusart2RxHead++] = RCREG2;
  5165  0017CC  0EA4               	movlw	low _eusart2RxBuffer
  5166  0017CE  2420               	addwf	_eusart2RxHead^0,w,c	;volatile
  5167  0017D0  6ED9               	movwf	fsr2l,c
  5168  0017D2  6ADA               	clrf	fsr2h,c
  5169  0017D4  0E00               	movlw	high _eusart2RxBuffer
  5170  0017D6  22DA               	addwfc	fsr2h,f,c
  5171  0017D8  CFAA FFDF          	movff	4010,indf2	;volatile
  5172  0017DC  2A20               	incf	_eusart2RxHead^0,f,c	;volatile
  5173  0017DE                     
  5174                           ;mcc_generated_files/eusart2.c: 252:     if(sizeof(eusart2RxBuffer) <= eusart2RxHead)
  5175  0017DE  0E07               	movlw	7
  5176  0017E0  6420               	cpfsgt	_eusart2RxHead^0,c	;volatile
  5177  0017E2  EFF5  F00B         	goto	i2u80_41
  5178  0017E6  EFF7  F00B         	goto	i2u80_40
  5179  0017EA                     i2u80_41:
  5180  0017EA  EFF9  F00B         	goto	i2l2756
  5181  0017EE                     i2u80_40:
  5182  0017EE                     
  5183                           ;mcc_generated_files/eusart2.c: 253:     {;mcc_generated_files/eusart2.c: 254:         e
      +                          usart2RxHead = 0;
  5184  0017EE  0E00               	movlw	0
  5185  0017F0  6E20               	movwf	_eusart2RxHead^0,c	;volatile
  5186  0017F2                     i2l2756:
  5187                           
  5188                           ;mcc_generated_files/eusart2.c: 256:     eusart2RxCount++;
  5189  0017F2  2A1E               	incf	_eusart2RxCount^0,f,c	;volatile
  5190  0017F4  0012               	return		;funcret
  5191  0017F6                     __end_of_EUSART2_RxDataHandler:
  5192                           	callstack 0
  5193                           
  5194                           	psect	text66
  5195  000000                     __ptext66:
  5196                           	callstack 0
  5197  000000                     
  5198                           	psect	rparam
  5199  0000                     
  5200                           	psect	temp
  5201  000048                     btemp:
  5202                           	callstack 0
  5203  000048                     	ds	1
  5204  0000                     int$flags	set	btemp
  5205  0000                     wtemp8	set	btemp+1
  5206  0000                     ttemp5	set	btemp+1
  5207  0000                     ttemp6	set	btemp+4
  5208  0000                     ttemp7	set	btemp+8
  5209                           
  5210                           	psect	config
  5211                           
  5212                           ;Config register CONFIG1L @ 0xFFF8
  5213                           ;	Watchdog Timer
  5214                           ;	WDTEN = OFF, Disabled - Controlled by SWDTEN bit
  5215                           ;	PLL Prescaler Selection
  5216                           ;	PLLDIV = 2, Divide by 2 (8 MHz oscillator input)
  5217                           ;	PLL Enable Configuration Bit
  5218                           ;	CFGPLLEN = ON, PLL Enabled
  5219                           ;	Stack Overflow/Underflow Reset
  5220                           ;	STVREN = ON, Enabled
  5221                           ;	Extended Instruction Set
  5222                           ;	XINST = OFF, Disabled
  5223  FFF8                     	org	65528
  5224  FFF8  AC                 	db	172
  5225                           
  5226                           ;Config register CONFIG1H @ 0xFFF9
  5227                           ;	CPU System Clock Postscaler
  5228                           ;	CPUDIV = OSC1, No CPU system clock divide
  5229                           ;	Code Protect
  5230                           ;	CP0 = OFF, Program memory is not code-protected
  5231  FFF9                     	org	65529
  5232  FFF9  F7                 	db	247
  5233                           
  5234                           ;Config register CONFIG2L @ 0xFFFA
  5235                           ;	Oscillator
  5236                           ;	OSC = INTOSCPLL, INTOSCPLL
  5237                           ;	T1OSC/SOSC Power Selection Bits
  5238                           ;	SOSCSEL = DIG, Digital (SCLKI) mode selected
  5239                           ;	EC Clock Out Enable Bit
  5240                           ;	CLKOEC = OFF, CLKO output disabled on the RA6 pin
  5241                           ;	Fail-Safe Clock Monitor
  5242                           ;	FCMEN = ON, Enabled
  5243                           ;	Internal External Oscillator Switch Over Mode
  5244                           ;	IESO = ON, Enabled
  5245  FFFA                     	org	65530
  5246  FFFA  D2                 	db	210
  5247                           
  5248                           ;Config register CONFIG2H @ 0xFFFB
  5249                           ;	Watchdog Postscaler
  5250                           ;	WDTPS = 32768, 1:32768
  5251  FFFB                     	org	65531
  5252  FFFB  FF                 	db	255
  5253                           
  5254                           ;Config register CONFIG3L @ 0xFFFC
  5255                           ;	DSWDT Clock Select
  5256                           ;	DSWDTOSC = INTOSCREF, DSWDT uses INTRC
  5257                           ;	RTCC Clock Select
  5258                           ;	RTCOSC = T1OSCREF, RTCC uses T1OSC/T1CKI
  5259                           ;	Deep Sleep BOR
  5260                           ;	DSBOREN = ON, Enabled
  5261                           ;	Deep Sleep Watchdog Timer
  5262                           ;	DSWDTEN = ON, Enabled
  5263                           ;	Deep Sleep Watchdog Postscaler
  5264                           ;	DSWDTPS = G2, 1:2,147,483,648 (25.7 days)
  5265  FFFC                     	org	65532
  5266  FFFC  FF                 	db	255
  5267                           
  5268                           ;Config register CONFIG3H @ 0xFFFD
  5269                           ;	IOLOCK One-Way Set Enable bit
  5270                           ;	IOL1WAY = ON, The IOLOCK bit (PPSCON<0>) can be set once
  5271                           ;	ADC 10 or 12 Bit Select
  5272                           ;	ADCSEL = BIT10, 10 - Bit ADC Enabled
  5273                           ;	MSSP address masking
  5274                           ;	MSSP7B_EN = MSK7, 7 Bit address masking mode
  5275  FFFD                     	org	65533
  5276  FFFD  FB                 	db	251
  5277                           
  5278                           ;Config register CONFIG4L @ 0xFFFE
  5279                           ;	Write/Erase Protect Page Start/End Location
  5280                           ;	WPFP = PAGE_63, Write Protect Program Flash Page 63
  5281                           ;	Write/Erase Protect Configuration Region
  5282                           ;	WPCFG = OFF, Configuration Words page not erase/write-protected
  5283  FFFE                     	org	65534
  5284  FFFE  BF                 	db	191
  5285                           
  5286                           ;Config register CONFIG4H @ 0xFFFF
  5287                           ;	Write Protect Disable bit
  5288                           ;	WPDIS = OFF, WPFP<6:0>/WPEND region ignored
  5289                           ;	Write/Erase Protect Region Select bit (valid when WPDIS = 0)
  5290                           ;	WPEND = PAGE_WPFP, Pages WPFP<6:0> through Configuration Words erase/write protected
  5291                           ;	Low Speed USB mode with 48 MHz system clock bit
  5292                           ;	LS48MHZ = SYS48X8, System clock at 48 MHz USB CLKEN divide-by is set to 8
  5293  FFFF                     	org	65535
  5294  FFFF  FB                 	db	251
  5295                           tosu	equ	0xFFF
  5296                           tosh	equ	0xFFE
  5297                           tosl	equ	0xFFD
  5298                           stkptr	equ	0xFFC
  5299                           pclatu	equ	0xFFB
  5300                           pclath	equ	0xFFA
  5301                           pcl	equ	0xFF9
  5302                           tblptru	equ	0xFF8
  5303                           tblptrh	equ	0xFF7
  5304                           tblptrl	equ	0xFF6
  5305                           tablat	equ	0xFF5
  5306                           prodh	equ	0xFF4
  5307                           prodl	equ	0xFF3
  5308                           indf0	equ	0xFEF
  5309                           postinc0	equ	0xFEE
  5310                           postdec0	equ	0xFED
  5311                           preinc0	equ	0xFEC
  5312                           plusw0	equ	0xFEB
  5313                           fsr0h	equ	0xFEA
  5314                           fsr0l	equ	0xFE9
  5315                           wreg	equ	0xFE8
  5316                           indf1	equ	0xFE7
  5317                           postinc1	equ	0xFE6
  5318                           postdec1	equ	0xFE5
  5319                           preinc1	equ	0xFE4
  5320                           plusw1	equ	0xFE3
  5321                           fsr1h	equ	0xFE2
  5322                           fsr1l	equ	0xFE1
  5323                           bsr	equ	0xFE0
  5324                           indf2	equ	0xFDF
  5325                           postinc2	equ	0xFDE
  5326                           postdec2	equ	0xFDD
  5327                           preinc2	equ	0xFDC
  5328                           plusw2	equ	0xFDB
  5329                           fsr2h	equ	0xFDA
  5330                           fsr2l	equ	0xFD9
  5331                           status	equ	0xFD8

Data Sizes:
    Strings     8
    Constant    32
    Data        0
    BSS         110
    Persistent  13
    Stack       0

Auto Spaces:
    Space          Size  Autos    Used
    COMRAM           94     32      71
    BANK0           160     23     107
    BANK1           256      0       0
    BANK2           256      0       0
    BANK3           256      0       0
    BANK4           256      0       0
    BANK5           256      0       0
    BANK6           256      0       0
    BANK7           256      0       0
    BANK8           256      0       0
    BANK9           256      0       0
    BANK10          256      0       0
    BANK11          256      0       0
    BANK12          256      0       0
    BANK13          256      0       0
    BANK14          176      0       0

Pointer List with Targets:

    I2C1_Read1ByteRegister@returnValue.data	PTR unsigned char  size(2) Largest target is 0

    I2C1_Read2ByteRegister@returnValue.data	PTR unsigned char  size(2) Largest target is 0

    I2C1_Write1ByteRegister@data.data	PTR unsigned char  size(2) Largest target is 0

    I2C1_Write2ByteRegister@data.data	PTR unsigned char  size(2) Largest target is 0

    I2C1_DO_TX$3096$0	PTR void  size(2) Largest target is 5
		 -> I2C1_ReadDataBlock@bufferBlock(COMRAM[4]), I2C1_Write2ByteRegister@data(COMRAM[2]), I2C1_Write1ByteRegister@data(COMRAM[1]), I2C1_Read2ByteRegister@returnValue(COMRAM[2]), 
		 -> NULL(NULL[0]), I2C1_Read1ByteRegister@returnValue(COMRAM[1]), 

    I2C1_DO_RX$3102$0	PTR void  size(2) Largest target is 5
		 -> I2C1_ReadDataBlock@bufferBlock(COMRAM[4]), I2C1_Write2ByteRegister@data(COMRAM[2]), I2C1_Write1ByteRegister@data(COMRAM[1]), I2C1_Read2ByteRegister@returnValue(COMRAM[2]), 
		 -> NULL(NULL[0]), I2C1_Read1ByteRegister@returnValue(COMRAM[1]), 

    I2C1_DO_TX_EMPTY$3108$0	PTR void  size(2) Largest target is 5
		 -> I2C1_ReadDataBlock@bufferBlock(COMRAM[4]), I2C1_Write2ByteRegister@data(COMRAM[2]), I2C1_Write1ByteRegister@data(COMRAM[1]), I2C1_Read2ByteRegister@returnValue(COMRAM[2]), 
		 -> NULL(NULL[0]), I2C1_Read1ByteRegister@returnValue(COMRAM[1]), 

    I2C1_DO_RX_EMPTY$3114$0	PTR void  size(2) Largest target is 5
		 -> I2C1_ReadDataBlock@bufferBlock(COMRAM[4]), I2C1_Write2ByteRegister@data(COMRAM[2]), I2C1_Write1ByteRegister@data(COMRAM[1]), I2C1_Read2ByteRegister@returnValue(COMRAM[2]), 
		 -> NULL(NULL[0]), I2C1_Read1ByteRegister@returnValue(COMRAM[1]), 

    I2C1_DO_TX_EMPTY$3113	PTR void  size(2) Largest target is 5
		 -> I2C1_ReadDataBlock@bufferBlock(COMRAM[4]), I2C1_Write2ByteRegister@data(COMRAM[2]), I2C1_Write1ByteRegister@data(COMRAM[1]), I2C1_Read2ByteRegister@returnValue(COMRAM[2]), 
		 -> NULL(NULL[0]), I2C1_Read1ByteRegister@returnValue(COMRAM[1]), 

    I2C1_DO_TX_EMPTY$3108	PTR FTN(PTR void ,)enum E360 size(2) Largest target is 1
		 -> I2C1_CallbackReturnReset(), I2C1_CallbackReturnStop(), Absolute function(), rdBlkRegCompleteHandler(), 
		 -> wr2RegCompleteHandler(), wr1RegCompleteHandler(), rd2RegCompleteHandler(), rd1RegCompleteHandler(), 

    I2C1_DO_RX$3107	PTR void  size(2) Largest target is 5
		 -> I2C1_ReadDataBlock@bufferBlock(COMRAM[4]), I2C1_Write2ByteRegister@data(COMRAM[2]), I2C1_Write1ByteRegister@data(COMRAM[1]), I2C1_Read2ByteRegister@returnValue(COMRAM[2]), 
		 -> NULL(NULL[0]), I2C1_Read1ByteRegister@returnValue(COMRAM[1]), 

    I2C1_DO_RX$3102	PTR FTN(PTR void ,)enum E360 size(2) Largest target is 1
		 -> I2C1_CallbackReturnReset(), I2C1_CallbackReturnStop(), Absolute function(), rdBlkRegCompleteHandler(), 
		 -> wr2RegCompleteHandler(), wr1RegCompleteHandler(), rd2RegCompleteHandler(), rd1RegCompleteHandler(), 

    I2C1_DO_TX$3101	PTR void  size(2) Largest target is 5
		 -> I2C1_ReadDataBlock@bufferBlock(COMRAM[4]), I2C1_Write2ByteRegister@data(COMRAM[2]), I2C1_Write1ByteRegister@data(COMRAM[1]), I2C1_Read2ByteRegister@returnValue(COMRAM[2]), 
		 -> NULL(NULL[0]), I2C1_Read1ByteRegister@returnValue(COMRAM[1]), 

    I2C1_DO_TX$3096	PTR FTN(PTR void ,)enum E360 size(2) Largest target is 1
		 -> I2C1_CallbackReturnReset(), I2C1_CallbackReturnStop(), Absolute function(), rdBlkRegCompleteHandler(), 
		 -> wr2RegCompleteHandler(), wr1RegCompleteHandler(), rd2RegCompleteHandler(), rd1RegCompleteHandler(), 

    I2C1_MasterFsm$3095	const PTR FTN()enum E6655 size(2) Largest target is 1
		 -> I2C1_DO_ADDRESS_NACK(), I2C1_DO_RESET(), I2C1_DO_RX_NACK_RESTART(), I2C1_DO_RX_NACK_STOP(), 
		 -> I2C1_DO_RX_ACK(), I2C1_DO_SEND_STOP(), I2C1_DO_SEND_RESTART(), I2C1_DO_SEND_RESTART_WRITE(), 
		 -> I2C1_DO_SEND_RESTART_READ(), I2C1_DO_TX_EMPTY(), I2C1_DO_RCEN(), I2C1_DO_RX(), 
		 -> I2C1_DO_TX(), I2C1_DO_SEND_ADR_WRITE(), I2C1_DO_SEND_ADR_READ(), I2C1_DO_IDLE(), 

    I2C1_CallbackReturnStop@funPtr	PTR void  size(2) Largest target is 5
		 -> I2C1_ReadDataBlock@bufferBlock(COMRAM[4]), I2C1_Write2ByteRegister@data(COMRAM[2]), I2C1_Write1ByteRegister@data(COMRAM[1]), I2C1_Read2ByteRegister@returnValue(COMRAM[2]), 
		 -> NULL(NULL[0]), I2C1_Read1ByteRegister@returnValue(COMRAM[1]), 

    I2C1_CallbackReturnReset@funPtr	PTR void  size(2) Largest target is 5
		 -> I2C1_ReadDataBlock@bufferBlock(COMRAM[4]), I2C1_Write2ByteRegister@data(COMRAM[2]), I2C1_Write1ByteRegister@data(COMRAM[1]), I2C1_Read2ByteRegister@returnValue(COMRAM[2]), 
		 -> NULL(NULL[0]), I2C1_Read1ByteRegister@returnValue(COMRAM[1]), 

    cb$0	PTR void  size(2) Largest target is 5
		 -> I2C1_ReadDataBlock@bufferBlock(COMRAM[4]), I2C1_Write2ByteRegister@data(COMRAM[2]), I2C1_Write1ByteRegister@data(COMRAM[1]), I2C1_Read2ByteRegister@returnValue(COMRAM[2]), 
		 -> NULL(NULL[0]), I2C1_Read1ByteRegister@returnValue(COMRAM[1]), 

    Absolute function$0	PTR void  size(2) Largest target is 5
		 -> I2C1_ReadDataBlock@bufferBlock(COMRAM[4]), I2C1_Write2ByteRegister@data(COMRAM[2]), I2C1_Write1ByteRegister@data(COMRAM[1]), I2C1_Read2ByteRegister@returnValue(COMRAM[2]), 
		 -> NULL(NULL[0]), I2C1_Read1ByteRegister@returnValue(COMRAM[1]), 

    cb$0	PTR void  size(2) Largest target is 5
		 -> I2C1_ReadDataBlock@bufferBlock(COMRAM[4]), I2C1_Write2ByteRegister@data(COMRAM[2]), I2C1_Write1ByteRegister@data(COMRAM[1]), I2C1_Read2ByteRegister@returnValue(COMRAM[2]), 
		 -> NULL(NULL[0]), I2C1_Read1ByteRegister@returnValue(COMRAM[1]), 

    vfpfcnvrt@ap	PTR PTR void  size(2) Largest target is 2
		 -> printf@ap(BANK0[2]), 

    S605$0$0	PTR void  size(2) Largest target is 5
		 -> I2C1_ReadDataBlock@bufferBlock(COMRAM[4]), I2C1_Write2ByteRegister@data(COMRAM[2]), I2C1_Write1ByteRegister@data(COMRAM[1]), I2C1_Read2ByteRegister@returnValue(COMRAM[2]), 
		 -> NULL(NULL[0]), I2C1_Read1ByteRegister@returnValue(COMRAM[1]), 

    ADC_InterruptHandler	PTR FTN()void  size(2) Largest target is 1
		 -> Absolute function(), 

    S2667$source	PTR const unsigned char  size(2) Largest target is 0

    fputc@fp...source	PTR const unsigned char  size(2) Largest target is 0

    S2667$buffer	PTR unsigned char  size(2) Largest target is 0

    fputc@fp...buffer	PTR unsigned char  size(2) Largest target is 0

    fputc@fp	PTR struct _IO_FILE size(2) Largest target is 0
		 -> NULL(NULL[0]), 

    vfprintf@ap	PTR PTR void  size(2) Largest target is 2
		 -> printf@ap(BANK0[2]), 

    vfprintf@fp	PTR struct _IO_FILE size(2) Largest target is 0
		 -> NULL(NULL[0]), 

    vfprintf@fmt	PTR const unsigned char  size(2) Largest target is 8
		 -> STR_1(CODE[8]), 

    vfprintf@cfmt	PTR unsigned char  size(2) Largest target is 8
		 -> STR_1(CODE[8]), 

    vfpfcnvrt@fp	PTR struct _IO_FILE size(2) Largest target is 0
		 -> NULL(NULL[0]), 

    vfpfcnvrt@fmt	PTR PTR unsigned char  size(2) Largest target is 2
		 -> vfprintf@cfmt(COMRAM[2]), 

    printf@fmt	PTR const unsigned char  size(2) Largest target is 8
		 -> STR_1(CODE[8]), 

    printf@ap	PTR void [1] size(2) Largest target is 2
		 -> ?_printf(BANK0[2]), 

    main@bufferPointer	PTR unsigned char  size(2) Largest target is 1
		 -> main@buffer(COMRAM[1]), 

    I2C1_SetCallback@ptr	PTR void  size(2) Largest target is 5
		 -> I2C1_ReadDataBlock@bufferBlock(COMRAM[4]), I2C1_Write2ByteRegister@data(COMRAM[2]), I2C1_Write1ByteRegister@data(COMRAM[1]), I2C1_Read2ByteRegister@returnValue(COMRAM[2]), 
		 -> NULL(NULL[0]), I2C1_Read1ByteRegister@returnValue(COMRAM[1]), 

    I2C1_SetCallback@cb	PTR FTN(PTR void ,)enum E360 size(2) Largest target is 1
		 -> Absolute function(), rdBlkRegCompleteHandler(), wr2RegCompleteHandler(), wr1RegCompleteHandler(), 
		 -> rd2RegCompleteHandler(), rd1RegCompleteHandler(), 

    MSSP1_InterruptHandler	PTR FTN()void  size(2) Largest target is 1
		 -> I2C1_MasterIsr(), Absolute function(), 

    I2C1_SetDataCompleteCallback@ptr	PTR void  size(2) Largest target is 5
		 -> I2C1_ReadDataBlock@bufferBlock(COMRAM[4]), I2C1_Write2ByteRegister@data(COMRAM[2]), I2C1_Write1ByteRegister@data(COMRAM[1]), I2C1_Read2ByteRegister@returnValue(COMRAM[2]), 
		 -> NULL(NULL[0]), I2C1_Read1ByteRegister@returnValue(COMRAM[1]), 

    I2C1_SetDataCompleteCallback@cb	PTR FTN(PTR void ,)enum E360 size(2) Largest target is 1
		 -> Absolute function(), rdBlkRegCompleteHandler(), wr2RegCompleteHandler(), wr1RegCompleteHandler(), 
		 -> rd2RegCompleteHandler(), rd1RegCompleteHandler(), 

    I2C1_SetBuffer@buffer	PTR void  size(2) Largest target is 5
		 -> I2C1_Read1ByteRegister@returnValue.data(COMRAM[3]), I2C1_Read2ByteRegister@returnValue.data(COMRAM[3]), I2C1_Write1ByteRegister@data.data(COMRAM[3]), I2C1_Write2ByteRegister@data.data(COMRAM[3]), 
		 -> I2C1_ReadDataBlock@reg(COMRAM[1]), I2C1_ReadDataBlock@bufferBlock(COMRAM[4]), bufferBlock.data(COMRAM[3]), I2C1_Write2ByteRegister@reg(COMRAM[1]), 
		 -> I2C1_Write2ByteRegister@data(COMRAM[2]), I2C1_Write1ByteRegister@reg(COMRAM[1]), I2C1_Write1ByteRegister@data(COMRAM[1]), I2C1_Read2ByteRegister@reg(COMRAM[1]), 
		 -> I2C1_Read2ByteRegister@returnValue(COMRAM[2]), NULL(NULL[0]), I2C1_Read1ByteRegister@reg(COMRAM[1]), I2C1_Read1ByteRegister@returnValue(COMRAM[1]), 

    S605$data_ptr	PTR unsigned char  size(2) Largest target is 5
		 -> I2C1_ReadDataBlock@reg(COMRAM[1]), I2C1_ReadDataBlock@bufferBlock(COMRAM[4]), I2C1_Write2ByteRegister@reg(COMRAM[1]), I2C1_Write2ByteRegister@data(COMRAM[2]), 
		 -> I2C1_Write1ByteRegister@reg(COMRAM[1]), I2C1_Write1ByteRegister@data(COMRAM[1]), I2C1_Read2ByteRegister@reg(COMRAM[1]), I2C1_Read2ByteRegister@returnValue(COMRAM[2]), 
		 -> NULL(NULL[0]), I2C1_Read1ByteRegister@reg(COMRAM[1]), I2C1_Read1ByteRegister@returnValue(COMRAM[1]), 

    I2C1_Status.data_ptr	PTR unsigned char  size(2) Largest target is 5
		 -> I2C1_Read1ByteRegister@returnValue.data(COMRAM[3]), I2C1_Read2ByteRegister@returnValue.data(COMRAM[3]), I2C1_Write1ByteRegister@data.data(COMRAM[3]), I2C1_Write2ByteRegister@data.data(COMRAM[3]), 
		 -> I2C1_ReadDataBlock@reg(COMRAM[1]), I2C1_ReadDataBlock@bufferBlock(COMRAM[4]), bufferBlock.data(COMRAM[3]), I2C1_Write2ByteRegister@reg(COMRAM[1]), 
		 -> I2C1_Write2ByteRegister@data(COMRAM[2]), I2C1_Write1ByteRegister@reg(COMRAM[1]), I2C1_Write1ByteRegister@data(COMRAM[1]), I2C1_Read2ByteRegister@reg(COMRAM[1]), 
		 -> I2C1_Read2ByteRegister@returnValue(COMRAM[2]), NULL(NULL[0]), I2C1_Read1ByteRegister@reg(COMRAM[1]), I2C1_Read1ByteRegister@returnValue(COMRAM[1]), 

    S605$callbackPayload	PTR void [6] size(2) Largest target is 5
		 -> I2C1_ReadDataBlock@bufferBlock(COMRAM[4]), I2C1_Write2ByteRegister@data(COMRAM[2]), I2C1_Write1ByteRegister@data(COMRAM[1]), I2C1_Read2ByteRegister@returnValue(COMRAM[2]), 
		 -> NULL(NULL[0]), I2C1_Read1ByteRegister@returnValue(COMRAM[1]), 

    I2C1_Status.callbackPayload	PTR void [6] size(2) Largest target is 5
		 -> I2C1_ReadDataBlock@bufferBlock(COMRAM[4]), I2C1_Write2ByteRegister@data(COMRAM[2]), I2C1_Write1ByteRegister@data(COMRAM[1]), I2C1_Read2ByteRegister@returnValue(COMRAM[2]), 
		 -> NULL(NULL[0]), I2C1_Read1ByteRegister@returnValue(COMRAM[1]), 

    S605$callbackTable	PTR FTN(PTR void ,)enum E360[6] size(2) Largest target is 1
		 -> I2C1_CallbackReturnReset(), I2C1_CallbackReturnStop(), Absolute function(), rdBlkRegCompleteHandler(), 
		 -> wr2RegCompleteHandler(), wr1RegCompleteHandler(), rd2RegCompleteHandler(), rd1RegCompleteHandler(), 

    I2C1_Status.callbackTable	PTR FTN(PTR void ,)enum E360[6] size(2) Largest target is 1
		 -> I2C1_CallbackReturnReset(), I2C1_CallbackReturnStop(), Absolute function(), rdBlkRegCompleteHandler(), 
		 -> wr2RegCompleteHandler(), wr1RegCompleteHandler(), rd2RegCompleteHandler(), rd1RegCompleteHandler(), 

    i2c1_fsmStateTable	const PTR FTN()enum E6655[16] size(2) Largest target is 1
		 -> I2C1_DO_ADDRESS_NACK(), I2C1_DO_RESET(), I2C1_DO_RX_NACK_RESTART(), I2C1_DO_RX_NACK_STOP(), 
		 -> I2C1_DO_RX_ACK(), I2C1_DO_SEND_STOP(), I2C1_DO_SEND_RESTART(), I2C1_DO_SEND_RESTART_WRITE(), 
		 -> I2C1_DO_SEND_RESTART_READ(), I2C1_DO_TX_EMPTY(), I2C1_DO_RCEN(), I2C1_DO_RX(), 
		 -> I2C1_DO_TX(), I2C1_DO_SEND_ADR_WRITE(), I2C1_DO_SEND_ADR_READ(), I2C1_DO_IDLE(), 

    EUSART2_SetRxInterruptHandler@interruptHandler	PTR FTN()void  size(2) Largest target is 1
		 -> EUSART2_Receive_ISR(), 

    EUSART2_RxDefaultInterruptHandler	PTR FTN()void  size(2) Largest target is 1
		 -> Absolute function(), EUSART2_Receive_ISR(), 

    EUSART2_SetTxInterruptHandler@interruptHandler	PTR FTN()void  size(2) Largest target is 1
		 -> EUSART2_Transmit_ISR(), 

    EUSART2_TxDefaultInterruptHandler	PTR FTN()void  size(2) Largest target is 1
		 -> Absolute function(), EUSART2_Transmit_ISR(), 

    EUSART2_SetErrorHandler@interruptHandler	PTR FTN()void  size(2) Largest target is 1
		 -> EUSART2_DefaultErrorHandler(), 

    EUSART2_SetOverrunErrorHandler@interruptHandler	PTR FTN()void  size(2) Largest target is 1
		 -> EUSART2_DefaultOverrunErrorHandler(), 

    EUSART2_SetFramingErrorHandler@interruptHandler	PTR FTN()void  size(2) Largest target is 1
		 -> EUSART2_DefaultFramingErrorHandler(), 

    EUSART2_ErrorHandler	PTR FTN()void  size(2) Largest target is 1
		 -> Absolute function(), EUSART2_DefaultErrorHandler(), 

    EUSART2_OverrunErrorHandler	PTR FTN()void  size(2) Largest target is 1
		 -> Absolute function(), EUSART2_DefaultOverrunErrorHandler(), 

    EUSART2_FramingErrorHandler	PTR FTN()void  size(2) Largest target is 1
		 -> Absolute function(), EUSART2_DefaultFramingErrorHandler(), 

    rdBlkRegCompleteHandler@ptr.data	PTR unsigned char  size(2) Largest target is 0

    rdBlkRegCompleteHandler@ptr	PTR void  size(2) Largest target is 5
		 -> I2C1_ReadDataBlock@bufferBlock(COMRAM[4]), I2C1_Write2ByteRegister@data(COMRAM[2]), I2C1_Write1ByteRegister@data(COMRAM[1]), I2C1_Read2ByteRegister@returnValue(COMRAM[2]), 
		 -> NULL(NULL[0]), I2C1_Read1ByteRegister@returnValue(COMRAM[1]), 

    wr2RegCompleteHandler@ptr	PTR void  size(2) Largest target is 5
		 -> I2C1_ReadDataBlock@bufferBlock(COMRAM[4]), I2C1_Write2ByteRegister@data(COMRAM[2]), I2C1_Write1ByteRegister@data(COMRAM[1]), I2C1_Read2ByteRegister@returnValue(COMRAM[2]), 
		 -> NULL(NULL[0]), I2C1_Read1ByteRegister@returnValue(COMRAM[1]), 

    wr1RegCompleteHandler@ptr	PTR void  size(2) Largest target is 5
		 -> I2C1_ReadDataBlock@bufferBlock(COMRAM[4]), I2C1_Write2ByteRegister@data(COMRAM[2]), I2C1_Write1ByteRegister@data(COMRAM[1]), I2C1_Read2ByteRegister@returnValue(COMRAM[2]), 
		 -> NULL(NULL[0]), I2C1_Read1ByteRegister@returnValue(COMRAM[1]), 

    rd2RegCompleteHandler@ptr	PTR void  size(2) Largest target is 5
		 -> I2C1_ReadDataBlock@bufferBlock(COMRAM[4]), I2C1_Write2ByteRegister@data(COMRAM[2]), I2C1_Write1ByteRegister@data(COMRAM[1]), I2C1_Read2ByteRegister@returnValue(COMRAM[2]), 
		 -> NULL(NULL[0]), I2C1_Read1ByteRegister@returnValue(COMRAM[1]), 

    rd1RegCompleteHandler@ptr	PTR void  size(2) Largest target is 5
		 -> I2C1_ReadDataBlock@bufferBlock(COMRAM[4]), I2C1_Write2ByteRegister@data(COMRAM[2]), I2C1_Write1ByteRegister@data(COMRAM[1]), I2C1_Read2ByteRegister@returnValue(COMRAM[2]), 
		 -> NULL(NULL[0]), I2C1_Read1ByteRegister@returnValue(COMRAM[1]), 

    S97$data	PTR unsigned char  size(2) Largest target is 0

    bufferBlock.data	PTR unsigned char  size(2) Largest target is 0


Critical Paths under _main in COMRAM

    _printf->_vfprintf
    _vfpfcnvrt->_fputc
    _fputc->_putch
    _putch->_EUSART2_Write
    _SYSTEM_Initialize->_TMR1_Initialize
    _EUSART2_Initialize->_EUSART2_SetErrorHandler
    _EUSART2_Initialize->_EUSART2_SetFramingErrorHandler
    _EUSART2_Initialize->_EUSART2_SetOverrunErrorHandler
    _EUSART2_Initialize->_EUSART2_SetRxInterruptHandler
    _EUSART2_Initialize->_EUSART2_SetTxInterruptHandler

Critical Paths under _INTERRUPT_InterruptManager in COMRAM

    _I2C1_MasterFsm->_I2C1_DO_ADDRESS_NACK
    _I2C1_MasterFsm->_I2C1_DO_RX
    _I2C1_MasterFsm->_I2C1_DO_TX
    _I2C1_MasterFsm->_I2C1_DO_TX_EMPTY
    _I2C1_DO_TX_EMPTY->_I2C1_CallbackReturnReset
    _I2C1_DO_TX_EMPTY->_I2C1_CallbackReturnStop
    _I2C1_DO_TX_EMPTY->_rd1RegCompleteHandler
    _I2C1_DO_TX_EMPTY->_rd2RegCompleteHandler
    _I2C1_DO_TX_EMPTY->_rdBlkRegCompleteHandler
    _I2C1_DO_TX_EMPTY->_wr1RegCompleteHandler
    _I2C1_DO_TX_EMPTY->_wr2RegCompleteHandler
    _I2C1_DO_TX->_I2C1_CallbackReturnReset
    _I2C1_DO_TX->_I2C1_CallbackReturnStop
    _I2C1_DO_TX->_rd1RegCompleteHandler
    _I2C1_DO_TX->_rd2RegCompleteHandler
    _I2C1_DO_TX->_rdBlkRegCompleteHandler
    _I2C1_DO_TX->_wr1RegCompleteHandler
    _I2C1_DO_TX->_wr2RegCompleteHandler
    _I2C1_DO_SEND_ADR_WRITE->_I2C1_MasterSendTxData
    _I2C1_DO_RX->_I2C1_CallbackReturnReset
    _I2C1_DO_RX->_I2C1_CallbackReturnStop
    _I2C1_DO_RX->_rd1RegCompleteHandler
    _I2C1_DO_RX->_rd2RegCompleteHandler
    _I2C1_DO_RX->_rdBlkRegCompleteHandler
    _I2C1_DO_RX->_wr1RegCompleteHandler
    _I2C1_DO_RX->_wr2RegCompleteHandler
    _I2C1_DO_ADDRESS_NACK->_I2C1_CallbackReturnReset
    _I2C1_DO_ADDRESS_NACK->_I2C1_CallbackReturnStop
    _I2C1_DO_ADDRESS_NACK->_rd1RegCompleteHandler
    _I2C1_DO_ADDRESS_NACK->_rd2RegCompleteHandler
    _I2C1_DO_ADDRESS_NACK->_rdBlkRegCompleteHandler
    _I2C1_DO_ADDRESS_NACK->_wr1RegCompleteHandler
    _I2C1_DO_ADDRESS_NACK->_wr2RegCompleteHandler
    _wr2RegCompleteHandler->_I2C1_SetDataCompleteCallback
    _wr1RegCompleteHandler->_I2C1_SetDataCompleteCallback
    _rdBlkRegCompleteHandler->_I2C1_SetDataCompleteCallback
    _rd2RegCompleteHandler->_I2C1_SetDataCompleteCallback
    _rd1RegCompleteHandler->_I2C1_SetDataCompleteCallback
    _I2C1_SetDataCompleteCallback->_I2C1_SetCallback

Critical Paths under _main in BANK0

    _main->_printf
    _printf->_vfprintf
    _vfprintf->_vfpfcnvrt
    _vfpfcnvrt->_fputc

Critical Paths under _INTERRUPT_InterruptManager in BANK0

    None.

Critical Paths under _main in BANK1

    None.

Critical Paths under _INTERRUPT_InterruptManager in BANK1

    None.

Critical Paths under _main in BANK2

    None.

Critical Paths under _INTERRUPT_InterruptManager in BANK2

    None.

Critical Paths under _main in BANK3

    None.

Critical Paths under _INTERRUPT_InterruptManager in BANK3

    None.

Critical Paths under _main in BANK4

    None.

Critical Paths under _INTERRUPT_InterruptManager in BANK4

    None.

Critical Paths under _main in BANK5

    None.

Critical Paths under _INTERRUPT_InterruptManager in BANK5

    None.

Critical Paths under _main in BANK6

    None.

Critical Paths under _INTERRUPT_InterruptManager in BANK6

    None.

Critical Paths under _main in BANK7

    None.

Critical Paths under _INTERRUPT_InterruptManager in BANK7

    None.

Critical Paths under _main in BANK8

    None.

Critical Paths under _INTERRUPT_InterruptManager in BANK8

    None.

Critical Paths under _main in BANK9

    None.

Critical Paths under _INTERRUPT_InterruptManager in BANK9

    None.

Critical Paths under _main in BANK10

    None.

Critical Paths under _INTERRUPT_InterruptManager in BANK10

    None.

Critical Paths under _main in BANK11

    None.

Critical Paths under _INTERRUPT_InterruptManager in BANK11

    None.

Critical Paths under _main in BANK12

    None.

Critical Paths under _INTERRUPT_InterruptManager in BANK12

    None.

Critical Paths under _main in BANK13

    None.

Critical Paths under _INTERRUPT_InterruptManager in BANK13

    None.

Critical Paths under _main in BANK14

    None.

Critical Paths under _INTERRUPT_InterruptManager in BANK14

    None.

Call Graph Tables:

 ---------------------------------------------------------------------------------
 (Depth) Function   	        Calls       Base Space   Used Autos Params    Refs
 ---------------------------------------------------------------------------------
 (0) _main                                                 7     7      0    2635
                                             31 COMRAM     1     1      0
                                             21 BANK0      2     2      0
                  _SYSTEM_Initialize
                             _printf
 ---------------------------------------------------------------------------------
 (1) _printf                                               6     4      2    2105
                                             17 BANK0      4     2      2
                           _vfprintf
 ---------------------------------------------------------------------------------
 (2) _vfprintf                                             8     2      6    1940
                                             29 COMRAM     2     2      0
                                             11 BANK0      6     0      6
                          _vfpfcnvrt
 ---------------------------------------------------------------------------------
 (3) _vfpfcnvrt                                           40    34      6    1479
                                              5 BANK0      6     0      6
                              _fputc
 ---------------------------------------------------------------------------------
 (4) _fputc                                                9     5      4     930
                                             25 COMRAM     4     0      4
                                              0 BANK0      5     5      0
                              _putch
 ---------------------------------------------------------------------------------
 (5) _putch                                                1     1      0      66
                                             24 COMRAM     1     1      0
                      _EUSART2_Write
 ---------------------------------------------------------------------------------
 (6) _EUSART2_Write                                        1     1      0      44
                                             23 COMRAM     1     1      0
 ---------------------------------------------------------------------------------
 (1) _SYSTEM_Initialize                                    0     0      0     490
                     _ADC_Initialize
                 _EUSART2_Initialize
                    _I2C1_Initialize
               _INTERRUPT_Initialize
              _OSCILLATOR_Initialize
             _PIN_MANAGER_Initialize
                    _TMR1_Initialize
                    _TMR2_Initialize
 ---------------------------------------------------------------------------------
 (2) _TMR2_Initialize                                      0     0      0       0
 ---------------------------------------------------------------------------------
 (2) _TMR1_Initialize                                      2     2      0       0
                                             23 COMRAM     2     2      0
 ---------------------------------------------------------------------------------
 (2) _PIN_MANAGER_Initialize                               0     0      0       0
 ---------------------------------------------------------------------------------
 (2) _OSCILLATOR_Initialize                                0     0      0       0
 ---------------------------------------------------------------------------------
 (2) _INTERRUPT_Initialize                                 0     0      0       0
 ---------------------------------------------------------------------------------
 (2) _I2C1_Initialize                                      0     0      0       0
 ---------------------------------------------------------------------------------
 (2) _EUSART2_Initialize                                   0     0      0     490
            _EUSART2_SetErrorHandler
     _EUSART2_SetFramingErrorHandler
     _EUSART2_SetOverrunErrorHandler
      _EUSART2_SetRxInterruptHandler
      _EUSART2_SetTxInterruptHandler
 ---------------------------------------------------------------------------------
 (3) _EUSART2_SetTxInterruptHandler                        2     0      2      98
                                             23 COMRAM     2     0      2
 ---------------------------------------------------------------------------------
 (3) _EUSART2_SetRxInterruptHandler                        2     0      2      98
                                             23 COMRAM     2     0      2
 ---------------------------------------------------------------------------------
 (3) _EUSART2_SetOverrunErrorHandler                       2     0      2      98
                                             23 COMRAM     2     0      2
 ---------------------------------------------------------------------------------
 (3) _EUSART2_SetFramingErrorHandler                       2     0      2      98
                                             23 COMRAM     2     0      2
 ---------------------------------------------------------------------------------
 (3) _EUSART2_SetErrorHandler                              2     0      2      98
                                             23 COMRAM     2     0      2
 ---------------------------------------------------------------------------------
 (2) _ADC_Initialize                                       0     0      0       0
 ---------------------------------------------------------------------------------
 Estimated maximum stack depth 6
 ---------------------------------------------------------------------------------
 (Depth) Function   	        Calls       Base Space   Used Autos Params    Refs
 ---------------------------------------------------------------------------------
 (7) _INTERRUPT_InterruptManager                          10    10      0   88574
                                             13 COMRAM    10    10      0
                   Absolute function *
                _EUSART2_Receive_ISR *
               _EUSART2_Transmit_ISR *
                     _I2C1_MasterIsr *
 ---------------------------------------------------------------------------------
 (8) _I2C1_MasterIsr                                       0     0      0   88574
                     _I2C1_MasterFsm
 ---------------------------------------------------------------------------------
 (9) _I2C1_MasterFsm                                       0     0      0   88574
               _I2C1_DO_ADDRESS_NACK *
                       _I2C1_DO_IDLE *
                       _I2C1_DO_RCEN *
                      _I2C1_DO_RESET *
                         _I2C1_DO_RX *
                     _I2C1_DO_RX_ACK *
            _I2C1_DO_RX_NACK_RESTART *
               _I2C1_DO_RX_NACK_STOP *
              _I2C1_DO_SEND_ADR_READ *
             _I2C1_DO_SEND_ADR_WRITE *
               _I2C1_DO_SEND_RESTART *
          _I2C1_DO_SEND_RESTART_READ *
         _I2C1_DO_SEND_RESTART_WRITE *
                  _I2C1_DO_SEND_STOP *
                         _I2C1_DO_TX *
                   _I2C1_DO_TX_EMPTY *
                _I2C1_MasterClearIrq
                  _I2C1_MasterIsNack
 ---------------------------------------------------------------------------------
 (10) _I2C1_MasterClearIrq                                 0     0      0       0
 ---------------------------------------------------------------------------------
 (10) _I2C1_DO_TX_EMPTY                                    2     2      0   22127
                                             11 COMRAM     2     2      0
                   Absolute function *
           _I2C1_CallbackReturnReset *
            _I2C1_CallbackReturnStop *
               _I2C1_DO_SEND_RESTART
                  _I2C1_DO_SEND_STOP
                  _I2C1_MasterSetIrq
              _rd1RegCompleteHandler *
              _rd2RegCompleteHandler *
            _rdBlkRegCompleteHandler *
              _wr1RegCompleteHandler *
              _wr2RegCompleteHandler *
 ---------------------------------------------------------------------------------
 (11) _I2C1_MasterSetIrq                                   0     0      0       0
 ---------------------------------------------------------------------------------
 (10) _I2C1_DO_TX                                          2     2      0   22149
                                             11 COMRAM     2     2      0
                   Absolute function *
           _I2C1_CallbackReturnReset *
            _I2C1_CallbackReturnStop *
          _I2C1_DO_SEND_RESTART_READ
         _I2C1_DO_SEND_RESTART_WRITE
                  _I2C1_DO_SEND_STOP
                  _I2C1_MasterIsNack
              _I2C1_MasterSendTxData
              _rd1RegCompleteHandler *
              _rd2RegCompleteHandler *
            _rdBlkRegCompleteHandler *
              _wr1RegCompleteHandler *
              _wr2RegCompleteHandler *
 ---------------------------------------------------------------------------------
 (10) _I2C1_MasterIsNack                                   0     0      0       0
 ---------------------------------------------------------------------------------
 (11) _I2C1_DO_SEND_RESTART_WRITE                          0     0      0       0
           _I2C1_MasterEnableRestart
 ---------------------------------------------------------------------------------
 (11) _I2C1_DO_SEND_RESTART_READ                           0     0      0       0
           _I2C1_MasterEnableRestart
 ---------------------------------------------------------------------------------
 (10) _I2C1_DO_SEND_ADR_WRITE                              0     0      0      22
              _I2C1_MasterSendTxData
 ---------------------------------------------------------------------------------
 (10) _I2C1_DO_SEND_ADR_READ                               0     0      0      22
              _I2C1_MasterSendTxData
 ---------------------------------------------------------------------------------
 (11) _I2C1_MasterSendTxData                               1     1      0      22
                                              0 COMRAM     1     1      0
 ---------------------------------------------------------------------------------
 (10) _I2C1_DO_RX_ACK                                      0     0      0       0
                 _I2C1_MasterSendAck
 ---------------------------------------------------------------------------------
 (10) _I2C1_DO_RX                                          2     2      0   22127
                                             11 COMRAM     2     2      0
                   Absolute function *
           _I2C1_CallbackReturnReset *
            _I2C1_CallbackReturnStop *
            _I2C1_DO_RX_NACK_RESTART
               _I2C1_DO_RX_NACK_STOP
               _I2C1_MasterGetRxData
                 _I2C1_MasterSendAck
              _rd1RegCompleteHandler *
              _rd2RegCompleteHandler *
            _rdBlkRegCompleteHandler *
              _wr1RegCompleteHandler *
              _wr2RegCompleteHandler *
 ---------------------------------------------------------------------------------
 (11) _I2C1_MasterSendAck                                  0     0      0       0
 ---------------------------------------------------------------------------------
 (11) _I2C1_MasterGetRxData                                0     0      0       0
 ---------------------------------------------------------------------------------
 (10) _I2C1_DO_RX_NACK_STOP                                0     0      0       0
                _I2C1_MasterSendNack
 ---------------------------------------------------------------------------------
 (10) _I2C1_DO_RX_NACK_RESTART                             0     0      0       0
                _I2C1_MasterSendNack
 ---------------------------------------------------------------------------------
 (11) _I2C1_MasterSendNack                                 0     0      0       0
 ---------------------------------------------------------------------------------
 (10) _I2C1_DO_RESET                                       0     0      0       0
 ---------------------------------------------------------------------------------
 (10) _I2C1_DO_RCEN                                        0     0      0       0
                 _I2C1_MasterStartRx
 ---------------------------------------------------------------------------------
 (11) _I2C1_MasterStartRx                                  0     0      0       0
 ---------------------------------------------------------------------------------
 (10) _I2C1_DO_IDLE                                        0     0      0       0
 ---------------------------------------------------------------------------------
 (10) _I2C1_DO_ADDRESS_NACK                                2     2      0   22127
                                             11 COMRAM     2     2      0
                   Absolute function *
           _I2C1_CallbackReturnReset *
            _I2C1_CallbackReturnStop *
               _I2C1_DO_SEND_RESTART
                  _I2C1_DO_SEND_STOP
              _rd1RegCompleteHandler *
              _rd2RegCompleteHandler *
            _rdBlkRegCompleteHandler *
              _wr1RegCompleteHandler *
              _wr2RegCompleteHandler *
 ---------------------------------------------------------------------------------
 (11) _wr2RegCompleteHandler                               2     0      2    4368
                                              9 COMRAM     2     0      2
                     _I2C1_SetBuffer
       _I2C1_SetDataCompleteCallback
 ---------------------------------------------------------------------------------
 (11) _wr1RegCompleteHandler                               2     0      2    4368
                                              9 COMRAM     2     0      2
                     _I2C1_SetBuffer
       _I2C1_SetDataCompleteCallback
 ---------------------------------------------------------------------------------
 (11) _rdBlkRegCompleteHandler                             2     0      2    4390
                                              9 COMRAM     2     0      2
                     _I2C1_SetBuffer
       _I2C1_SetDataCompleteCallback
 ---------------------------------------------------------------------------------
 (11) _rd2RegCompleteHandler                               2     0      2    4368
                                              9 COMRAM     2     0      2
                     _I2C1_SetBuffer
       _I2C1_SetDataCompleteCallback
 ---------------------------------------------------------------------------------
 (11) _rd1RegCompleteHandler                               2     0      2    4368
                                              9 COMRAM     2     0      2
                     _I2C1_SetBuffer
       _I2C1_SetDataCompleteCallback
 ---------------------------------------------------------------------------------
 (12) _I2C1_SetDataCompleteCallback                        4     0      4    2478
                                              5 COMRAM     4     0      4
                   _I2C1_SetCallback
 ---------------------------------------------------------------------------------
 (13) _I2C1_SetCallback                                    5     1      4     914
                                              0 COMRAM     5     1      4
 ---------------------------------------------------------------------------------
 (12) _I2C1_SetBuffer                                      4     0      4    1868
                                              0 COMRAM     4     0      4
 ---------------------------------------------------------------------------------
 (11) _I2C1_DO_SEND_STOP                                   0     0      0       0
                    _I2C1_MasterStop
 ---------------------------------------------------------------------------------
 (12) _I2C1_MasterStop                                     0     0      0       0
 ---------------------------------------------------------------------------------
 (11) _I2C1_DO_SEND_RESTART                                0     0      0       0
           _I2C1_MasterEnableRestart
 ---------------------------------------------------------------------------------
 (12) _I2C1_MasterEnableRestart                            0     0      0       0
 ---------------------------------------------------------------------------------
 (11) _I2C1_CallbackReturnStop                             2     0      2       0
                                              9 COMRAM     2     0      2
 ---------------------------------------------------------------------------------
 (11) _I2C1_CallbackReturnReset                            2     0      2     265
                                              9 COMRAM     2     0      2
 ---------------------------------------------------------------------------------
 (8) _EUSART2_Transmit_ISR                                 0     0      0       0
 ---------------------------------------------------------------------------------
 (8) _EUSART2_Receive_ISR                                  0     0      0       0
                   Absolute function *
        _EUSART2_DefaultErrorHandler *
 _EUSART2_DefaultFramingErrorHandler *
 _EUSART2_DefaultOverrunErrorHandler *
              _EUSART2_RxDataHandler
 ---------------------------------------------------------------------------------
 (9) _EUSART2_DefaultOverrunErrorHandler                   0     0      0       0
 ---------------------------------------------------------------------------------
 (9) _EUSART2_DefaultFramingErrorHandler                   0     0      0       0
 ---------------------------------------------------------------------------------
 (9) _EUSART2_DefaultErrorHandler                          0     0      0       0
              _EUSART2_RxDataHandler
 ---------------------------------------------------------------------------------
 (9) _EUSART2_RxDataHandler                                0     0      0       0
 ---------------------------------------------------------------------------------
 (11) Absolute function(Fake)                              2     0      2       0
 ---------------------------------------------------------------------------------
 Estimated maximum stack depth 13
 ---------------------------------------------------------------------------------

 Call Graph Graphs:

 _main (ROOT)
   _SYSTEM_Initialize
     _ADC_Initialize
     _EUSART2_Initialize
       _EUSART2_SetErrorHandler
       _EUSART2_SetFramingErrorHandler
       _EUSART2_SetOverrunErrorHandler
       _EUSART2_SetRxInterruptHandler
       _EUSART2_SetTxInterruptHandler
     _I2C1_Initialize
     _INTERRUPT_Initialize
     _OSCILLATOR_Initialize
     _PIN_MANAGER_Initialize
     _TMR1_Initialize
     _TMR2_Initialize
   _printf
     _vfprintf
       _vfpfcnvrt
         _fputc
           _putch
             _EUSART2_Write

 _INTERRUPT_InterruptManager (ROOT)
   Absolute function(Fake) *
   _EUSART2_Receive_ISR *
     Absolute function(Fake) *
     _EUSART2_DefaultErrorHandler *
       _EUSART2_RxDataHandler
     _EUSART2_DefaultFramingErrorHandler *
     _EUSART2_DefaultOverrunErrorHandler *
     _EUSART2_RxDataHandler *
   _EUSART2_Transmit_ISR *
   _I2C1_MasterIsr *
     _I2C1_MasterFsm
       _I2C1_DO_ADDRESS_NACK *
         Absolute function(Fake) *
         _I2C1_CallbackReturnReset *
         _I2C1_CallbackReturnStop *
         _I2C1_DO_SEND_RESTART *
           _I2C1_MasterEnableRestart
         _I2C1_DO_SEND_STOP *
           _I2C1_MasterStop
         _rd1RegCompleteHandler *
           _I2C1_SetBuffer
           _I2C1_SetDataCompleteCallback
             _I2C1_SetCallback
         _rd2RegCompleteHandler *
           _I2C1_SetBuffer
           _I2C1_SetDataCompleteCallback
         _rdBlkRegCompleteHandler *
           _I2C1_SetBuffer
           _I2C1_SetDataCompleteCallback
         _wr1RegCompleteHandler *
           _I2C1_SetBuffer
           _I2C1_SetDataCompleteCallback
         _wr2RegCompleteHandler *
           _I2C1_SetBuffer
           _I2C1_SetDataCompleteCallback
       _I2C1_DO_IDLE *
       _I2C1_DO_RCEN *
         _I2C1_MasterStartRx
       _I2C1_DO_RESET *
       _I2C1_DO_RX *
         Absolute function(Fake) *
         _I2C1_CallbackReturnReset *
         _I2C1_CallbackReturnStop *
         _I2C1_DO_RX_NACK_RESTART *
           _I2C1_MasterSendNack
         _I2C1_DO_RX_NACK_STOP *
           _I2C1_MasterSendNack
         _I2C1_MasterGetRxData *
         _I2C1_MasterSendAck *
         _rd1RegCompleteHandler *
         _rd2RegCompleteHandler *
         _rdBlkRegCompleteHandler *
         _wr1RegCompleteHandler *
         _wr2RegCompleteHandler *
       _I2C1_DO_RX_ACK *
         _I2C1_MasterSendAck
       _I2C1_DO_RX_NACK_RESTART *
       _I2C1_DO_RX_NACK_STOP *
       _I2C1_DO_SEND_ADR_READ *
         _I2C1_MasterSendTxData
       _I2C1_DO_SEND_ADR_WRITE *
         _I2C1_MasterSendTxData
       _I2C1_DO_SEND_RESTART *
       _I2C1_DO_SEND_RESTART_READ *
         _I2C1_MasterEnableRestart
       _I2C1_DO_SEND_RESTART_WRITE *
         _I2C1_MasterEnableRestart
       _I2C1_DO_SEND_STOP *
       _I2C1_DO_TX *
         Absolute function(Fake) *
         _I2C1_CallbackReturnReset *
         _I2C1_CallbackReturnStop *
         _I2C1_DO_SEND_RESTART_READ *
         _I2C1_DO_SEND_RESTART_WRITE *
         _I2C1_DO_SEND_STOP *
         _I2C1_MasterIsNack *
         _I2C1_MasterSendTxData *
         _rd1RegCompleteHandler *
         _rd2RegCompleteHandler *
         _rdBlkRegCompleteHandler *
         _wr1RegCompleteHandler *
         _wr2RegCompleteHandler *
       _I2C1_DO_TX_EMPTY *
         Absolute function(Fake) *
         _I2C1_CallbackReturnReset *
         _I2C1_CallbackReturnStop *
         _I2C1_DO_SEND_RESTART *
         _I2C1_DO_SEND_STOP *
         _I2C1_MasterSetIrq *
         _rd1RegCompleteHandler *
         _rd2RegCompleteHandler *
         _rdBlkRegCompleteHandler *
         _wr1RegCompleteHandler *
         _wr2RegCompleteHandler *
       _I2C1_MasterClearIrq *
       _I2C1_MasterIsNack *

 Address spaces:
Name               Size   Autos  Total    Cost      Usage
BIGRAM             EAF      0       0      52        0.0%
BITBANK13          100      0       0      29        0.0%
BANK13             100      0       0      30        0.0%
BITBANK12          100      0       0      27        0.0%
BANK12             100      0       0      28        0.0%
BITBANK11          100      0       0      25        0.0%
BANK11             100      0       0      26        0.0%
BITBANK10          100      0       0      23        0.0%
BANK10             100      0       0      24        0.0%
BITBANK9           100      0       0      21        0.0%
BANK9              100      0       0      22        0.0%
BITBANK8           100      0       0      19        0.0%
BANK8              100      0       0      20        0.0%
BITBANK7           100      0       0      17        0.0%
BANK7              100      0       0      18        0.0%
BITBANK6           100      0       0      15        0.0%
BANK6              100      0       0      16        0.0%
BITBANK5           100      0       0      13        0.0%
BANK5              100      0       0      14        0.0%
BITBANK4           100      0       0      11        0.0%
BANK4              100      0       0      12        0.0%
BITBANK3           100      0       0       9        0.0%
BANK3              100      0       0      10        0.0%
BITBANK2           100      0       0       7        0.0%
BANK2              100      0       0       8        0.0%
BITBANK1           100      0       0       5        0.0%
BANK1              100      0       0       6        0.0%
BITBANK14           B0      0       0      31        0.0%
BANK14              B0      0       0      32        0.0%
BITBANK0            A0      0       0       3        0.0%
BANK0               A0     17      6B       4       66.9%
BITCOMRAM           5E      0       0       0        0.0%
COMRAM              5E     20      47       1       75.5%
BITBIGSFRlllh       45      0       0      47        0.0%
BITBIGSFRllhh       32      0       0      44        0.0%
BITBIGSFRllllh      30      0       0      48        0.0%
BITBIGSFRhhhhl      1D      0       0      34        0.0%
BITBIGSFRhhhlll     15      0       0      36        0.0%
BITBIGSFRlllllh      D      0       0      49        0.0%
BITBIGSFRhhhhh       A      0       0      33        0.0%
BITBIGSFRlhll        9      0       0      43        0.0%
BITBIGSFRllllll      8      0       0      50        0.0%
BITBIGSFRlhlhhl      6      0       0      41        0.0%
BITBIGSFRllhlh       5      0       0      45        0.0%
BITBIGSFRlhlhhh      5      0       0      40        0.0%
BITBIGSFRhl          3      0       0      37        0.0%
BITBIGSFRhhhlhh      2      0       0      35        0.0%
BITBIGSFRllhll       2      0       0      46        0.0%
BITBIGSFRlhhh        1      0       0      38        0.0%
BITBIGSFRlhlhl       1      0       0      42        0.0%
BITBIGSFRlhhl        1      0       0      39        0.0%
BIGSFR               0      0       0     200        0.0%
BITSFR_2             0      0       0     200        0.0%
SFR_2                0      0       0     200        0.0%
BITSFR_1             0      0       0     200        0.0%
SFR_1                0      0       0     200        0.0%
BITSFR               0      0       0     200        0.0%
SFR                  0      0       0     200        0.0%
STACK                0      0       0       2        0.0%
NULL                 0      0       0       0        0.0%
ABS                  0      0      B2      51        0.0%
DATA                 0      0      B2      53        0.0%
CODE                 0      0       0       0        0.0%


Microchip Technology PIC18 Macro Assembler V2.35 build 20211206165544 
Symbol Table                                                                                   Thu Mar 24 09:58:31 2022

                        ?_EUSART2_RxDataHandler 0023                                             l203 15F2  
                                           l204 1608                                             l213 1958  
                                           l207 1634                                             l242 1980  
                                           l251 1962                                             l245 1976  
                                           l254 196C                                             l248 198A  
                                           l179 144C                                             l283 1888  
                                           l286 18D2                                             l395 18E6  
                                           l718 19EC                                             l752 17CA  
                                           l658 16F0                                             l674 190A  
                                           l799 18A6                                             _PR2 000FCB  
        __end_of_EUSART2_SetFramingErrorHandler 1982                  _EUSART2_SetFramingErrorHandler 1978  
                               _timer1ReloadVal 0043                                 _TMR2_Initialize 18FC  
                                           prod 000FF3                                             tosl 000FFD  
                                           wreg 000FE8                          ?_I2C1_MasterSendTxData 0023  
                                    _TXSTA2bits 000FA8                            _I2C1_DO_RX_NACK_STOP 1994  
                     ?_I2C1_MasterEnableRestart 0023                        fp__I2C1_DO_SEND_ADR_READ 0000  
                       fp__I2C1_DO_SEND_RESTART 0000                            I2C1_SetBuffer@buffer 0023  
                                          l2000 16D8                                            l2002 18C0  
                                          l2010 17A2                                            l2004 188A  
                                          l2012 17AE                         ??_rd2RegCompleteHandler 002E  
                                          l2014 17B0                                            l2006 18FC  
                                          l2016 17C6                                            l2008 1904  
                                          l3050 1870                                            l3060 1884  
                                          l3052 1874                                            l1533 181C  
                                          l3054 1878                                            l3046 1868  
                                          l3056 187C                                            l3048 186C  
                                          l3058 1880                                            l1571 1576  
                                          l3500 0FB6                                            l1572 157E  
                                          l1566 1016                                            l3510 0FE0  
                                          l1584 12E0                                            l3512 1004  
                                          l3504 0FC4                                            l3520 1526  
                                          l3506 0FD2                                            l3522 1532  
                                          l2740 195A                                            l3460 161A  
                                          l3452 15E2                                            l3524 155A  
                                          l3540 158A                                            l3532 1580  
                                          l2742 1978                                            l3462 161C  
                                          l3454 15E2                                            l3470 1952  
                                          l3518 151E                                            l3526 17F6  
                                          l3550 1592                                            l3542 158C  
                                          l3534 1584                                            l2744 196E  
                                          l3464 162C                                            l3456 1600  
                                          l3480 1296                                            l3472 124A  
                                          l3528 1800                                            l3552 1594  
                                          l3544 158E                                            l3536 1586  
                                          l2746 1982                                            l2738 1964  
                                          l3466 1630                                            l3458 160A  
                                          l3482 12CE                                            l3474 125C  
                                          l3490 0F5C                                            l3554 15AE  
                                          l3546 158E                                            l3538 1588  
                                          l3468 1632                                            l3476 126E  
                                          l3492 0F6C                                            l3556 15B0  
                                          l3548 1592                                            l2950 13E8  
                                          l3478 1278                                            l3494 0F70  
                                          l3486 0F2A                                            l3558 15CA  
                                          l2960 1406                                            l2952 13F6  
                                          l1992 19EA                                            l3496 0F94  
                                          l3488 0F4E                                            l2962 140A  
                                          l2954 13FA                                            l2946 13DA  
                                          l1994 18D4                                            l3498 0FA2  
                                          l2964 1416                                            l2956 13FE  
                                          l2948 13DC                                            l1996 18E4  
                                          l2966 1422                                            l2958 1402  
                                          l1998 16B6                                            l2968 144A  
                                          STR_1 0F21                                            u1400 125C  
                                          u1401 1258                                            u1410 126E  
                                          u1411 126A                                            u1420 1296  
                                          u1421 1292                                            _LATA 000F89  
                                          u1430 12CE                                            _LATB 000F8A  
                                          u1431 12CA                                            _LATC 000F8B  
                                          u1440 0F4E                                            u1441 0F4A  
                                          u1370 15F2                                            u1450 0F94  
                                          u1371 15EE                                            u1451 0F90  
                                          u1380 1600                                            u1460 1576  
                                          u1381 15FC                                            u1461 1572  
                                          u1390 162C                                            u1391 1628  
                                          u1477 15A0                                            u1487 15BC  
                                          i2l92 1774                                            i2l95 1748  
                                          i2l98 171C                                            _TMR2 000FCC  
                         ??_EUSART2_Receive_ISR 0023                         ??_wr2RegCompleteHandler 002E  
                              ??_I2C1_MasterFsm 0030                                ??_I2C1_MasterIsr 0030  
                                 _EUSART2_Write 15E0                       ??_I2C1_CallbackReturnStop 002E  
                                          _dbuf 0084                                            _main 1580  
                                          _prec 0015                                            _nout 0011  
                                          fsr1h 000FE2                                            fsr2h 000FDA  
                                          indf2 000FDF                                            fsr1l 000FE1  
                                          fsr2l 000FD9                                            btemp 0048  
                                          prodh 000FF4                                            prodl 000FF3  
                                          start 013C                                ??_I2C1_SetBuffer 0027  
                  __end_of_EUSART2_Transmit_ISR 16B6                                    ___param_bank 000000  
                 I2C1_CallbackReturnStop@funPtr 002C                   __end_of_OSCILLATOR_Initialize 18D4  
                                         ?_main 0023                                           _T1CON 000FCD  
                                         _T2CON 000FCA                                           i2l101 17A0  
                                         i2l104 1674                                           i2l230 17F4  
                                         i2l216 16B2                                           i2l233 1A0E  
                                         i2l226 11A0                                           i2l219 16B4  
                                         i2l236 19E2                                           i2l422 1866  
                                         i2l239 19E8                                           i2l425 18BE  
                                         i2l522 19B2                                           i2l531 199A  
                                         i2l516 19C2                                           i2l452 151C  
                                         i2l445 13D8                                           i2l461 191A  
                                         i2l525 19AA                                           i2l534 1992  
                                         i2l551 1A04                                           i2l455 194E  
                                         i2l519 19BA                                           i2l543 14B8  
                                         i2l615 19F0                                           i2l464 10A6  
                                         i2l480 11D8                                           i2l528 19A2  
                                         i2l448 19D0                                           i2l481 1248  
                                         i2l537 1936                                           i2l554 1A00  
                                         i2l570 19F8                                           i2l618 19F4  
                                         i2l458 192A                                           i2l467 10DE  
                                         i2l492 1942                                           i2l724 007A  
                                         i2l573 19CA                                           i2l733 0110  
                                         i2l582 19FC                                           i2l726 00B6  
                                         i2l591 18FA                                           i2l727 0110  
                                         i2l576 1A0C                                           i2l728 00F0  
                                         i2l594 19D6                                           i2l498 135E  
                                         i2l588 1A08                                           i2l597 19DC  
                    __end_of_i2c1_fsmStateTable 0F21                                    vfpfcnvrt@fmt 00B3  
                                         _TMR1H 000FCF                                           _TMR1L 000FCE  
                                         _RPOR6 000EC6                                           _TRISA 000F92  
                                         _TRISB 000F93                                           _TRISC 000F94  
                        ??_I2C1_MasterGetRxData 0023                           ?_I2C1_DO_RX_NACK_STOP 0023  
                    ??_I2C1_CallbackReturnReset 002E                               ??_I2C1_MasterStop 0023  
                             ??_I2C1_Initialize 003A                                           _flags 0017  
                                         _fputc 124A                                           _width 0013  
                                         _putch 1950                         __end_of_TMR1_Initialize 17CC  
                                ?_EUSART2_Write 0023                                           pclath 000FFA  
                                         pclatu 000FFB                                           tablat 000FF5  
                                         ttemp5 0049                                           ttemp6 004C  
                                         ttemp7 0050                                           status 000FD8  
                                         wtemp8 0049                                    ??_I2C1_DO_RX 002E  
                                  ??_I2C1_DO_TX 002E                          ??_I2C1_DO_ADDRESS_NACK 002E  
         __end_of_EUSART2_SetTxInterruptHandler 1964                   _EUSART2_SetTxInterruptHandler 195A  
                      fp__rd1RegCompleteHandler 0000                                 __initialization 181E  
                                  __end_of_main 15E0                        fp__wr1RegCompleteHandler 0000  
                       __end_of_TMR2_Initialize 190C                     ?_INTERRUPT_InterruptManager 0023  
                  fp__I2C1_DO_SEND_RESTART_READ 0000                                          ??_main 00C1  
                                 __activetblptr 000002             __end_of_EUSART2_DefaultErrorHandler 19EA  
                   _EUSART2_DefaultErrorHandler 19E4                              __end_of_I2C1_DO_RX 124A  
                            __end_of_I2C1_DO_TX 10E0                      __end_of_EUSART2_Initialize 144E  
                                        _ADCON0 000FC2                                          _ADCON1 000FC1  
                      _eusart2TxBufferRemaining 0047                                          ?_fputc 003C  
                                        _ADRESH 000FC4                                          _ADRESL 000FC3  
                                        _ANCON0 000F48                                          _ANCON1 000F49  
                                        ?_putch 0023                                          _T1GCON 000F9A  
                                        _ODCON1 000F42                                          _ODCON2 000F41  
                                        _ODCON3 000F40                                          i2l3020 1698  
                                        i2l3030 10FE                                          i2l3022 16A8  
                                        i2l3014 1676                                          i2l3040 1160  
                                        i2l3032 110C                                          i2l3024 16AC  
                                        i2l3016 1686                                          i2l3042 117C  
                                        i2l3034 1128                                          i2l3026 10E0  
                                        i2l3018 1696                                          i2l3044 119C  
                                        i2l3036 1136                                          i2l3028 10F0  
                                        i2l3038 1144                                          i2l2610 1844  
                                        i2l2602 1362                                          i2l3082 19CC  
                                        i2l3330 005C                                          i2l2620 1A06  
                                        i2l2612 1854                                          i2l2604 1374  
                                        i2l2700 1994                                          i2l3340 00FE  
                                        i2l3332 0088                                          i2l3324 0032  
                                        i2l2614 185C                                          i2l2606 13A8  
                                        i2l2622 19D8                                          i2l2710 19B0  
                                        i2l2702 1998                                          i2l3334 0096  
                                        i2l3326 0040                                          i2l2616 1864  
                                        i2l2608 18A8                                          i2l2624 174A  
                                        i2l2632 171E                                          i2l2640 16F2  
                                        i2l2720 19FE                                          i2l3336 00C4  
                                        i2l3328 004E                                          i2l2618 1A0A  
                                        i2l2650 178A                                          i2l2626 175E  
                                        i2l2634 1732                                          i2l2642 1706  
                                        i2l2706 19FA                                          i2l2714 19F2  
                                        i2l2810 10DC                                          i2l2802 1048  
                                        i2l3338 00D2                                          i2l2652 179E  
                                        i2l2628 1772                                          i2l2636 1746  
                                        i2l2644 171A                                          i2l2660 1672  
                                        i2l2716 1A02                                          i2l2804 10AA  
                                        i2l2820 11B0                                          i2l2708 19AC  
                                        i2l2750 17DC                                          i2l2806 10BC  
                                        i2l2822 11B6                                          i2l2670 19BC  
                                        i2l2902 1462                                          i2l2752 17DE  
                                        i2l2648 1776                                          i2l2656 1636  
                                        i2l2664 18E8                                          i2l2760 1944  
                                        i2l2808 10D6                                          i2l2832 11DE  
                                        i2l2824 11CE                                          i2l2672 19C0  
                                        i2l3640 14A2                                          i2l2754 17EE  
                                        i2l2658 165E                                          i2l2762 1948  
                                        i2l2770 1920                                          i2l3642 1222  
                                        i2l2842 11EE                                          i2l2826 11D2  
                                        i2l2818 11A2                                          i2l2850 193C  
                                        i2l2682 19A4                                          i2l2756 17F2  
                                        i2l2748 17CC                                          i2l2692 19D2  
                                        i2l2668 19C6                                          i2l2764 194C  
                                        i2l2772 1928                                          i2l2780 1918  
                                        i2l3644 1080                                          i2l2836 11E6  
                                        i2l2852 1940                                          i2l2676 19B4  
                                        i2l2684 19A8                                          i2l2908 146A  
                                        i2l3646 1338                                          i2l2862 12F2  
                                        i2l2678 19B8                                          i2l2694 198C  
                                        i2l2758 19EE                                          i2l2688 19F6  
                                        i2l2864 12F6                                          i2l2856 12E2  
                                        i2l2768 191C                                          i2l2776 190C  
                                        i2l2792 1038                                          i2l2784 1018  
                                        i2l2848 1938                                          i2l2880 199C  
                                        i2l2696 1990                                          i2l2970 19DE  
                                        i2l2858 12EA                                          i2l2874 1304  
                                        i2l2778 1910                                          i2l2882 19A0  
                                        i2l2890 1934                                          i2l2972 19E4  
                                        i2l2868 12FC                                          i2l2796 1040  
                                        i2l2788 1030                                          i2l2980 14E2  
                                        i2l2886 192C                                          i2l2894 144E  
                                        i2l2982 14E8                                          i2l2974 14BA  
                                        i2l2888 1930                                          i2l2896 1452  
                                        i2l2976 14BE                                          i2l2898 145A  
                                        i2l2978 14CE                                          _RCREG2 000FAA  
                                        _RCSTA2 000F9C                                          _OSCCON 000FD3  
                                        _SPBRG2 000FAB                                          _TXREG2 000FA9  
                                        _TXSTA2 000FA8                                _I2C1_DO_TX_EMPTY 12E2  
                                  vfprintf@cfmt 0040                                          clear_0 1824  
                                        clear_1 1830                                          isa$std 000001  
                   _EUSART2_FramingErrorHandler 00C7                                          _printf 17F6  
                      ??_I2C1_DO_SEND_ADR_WRITE 0024                               ?_I2C1_SetCallback 0023  
                        ??_I2C1_DO_RX_NACK_STOP 0023                           _I2C1_DO_SEND_ADR_READ 191C  
                                        fputc@c 003C                   ?_I2C1_SetDataCompleteCallback 0028  
                            ??_I2C1_SetCallback 0027                                    __mediumconst 0000  
                                        tblptrh 000FF7                                          tblptrl 000FF6  
                                        tblptru 000FF8                            _EUSART2_Transmit_ISR 1676  
                              __end_of_vfprintf 1580                                 ??_EUSART2_Write 003A  
                       _I2C1_DO_RX_NACK_RESTART 198C                      fp__I2C1_DO_RX_NACK_RESTART 0000  
                               _eusart2RxBuffer 00A4                                ?_TMR1_Initialize 0023  
                             _SYSTEM_Initialize 1868                  I2C1_SetDataCompleteCallback@cb 0028  
                               _eusart2TxBuffer 0009                                      __accesstop 0060  
                       __end_of__initialization 1836                              ?_SYSTEM_Initialize 0023  
                                 ___rparam_used 000001                         ??_EUSART2_RxDataHandler 0023  
                       _rdBlkRegCompleteHandler 1636                      fp__rdBlkRegCompleteHandler 0000  
                                __pcstackCOMRAM 0023                             ??_SYSTEM_Initialize 003C  
              __end_of_I2C1_MasterEnableRestart 1A0E                                   __end_of_fputc 12E2  
                ?_EUSART2_SetTxInterruptHandler 003A                                   __end_of_putch 195A  
                              ?_TMR2_Initialize 0023                    ??_I2C1_DO_SEND_RESTART_WRITE 0023  
                       ??_I2C1_MasterSendTxData 0023                        ?_EUSART2_SetErrorHandler 003A  
                         ?_EUSART2_Transmit_ISR 0023                           __end_of_I2C1_DO_RESET 1938  
                                       ??_fputc 00AC                       __end_of_SYSTEM_Initialize 188A  
                                       ??_putch 003B                                   _eusart2RxHead 0020  
                                 _eusart2TxHead 0022                                      __pbssBANK0 0060  
                                 _eusart2RxTail 001F                                   _eusart2TxTail 0021  
                 __end_of_rd2RegCompleteHandler 174A                ??_EUSART2_SetFramingErrorHandler 003C  
               ?_EUSART2_SetFramingErrorHandler 003A                                      __pnvCOMRAM 0043  
                 __end_of_wr2RegCompleteHandler 17A2                           _rd1RegCompleteHandler 174A  
                             _I2C1_DO_SEND_STOP 19A4                           _wr1RegCompleteHandler 16F2  
                      rd1RegCompleteHandler@ptr 002C                                   fp__I2C1_DO_RX 0000  
                                 fp__I2C1_DO_TX 0000                                 fp__I2C1_DO_IDLE 0000  
                               fp__I2C1_DO_RCEN 0000                         fp__I2C1_DO_ADDRESS_NACK 0000  
                            ?_I2C1_DO_SEND_STOP 0023                                 _I2C1_MasterStop 1A06  
                               _I2C1_Initialize 18D4                                         _ADCTRIG 000EB8  
                             fp__I2C1_DO_RX_ACK 0000                                         ?_printf 00BD  
                        ?_I2C1_DO_SEND_ADR_READ 0023                             ??_I2C1_DO_SEND_STOP 0023  
                         _eusart2RxStatusBuffer 0001                                         _REFOCON 000F3D  
                             _I2C1_MasterIsNack 18E8                                         _OSCCON2 000F87  
                   __end_of_EUSART2_Receive_ISR 11A2                       ??_I2C1_DO_RX_NACK_RESTART 0023  
                                       _OSCTUNE 000F9B                                         i2u80_40 17EE  
                                       i2u80_41 17EA                                         i2u73_40 1374  
                                       i2u81_40 102C                                         i2u73_41 1370  
                                       i2u81_41 1028                                         i2u74_40 1854  
                                       i2u90_40 14CE                                         i2u74_41 1850  
                                       i2u90_41 14CA                                         i2u75_40 18F8  
                                       i2u83_40 10D6                                         i2u82_48 105A  
                                       i2u91_40 14E2                                         i2u75_41 18F2  
                                       i2u83_41 10D2                                         i2u82_49 106E  
                                       i2u91_41 14DE                                         _SPBRGH2 000F7D  
                             _I2C1_MasterSetIrq 19F2                                         i2u75_46 18FA  
                                       i2u84_40 11CE                                         i2u84_41 11CA  
                                       i2u92_48 1500                                         i2u92_49 1518  
                                       _RPINR16 000EF7                                         i2u85_48 11FC  
                                       i2u85_49 1210                                         i2u86_48 1312  
                                       i2u86_49 1326                                         i2u96_40 1686  
                                       i2u87_48 147C                                         i2u96_41 1682  
                                       i2u87_49 1490                                         _SSP1ADD 000FC8  
                                       i2u97_40 16A8                                         i2u97_41 16A4  
                                       i2u98_40 10FE                                         i2u98_41 10FA  
                                       i2u99_48 1112                                         i2u99_49 1128  
                                       _SSP1BUF 000FC9                              ?_I2C1_MasterIsNack 0023  
                    ?_I2C1_DO_SEND_RESTART_READ 0023                  ??_I2C1_SetDataCompleteCallback 002C  
                            ?_I2C1_MasterSetIrq 0023                              _i2c1_fsmStateTable 0F01  
                           ??_I2C1_MasterIsNack 0023                       __end_of_I2C1_DO_SEND_STOP 19AC  
                     ??_rdBlkRegCompleteHandler 002E                              I2C1_SetCallback@cb 0023  
                           ??_I2C1_MasterSetIrq 0023                            _ADC_InterruptHandler 0019  
                                       __Hparam 0000                                         __Lparam 0000  
                fp__EUSART2_DefaultErrorHandler 0000                             fp__I2C1_DO_TX_EMPTY 0000  
                                     ?_vfprintf 00B7                                    __psmallconst 0F00  
                                       __pcinit 181E                 __end_of_EUSART2_SetErrorHandler 198C  
                                 ?_I2C1_DO_IDLE 0023                                   ?_I2C1_DO_RCEN 0023  
                                       __ramtop 0F00                                         __ptext0 1580  
                                       __ptext1 17F6                                         __ptext2 151E  
                                       __ptext3 0F2A                                         __ptext4 124A  
                                       __ptext5 1950                                         __ptext6 15E0  
                                       __ptext7 1868                                         __ptext8 18FC  
                                       __ptext9 17A2                        _I2C1_MasterEnableRestart 1A0A  
                     __end_of_I2C1_MasterIsNack 18FC                                       _T1CONbits 000FCD  
         fp__EUSART2_DefaultOverrunErrorHandler 0000      __end_of_EUSART2_DefaultOverrunErrorHandler 19E4  
          ??_EUSART2_DefaultOverrunErrorHandler 0023             ?_EUSART2_DefaultOverrunErrorHandler 0023  
            _EUSART2_DefaultOverrunErrorHandler 19DE                           _OSCILLATOR_Initialize 18C0  
                        ??_EUSART2_Transmit_ISR 0023                                       _T2CONbits 000FCA  
                     __end_of_I2C1_MasterSetIrq 19F6                        __end_of_I2C1_DO_TX_EMPTY 1360  
                      ??_PIN_MANAGER_Initialize 003A                        wr1RegCompleteHandler@ptr 002C  
                       fp__I2C1_DO_RX_NACK_STOP 0000                        ?_I2C1_CallbackReturnStop 002C  
             __end_of_I2C1_DO_SEND_RESTART_READ 19C4                            end_of_initialization 1836  
                    __end_of_I2C1_MasterSendAck 19D8                             _I2C1_MasterClearIrq 19EE  
                                       fputc@fp 003E                                   __Lmediumconst 0000  
                    __end_of_I2C1_MasterStartRx 19FE                          ?_rd1RegCompleteHandler 002C  
                        _I2C1_DO_SEND_ADR_WRITE 190C                    __end_of_I2C1_DO_SEND_RESTART 19B4  
                        ?_wr1RegCompleteHandler 002C                         __end_of_I2C1_MasterStop 1A0A  
                       __end_of_I2C1_Initialize 18E8                       ?_I2C1_CallbackReturnReset 002C  
                            _EUSART2_Initialize 13DA                                     _I2C1_Status 0060  
                      fp__rd2RegCompleteHandler 0000                               __end_of_vfpfcnvrt 1018  
                                       postdec2 000FDD                        fp__wr2RegCompleteHandler 0000  
                                       postinc0 000FEE                                         postinc1 000FE6  
                                       postinc2 000FDE                               fp__I2C1_MasterIsr 0000  
                           _I2C1_MasterSendNack 19D8                                      ??_vfprintf 0040  
                          ?_I2C1_MasterClearIrq 0023                                  ??_I2C1_DO_IDLE 0023  
                                ??_I2C1_DO_RCEN 0023              __end_of_I2C1_DO_SEND_RESTART_WRITE 19BC  
                    _I2C1_DO_SEND_RESTART_WRITE 19B4                             ?_EUSART2_Initialize 0023  
               __end_of_rdBlkRegCompleteHandler 1676                 I2C1_SetDataCompleteCallback@ptr 002A  
                I2C1_CallbackReturnReset@funPtr 002C                            ?_I2C1_MasterSendNack 0023  
                          ??_EUSART2_Initialize 003C                      rdBlkRegCompleteHandler@ptr 002C  
                                    main@buffer 0042                   __end_of_EUSART2_RxDataHandler 17F6  
                  __end_of_INTERRUPT_Initialize 19EE                           ??_I2C1_MasterClearIrq 0023  
                                   vfpfcnvrt@ap 00B5                                     vfpfcnvrt@fp 00B1  
                                _I2C1_DO_RX_ACK 199C                                  _ADC_Initialize 188A  
                        ?_OSCILLATOR_Initialize 0023                 __end_of_I2C1_CallbackReturnStop 1A06  
                                __end_of_printf 181E                   __end_of_I2C1_MasterSendTxData 19CC  
                           start_initialization 181E                           ??_I2C1_MasterSendNack 0023  
 EUSART2_SetRxInterruptHandler@interruptHandler 003A   EUSART2_SetTxInterruptHandler@interruptHandler 003A  
                                   putch@txData 003B                           __end_of_EUSART2_Write 1636  
                      I2C1_SetBuffer@bufferSize 0025          __end_of_EUSART2_SetOverrunErrorHandler 1978  
                _EUSART2_SetOverrunErrorHandler 196E                                ?_I2C1_MasterStop 0023  
                              ?_I2C1_Initialize 0023                                     vfprintf@fmt 00B9  
                        __end_of_I2C1_DO_RX_ACK 19A4                         ??_I2C1_DO_SEND_ADR_READ 0023  
                        __end_of_ADC_Initialize 18A8                                        ??_printf 0042  
                                _eusart2RxCount 001E                                     __pbssCOMRAM 0001  
                          _I2C1_DO_SEND_RESTART 19AC                                   __pcstackBANK0 00AC  
                       fp__EUSART2_Transmit_ISR 0000                     ??_I2C1_DO_SEND_RESTART_READ 0023  
                           EUSART2_Write@txData 003A                            __end_of_I2C1_DO_IDLE 1950  
               ??_EUSART2_SetRxInterruptHandler 003C                            __end_of_I2C1_DO_RCEN 1944  
                        fp__EUSART2_Receive_ISR 0000                                       __pnvBANK0 00C3  
                         _rd2RegCompleteHandler 171E                       fp__I2C1_DO_SEND_ADR_WRITE 0000  
                        _PIN_MANAGER_Initialize 16B6                           _wr2RegCompleteHandler 1776  
                        _MSSP1_InterruptHandler 001B                      ??_I2C1_MasterEnableRestart 0023  
                      rd2RegCompleteHandler@ptr 002C                                       __pintcode 0008  
                                _I2C1_MasterFsm 14BA                                  _I2C1_MasterIsr 19CC  
                              fp__I2C1_DO_RESET 0000                                 ?_I2C1_DO_RX_ACK 0023  
                               ?_ADC_Initialize 0023               _EUSART2_TxDefaultInterruptHandler 0045  
                                _I2C1_SetBuffer 1844                    ??_INTERRUPT_InterruptManager 0030  
                                   __smallconst 0F00                                        _BAUDCON2 000F7C  
                         ?_I2C1_DO_SEND_RESTART 0023                    ?_EUSART2_DefaultErrorHandler 0023  
                             ?_I2C1_DO_TX_EMPTY 0023                __end_of_I2C1_CallbackReturnReset 1A02  
                            ??_I2C1_DO_TX_EMPTY 002E                         ??_rd1RegCompleteHandler 002E  
                       ?_I2C1_DO_SEND_ADR_WRITE 0023                       I2C1_MasterSendTxData@data 0023  
                          _INTERRUPT_Initialize 19EA                         ??_wr1RegCompleteHandler 002E  
                              _I2C1_SetCallback 1360                                        _LATAbits 000F89  
       EUSART2_SetErrorHandler@interruptHandler 003A                                        _LATCbits 000F8B  
                                    _I2C1_DO_RX 11A2                                      _I2C1_DO_TX 1018  
                                      _PIE1bits 000F9D                                        _PIE2bits 000FA0  
                                      _PIE3bits 000FA3                          __end_of_I2C1_MasterFsm 151E  
                                      i2u100_40 1136                                        i2u100_41 1132  
                        __end_of_I2C1_MasterIsr 19D2                                        i2u102_40 117C  
                                      i2u101_48 114A                                        i2u102_41 1178  
                                      i2u101_49 1160                                        i2u103_48 1182  
                                      i2u103_49 1198                                        i2u130_40 0096  
                                      i2u130_41 0092                                        i2u132_40 00C4  
                                      i2u131_48 009C                                        i2u132_41 00C0  
                                      i2u131_49 00B2                                        i2u133_40 00D2  
                                      i2u125_40 0040                                        i2u133_41 00CE  
                                      i2u125_41 003C                                        i2u126_40 004E  
                                      i2u126_41 004A                                        i2u135_40 00FE  
                                      i2u134_48 00D8                                        i2u127_40 005C  
                                      i2u135_41 00FA                                        i2u134_49 00EC  
                                      i2u127_41 0058                                        i2u136_40 010C  
                                      i2u136_41 0108                    __end_of_I2C1_MasterGetRxData 19FA  
                                      i2u129_40 0088                                        i2u128_48 0062  
                                      i2u129_41 0084                                        i2u128_49 0076  
                                      _PIR1bits 000F9E                                        _PIR2bits 000FA1  
                                      _PIR3bits 000FA4                                        _RCONbits 000FD0  
                            _I2C1_MasterSendAck 19D2                       _I2C1_DO_SEND_RESTART_READ 19BC  
                                      _SSP1CON1 000FC6                                        _SSP1CON2 000FC5  
                        __end_of_I2C1_SetBuffer 1868                                        _SSP1STAT 000FC7  
          __end_of_I2C1_SetDataCompleteCallback 18C0                    _I2C1_SetDataCompleteCallback 18A8  
                            _I2C1_MasterStartRx 19FA                                       _vfpfcnvrt 0F2A  
                   ?_I2C1_DO_SEND_RESTART_WRITE 0023                               ??_TMR1_Initialize 003A  
                           ?_I2C1_MasterSendAck 0023                                      _ADCON0bits 000FC2  
                      ?_I2C1_DO_RX_NACK_RESTART 0023                            fp__I2C1_DO_SEND_STOP 0000  
                           ?_I2C1_MasterStartRx 0023                    __end_of_I2C1_DO_ADDRESS_NACK 14BA  
                      wr2RegCompleteHandler@ptr 002C                  __end_of_I2C1_DO_SEND_ADR_WRITE 191C  
                 ??_EUSART2_DefaultErrorHandler 0023                                   _I2C1_DO_RESET 192C  
                                   _INTCON2bits 000FF1                           ?_INTERRUPT_Initialize 0023  
                      ?_rdBlkRegCompleteHandler 002C                             I2C1_SetCallback@idx 0027  
                           I2C1_SetCallback@ptr 0025                         _EUSART2_SetErrorHandler 1982  
                          ??_I2C1_MasterSendAck 0023                               ??_TMR2_Initialize 003A  
                        ?_rd2RegCompleteHandler 002C                     _EUSART2_OverrunErrorHandler 00C5  
                        ?_wr2RegCompleteHandler 002C                            ??_I2C1_MasterStartRx 0023  
                                      __Hrparam 0000                                 ?_I2C1_MasterFsm 0023  
                               ?_I2C1_MasterIsr 0023           __end_of_EUSART2_SetRxInterruptHandler 196E  
                 _EUSART2_SetRxInterruptHandler 1964                                      vfprintf@ap 00BB  
                                      __Lrparam 0000                                      vfprintf@fp 00B7  
                       ??_OSCILLATOR_Initialize 003A                                 ?_I2C1_SetBuffer 0023  
                                    ?_vfpfcnvrt 00B1                          ??_I2C1_DO_SEND_RESTART 0023  
                          _EUSART2_ErrorHandler 00C3                                  ?_I2C1_DO_RESET 0023  
                                      __ptext10 16B6                                        __ptext11 18C0  
                                      __ptext20 188A                                        __ptext12 19EA  
                                      __ptext13 18D4                                      _T1GCONbits 000F9A  
                                      __ptext30 19A4                                        __ptext22 19CC  
                                      __ptext14 13DA                                        __ptext31 19AC  
                                      __ptext23 14BA                                        __ptext15 195A  
                                      __ptext40 12E2                                        __ptext32 19B4  
                                      __ptext24 19EE                                        __ptext16 1964  
                                      __ptext41 19F2                                        __ptext33 19BC  
                                      __ptext25 144E                                        __ptext17 196E  
                                      __ptext50 1636                                        __ptext42 18E8  
                                      __ptext34 1938                                        __ptext26 192C  
                                      __ptext18 1978                                        __ptext51 16F2  
                                      __ptext43 19C4                                        __ptext35 11A2  
                                      __ptext27 198C                                        __ptext19 1982  
                                      __ptext60 1676                                        __ptext52 171E  
                                      __ptext44 19D2                                        __ptext36 1018  
                                      __ptext28 1994                                        __ptext61 10E0  
                                      __ptext53 174A                                        __ptext45 19F6  
                                      __ptext37 190C                                        __ptext29 199C  
                                      __ptext62 19DE                                        __ptext54 1776  
                                      __ptext46 19D8                                        __ptext38 191C  
                                      __ptext63 1A0E                                        __ptext55 18A8  
                                      __ptext47 19FA                                        __ptext39 1944  
                                      __ptext64 19E4                                        __ptext56 1360  
                                      __ptext48 19FE                                        __ptext65 17CC  
                                      __ptext57 1844                                        __ptext49 1A02  
                                      __ptext66 0000                                        __ptext58 1A06  
                                      __ptext59 1A0A                                    _SSP1CON1bits 000FC6  
                                  _SSP1CON2bits 000FC5                        _I2C1_CallbackReturnReset 19FE  
                   fp__I2C1_CallbackReturnReset 0000                                     ?_I2C1_DO_RX 0023  
                                   ?_I2C1_DO_TX 0023           fp__EUSART2_DefaultFramingErrorHandler 0000  
    __end_of_EUSART2_DefaultFramingErrorHandler 1A10            ??_EUSART2_DefaultFramingErrorHandler 0023  
           ?_EUSART2_DefaultFramingErrorHandler 0023              _EUSART2_DefaultFramingErrorHandler 1A0E  
                   __end_of_I2C1_MasterClearIrq 19F2                    __end_of_I2C1_DO_RX_NACK_STOP 199C  
EUSART2_SetOverrunErrorHandler@interruptHandler 003A                                        isa$xinst 000000  
                                      int$flags 0048                 __end_of_I2C1_DO_RX_NACK_RESTART 1994  
                                      _vfprintf 151E              __end_of_INTERRUPT_InterruptManager 013C  
                    _INTERRUPT_InterruptManager 0008                           _EUSART2_RxDataHandler 17CC  
                                     printf@fmt 00BD                                    _SSP1STATbits 000FC7  
                 __end_of_I2C1_DO_SEND_ADR_READ 192C                                    _I2C1_DO_IDLE 1944  
                                  _I2C1_DO_RCEN 1938                     __end_of_I2C1_MasterSendNack 19DE  
              ??_EUSART2_SetOverrunErrorHandler 003C                 ?_EUSART2_SetOverrunErrorHandler 003A  
                                    _INTCONbits 000FF2                   fp__I2C1_DO_SEND_RESTART_WRITE 0000  
                          _I2C1_MasterGetRxData 19F6                           _I2C1_MasterSendTxData 19C4  
                        ??_INTERRUPT_Initialize 003A                       ??_EUSART2_SetErrorHandler 003C  
                                      intlevel2 0000                         ?_PIN_MANAGER_Initialize 0023  
                              ??_I2C1_DO_RX_ACK 0023                                      _RCSTA2bits 000F9C  
                       _I2C1_CallbackReturnStop 1A02                      fp__I2C1_CallbackReturnStop 0000  
                              ??_ADC_Initialize 003A                            _I2C1_DO_ADDRESS_NACK 144E  
                                      printf@ap 00BF  EUSART2_SetFramingErrorHandler@interruptHandler 003A  
                ?_EUSART2_SetRxInterruptHandler 003A                                     ??_vfpfcnvrt 0040  
                           _EUSART2_Receive_ISR 10E0                        __end_of_I2C1_SetCallback 13DA  
                               ??_I2C1_DO_RESET 0023                           ?_I2C1_MasterGetRxData 0023  
                __end_of_PIN_MANAGER_Initialize 16F2                 ??_EUSART2_SetTxInterruptHandler 003C  
                 __end_of_rd1RegCompleteHandler 1776                            ?_EUSART2_Receive_ISR 0023  
                            _eusart2RxLastError 001D                   __end_of_wr1RegCompleteHandler 171E  
                               _TMR1_Initialize 17A2               _EUSART2_RxDefaultInterruptHandler 00C9  
                         ?_I2C1_DO_ADDRESS_NACK 0023  
