

Microchip MPLAB XC8 Assembler V2.35 build 20211206165544 
                                                                                               Mon Mar 07 15:48:41 2022

Microchip MPLAB XC8 C Compiler v2.35 (Free license) build 20211206165544 Og1 
     1                           	processor	18F26J53
     2                           	fnconf	rparam,??,?,0
     3                           	pagewidth 120
     4                           	opt	flic
     5                           	psect	smallconst,global,reloc=2,class=SMALLCONST,delta=1,noexec
     6                           	psect	nvCOMRAM,global,class=COMRAM,space=1,delta=1,lowdata,noexec
     7                           	psect	cinit,global,reloc=2,class=CODE,delta=1
     8                           	psect	bssCOMRAM,global,class=COMRAM,space=1,delta=1,lowdata,noexec
     9                           	psect	cstackCOMRAM,global,class=COMRAM,space=1,delta=1,lowdata,noexec
    10                           	psect	text0,global,reloc=2,class=CODE,delta=1
    11                           	psect	text1,global,reloc=2,class=CODE,delta=1
    12                           	psect	text2,global,reloc=2,class=CODE,delta=1
    13                           	psect	text3,global,reloc=2,class=CODE,delta=1
    14                           	psect	text4,global,reloc=2,class=CODE,delta=1
    15                           	psect	text5,global,reloc=2,class=CODE,delta=1
    16                           	psect	text6,global,reloc=2,class=CODE,delta=1
    17                           	psect	text7,global,reloc=2,class=CODE,delta=1
    18                           	psect	text8,global,reloc=2,class=CODE,delta=1
    19                           	psect	text9,global,reloc=2,class=CODE,delta=1
    20                           	psect	text10,global,reloc=2,class=CODE,delta=1
    21                           	psect	text11,global,reloc=2,class=CODE,delta=1
    22                           	psect	text12,global,reloc=2,class=CODE,delta=1
    23                           	psect	text13,global,reloc=2,class=CODE,delta=1
    24                           	psect	text14,global,reloc=2,class=CODE,delta=1
    25                           	psect	text15,global,reloc=2,class=CODE,delta=1
    26                           	psect	text16,global,reloc=2,class=CODE,delta=1
    27                           	psect	text17,global,reloc=2,class=CODE,delta=1
    28                           	psect	text18,global,reloc=2,class=CODE,delta=1
    29                           	psect	text19,global,reloc=2,class=CODE,delta=1,inline
    30                           	psect	text20,global,reloc=2,class=CODE,delta=1
    31                           	psect	text21,global,reloc=2,class=CODE,delta=1
    32                           	psect	text22,global,reloc=2,class=CODE,delta=1
    33                           	psect	text23,global,reloc=2,class=CODE,delta=1,inline
    34                           	psect	text24,global,reloc=2,class=CODE,delta=1,inline
    35                           	psect	text25,global,reloc=2,class=CODE,delta=1
    36                           	psect	text26,global,reloc=2,class=CODE,delta=1
    37                           	psect	text27,global,reloc=2,class=CODE,delta=1
    38                           	psect	text28,global,reloc=2,class=CODE,delta=1
    39                           	psect	text29,global,reloc=2,class=CODE,delta=1
    40                           	psect	text30,global,reloc=2,class=CODE,delta=1
    41                           	psect	text31,global,reloc=2,class=CODE,delta=1
    42                           	psect	text32,global,reloc=2,class=CODE,delta=1
    43                           	psect	text33,global,reloc=2,class=CODE,delta=1
    44                           	psect	text34,global,reloc=2,class=CODE,delta=1
    45                           	psect	text35,global,reloc=2,class=CODE,delta=1
    46                           	psect	text36,global,reloc=2,class=CODE,delta=1
    47                           	psect	text37,global,reloc=2,class=CODE,delta=1
    48                           	psect	text38,global,reloc=2,class=CODE,delta=1
    49                           	psect	text39,global,reloc=2,class=CODE,delta=1
    50                           	psect	text40,global,reloc=2,class=CODE,delta=1
    51                           	psect	text41,global,reloc=2,class=CODE,delta=1,inline
    52                           	psect	text42,global,reloc=2,class=CODE,delta=1,inline
    53                           	psect	text43,global,reloc=2,class=CODE,delta=1,inline
    54                           	psect	text44,global,reloc=2,class=CODE,delta=1,inline
    55                           	psect	text45,global,reloc=2,class=CODE,delta=1,inline
    56                           	psect	text46,global,reloc=2,class=CODE,delta=1,inline
    57                           	psect	text47,global,reloc=2,class=CODE,delta=1,inline
    58                           	psect	text48,global,reloc=2,class=CODE,delta=1
    59                           	psect	text49,global,reloc=2,class=CODE,delta=1
    60                           	psect	text50,global,reloc=2,class=CODE,delta=1
    61                           	psect	text51,global,reloc=2,class=CODE,delta=1
    62                           	psect	text52,global,reloc=2,class=CODE,delta=1
    63                           	psect	text53,global,reloc=2,class=CODE,delta=1
    64                           	psect	text54,global,reloc=2,class=CODE,delta=1
    65                           	psect	text55,global,reloc=2,class=CODE,delta=1
    66                           	psect	text56,global,reloc=2,class=CODE,delta=1
    67                           	psect	text57,global,reloc=2,class=CODE,delta=1
    68                           	psect	text58,global,reloc=2,class=CODE,delta=1,inline
    69                           	psect	text59,global,reloc=2,class=CODE,delta=1,inline
    70                           	psect	text60,global,reloc=2,class=CODE,delta=1,inline
    71                           	psect	text61,global,reloc=2,class=CODE,delta=1
    72                           	psect	text62,global,reloc=2,class=CODE,delta=1,inline
    73                           	psect	text63,global,reloc=2,class=CODE,delta=1,inline
    74                           	psect	text64,global,reloc=2,class=CODE,delta=1,inline
    75                           	psect	intcode,global,reloc=2,class=CODE,delta=1
    76                           	psect	text66,global,reloc=2,class=CODE,delta=1
    77                           	psect	text67,global,reloc=2,class=CODE,delta=1
    78                           	psect	text68,global,reloc=2,class=CODE,delta=1
    79                           	psect	text69,global,reloc=2,class=CODE,delta=1
    80                           	psect	text70,global,reloc=2,class=CODE,delta=1
    81                           	psect	text71,global,reloc=2,class=CODE,delta=1
    82                           	psect	text72,global,reloc=2,class=CODE,delta=1
    83                           	psect	text73,global,reloc=2,class=CODE,delta=1
    84                           	psect	text74,global,reloc=2,class=CODE,delta=1
    85                           	psect	intsave_regs,global,class=BIGRAM,space=1,delta=1,noexec
    86                           	psect	text75,global,reloc=2,class=CODE,delta=1
    87                           	psect	rparam,global,class=COMRAM,space=1,delta=1,noexec
    88                           	psect	temp,global,ovrld,common,class=COMRAM,space=1,delta=1
    89                           	psect	config,global,abs,ovrld,class=CONFIG,space=4,delta=1,noexec
    90  0000                     
    91                           ; Version 2.40
    92                           ; Generated 17/11/2021 GMT
    93                           ; 
    94                           ; Copyright © 2021, Microchip Technology Inc. and its subsidiaries ("Microchip")
    95                           ; All rights reserved.
    96                           ; 
    97                           ; This software is developed by Microchip Technology Inc. and its subsidiaries ("Microch
      +                          ip").
    98                           ; 
    99                           ; Redistribution and use in source and binary forms, with or without modification, are
   100                           ; permitted provided that the following conditions are met:
   101                           ; 
   102                           ;     1. Redistributions of source code must retain the above copyright notice, this lis
      +                          t of
   103                           ;        conditions and the following disclaimer.
   104                           ; 
   105                           ;     2. Redistributions in binary form must reproduce the above copyright notice, this 
      +                          list
   106                           ;        of conditions and the following disclaimer in the documentation and/or other
   107                           ;        materials provided with the distribution. Publication is not required when
   108                           ;        this file is used in an embedded application.
   109                           ; 
   110                           ;     3. Microchip's name may not be used to endorse or promote products derived from th
      +                          is
   111                           ;        software without specific prior written permission.
   112                           ; 
   113                           ; THIS SOFTWARE IS PROVIDED BY MICROCHIP "AS IS" AND ANY EXPRESS OR IMPLIED WARRANTIES,
   114                           ; INCLUDING, BUT NOT LIMITED TO, THE IMPLIED WARRANTIES OF MERCHANTABILITY AND FITNESS F
      +                          OR
   115                           ; PURPOSE ARE DISCLAIMED.  IN NO EVENT SHALL MICROCHIP BE LIABLE FOR ANY DIRECT, INDIREC
      +                          T,
   116                           ; INCIDENTAL, SPECIAL, EXEMPLARY, OR CONSEQUENTIAL DAMAGES (INCLUDING BUT NOT LIMITED TO
   117                           ; PROCUREMENT OF SUBSTITUTE GOODS OR SERVICES; LOSS OF USE, DATA OR PROFITS; OR BUSINESS
   118                           ; INTERRUPTION) HOWSOEVER CAUSED AND ON ANY THEORY OF LIABILITY, WHETHER IN CONTRACT, ST
      +                          RICT
   119                           ; LIABILITY, OR TORT (INCLUDING NEGLIGENCE OR OTHERWISE) ARISING IN ANY WAY OUT OF THE U
      +                          SE OF
   120                           ; THIS SOFTWARE, EVEN IF ADVISED OF THE POSSIBILITY OF SUCH DAMAGE.
   121                           ; 
   122                           ; 
   123                           ; Code-generator required, PIC18F26J53 Definitions
   124                           ; 
   125                           ; SFR Addresses
   126  0000                     
   127 ;; Function _EUSART1_DefaultFramingErrorHandler is unused but had its address taken
   128  0000                     
   129 ;; Function _EUSART1_DefaultOverrunErrorHandler is unused but had its address taken
   130  0000                     
   131 ;; Function _EUSART1_DefaultErrorHandler is unused but had its address taken
   132  0000                     
   133                           	psect	smallconst
   134  000F00                     __psmallconst:
   135                           	callstack 0
   136  000F00  00                 	db	0
   137  000F01                     _i2c1_fsmStateTable:
   138                           	callstack 0
   139  000F01  DC                 	db	low _I2C1_DO_IDLE
   140  000F02  17                 	db	high _I2C1_DO_IDLE
   141  000F03  7E                 	db	low _I2C1_DO_SEND_ADR_READ
   142  000F04  17                 	db	high _I2C1_DO_SEND_ADR_READ
   143  000F05  70                 	db	low _I2C1_DO_SEND_ADR_WRITE
   144  000F06  17                 	db	high _I2C1_DO_SEND_ADR_WRITE
   145  000F07  22                 	db	low _I2C1_DO_TX
   146  000F08  0F                 	db	high _I2C1_DO_TX
   147  000F09  E6                 	db	low _I2C1_DO_RX
   148  000F0A  0F                 	db	high _I2C1_DO_RX
   149  000F0B  D2                 	db	low _I2C1_DO_RCEN
   150  000F0C  17                 	db	high _I2C1_DO_RCEN
   151  000F0D  18                 	db	low _I2C1_DO_TX_EMPTY
   152  000F0E  11                 	db	high _I2C1_DO_TX_EMPTY
   153  000F0F  1E                 	db	low _I2C1_DO_SEND_RESTART_READ
   154  000F10  18                 	db	high _I2C1_DO_SEND_RESTART_READ
   155  000F11  16                 	db	low _I2C1_DO_SEND_RESTART_WRITE
   156  000F12  18                 	db	high _I2C1_DO_SEND_RESTART_WRITE
   157  000F13  0E                 	db	low _I2C1_DO_SEND_RESTART
   158  000F14  18                 	db	high _I2C1_DO_SEND_RESTART
   159  000F15  06                 	db	low _I2C1_DO_SEND_STOP
   160  000F16  18                 	db	high _I2C1_DO_SEND_STOP
   161  000F17  FE                 	db	low _I2C1_DO_RX_ACK
   162  000F18  17                 	db	high _I2C1_DO_RX_ACK
   163  000F19  F6                 	db	low _I2C1_DO_RX_NACK_STOP
   164  000F1A  17                 	db	high _I2C1_DO_RX_NACK_STOP
   165  000F1B  EE                 	db	low _I2C1_DO_RX_NACK_RESTART
   166  000F1C  17                 	db	high _I2C1_DO_RX_NACK_RESTART
   167  000F1D  C8                 	db	low _I2C1_DO_RESET
   168  000F1E  17                 	db	high _I2C1_DO_RESET
   169  000F1F  7C                 	db	low _I2C1_DO_ADDRESS_NACK
   170  000F20  12                 	db	high _I2C1_DO_ADDRESS_NACK
   171  000F21                     __end_of_i2c1_fsmStateTable:
   172                           	callstack 0
   173  0000                     _SSP1CON2	set	4037
   174  0000                     _SSP1CON1	set	4038
   175  0000                     _SSP1STAT	set	4039
   176  0000                     _INTCON2bits	set	4081
   177  0000                     _RCONbits	set	4048
   178  0000                     _TXREG1	set	4014
   179  0000                     _RCREG1	set	4015
   180  0000                     _SPBRG1	set	4016
   181  0000                     _TXSTA1	set	4013
   182  0000                     _ADCON0	set	4034
   183  0000                     _ADRESH	set	4036
   184  0000                     _ADRESL	set	4035
   185  000F21  00                 	db	0	; dummy byte at the end
   186  0000                     
   187                           	psect	nvCOMRAM
   188  000038                     __pnvCOMRAM:
   189                           	callstack 0
   190  000038                     _INT2_InterruptHandler:
   191                           	callstack 0
   192  000038                     	ds	2
   193  00003A                     _INT1_InterruptHandler:
   194                           	callstack 0
   195  00003A                     	ds	2
   196  00003C                     _INT0_InterruptHandler:
   197                           	callstack 0
   198  00003C                     	ds	2
   199  00003E                     _EUSART1_ErrorHandler:
   200                           	callstack 0
   201  00003E                     	ds	2
   202  000040                     _EUSART1_OverrunErrorHandler:
   203                           	callstack 0
   204  000040                     	ds	2
   205  000042                     _EUSART1_FramingErrorHandler:
   206                           	callstack 0
   207  000042                     	ds	2
   208  000044                     _timer0ReloadVal:
   209                           	callstack 0
   210  000044                     	ds	1
   211  0000                     _SSP1STATbits	set	4039
   212  0000                     _SSP1CON2bits	set	4037
   213  0000                     _SSP1CON1bits	set	4038
   214  0000                     _LATCbits	set	3979
   215  0000                     _T0CONbits	set	4053
   216  0000                     _RCSTA1bits	set	4012
   217  0000                     _TXSTA1bits	set	4013
   218  0000                     _ADCON0bits	set	4034
   219  0000                     _ADCTRIG	set	3768
   220  0000                     _ADCON1	set	4033
   221  0000                     _RPINR1	set	3809
   222  0000                     _RPINR2	set	3810
   223  0000                     _ODCON3	set	3904
   224  0000                     _ODCON2	set	3905
   225  0000                     _ODCON1	set	3906
   226  0000                     _ANCON0	set	3912
   227  0000                     _ANCON1	set	3913
   228  0000                     _BAUDCON1	set	3966
   229  0000                     _PORTCbits	set	3970
   230  0000                     _OSCCON2	set	3975
   231  0000                     _LATA	set	3977
   232  0000                     _PIR1bits	set	3998
   233  0000                     _SPBRGH1	set	3967
   234  0000                     _RCSTA1	set	4012
   235  0000                     _PIR2bits	set	4001
   236  0000                     _OSCCON	set	4051
   237  0000                     _INTCON3bits	set	4080
   238  0000                     _INTCONbits	set	4082
   239  0000                     _TRISA	set	3986
   240  0000                     _LATC	set	3979
   241  0000                     _LATB	set	3978
   242  0000                     _OSCTUNE	set	3995
   243  0000                     _TRISC	set	3988
   244  0000                     _TRISB	set	3987
   245  0000                     _REFOCON	set	3901
   246  0000                     _T0CON	set	4053
   247  0000                     _TMR0L	set	4054
   248  0000                     _TMR0H	set	4055
   249  0000                     _PIE1bits	set	3997
   250  0000                     _SSP1BUF	set	4041
   251  0000                     _SSP1ADD	set	4040
   252                           
   253                           ; #config settings
   254                           
   255                           	psect	cinit
   256  0016C8                     __pcinit:
   257                           	callstack 0
   258  0016C8                     start_initialization:
   259                           	callstack 0
   260  0016C8                     __initialization:
   261                           	callstack 0
   262                           
   263                           ; Clear objects allocated to COMRAM (41 bytes)
   264  0016C8  EE00  F001         	lfsr	0,__pbssCOMRAM
   265  0016CC  0E29               	movlw	41
   266  0016CE                     clear_0:
   267  0016CE  6AEE               	clrf	postinc0,c
   268  0016D0  06E8               	decf	wreg,f,c
   269  0016D2  E1FD               	bnz	clear_0
   270  0016D4                     end_of_initialization:
   271                           	callstack 0
   272  0016D4                     __end_of__initialization:
   273                           	callstack 0
   274  0016D4  9045               	bcf	int$flags,0,c	;clear compiler interrupt flag (level 1)
   275  0016D6  9245               	bcf	int$flags,1,c	;clear compiler interrupt flag (level 2)
   276  0016D8  0E00               	movlw	low (__Lmediumconst shr (0+16))
   277  0016DA  6EF8               	movwf	tblptru,c
   278  0016DC  0100               	movlb	0
   279  0016DE  EFA1  F009         	goto	_main	;jump to C main() function
   280                           
   281                           	psect	bssCOMRAM
   282  000001                     __pbssCOMRAM:
   283                           	callstack 0
   284  000001                     _I2C1_Status:
   285                           	callstack 0
   286  000001                     	ds	36
   287  000025                     _currentTime:
   288                           	callstack 0
   289  000025                     	ds	2
   290  000027                     _ADC_InterruptHandler:
   291                           	callstack 0
   292  000027                     	ds	2
   293  000029                     _eusart1RxLastError:
   294                           	callstack 0
   295  000029                     	ds	1
   296                           
   297                           	psect	cstackCOMRAM
   298  00002A                     __pcstackCOMRAM:
   299                           	callstack 0
   300  00002A                     ??_INTERRUPT_InterruptManager:
   301  00002A                     
   302                           ; 1 bytes @ 0x0
   303  00002A                     	ds	2
   304  00002C                     ??_I2C1_DO_RX:
   305  00002C                     ??_I2C1_DO_TX_EMPTY:
   306  00002C                     ??_I2C1_DO_ADDRESS_NACK:
   307  00002C                     I2C1_Open@address:
   308                           	callstack 0
   309  00002C                     I2C1_Close@returnValue:
   310                           	callstack 0
   311  00002C                     I2C1_MasterSendTxData@data:
   312                           	callstack 0
   313  00002C                     EUSART1_SetFramingErrorHandler@interruptHandler:
   314                           	callstack 0
   315  00002C                     EUSART1_SetOverrunErrorHandler@interruptHandler:
   316                           	callstack 0
   317  00002C                     EUSART1_SetErrorHandler@interruptHandler:
   318                           	callstack 0
   319  00002C                     INT0_SetInterruptHandler@InterruptHandler:
   320                           	callstack 0
   321  00002C                     INT1_SetInterruptHandler@InterruptHandler:
   322                           	callstack 0
   323  00002C                     INT2_SetInterruptHandler@InterruptHandler:
   324                           	callstack 0
   325  00002C                     I2C1_SetBuffer@buffer:
   326                           	callstack 0
   327  00002C                     I2C1_SetCallback@cb:
   328                           	callstack 0
   329                           
   330                           ; 2 bytes @ 0x2
   331  00002C                     	ds	1
   332  00002D                     ??_I2C1_DO_TX:
   333  00002D                     I2C1_Open@returnValue:
   334                           	callstack 0
   335                           
   336                           ; 1 bytes @ 0x3
   337  00002D                     	ds	1
   338  00002E                     I2C1_SetBuffer@bufferSize:
   339                           	callstack 0
   340  00002E                     I2C1_SetCallback@ptr:
   341                           	callstack 0
   342                           
   343                           ; 2 bytes @ 0x4
   344  00002E                     	ds	1
   345  00002F                     I2C1_MasterOperation@read:
   346                           	callstack 0
   347                           
   348                           ; 1 bytes @ 0x5
   349  00002F                     	ds	1
   350  000030                     I2C1_MasterOperation@returnValue:
   351                           	callstack 0
   352  000030                     I2C1_SetCallback@idx:
   353                           	callstack 0
   354                           
   355                           ; 1 bytes @ 0x6
   356  000030                     	ds	1
   357  000031                     I2C1_SetDataCompleteCallback@cb:
   358                           	callstack 0
   359  000031                     I2C1_SetAddressNackCallback@cb:
   360                           	callstack 0
   361                           
   362                           ; 2 bytes @ 0x7
   363  000031                     	ds	2
   364  000033                     I2C1_SetDataCompleteCallback@ptr:
   365                           	callstack 0
   366  000033                     I2C1_SetAddressNackCallback@ptr:
   367                           	callstack 0
   368                           
   369                           ; 2 bytes @ 0x9
   370  000033                     	ds	2
   371  000035                     I2C1_Write1ByteRegister@reg:
   372                           	callstack 0
   373  000035                     rd1RegCompleteHandler@ptr:
   374                           	callstack 0
   375  000035                     rd2RegCompleteHandler@ptr:
   376                           	callstack 0
   377  000035                     wr1RegCompleteHandler@ptr:
   378                           	callstack 0
   379  000035                     wr2RegCompleteHandler@ptr:
   380                           	callstack 0
   381  000035                     rdBlkRegCompleteHandler@ptr:
   382                           	callstack 0
   383                           
   384                           ; 2 bytes @ 0xB
   385  000035                     	ds	1
   386  000036                     I2C1_Write1ByteRegister@data:
   387                           	callstack 0
   388                           
   389                           ; 1 bytes @ 0xC
   390  000036                     	ds	1
   391  000037                     I2C1_Write1ByteRegister@address:
   392                           	callstack 0
   393                           
   394                           ; 1 bytes @ 0xD
   395  000037                     	ds	1
   396  000038                     
   397                           ; 1 bytes @ 0xE
   398 ;;
   399 ;;Main: autosize = 0, tempsize = 0, incstack = 0, save=0
   400 ;;
   401 ;; *************** function _main *****************
   402 ;; Defined at:
   403 ;;		line 51 in file "main.c"
   404 ;; Parameters:    Size  Location     Type
   405 ;;		None
   406 ;; Auto vars:     Size  Location     Type
   407 ;;		None
   408 ;; Return value:  Size  Location     Type
   409 ;;                  1    wreg      void 
   410 ;; Registers used:
   411 ;;		wreg, fsr2l, fsr2h, status,2, status,0, pcl, pclath, pclatu, tosl, tblptrl, tblptrh, tblptru, prodl, prodh, cstack
   412 ;; Tracked objects:
   413 ;;		On entry : 0/0
   414 ;;		On exit  : 0/0
   415 ;;		Unchanged: 0/0
   416 ;; Data sizes:     COMRAM   BANK0   BANK1   BANK2   BANK3   BANK4   BANK5   BANK6   BANK7   BANK8   BANK9  BANK10  BANK1
      +1  BANK12  BANK13  BANK14
   417 ;;      Params:         0       0       0       0       0       0       0       0       0       0       0       0       
      +0       0       0       0
   418 ;;      Locals:         0       0       0       0       0       0       0       0       0       0       0       0       
      +0       0       0       0
   419 ;;      Temps:          0       0       0       0       0       0       0       0       0       0       0       0       
      +0       0       0       0
   420 ;;      Totals:         0       0       0       0       0       0       0       0       0       0       0       0       
      +0       0       0       0
   421 ;;Total ram usage:        0 bytes
   422 ;; Hardware stack levels required when called: 13
   423 ;; This function calls:
   424 ;;		_I2C1_Initialize
   425 ;;		_I2C1_Open
   426 ;;		_I2C1_Write1ByteRegister
   427 ;;		_SYSTEM_Initialize
   428 ;; This function is called by:
   429 ;;		Startup code after reset
   430 ;; This function uses a non-reentrant model
   431 ;;
   432                           
   433                           	psect	text0
   434  001342                     __ptext0:
   435                           	callstack 0
   436  001342                     _main:
   437                           	callstack 18
   438  001342                     
   439                           ;main.c: 54:     SYSTEM_Initialize();
   440  001342  EC14  F00B         	call	_SYSTEM_Initialize	;wreg free
   441  001346  848B               	bsf	139,2,c	;volatile
   442  001348  828B               	bsf	139,1,c	;volatile
   443  00134A                     
   444                           ;main.c: 76:     I2C1_Initialize();
   445  00134A  EC93  F00B         	call	_I2C1_Initialize	;wreg free
   446  00134E                     
   447                           ;main.c: 78:     I2C1_Open(0x66);
   448  00134E  0E66               	movlw	102
   449  001350  EC46  F008         	call	_I2C1_Open
   450  001354  948B               	bcf	139,2,c	;volatile
   451  001356                     
   452                           ;main.c: 81:     I2C1_Write1ByteRegister(0x66, 0x00, 0x31);
   453  001356  0E00               	movlw	0
   454  001358  6E35               	movwf	I2C1_Write1ByteRegister@reg^0,c
   455  00135A  0E31               	movlw	49
   456  00135C  6E36               	movwf	I2C1_Write1ByteRegister@data^0,c
   457  00135E  0E66               	movlw	102
   458  001360  EC07  F009         	call	_I2C1_Write1ByteRegister
   459  001364                     
   460                           ;main.c: 82:     I2C1_Write1ByteRegister(0x66, 0x03, 0x3F);
   461  001364  0E03               	movlw	3
   462  001366  6E35               	movwf	I2C1_Write1ByteRegister@reg^0,c
   463  001368  0E3F               	movlw	63
   464  00136A  6E36               	movwf	I2C1_Write1ByteRegister@data^0,c
   465  00136C  0E66               	movlw	102
   466  00136E  EC07  F009         	call	_I2C1_Write1ByteRegister
   467  001372  928B               	bcf	139,1,c	;volatile
   468  001374                     l2683:
   469                           
   470                           ;main.c: 86:     {;main.c: 88:         if(PORTCbits.RC0 == 0){
   471  001374  B082               	btfsc	130,0,c	;volatile
   472  001376  EFBF  F009         	goto	u741
   473  00137A  EFC1  F009         	goto	u740
   474  00137E                     u741:
   475  00137E  EFC4  F009         	goto	l345
   476  001382                     u740:
   477  001382  828B               	bsf	139,1,c	;volatile
   478  001384  EFBA  F009         	goto	l2683
   479  001388                     l345:
   480  001388  928B               	bcf	139,1,c	;volatile
   481  00138A  EFBA  F009         	goto	l2683
   482  00138E  EF45  F000         	goto	start
   483  001392                     __end_of_main:
   484                           	callstack 0
   485                           
   486 ;; *************** function _SYSTEM_Initialize *****************
   487 ;; Defined at:
   488 ;;		line 50 in file "mcc_generated_files/mcc.c"
   489 ;; Parameters:    Size  Location     Type
   490 ;;		None
   491 ;; Auto vars:     Size  Location     Type
   492 ;;		None
   493 ;; Return value:  Size  Location     Type
   494 ;;                  1    wreg      void 
   495 ;; Registers used:
   496 ;;		wreg, status,2, status,0, cstack
   497 ;; Tracked objects:
   498 ;;		On entry : 0/0
   499 ;;		On exit  : 0/0
   500 ;;		Unchanged: 0/0
   501 ;; Data sizes:     COMRAM   BANK0   BANK1   BANK2   BANK3   BANK4   BANK5   BANK6   BANK7   BANK8   BANK9  BANK10  BANK1
      +1  BANK12  BANK13  BANK14
   502 ;;      Params:         0       0       0       0       0       0       0       0       0       0       0       0       
      +0       0       0       0
   503 ;;      Locals:         0       0       0       0       0       0       0       0       0       0       0       0       
      +0       0       0       0
   504 ;;      Temps:          0       0       0       0       0       0       0       0       0       0       0       0       
      +0       0       0       0
   505 ;;      Totals:         0       0       0       0       0       0       0       0       0       0       0       0       
      +0       0       0       0
   506 ;;Total ram usage:        0 bytes
   507 ;; Hardware stack levels used: 1
   508 ;; Hardware stack levels required when called: 6
   509 ;; This function calls:
   510 ;;		_ADC_Initialize
   511 ;;		_EUSART1_Initialize
   512 ;;		_EXT_INT_Initialize
   513 ;;		_I2C1_Initialize
   514 ;;		_INTERRUPT_Initialize
   515 ;;		_OSCILLATOR_Initialize
   516 ;;		_PIN_MANAGER_Initialize
   517 ;;		_TMR0_Initialize
   518 ;; This function is called by:
   519 ;;		_main
   520 ;; This function uses a non-reentrant model
   521 ;;
   522                           
   523                           	psect	text1
   524  001628                     __ptext1:
   525                           	callstack 0
   526  001628                     _SYSTEM_Initialize:
   527                           	callstack 24
   528  001628                     
   529                           ;mcc_generated_files/mcc.c: 53:     INTERRUPT_Initialize();
   530  001628  EC29  F00C         	call	_INTERRUPT_Initialize	;wreg free
   531  00162C                     
   532                           ;mcc_generated_files/mcc.c: 54:     I2C1_Initialize();
   533  00162C  EC93  F00B         	call	_I2C1_Initialize	;wreg free
   534  001630                     
   535                           ;mcc_generated_files/mcc.c: 55:     PIN_MANAGER_Initialize();
   536  001630  EC29  F00A         	call	_PIN_MANAGER_Initialize	;wreg free
   537  001634                     
   538                           ;mcc_generated_files/mcc.c: 56:     OSCILLATOR_Initialize();
   539  001634  EC89  F00B         	call	_OSCILLATOR_Initialize	;wreg free
   540  001638                     
   541                           ;mcc_generated_files/mcc.c: 57:     ADC_Initialize();
   542  001638  EC47  F00B         	call	_ADC_Initialize	;wreg free
   543  00163C                     
   544                           ;mcc_generated_files/mcc.c: 58:     EXT_INT_Initialize();
   545  00163C  EC46  F00A         	call	_EXT_INT_Initialize	;wreg free
   546  001640                     
   547                           ;mcc_generated_files/mcc.c: 59:     TMR0_Initialize();
   548  001640  ECA7  F00B         	call	_TMR0_Initialize	;wreg free
   549  001644                     
   550                           ;mcc_generated_files/mcc.c: 60:     EUSART1_Initialize();
   551  001644  EC0A  F00A         	call	_EUSART1_Initialize	;wreg free
   552  001648  0012               	return		;funcret
   553  00164A                     __end_of_SYSTEM_Initialize:
   554                           	callstack 0
   555                           
   556 ;; *************** function _TMR0_Initialize *****************
   557 ;; Defined at:
   558 ;;		line 66 in file "mcc_generated_files/tmr0.c"
   559 ;; Parameters:    Size  Location     Type
   560 ;;		None
   561 ;; Auto vars:     Size  Location     Type
   562 ;;		None
   563 ;; Return value:  Size  Location     Type
   564 ;;                  1    wreg      void 
   565 ;; Registers used:
   566 ;;		wreg, status,2
   567 ;; Tracked objects:
   568 ;;		On entry : 0/0
   569 ;;		On exit  : 0/0
   570 ;;		Unchanged: 0/0
   571 ;; Data sizes:     COMRAM   BANK0   BANK1   BANK2   BANK3   BANK4   BANK5   BANK6   BANK7   BANK8   BANK9  BANK10  BANK1
      +1  BANK12  BANK13  BANK14
   572 ;;      Params:         0       0       0       0       0       0       0       0       0       0       0       0       
      +0       0       0       0
   573 ;;      Locals:         0       0       0       0       0       0       0       0       0       0       0       0       
      +0       0       0       0
   574 ;;      Temps:          0       0       0       0       0       0       0       0       0       0       0       0       
      +0       0       0       0
   575 ;;      Totals:         0       0       0       0       0       0       0       0       0       0       0       0       
      +0       0       0       0
   576 ;;Total ram usage:        0 bytes
   577 ;; Hardware stack levels used: 1
   578 ;; Hardware stack levels required when called: 4
   579 ;; This function calls:
   580 ;;		Nothing
   581 ;; This function is called by:
   582 ;;		_SYSTEM_Initialize
   583 ;; This function uses a non-reentrant model
   584 ;;
   585                           
   586                           	psect	text2
   587  00174E                     __ptext2:
   588                           	callstack 0
   589  00174E                     _TMR0_Initialize:
   590                           	callstack 25
   591  00174E                     
   592                           ;mcc_generated_files/tmr0.c: 71:     TMR0H = 0x00;
   593  00174E  0E00               	movlw	0
   594  001750  6ED7               	movwf	215,c	;volatile
   595                           
   596                           ;mcc_generated_files/tmr0.c: 74:     TMR0L = 0x9C;
   597  001752  0E9C               	movlw	156
   598  001754  6ED6               	movwf	214,c	;volatile
   599                           
   600                           ;mcc_generated_files/tmr0.c: 78:     timer0ReloadVal = 156;
   601  001756  0E9C               	movlw	156
   602  001758  6E44               	movwf	_timer0ReloadVal^0,c	;volatile
   603  00175A                     
   604                           ;mcc_generated_files/tmr0.c: 81:     INTCONbits.TMR0IF = 0;
   605  00175A  94F2               	bcf	242,2,c	;volatile
   606  00175C                     
   607                           ;mcc_generated_files/tmr0.c: 84:     T0CON = 0xFF;
   608  00175C  68D5               	setf	213,c	;volatile
   609  00175E  0012               	return		;funcret
   610  001760                     __end_of_TMR0_Initialize:
   611                           	callstack 0
   612                           
   613 ;; *************** function _PIN_MANAGER_Initialize *****************
   614 ;; Defined at:
   615 ;;		line 52 in file "mcc_generated_files/pin_manager.c"
   616 ;; Parameters:    Size  Location     Type
   617 ;;		None
   618 ;; Auto vars:     Size  Location     Type
   619 ;;		None
   620 ;; Return value:  Size  Location     Type
   621 ;;                  1    wreg      void 
   622 ;; Registers used:
   623 ;;		wreg, status,2
   624 ;; Tracked objects:
   625 ;;		On entry : 0/0
   626 ;;		On exit  : 0/0
   627 ;;		Unchanged: 0/0
   628 ;; Data sizes:     COMRAM   BANK0   BANK1   BANK2   BANK3   BANK4   BANK5   BANK6   BANK7   BANK8   BANK9  BANK10  BANK1
      +1  BANK12  BANK13  BANK14
   629 ;;      Params:         0       0       0       0       0       0       0       0       0       0       0       0       
      +0       0       0       0
   630 ;;      Locals:         0       0       0       0       0       0       0       0       0       0       0       0       
      +0       0       0       0
   631 ;;      Temps:          0       0       0       0       0       0       0       0       0       0       0       0       
      +0       0       0       0
   632 ;;      Totals:         0       0       0       0       0       0       0       0       0       0       0       0       
      +0       0       0       0
   633 ;;Total ram usage:        0 bytes
   634 ;; Hardware stack levels used: 1
   635 ;; Hardware stack levels required when called: 4
   636 ;; This function calls:
   637 ;;		Nothing
   638 ;; This function is called by:
   639 ;;		_SYSTEM_Initialize
   640 ;; This function uses a non-reentrant model
   641 ;;
   642                           
   643                           	psect	text3
   644  001452                     __ptext3:
   645                           	callstack 0
   646  001452                     _PIN_MANAGER_Initialize:
   647                           	callstack 25
   648  001452                     
   649                           ;mcc_generated_files/pin_manager.c: 57:     LATA = 0x00;
   650  001452  0E00               	movlw	0
   651  001454  6E89               	movwf	137,c	;volatile
   652                           
   653                           ;mcc_generated_files/pin_manager.c: 58:     LATB = 0x00;
   654  001456  0E00               	movlw	0
   655  001458  6E8A               	movwf	138,c	;volatile
   656                           
   657                           ;mcc_generated_files/pin_manager.c: 59:     LATC = 0x00;
   658  00145A  0E00               	movlw	0
   659  00145C  6E8B               	movwf	139,c	;volatile
   660  00145E                     
   661                           ;mcc_generated_files/pin_manager.c: 64:     TRISA = 0xFF;
   662  00145E  6892               	setf	146,c	;volatile
   663                           
   664                           ;mcc_generated_files/pin_manager.c: 65:     TRISB = 0xE7;
   665  001460  0EE7               	movlw	231
   666  001462  6E93               	movwf	147,c	;volatile
   667                           
   668                           ;mcc_generated_files/pin_manager.c: 66:     TRISC = 0x81;
   669  001464  0E81               	movlw	129
   670  001466  6E94               	movwf	148,c	;volatile
   671                           
   672                           ;mcc_generated_files/pin_manager.c: 71:     ANCON0 = 0x00;
   673  001468  0E00               	movlw	0
   674  00146A  010F               	movlb	15	; () banked
   675  00146C  6F48               	movwf	72,b	;volatile
   676                           
   677                           ;mcc_generated_files/pin_manager.c: 72:     ANCON1 = 0x1F;
   678  00146E  0E1F               	movlw	31
   679  001470  6F49               	movwf	73,b	;volatile
   680  001472                     
   681                           ; BSR set to: 15
   682                           ;mcc_generated_files/pin_manager.c: 77:     INTCON2bits.nRBPU = 1;
   683  001472  8EF1               	bsf	241,7,c	;volatile
   684                           
   685                           ;mcc_generated_files/pin_manager.c: 82:     ODCON1 = 0x00;
   686  001474  0E00               	movlw	0
   687  001476  6F42               	movwf	66,b	;volatile
   688                           
   689                           ;mcc_generated_files/pin_manager.c: 83:     ODCON2 = 0x00;
   690  001478  0E00               	movlw	0
   691  00147A  6F41               	movwf	65,b	;volatile
   692                           
   693                           ;mcc_generated_files/pin_manager.c: 84:     ODCON3 = 0x00;
   694  00147C  0E00               	movlw	0
   695  00147E  6F40               	movwf	64,b	;volatile
   696                           
   697                           ;mcc_generated_files/pin_manager.c: 90:     RPINR2 = 0x05;
   698  001480  0E05               	movlw	5
   699  001482  010E               	movlb	14	; () banked
   700  001484  6FE2               	movwf	226,b	;volatile
   701                           
   702                           ;mcc_generated_files/pin_manager.c: 91:     RPINR1 = 0x04;
   703  001486  0E04               	movlw	4
   704  001488  6FE1               	movwf	225,b	;volatile
   705  00148A                     
   706                           ; BSR set to: 14
   707  00148A  0012               	return		;funcret
   708  00148C                     __end_of_PIN_MANAGER_Initialize:
   709                           	callstack 0
   710                           
   711 ;; *************** function _OSCILLATOR_Initialize *****************
   712 ;; Defined at:
   713 ;;		line 63 in file "mcc_generated_files/mcc.c"
   714 ;; Parameters:    Size  Location     Type
   715 ;;		None
   716 ;; Auto vars:     Size  Location     Type
   717 ;;		None
   718 ;; Return value:  Size  Location     Type
   719 ;;                  1    wreg      void 
   720 ;; Registers used:
   721 ;;		wreg, status,2
   722 ;; Tracked objects:
   723 ;;		On entry : 0/0
   724 ;;		On exit  : 0/0
   725 ;;		Unchanged: 0/0
   726 ;; Data sizes:     COMRAM   BANK0   BANK1   BANK2   BANK3   BANK4   BANK5   BANK6   BANK7   BANK8   BANK9  BANK10  BANK1
      +1  BANK12  BANK13  BANK14
   727 ;;      Params:         0       0       0       0       0       0       0       0       0       0       0       0       
      +0       0       0       0
   728 ;;      Locals:         0       0       0       0       0       0       0       0       0       0       0       0       
      +0       0       0       0
   729 ;;      Temps:          0       0       0       0       0       0       0       0       0       0       0       0       
      +0       0       0       0
   730 ;;      Totals:         0       0       0       0       0       0       0       0       0       0       0       0       
      +0       0       0       0
   731 ;;Total ram usage:        0 bytes
   732 ;; Hardware stack levels used: 1
   733 ;; Hardware stack levels required when called: 4
   734 ;; This function calls:
   735 ;;		Nothing
   736 ;; This function is called by:
   737 ;;		_SYSTEM_Initialize
   738 ;; This function uses a non-reentrant model
   739 ;;
   740                           
   741                           	psect	text4
   742  001712                     __ptext4:
   743                           	callstack 0
   744  001712                     _OSCILLATOR_Initialize:
   745                           	callstack 25
   746  001712                     
   747                           ;mcc_generated_files/mcc.c: 66:     OSCCON = 0x60;
   748  001712  0E60               	movlw	96
   749  001714  6ED3               	movwf	211,c	;volatile
   750                           
   751                           ;mcc_generated_files/mcc.c: 68:     OSCTUNE = 0x00;
   752  001716  0E00               	movlw	0
   753  001718  6E9B               	movwf	155,c	;volatile
   754                           
   755                           ;mcc_generated_files/mcc.c: 70:     REFOCON = 0x00;
   756  00171A  0E00               	movlw	0
   757  00171C  010F               	movlb	15	; () banked
   758  00171E  6F3D               	movwf	61,b	;volatile
   759                           
   760                           ;mcc_generated_files/mcc.c: 72:     OSCCON2 = 0x14;
   761  001720  0E14               	movlw	20
   762  001722  6E87               	movwf	135,c	;volatile
   763  001724                     
   764                           ; BSR set to: 15
   765  001724  0012               	return		;funcret
   766  001726                     __end_of_OSCILLATOR_Initialize:
   767                           	callstack 0
   768                           
   769 ;; *************** function _INTERRUPT_Initialize *****************
   770 ;; Defined at:
   771 ;;		line 52 in file "mcc_generated_files/interrupt_manager.c"
   772 ;; Parameters:    Size  Location     Type
   773 ;;		None
   774 ;; Auto vars:     Size  Location     Type
   775 ;;		None
   776 ;; Return value:  Size  Location     Type
   777 ;;                  1    wreg      void 
   778 ;; Registers used:
   779 ;;		None
   780 ;; Tracked objects:
   781 ;;		On entry : 0/0
   782 ;;		On exit  : 0/0
   783 ;;		Unchanged: 0/0
   784 ;; Data sizes:     COMRAM   BANK0   BANK1   BANK2   BANK3   BANK4   BANK5   BANK6   BANK7   BANK8   BANK9  BANK10  BANK1
      +1  BANK12  BANK13  BANK14
   785 ;;      Params:         0       0       0       0       0       0       0       0       0       0       0       0       
      +0       0       0       0
   786 ;;      Locals:         0       0       0       0       0       0       0       0       0       0       0       0       
      +0       0       0       0
   787 ;;      Temps:          0       0       0       0       0       0       0       0       0       0       0       0       
      +0       0       0       0
   788 ;;      Totals:         0       0       0       0       0       0       0       0       0       0       0       0       
      +0       0       0       0
   789 ;;Total ram usage:        0 bytes
   790 ;; Hardware stack levels used: 1
   791 ;; Hardware stack levels required when called: 4
   792 ;; This function calls:
   793 ;;		Nothing
   794 ;; This function is called by:
   795 ;;		_SYSTEM_Initialize
   796 ;; This function uses a non-reentrant model
   797 ;;
   798                           
   799                           	psect	text5
   800  001852                     __ptext5:
   801                           	callstack 0
   802  001852                     _INTERRUPT_Initialize:
   803                           	callstack 25
   804  001852                     
   805                           ;mcc_generated_files/interrupt_manager.c: 55:     RCONbits.IPEN = 0;
   806  001852  9ED0               	bcf	208,7,c	;volatile
   807  001854  0012               	return		;funcret
   808  001856                     __end_of_INTERRUPT_Initialize:
   809                           	callstack 0
   810                           
   811 ;; *************** function _I2C1_Initialize *****************
   812 ;; Defined at:
   813 ;;		line 167 in file "mcc_generated_files/i2c1_master.c"
   814 ;; Parameters:    Size  Location     Type
   815 ;;		None
   816 ;; Auto vars:     Size  Location     Type
   817 ;;		None
   818 ;; Return value:  Size  Location     Type
   819 ;;                  1    wreg      void 
   820 ;; Registers used:
   821 ;;		wreg, status,2
   822 ;; Tracked objects:
   823 ;;		On entry : 0/0
   824 ;;		On exit  : 0/0
   825 ;;		Unchanged: 0/0
   826 ;; Data sizes:     COMRAM   BANK0   BANK1   BANK2   BANK3   BANK4   BANK5   BANK6   BANK7   BANK8   BANK9  BANK10  BANK1
      +1  BANK12  BANK13  BANK14
   827 ;;      Params:         0       0       0       0       0       0       0       0       0       0       0       0       
      +0       0       0       0
   828 ;;      Locals:         0       0       0       0       0       0       0       0       0       0       0       0       
      +0       0       0       0
   829 ;;      Temps:          0       0       0       0       0       0       0       0       0       0       0       0       
      +0       0       0       0
   830 ;;      Totals:         0       0       0       0       0       0       0       0       0       0       0       0       
      +0       0       0       0
   831 ;;Total ram usage:        0 bytes
   832 ;; Hardware stack levels used: 1
   833 ;; Hardware stack levels required when called: 4
   834 ;; This function calls:
   835 ;;		Nothing
   836 ;; This function is called by:
   837 ;;		_SYSTEM_Initialize
   838 ;;		_main
   839 ;; This function uses a non-reentrant model
   840 ;;
   841                           
   842                           	psect	text6
   843  001726                     __ptext6:
   844                           	callstack 0
   845  001726                     _I2C1_Initialize:
   846                           	callstack 25
   847  001726                     
   848                           ;mcc_generated_files/i2c1_master.c: 169:     SSP1STAT = 0x00;
   849  001726  0E00               	movlw	0
   850  001728  6EC7               	movwf	199,c	;volatile
   851                           
   852                           ;mcc_generated_files/i2c1_master.c: 170:     SSP1CON1 = 0x08;
   853  00172A  0E08               	movlw	8
   854  00172C  6EC6               	movwf	198,c	;volatile
   855                           
   856                           ;mcc_generated_files/i2c1_master.c: 171:     SSP1CON2 = 0x00;
   857  00172E  0E00               	movlw	0
   858  001730  6EC5               	movwf	197,c	;volatile
   859                           
   860                           ;mcc_generated_files/i2c1_master.c: 172:     SSP1ADD = 0x03;
   861  001732  0E03               	movlw	3
   862  001734  6EC8               	movwf	200,c	;volatile
   863  001736                     
   864                           ;mcc_generated_files/i2c1_master.c: 173:     SSP1CON1bits.SSPEN = 0;
   865  001736  9AC6               	bcf	198,5,c	;volatile
   866  001738  0012               	return		;funcret
   867  00173A                     __end_of_I2C1_Initialize:
   868                           	callstack 0
   869                           
   870 ;; *************** function _EXT_INT_Initialize *****************
   871 ;; Defined at:
   872 ;;		line 113 in file "mcc_generated_files/ext_int.c"
   873 ;; Parameters:    Size  Location     Type
   874 ;;		None
   875 ;; Auto vars:     Size  Location     Type
   876 ;;		None
   877 ;; Return value:  Size  Location     Type
   878 ;;                  1    wreg      void 
   879 ;; Registers used:
   880 ;;		wreg, status,2, status,0, cstack
   881 ;; Tracked objects:
   882 ;;		On entry : 0/0
   883 ;;		On exit  : 0/0
   884 ;;		Unchanged: 0/0
   885 ;; Data sizes:     COMRAM   BANK0   BANK1   BANK2   BANK3   BANK4   BANK5   BANK6   BANK7   BANK8   BANK9  BANK10  BANK1
      +1  BANK12  BANK13  BANK14
   886 ;;      Params:         0       0       0       0       0       0       0       0       0       0       0       0       
      +0       0       0       0
   887 ;;      Locals:         0       0       0       0       0       0       0       0       0       0       0       0       
      +0       0       0       0
   888 ;;      Temps:          0       0       0       0       0       0       0       0       0       0       0       0       
      +0       0       0       0
   889 ;;      Totals:         0       0       0       0       0       0       0       0       0       0       0       0       
      +0       0       0       0
   890 ;;Total ram usage:        0 bytes
   891 ;; Hardware stack levels used: 1
   892 ;; Hardware stack levels required when called: 5
   893 ;; This function calls:
   894 ;;		_INT0_SetInterruptHandler
   895 ;;		_INT1_SetInterruptHandler
   896 ;;		_INT2_SetInterruptHandler
   897 ;; This function is called by:
   898 ;;		_SYSTEM_Initialize
   899 ;; This function uses a non-reentrant model
   900 ;;
   901                           
   902                           	psect	text7
   903  00148C                     __ptext7:
   904                           	callstack 0
   905  00148C                     _EXT_INT_Initialize:
   906                           	callstack 24
   907  00148C                     
   908                           ;mcc_generated_files/ext_int.c: 118:     (INTCONbits.INT0IF = 0);
   909  00148C  92F2               	bcf	242,1,c	;volatile
   910                           
   911                           ;mcc_generated_files/ext_int.c: 119:     (INTCON2bits.INTEDG0 = 1);
   912  00148E  8CF1               	bsf	241,6,c	;volatile
   913  001490                     
   914                           ;mcc_generated_files/ext_int.c: 121:     INT0_SetInterruptHandler(INT0_DefaultInterruptH
      +                          andler);
   915  001490  0E86               	movlw	low _INT0_DefaultInterruptHandler
   916  001492  6E2C               	movwf	INT0_SetInterruptHandler@InterruptHandler^0,c
   917  001494  0E18               	movlw	high _INT0_DefaultInterruptHandler
   918  001496  6E2D               	movwf	(INT0_SetInterruptHandler@InterruptHandler+1)^0,c
   919  001498  ECD0  F00B         	call	_INT0_SetInterruptHandler	;wreg free
   920  00149C                     
   921                           ;mcc_generated_files/ext_int.c: 122:     (INTCONbits.INT0IE = 1);
   922  00149C  88F2               	bsf	242,4,c	;volatile
   923  00149E                     
   924                           ;mcc_generated_files/ext_int.c: 127:     (INTCON3bits.INT1IF = 0);
   925  00149E  90F0               	bcf	240,0,c	;volatile
   926  0014A0                     
   927                           ;mcc_generated_files/ext_int.c: 128:     (INTCON2bits.INTEDG1 = 1);
   928  0014A0  8AF1               	bsf	241,5,c	;volatile
   929                           
   930                           ;mcc_generated_files/ext_int.c: 130:     INT1_SetInterruptHandler(INT1_DefaultInterruptH
      +                          andler);
   931  0014A2  0E84               	movlw	low _INT1_DefaultInterruptHandler
   932  0014A4  6E2C               	movwf	INT1_SetInterruptHandler@InterruptHandler^0,c
   933  0014A6  0E18               	movlw	high _INT1_DefaultInterruptHandler
   934  0014A8  6E2D               	movwf	(INT1_SetInterruptHandler@InterruptHandler+1)^0,c
   935  0014AA  ECCB  F00B         	call	_INT1_SetInterruptHandler	;wreg free
   936  0014AE                     
   937                           ;mcc_generated_files/ext_int.c: 131:     (INTCON3bits.INT1IE = 1);
   938  0014AE  86F0               	bsf	240,3,c	;volatile
   939  0014B0                     
   940                           ;mcc_generated_files/ext_int.c: 136:     (INTCON3bits.INT2IF = 0);
   941  0014B0  92F0               	bcf	240,1,c	;volatile
   942  0014B2                     
   943                           ;mcc_generated_files/ext_int.c: 137:     (INTCON2bits.INTEDG2 = 1);
   944  0014B2  88F1               	bsf	241,4,c	;volatile
   945                           
   946                           ;mcc_generated_files/ext_int.c: 139:     INT2_SetInterruptHandler(INT2_DefaultInterruptH
      +                          andler);
   947  0014B4  0E82               	movlw	low _INT2_DefaultInterruptHandler
   948  0014B6  6E2C               	movwf	INT2_SetInterruptHandler@InterruptHandler^0,c
   949  0014B8  0E18               	movlw	high _INT2_DefaultInterruptHandler
   950  0014BA  6E2D               	movwf	(INT2_SetInterruptHandler@InterruptHandler+1)^0,c
   951  0014BC  ECC6  F00B         	call	_INT2_SetInterruptHandler	;wreg free
   952  0014C0                     
   953                           ;mcc_generated_files/ext_int.c: 140:     (INTCON3bits.INT2IE = 1);
   954  0014C0  88F0               	bsf	240,4,c	;volatile
   955  0014C2  0012               	return		;funcret
   956  0014C4                     __end_of_EXT_INT_Initialize:
   957                           	callstack 0
   958                           
   959 ;; *************** function _INT2_SetInterruptHandler *****************
   960 ;; Defined at:
   961 ;;		line 104 in file "mcc_generated_files/ext_int.c"
   962 ;; Parameters:    Size  Location     Type
   963 ;;  InterruptHan    2    2[COMRAM] PTR FTN()void 
   964 ;;		 -> INT2_DefaultInterruptHandler(1), 
   965 ;; Auto vars:     Size  Location     Type
   966 ;;		None
   967 ;; Return value:  Size  Location     Type
   968 ;;                  1    wreg      void 
   969 ;; Registers used:
   970 ;;		wreg, status,2, status,0
   971 ;; Tracked objects:
   972 ;;		On entry : 0/0
   973 ;;		On exit  : 0/0
   974 ;;		Unchanged: 0/0
   975 ;; Data sizes:     COMRAM   BANK0   BANK1   BANK2   BANK3   BANK4   BANK5   BANK6   BANK7   BANK8   BANK9  BANK10  BANK1
      +1  BANK12  BANK13  BANK14
   976 ;;      Params:         2       0       0       0       0       0       0       0       0       0       0       0       
      +0       0       0       0
   977 ;;      Locals:         0       0       0       0       0       0       0       0       0       0       0       0       
      +0       0       0       0
   978 ;;      Temps:          0       0       0       0       0       0       0       0       0       0       0       0       
      +0       0       0       0
   979 ;;      Totals:         2       0       0       0       0       0       0       0       0       0       0       0       
      +0       0       0       0
   980 ;;Total ram usage:        2 bytes
   981 ;; Hardware stack levels used: 1
   982 ;; Hardware stack levels required when called: 4
   983 ;; This function calls:
   984 ;;		Nothing
   985 ;; This function is called by:
   986 ;;		_EXT_INT_Initialize
   987 ;; This function uses a non-reentrant model
   988 ;;
   989                           
   990                           	psect	text8
   991  00178C                     __ptext8:
   992                           	callstack 0
   993  00178C                     _INT2_SetInterruptHandler:
   994                           	callstack 24
   995  00178C                     
   996                           ;mcc_generated_files/ext_int.c: 105:     INT2_InterruptHandler = InterruptHandler;
   997  00178C  C02C  F038         	movff	INT2_SetInterruptHandler@InterruptHandler,_INT2_InterruptHandler
   998  001790  C02D  F039         	movff	INT2_SetInterruptHandler@InterruptHandler+1,_INT2_InterruptHandler+1
   999  001794  0012               	return		;funcret
  1000  001796                     __end_of_INT2_SetInterruptHandler:
  1001                           	callstack 0
  1002                           
  1003 ;; *************** function _INT1_SetInterruptHandler *****************
  1004 ;; Defined at:
  1005 ;;		line 78 in file "mcc_generated_files/ext_int.c"
  1006 ;; Parameters:    Size  Location     Type
  1007 ;;  InterruptHan    2    2[COMRAM] PTR FTN()void 
  1008 ;;		 -> INT1_DefaultInterruptHandler(1), 
  1009 ;; Auto vars:     Size  Location     Type
  1010 ;;		None
  1011 ;; Return value:  Size  Location     Type
  1012 ;;                  1    wreg      void 
  1013 ;; Registers used:
  1014 ;;		wreg, status,2, status,0
  1015 ;; Tracked objects:
  1016 ;;		On entry : 0/0
  1017 ;;		On exit  : 0/0
  1018 ;;		Unchanged: 0/0
  1019 ;; Data sizes:     COMRAM   BANK0   BANK1   BANK2   BANK3   BANK4   BANK5   BANK6   BANK7   BANK8   BANK9  BANK10  BANK1
      +1  BANK12  BANK13  BANK14
  1020 ;;      Params:         2       0       0       0       0       0       0       0       0       0       0       0       
      +0       0       0       0
  1021 ;;      Locals:         0       0       0       0       0       0       0       0       0       0       0       0       
      +0       0       0       0
  1022 ;;      Temps:          0       0       0       0       0       0       0       0       0       0       0       0       
      +0       0       0       0
  1023 ;;      Totals:         2       0       0       0       0       0       0       0       0       0       0       0       
      +0       0       0       0
  1024 ;;Total ram usage:        2 bytes
  1025 ;; Hardware stack levels used: 1
  1026 ;; Hardware stack levels required when called: 4
  1027 ;; This function calls:
  1028 ;;		Nothing
  1029 ;; This function is called by:
  1030 ;;		_EXT_INT_Initialize
  1031 ;; This function uses a non-reentrant model
  1032 ;;
  1033                           
  1034                           	psect	text9
  1035  001796                     __ptext9:
  1036                           	callstack 0
  1037  001796                     _INT1_SetInterruptHandler:
  1038                           	callstack 24
  1039  001796                     
  1040                           ;mcc_generated_files/ext_int.c: 79:     INT1_InterruptHandler = InterruptHandler;
  1041  001796  C02C  F03A         	movff	INT1_SetInterruptHandler@InterruptHandler,_INT1_InterruptHandler
  1042  00179A  C02D  F03B         	movff	INT1_SetInterruptHandler@InterruptHandler+1,_INT1_InterruptHandler+1
  1043  00179E  0012               	return		;funcret
  1044  0017A0                     __end_of_INT1_SetInterruptHandler:
  1045                           	callstack 0
  1046                           
  1047 ;; *************** function _INT0_SetInterruptHandler *****************
  1048 ;; Defined at:
  1049 ;;		line 52 in file "mcc_generated_files/ext_int.c"
  1050 ;; Parameters:    Size  Location     Type
  1051 ;;  InterruptHan    2    2[COMRAM] PTR FTN()void 
  1052 ;;		 -> INT0_DefaultInterruptHandler(1), 
  1053 ;; Auto vars:     Size  Location     Type
  1054 ;;		None
  1055 ;; Return value:  Size  Location     Type
  1056 ;;                  1    wreg      void 
  1057 ;; Registers used:
  1058 ;;		wreg, status,2, status,0
  1059 ;; Tracked objects:
  1060 ;;		On entry : 0/0
  1061 ;;		On exit  : 0/0
  1062 ;;		Unchanged: 0/0
  1063 ;; Data sizes:     COMRAM   BANK0   BANK1   BANK2   BANK3   BANK4   BANK5   BANK6   BANK7   BANK8   BANK9  BANK10  BANK1
      +1  BANK12  BANK13  BANK14
  1064 ;;      Params:         2       0       0       0       0       0       0       0       0       0       0       0       
      +0       0       0       0
  1065 ;;      Locals:         0       0       0       0       0       0       0       0       0       0       0       0       
      +0       0       0       0
  1066 ;;      Temps:          0       0       0       0       0       0       0       0       0       0       0       0       
      +0       0       0       0
  1067 ;;      Totals:         2       0       0       0       0       0       0       0       0       0       0       0       
      +0       0       0       0
  1068 ;;Total ram usage:        2 bytes
  1069 ;; Hardware stack levels used: 1
  1070 ;; Hardware stack levels required when called: 4
  1071 ;; This function calls:
  1072 ;;		Nothing
  1073 ;; This function is called by:
  1074 ;;		_EXT_INT_Initialize
  1075 ;; This function uses a non-reentrant model
  1076 ;;
  1077                           
  1078                           	psect	text10
  1079  0017A0                     __ptext10:
  1080                           	callstack 0
  1081  0017A0                     _INT0_SetInterruptHandler:
  1082                           	callstack 24
  1083  0017A0                     
  1084                           ;mcc_generated_files/ext_int.c: 53:     INT0_InterruptHandler = InterruptHandler;
  1085  0017A0  C02C  F03C         	movff	INT0_SetInterruptHandler@InterruptHandler,_INT0_InterruptHandler
  1086  0017A4  C02D  F03D         	movff	INT0_SetInterruptHandler@InterruptHandler+1,_INT0_InterruptHandler+1
  1087  0017A8  0012               	return		;funcret
  1088  0017AA                     __end_of_INT0_SetInterruptHandler:
  1089                           	callstack 0
  1090                           
  1091 ;; *************** function _EUSART1_Initialize *****************
  1092 ;; Defined at:
  1093 ;;		line 66 in file "mcc_generated_files/eusart1.c"
  1094 ;; Parameters:    Size  Location     Type
  1095 ;;		None
  1096 ;; Auto vars:     Size  Location     Type
  1097 ;;		None
  1098 ;; Return value:  Size  Location     Type
  1099 ;;                  1    wreg      void 
  1100 ;; Registers used:
  1101 ;;		wreg, status,2, status,0, cstack
  1102 ;; Tracked objects:
  1103 ;;		On entry : 0/0
  1104 ;;		On exit  : 0/0
  1105 ;;		Unchanged: 0/0
  1106 ;; Data sizes:     COMRAM   BANK0   BANK1   BANK2   BANK3   BANK4   BANK5   BANK6   BANK7   BANK8   BANK9  BANK10  BANK1
      +1  BANK12  BANK13  BANK14
  1107 ;;      Params:         0       0       0       0       0       0       0       0       0       0       0       0       
      +0       0       0       0
  1108 ;;      Locals:         0       0       0       0       0       0       0       0       0       0       0       0       
      +0       0       0       0
  1109 ;;      Temps:          0       0       0       0       0       0       0       0       0       0       0       0       
      +0       0       0       0
  1110 ;;      Totals:         0       0       0       0       0       0       0       0       0       0       0       0       
      +0       0       0       0
  1111 ;;Total ram usage:        0 bytes
  1112 ;; Hardware stack levels used: 1
  1113 ;; Hardware stack levels required when called: 5
  1114 ;; This function calls:
  1115 ;;		_EUSART1_SetErrorHandler
  1116 ;;		_EUSART1_SetFramingErrorHandler
  1117 ;;		_EUSART1_SetOverrunErrorHandler
  1118 ;; This function is called by:
  1119 ;;		_SYSTEM_Initialize
  1120 ;; This function uses a non-reentrant model
  1121 ;;
  1122                           
  1123                           	psect	text11
  1124  001414                     __ptext11:
  1125                           	callstack 0
  1126  001414                     _EUSART1_Initialize:
  1127                           	callstack 24
  1128  001414                     
  1129                           ;mcc_generated_files/eusart1.c: 71:     BAUDCON1 = 0x08;
  1130  001414  0E08               	movlw	8
  1131  001416  6E7E               	movwf	126,c	;volatile
  1132                           
  1133                           ;mcc_generated_files/eusart1.c: 74:     RCSTA1 = 0x90;
  1134  001418  0E90               	movlw	144
  1135  00141A  6EAC               	movwf	172,c	;volatile
  1136                           
  1137                           ;mcc_generated_files/eusart1.c: 77:     TXSTA1 = 0x24;
  1138  00141C  0E24               	movlw	36
  1139  00141E  6EAD               	movwf	173,c	;volatile
  1140                           
  1141                           ;mcc_generated_files/eusart1.c: 80:     SPBRG1 = 0x19;
  1142  001420  0E19               	movlw	25
  1143  001422  6EB0               	movwf	176,c	;volatile
  1144                           
  1145                           ;mcc_generated_files/eusart1.c: 83:     SPBRGH1 = 0x00;
  1146  001424  0E00               	movlw	0
  1147  001426  6E7F               	movwf	127,c	;volatile
  1148  001428                     
  1149                           ;mcc_generated_files/eusart1.c: 86:     EUSART1_SetFramingErrorHandler(EUSART1_DefaultFr
      +                          amingErrorHandler);
  1150  001428  0E00               	movlw	0
  1151  00142A  6E2C               	movwf	EUSART1_SetFramingErrorHandler@interruptHandler^0,c
  1152  00142C  0E00               	movlw	0
  1153  00142E  6E2D               	movwf	(EUSART1_SetFramingErrorHandler@interruptHandler+1)^0,c
  1154  001430  ECDA  F00B         	call	_EUSART1_SetFramingErrorHandler	;wreg free
  1155  001434                     
  1156                           ;mcc_generated_files/eusart1.c: 87:     EUSART1_SetOverrunErrorHandler(EUSART1_DefaultOv
      +                          errunErrorHandler);
  1157  001434  0E00               	movlw	0
  1158  001436  6E2C               	movwf	EUSART1_SetOverrunErrorHandler@interruptHandler^0,c
  1159  001438  0E00               	movlw	0
  1160  00143A  6E2D               	movwf	(EUSART1_SetOverrunErrorHandler@interruptHandler+1)^0,c
  1161  00143C  ECD5  F00B         	call	_EUSART1_SetOverrunErrorHandler	;wreg free
  1162  001440                     
  1163                           ;mcc_generated_files/eusart1.c: 88:     EUSART1_SetErrorHandler(EUSART1_DefaultErrorHand
      +                          ler);
  1164  001440  0E00               	movlw	0
  1165  001442  6E2C               	movwf	EUSART1_SetErrorHandler@interruptHandler^0,c
  1166  001444  0E00               	movlw	0
  1167  001446  6E2D               	movwf	(EUSART1_SetErrorHandler@interruptHandler+1)^0,c
  1168  001448  ECDF  F00B         	call	_EUSART1_SetErrorHandler	;wreg free
  1169  00144C                     
  1170                           ;mcc_generated_files/eusart1.c: 90:     eusart1RxLastError.status = 0;
  1171  00144C  0E00               	movlw	0
  1172  00144E  6E29               	movwf	_eusart1RxLastError^0,c	;volatile
  1173  001450  0012               	return		;funcret
  1174  001452                     __end_of_EUSART1_Initialize:
  1175                           	callstack 0
  1176                           
  1177 ;; *************** function _EUSART1_SetOverrunErrorHandler *****************
  1178 ;; Defined at:
  1179 ;;		line 161 in file "mcc_generated_files/eusart1.c"
  1180 ;; Parameters:    Size  Location     Type
  1181 ;;  interruptHan    2    2[COMRAM] PTR FTN()void 
  1182 ;;		 -> EUSART1_DefaultOverrunErrorHandler(1), 
  1183 ;; Auto vars:     Size  Location     Type
  1184 ;;		None
  1185 ;; Return value:  Size  Location     Type
  1186 ;;                  1    wreg      void 
  1187 ;; Registers used:
  1188 ;;		wreg, status,2, status,0
  1189 ;; Tracked objects:
  1190 ;;		On entry : 0/0
  1191 ;;		On exit  : 0/0
  1192 ;;		Unchanged: 0/0
  1193 ;; Data sizes:     COMRAM   BANK0   BANK1   BANK2   BANK3   BANK4   BANK5   BANK6   BANK7   BANK8   BANK9  BANK10  BANK1
      +1  BANK12  BANK13  BANK14
  1194 ;;      Params:         2       0       0       0       0       0       0       0       0       0       0       0       
      +0       0       0       0
  1195 ;;      Locals:         0       0       0       0       0       0       0       0       0       0       0       0       
      +0       0       0       0
  1196 ;;      Temps:          0       0       0       0       0       0       0       0       0       0       0       0       
      +0       0       0       0
  1197 ;;      Totals:         2       0       0       0       0       0       0       0       0       0       0       0       
      +0       0       0       0
  1198 ;;Total ram usage:        2 bytes
  1199 ;; Hardware stack levels used: 1
  1200 ;; Hardware stack levels required when called: 4
  1201 ;; This function calls:
  1202 ;;		Nothing
  1203 ;; This function is called by:
  1204 ;;		_EUSART1_Initialize
  1205 ;; This function uses a non-reentrant model
  1206 ;;
  1207                           
  1208                           	psect	text12
  1209  0017AA                     __ptext12:
  1210                           	callstack 0
  1211  0017AA                     _EUSART1_SetOverrunErrorHandler:
  1212                           	callstack 24
  1213  0017AA                     
  1214                           ;mcc_generated_files/eusart1.c: 162:     EUSART1_OverrunErrorHandler = interruptHandler;
  1215  0017AA  C02C  F040         	movff	EUSART1_SetOverrunErrorHandler@interruptHandler,_EUSART1_OverrunErrorHandler
  1216  0017AE  C02D  F041         	movff	EUSART1_SetOverrunErrorHandler@interruptHandler+1,_EUSART1_OverrunErrorHandler+1
  1217  0017B2  0012               	return		;funcret
  1218  0017B4                     __end_of_EUSART1_SetOverrunErrorHandler:
  1219                           	callstack 0
  1220                           
  1221 ;; *************** function _EUSART1_SetFramingErrorHandler *****************
  1222 ;; Defined at:
  1223 ;;		line 157 in file "mcc_generated_files/eusart1.c"
  1224 ;; Parameters:    Size  Location     Type
  1225 ;;  interruptHan    2    2[COMRAM] PTR FTN()void 
  1226 ;;		 -> EUSART1_DefaultFramingErrorHandler(1), 
  1227 ;; Auto vars:     Size  Location     Type
  1228 ;;		None
  1229 ;; Return value:  Size  Location     Type
  1230 ;;                  1    wreg      void 
  1231 ;; Registers used:
  1232 ;;		wreg, status,2, status,0
  1233 ;; Tracked objects:
  1234 ;;		On entry : 0/0
  1235 ;;		On exit  : 0/0
  1236 ;;		Unchanged: 0/0
  1237 ;; Data sizes:     COMRAM   BANK0   BANK1   BANK2   BANK3   BANK4   BANK5   BANK6   BANK7   BANK8   BANK9  BANK10  BANK1
      +1  BANK12  BANK13  BANK14
  1238 ;;      Params:         2       0       0       0       0       0       0       0       0       0       0       0       
      +0       0       0       0
  1239 ;;      Locals:         0       0       0       0       0       0       0       0       0       0       0       0       
      +0       0       0       0
  1240 ;;      Temps:          0       0       0       0       0       0       0       0       0       0       0       0       
      +0       0       0       0
  1241 ;;      Totals:         2       0       0       0       0       0       0       0       0       0       0       0       
      +0       0       0       0
  1242 ;;Total ram usage:        2 bytes
  1243 ;; Hardware stack levels used: 1
  1244 ;; Hardware stack levels required when called: 4
  1245 ;; This function calls:
  1246 ;;		Nothing
  1247 ;; This function is called by:
  1248 ;;		_EUSART1_Initialize
  1249 ;; This function uses a non-reentrant model
  1250 ;;
  1251                           
  1252                           	psect	text13
  1253  0017B4                     __ptext13:
  1254                           	callstack 0
  1255  0017B4                     _EUSART1_SetFramingErrorHandler:
  1256                           	callstack 24
  1257  0017B4                     
  1258                           ;mcc_generated_files/eusart1.c: 158:     EUSART1_FramingErrorHandler = interruptHandler;
  1259  0017B4  C02C  F042         	movff	EUSART1_SetFramingErrorHandler@interruptHandler,_EUSART1_FramingErrorHandler
  1260  0017B8  C02D  F043         	movff	EUSART1_SetFramingErrorHandler@interruptHandler+1,_EUSART1_FramingErrorHandler+1
  1261  0017BC  0012               	return		;funcret
  1262  0017BE                     __end_of_EUSART1_SetFramingErrorHandler:
  1263                           	callstack 0
  1264                           
  1265 ;; *************** function _EUSART1_SetErrorHandler *****************
  1266 ;; Defined at:
  1267 ;;		line 165 in file "mcc_generated_files/eusart1.c"
  1268 ;; Parameters:    Size  Location     Type
  1269 ;;  interruptHan    2    2[COMRAM] PTR FTN()void 
  1270 ;;		 -> EUSART1_DefaultErrorHandler(1), 
  1271 ;; Auto vars:     Size  Location     Type
  1272 ;;		None
  1273 ;; Return value:  Size  Location     Type
  1274 ;;                  1    wreg      void 
  1275 ;; Registers used:
  1276 ;;		wreg, status,2, status,0
  1277 ;; Tracked objects:
  1278 ;;		On entry : 0/0
  1279 ;;		On exit  : 0/0
  1280 ;;		Unchanged: 0/0
  1281 ;; Data sizes:     COMRAM   BANK0   BANK1   BANK2   BANK3   BANK4   BANK5   BANK6   BANK7   BANK8   BANK9  BANK10  BANK1
      +1  BANK12  BANK13  BANK14
  1282 ;;      Params:         2       0       0       0       0       0       0       0       0       0       0       0       
      +0       0       0       0
  1283 ;;      Locals:         0       0       0       0       0       0       0       0       0       0       0       0       
      +0       0       0       0
  1284 ;;      Temps:          0       0       0       0       0       0       0       0       0       0       0       0       
      +0       0       0       0
  1285 ;;      Totals:         2       0       0       0       0       0       0       0       0       0       0       0       
      +0       0       0       0
  1286 ;;Total ram usage:        2 bytes
  1287 ;; Hardware stack levels used: 1
  1288 ;; Hardware stack levels required when called: 4
  1289 ;; This function calls:
  1290 ;;		Nothing
  1291 ;; This function is called by:
  1292 ;;		_EUSART1_Initialize
  1293 ;; This function uses a non-reentrant model
  1294 ;;
  1295                           
  1296                           	psect	text14
  1297  0017BE                     __ptext14:
  1298                           	callstack 0
  1299  0017BE                     _EUSART1_SetErrorHandler:
  1300                           	callstack 24
  1301  0017BE                     
  1302                           ;mcc_generated_files/eusart1.c: 166:     EUSART1_ErrorHandler = interruptHandler;
  1303  0017BE  C02C  F03E         	movff	EUSART1_SetErrorHandler@interruptHandler,_EUSART1_ErrorHandler
  1304  0017C2  C02D  F03F         	movff	EUSART1_SetErrorHandler@interruptHandler+1,_EUSART1_ErrorHandler+1
  1305  0017C6  0012               	return		;funcret
  1306  0017C8                     __end_of_EUSART1_SetErrorHandler:
  1307                           	callstack 0
  1308                           
  1309 ;; *************** function _ADC_Initialize *****************
  1310 ;; Defined at:
  1311 ;;		line 61 in file "mcc_generated_files/adc.c"
  1312 ;; Parameters:    Size  Location     Type
  1313 ;;		None
  1314 ;; Auto vars:     Size  Location     Type
  1315 ;;		None
  1316 ;; Return value:  Size  Location     Type
  1317 ;;                  1    wreg      void 
  1318 ;; Registers used:
  1319 ;;		wreg, status,2
  1320 ;; Tracked objects:
  1321 ;;		On entry : 0/0
  1322 ;;		On exit  : 0/0
  1323 ;;		Unchanged: 0/0
  1324 ;; Data sizes:     COMRAM   BANK0   BANK1   BANK2   BANK3   BANK4   BANK5   BANK6   BANK7   BANK8   BANK9  BANK10  BANK1
      +1  BANK12  BANK13  BANK14
  1325 ;;      Params:         0       0       0       0       0       0       0       0       0       0       0       0       
      +0       0       0       0
  1326 ;;      Locals:         0       0       0       0       0       0       0       0       0       0       0       0       
      +0       0       0       0
  1327 ;;      Temps:          0       0       0       0       0       0       0       0       0       0       0       0       
      +0       0       0       0
  1328 ;;      Totals:         0       0       0       0       0       0       0       0       0       0       0       0       
      +0       0       0       0
  1329 ;;Total ram usage:        0 bytes
  1330 ;; Hardware stack levels used: 1
  1331 ;; Hardware stack levels required when called: 4
  1332 ;; This function calls:
  1333 ;;		Nothing
  1334 ;; This function is called by:
  1335 ;;		_SYSTEM_Initialize
  1336 ;; This function uses a non-reentrant model
  1337 ;;
  1338                           
  1339                           	psect	text15
  1340  00168E                     __ptext15:
  1341                           	callstack 0
  1342  00168E                     _ADC_Initialize:
  1343                           	callstack 25
  1344  00168E                     
  1345                           ;mcc_generated_files/adc.c: 66:     ADCON1 = 0x00;
  1346  00168E  0E00               	movlw	0
  1347  001690  6EC1               	movwf	193,c	;volatile
  1348                           
  1349                           ;mcc_generated_files/adc.c: 69:     ADCTRIG = 0x01;
  1350  001692  0E01               	movlw	1
  1351  001694  010E               	movlb	14	; () banked
  1352  001696  6FB8               	movwf	184,b	;volatile
  1353                           
  1354                           ;mcc_generated_files/adc.c: 72:     ANCON1 = 0x00;
  1355  001698  0E00               	movlw	0
  1356  00169A  010F               	movlb	15	; () banked
  1357  00169C  6F49               	movwf	73,b	;volatile
  1358                           
  1359                           ;mcc_generated_files/adc.c: 75:     ADRESL = 0x00;
  1360  00169E  0E00               	movlw	0
  1361  0016A0  6EC3               	movwf	195,c	;volatile
  1362                           
  1363                           ;mcc_generated_files/adc.c: 78:     ADRESH = 0x00;
  1364  0016A2  0E00               	movlw	0
  1365  0016A4  6EC4               	movwf	196,c	;volatile
  1366                           
  1367                           ;mcc_generated_files/adc.c: 81:     ADCON0 = 0x01;
  1368  0016A6  0E01               	movlw	1
  1369  0016A8  6EC2               	movwf	194,c	;volatile
  1370  0016AA                     
  1371                           ; BSR set to: 15
  1372  0016AA  0012               	return		;funcret
  1373  0016AC                     __end_of_ADC_Initialize:
  1374                           	callstack 0
  1375                           
  1376 ;; *************** function _I2C1_Write1ByteRegister *****************
  1377 ;; Defined at:
  1378 ;;		line 91 in file "mcc_generated_files/examples/i2c1_master_example.c"
  1379 ;; Parameters:    Size  Location     Type
  1380 ;;  address         1    wreg     unsigned char 
  1381 ;;  reg             1   11[COMRAM] unsigned char 
  1382 ;;  data            1   12[COMRAM] unsigned char 
  1383 ;; Auto vars:     Size  Location     Type
  1384 ;;  address         1   13[COMRAM] unsigned char 
  1385 ;; Return value:  Size  Location     Type
  1386 ;;                  1    wreg      void 
  1387 ;; Registers used:
  1388 ;;		wreg, fsr2l, fsr2h, status,2, status,0, pcl, pclath, pclatu, tosl, tblptrl, tblptrh, tblptru, prodl, prodh, cstack
  1389 ;; Tracked objects:
  1390 ;;		On entry : 0/0
  1391 ;;		On exit  : 0/0
  1392 ;;		Unchanged: 0/0
  1393 ;; Data sizes:     COMRAM   BANK0   BANK1   BANK2   BANK3   BANK4   BANK5   BANK6   BANK7   BANK8   BANK9  BANK10  BANK1
      +1  BANK12  BANK13  BANK14
  1394 ;;      Params:         2       0       0       0       0       0       0       0       0       0       0       0       
      +0       0       0       0
  1395 ;;      Locals:         1       0       0       0       0       0       0       0       0       0       0       0       
      +0       0       0       0
  1396 ;;      Temps:          0       0       0       0       0       0       0       0       0       0       0       0       
      +0       0       0       0
  1397 ;;      Totals:         3       0       0       0       0       0       0       0       0       0       0       0       
      +0       0       0       0
  1398 ;;Total ram usage:        3 bytes
  1399 ;; Hardware stack levels used: 1
  1400 ;; Hardware stack levels required when called: 12
  1401 ;; This function calls:
  1402 ;;		_I2C1_Close
  1403 ;;		_I2C1_MasterWrite
  1404 ;;		_I2C1_Open
  1405 ;;		_I2C1_SetAddressNackCallback
  1406 ;;		_I2C1_SetBuffer
  1407 ;;		_I2C1_SetDataCompleteCallback
  1408 ;; This function is called by:
  1409 ;;		_main
  1410 ;; This function uses a non-reentrant model
  1411 ;;
  1412                           
  1413                           	psect	text16
  1414  00120E                     __ptext16:
  1415                           	callstack 0
  1416  00120E                     _I2C1_Write1ByteRegister:
  1417                           	callstack 18
  1418                           
  1419                           ; BSR set to: 15
  1420                           ;incstack = 0
  1421                           ;I2C1_Write1ByteRegister@address stored from wreg
  1422  00120E  6E37               	movwf	I2C1_Write1ByteRegister@address^0,c
  1423  001210                     l2649:
  1424  001210  5037               	movf	I2C1_Write1ByteRegister@address^0,w,c
  1425  001212  EC46  F008         	call	_I2C1_Open
  1426  001216  0900               	iorlw	0
  1427  001218  B4D8               	btfsc	status,2,c
  1428  00121A  EF11  F009         	goto	u721
  1429  00121E  EF13  F009         	goto	u720
  1430  001222                     u721:
  1431  001222  EF08  F009         	goto	l2649
  1432  001226                     u720:
  1433  001226                     
  1434                           ;mcc_generated_files/examples/i2c1_master_example.c: 94:     I2C1_SetDataCompleteCallbac
      +                          k(wr1RegCompleteHandler,&data);
  1435  001226  0E4E               	movlw	low _wr1RegCompleteHandler
  1436  001228  6E31               	movwf	I2C1_SetDataCompleteCallback@cb^0,c
  1437  00122A  0E15               	movlw	high _wr1RegCompleteHandler
  1438  00122C  6E32               	movwf	(I2C1_SetDataCompleteCallback@cb+1)^0,c
  1439  00122E  0E36               	movlw	low I2C1_Write1ByteRegister@data
  1440  001230  6E33               	movwf	I2C1_SetDataCompleteCallback@ptr^0,c
  1441  001232  0E00               	movlw	high I2C1_Write1ByteRegister@data
  1442  001234  6E34               	movwf	(I2C1_SetDataCompleteCallback@ptr+1)^0,c
  1443  001236  EC7D  F00B         	call	_I2C1_SetDataCompleteCallback	;wreg free
  1444  00123A                     
  1445                           ;mcc_generated_files/examples/i2c1_master_example.c: 95:     I2C1_SetBuffer(&reg,1);
  1446  00123A  0E35               	movlw	low I2C1_Write1ByteRegister@reg
  1447  00123C  6E2C               	movwf	I2C1_SetBuffer@buffer^0,c
  1448  00123E  0E00               	movlw	high I2C1_Write1ByteRegister@reg
  1449  001240  6E2D               	movwf	(I2C1_SetBuffer@buffer+1)^0,c
  1450  001242  0E00               	movlw	0
  1451  001244  6E2F               	movwf	(I2C1_SetBuffer@bufferSize+1)^0,c
  1452  001246  0E01               	movlw	1
  1453  001248  6E2E               	movwf	I2C1_SetBuffer@bufferSize^0,c
  1454  00124A  EC36  F00B         	call	_I2C1_SetBuffer	;wreg free
  1455  00124E                     
  1456                           ;mcc_generated_files/examples/i2c1_master_example.c: 96:     I2C1_SetAddressNackCallback
      +                          (((void*)0),((void*)0));
  1457  00124E  0E00               	movlw	0
  1458  001250  6E31               	movwf	I2C1_SetAddressNackCallback@cb^0,c
  1459  001252  0E00               	movlw	0
  1460  001254  6E32               	movwf	(I2C1_SetAddressNackCallback@cb+1)^0,c
  1461  001256  0E00               	movlw	0
  1462  001258  6E33               	movwf	I2C1_SetAddressNackCallback@ptr^0,c
  1463  00125A  0E00               	movlw	0
  1464  00125C  6E34               	movwf	(I2C1_SetAddressNackCallback@ptr+1)^0,c
  1465  00125E  EC71  F00B         	call	_I2C1_SetAddressNackCallback	;wreg free
  1466  001262                     
  1467                           ;mcc_generated_files/examples/i2c1_master_example.c: 97:     I2C1_MasterWrite();
  1468  001262  ECF3  F00B         	call	_I2C1_MasterWrite	;wreg free
  1469  001266                     l2659:
  1470  001266  ECFF  F00A         	call	_I2C1_Close	;wreg free
  1471  00126A  06E8               	decf	wreg,f,c
  1472  00126C  B4D8               	btfsc	status,2,c
  1473  00126E  EF3B  F009         	goto	u731
  1474  001272  EF3D  F009         	goto	u730
  1475  001276                     u731:
  1476  001276  EF33  F009         	goto	l2659
  1477  00127A                     u730:
  1478  00127A  0012               	return		;funcret
  1479  00127C                     __end_of_I2C1_Write1ByteRegister:
  1480                           	callstack 0
  1481                           
  1482 ;; *************** function _I2C1_SetAddressNackCallback *****************
  1483 ;; Defined at:
  1484 ;;		line 283 in file "mcc_generated_files/i2c1_master.c"
  1485 ;; Parameters:    Size  Location     Type
  1486 ;;  cb              2    7[COMRAM] PTR FTN(PTR void ,)enum 
  1487 ;;		 -> Absolute function(1), 
  1488 ;;  ptr             2    9[COMRAM] PTR void 
  1489 ;;		 -> NULL(0), 
  1490 ;; Auto vars:     Size  Location     Type
  1491 ;;		None
  1492 ;; Return value:  Size  Location     Type
  1493 ;;                  1    wreg      void 
  1494 ;; Registers used:
  1495 ;;		wreg, fsr2l, fsr2h, status,2, status,0, prodl, prodh, cstack
  1496 ;; Tracked objects:
  1497 ;;		On entry : 0/0
  1498 ;;		On exit  : 0/0
  1499 ;;		Unchanged: 0/0
  1500 ;; Data sizes:     COMRAM   BANK0   BANK1   BANK2   BANK3   BANK4   BANK5   BANK6   BANK7   BANK8   BANK9  BANK10  BANK1
      +1  BANK12  BANK13  BANK14
  1501 ;;      Params:         4       0       0       0       0       0       0       0       0       0       0       0       
      +0       0       0       0
  1502 ;;      Locals:         0       0       0       0       0       0       0       0       0       0       0       0       
      +0       0       0       0
  1503 ;;      Temps:          0       0       0       0       0       0       0       0       0       0       0       0       
      +0       0       0       0
  1504 ;;      Totals:         4       0       0       0       0       0       0       0       0       0       0       0       
      +0       0       0       0
  1505 ;;Total ram usage:        4 bytes
  1506 ;; Hardware stack levels used: 1
  1507 ;; Hardware stack levels required when called: 5
  1508 ;; This function calls:
  1509 ;;		_I2C1_SetCallback
  1510 ;; This function is called by:
  1511 ;;		_I2C1_Write1ByteRegister
  1512 ;;		_I2C1_Read1ByteRegister
  1513 ;;		_I2C1_Read2ByteRegister
  1514 ;;		_I2C1_Write2ByteRegister
  1515 ;;		_I2C1_WriteNBytes
  1516 ;;		_I2C1_ReadDataBlock
  1517 ;; This function uses a non-reentrant model
  1518 ;;
  1519                           
  1520                           	psect	text17
  1521  0016E2                     __ptext17:
  1522                           	callstack 0
  1523  0016E2                     _I2C1_SetAddressNackCallback:
  1524                           	callstack 24
  1525  0016E2                     
  1526                           ;mcc_generated_files/i2c1_master.c: 283: void I2C1_SetAddressNackCallback(i2c1_callback_
      +                          t cb, void *ptr);mcc_generated_files/i2c1_master.c: 284: {;mcc_generated_files/i2c1_mast
      +                          er.c: 285:     I2C1_SetCallback(I2C1_ADDR_NACK, cb, ptr);
  1527  0016E2  C031  F02C         	movff	I2C1_SetAddressNackCallback@cb,I2C1_SetCallback@cb
  1528  0016E6  C032  F02D         	movff	I2C1_SetAddressNackCallback@cb+1,I2C1_SetCallback@cb+1
  1529  0016EA  C033  F02E         	movff	I2C1_SetAddressNackCallback@ptr,I2C1_SetCallback@ptr
  1530  0016EE  C034  F02F         	movff	I2C1_SetAddressNackCallback@ptr+1,I2C1_SetCallback@ptr+1
  1531  0016F2  0E02               	movlw	2
  1532  0016F4  ECCA  F008         	call	_I2C1_SetCallback
  1533  0016F8  0012               	return		;funcret
  1534  0016FA                     __end_of_I2C1_SetAddressNackCallback:
  1535                           	callstack 0
  1536                           
  1537 ;; *************** function _I2C1_Open *****************
  1538 ;; Defined at:
  1539 ;;		line 176 in file "mcc_generated_files/i2c1_master.c"
  1540 ;; Parameters:    Size  Location     Type
  1541 ;;  address         1    wreg     unsigned char 
  1542 ;; Auto vars:     Size  Location     Type
  1543 ;;  address         1    2[COMRAM] unsigned char 
  1544 ;;  returnValue     1    3[COMRAM] enum E355
  1545 ;; Return value:  Size  Location     Type
  1546 ;;                  1    wreg      enum E6580
  1547 ;; Registers used:
  1548 ;;		wreg, status,2, status,0, cstack
  1549 ;; Tracked objects:
  1550 ;;		On entry : 0/0
  1551 ;;		On exit  : 0/0
  1552 ;;		Unchanged: 0/0
  1553 ;; Data sizes:     COMRAM   BANK0   BANK1   BANK2   BANK3   BANK4   BANK5   BANK6   BANK7   BANK8   BANK9  BANK10  BANK1
      +1  BANK12  BANK13  BANK14
  1554 ;;      Params:         0       0       0       0       0       0       0       0       0       0       0       0       
      +0       0       0       0
  1555 ;;      Locals:         2       0       0       0       0       0       0       0       0       0       0       0       
      +0       0       0       0
  1556 ;;      Temps:          0       0       0       0       0       0       0       0       0       0       0       0       
      +0       0       0       0
  1557 ;;      Totals:         2       0       0       0       0       0       0       0       0       0       0       0       
      +0       0       0       0
  1558 ;;Total ram usage:        2 bytes
  1559 ;; Hardware stack levels used: 1
  1560 ;; Hardware stack levels required when called: 5
  1561 ;; This function calls:
  1562 ;;		_I2C1_MasterClearIrq
  1563 ;;		_I2C1_MasterOpen
  1564 ;; This function is called by:
  1565 ;;		_main
  1566 ;;		_I2C1_Write1ByteRegister
  1567 ;;		_I2C1_Read1ByteRegister
  1568 ;;		_I2C1_Read2ByteRegister
  1569 ;;		_I2C1_Write2ByteRegister
  1570 ;;		_I2C1_WriteNBytes
  1571 ;;		_I2C1_ReadNBytes
  1572 ;;		_I2C1_ReadDataBlock
  1573 ;; This function uses a non-reentrant model
  1574 ;;
  1575                           
  1576                           	psect	text18
  1577  00108C                     __ptext18:
  1578                           	callstack 0
  1579  00108C                     _I2C1_Open:
  1580                           	callstack 24
  1581                           
  1582                           ;incstack = 0
  1583                           ;I2C1_Open@address stored from wreg
  1584  00108C  6E2C               	movwf	I2C1_Open@address^0,c
  1585  00108E                     
  1586                           ;mcc_generated_files/i2c1_master.c: 176: i2c1_error_t I2C1_Open(i2c1_address_t address);
      +                          mcc_generated_files/i2c1_master.c: 177: {;mcc_generated_files/i2c1_master.c: 178:     i2
      +                          c1_error_t returnValue = I2C1_BUSY;
  1587  00108E  0E01               	movlw	1
  1588  001090  6E2D               	movwf	I2C1_Open@returnValue^0,c
  1589  001092                     
  1590                           ;mcc_generated_files/i2c1_master.c: 180:     if(!I2C1_Status.inUse)
  1591  001092  B424               	btfsc	(_I2C1_Status+35)^0,2,c
  1592  001094  EF4E  F008         	goto	u711
  1593  001098  EF50  F008         	goto	u710
  1594  00109C                     u711:
  1595  00109C  EF8A  F008         	goto	l2621
  1596  0010A0                     u710:
  1597  0010A0                     
  1598                           ;mcc_generated_files/i2c1_master.c: 181:     {;mcc_generated_files/i2c1_master.c: 182:  
      +                                 I2C1_Status.address = address;
  1599  0010A0  C02C  F01D         	movff	I2C1_Open@address,_I2C1_Status+28
  1600  0010A4                     
  1601                           ;mcc_generated_files/i2c1_master.c: 183:         I2C1_Status.busy = 0;
  1602  0010A4  9224               	bcf	(_I2C1_Status+35)^0,1,c
  1603  0010A6                     
  1604                           ;mcc_generated_files/i2c1_master.c: 184:         I2C1_Status.inUse = 1;
  1605  0010A6  8424               	bsf	(_I2C1_Status+35)^0,2,c
  1606  0010A8                     
  1607                           ;mcc_generated_files/i2c1_master.c: 185:         I2C1_Status.addressNackCheck = 0;
  1608  0010A8  9024               	bcf	(_I2C1_Status+35)^0,0,c
  1609  0010AA                     
  1610                           ;mcc_generated_files/i2c1_master.c: 186:         I2C1_Status.state = I2C1_RESET;
  1611  0010AA  0E0E               	movlw	14
  1612  0010AC  6E22               	movwf	(_I2C1_Status+33)^0,c
  1613  0010AE                     
  1614                           ;mcc_generated_files/i2c1_master.c: 187:         I2C1_Status.time_out_value = 500;
  1615  0010AE  0E01               	movlw	1
  1616  0010B0  6E1C               	movwf	(_I2C1_Status+27)^0,c
  1617  0010B2  0EF4               	movlw	244
  1618  0010B4  6E1B               	movwf	(_I2C1_Status+26)^0,c
  1619  0010B6                     
  1620                           ;mcc_generated_files/i2c1_master.c: 188:         I2C1_Status.bufferFree = 1;
  1621  0010B6  8624               	bsf	(_I2C1_Status+35)^0,3,c
  1622  0010B8                     
  1623                           ;mcc_generated_files/i2c1_master.c: 191:         I2C1_Status.callbackTable[I2C1_DATA_COM
      +                          PLETE]=I2C1_CallbackReturnStop;
  1624  0010B8  0E66               	movlw	low _I2C1_CallbackReturnStop
  1625  0010BA  6E01               	movwf	_I2C1_Status^0,c
  1626  0010BC  0E18               	movlw	high _I2C1_CallbackReturnStop
  1627  0010BE  6E02               	movwf	(_I2C1_Status+1)^0,c
  1628  0010C0                     
  1629                           ;mcc_generated_files/i2c1_master.c: 192:         I2C1_Status.callbackPayload[I2C1_DATA_C
      +                          OMPLETE] = ((void*)0);
  1630  0010C0  0E00               	movlw	0
  1631  0010C2  6E0D               	movwf	(_I2C1_Status+12)^0,c
  1632  0010C4  0E00               	movlw	0
  1633  0010C6  6E0E               	movwf	(_I2C1_Status+13)^0,c
  1634  0010C8                     
  1635                           ;mcc_generated_files/i2c1_master.c: 193:         I2C1_Status.callbackTable[I2C1_WRITE_CO
      +                          LLISION]=I2C1_CallbackReturnStop;
  1636  0010C8  0E66               	movlw	low _I2C1_CallbackReturnStop
  1637  0010CA  6E03               	movwf	(_I2C1_Status+2)^0,c
  1638  0010CC  0E18               	movlw	high _I2C1_CallbackReturnStop
  1639  0010CE  6E04               	movwf	(_I2C1_Status+3)^0,c
  1640  0010D0                     
  1641                           ;mcc_generated_files/i2c1_master.c: 194:         I2C1_Status.callbackPayload[I2C1_WRITE_
      +                          COLLISION] = ((void*)0);
  1642  0010D0  0E00               	movlw	0
  1643  0010D2  6E0F               	movwf	(_I2C1_Status+14)^0,c
  1644  0010D4  0E00               	movlw	0
  1645  0010D6  6E10               	movwf	(_I2C1_Status+15)^0,c
  1646  0010D8                     
  1647                           ;mcc_generated_files/i2c1_master.c: 195:         I2C1_Status.callbackTable[I2C1_ADDR_NAC
      +                          K]=I2C1_CallbackReturnStop;
  1648  0010D8  0E66               	movlw	low _I2C1_CallbackReturnStop
  1649  0010DA  6E05               	movwf	(_I2C1_Status+4)^0,c
  1650  0010DC  0E18               	movlw	high _I2C1_CallbackReturnStop
  1651  0010DE  6E06               	movwf	(_I2C1_Status+5)^0,c
  1652  0010E0                     
  1653                           ;mcc_generated_files/i2c1_master.c: 196:         I2C1_Status.callbackPayload[I2C1_ADDR_N
      +                          ACK] = ((void*)0);
  1654  0010E0  0E00               	movlw	0
  1655  0010E2  6E11               	movwf	(_I2C1_Status+16)^0,c
  1656  0010E4  0E00               	movlw	0
  1657  0010E6  6E12               	movwf	(_I2C1_Status+17)^0,c
  1658  0010E8                     
  1659                           ;mcc_generated_files/i2c1_master.c: 197:         I2C1_Status.callbackTable[I2C1_DATA_NAC
      +                          K]=I2C1_CallbackReturnStop;
  1660  0010E8  0E66               	movlw	low _I2C1_CallbackReturnStop
  1661  0010EA  6E07               	movwf	(_I2C1_Status+6)^0,c
  1662  0010EC  0E18               	movlw	high _I2C1_CallbackReturnStop
  1663  0010EE  6E08               	movwf	(_I2C1_Status+7)^0,c
  1664  0010F0                     
  1665                           ;mcc_generated_files/i2c1_master.c: 198:         I2C1_Status.callbackPayload[I2C1_DATA_N
      +                          ACK] = ((void*)0);
  1666  0010F0  0E00               	movlw	0
  1667  0010F2  6E13               	movwf	(_I2C1_Status+18)^0,c
  1668  0010F4  0E00               	movlw	0
  1669  0010F6  6E14               	movwf	(_I2C1_Status+19)^0,c
  1670  0010F8                     
  1671                           ;mcc_generated_files/i2c1_master.c: 199:         I2C1_Status.callbackTable[I2C1_TIMEOUT]
      +                          =I2C1_CallbackReturnReset;
  1672  0010F8  0E62               	movlw	low _I2C1_CallbackReturnReset
  1673  0010FA  6E09               	movwf	(_I2C1_Status+8)^0,c
  1674  0010FC  0E18               	movlw	high _I2C1_CallbackReturnReset
  1675  0010FE  6E0A               	movwf	(_I2C1_Status+9)^0,c
  1676  001100                     
  1677                           ;mcc_generated_files/i2c1_master.c: 200:         I2C1_Status.callbackPayload[I2C1_TIMEOU
      +                          T] = ((void*)0);
  1678  001100  0E00               	movlw	0
  1679  001102  6E15               	movwf	(_I2C1_Status+20)^0,c
  1680  001104  0E00               	movlw	0
  1681  001106  6E16               	movwf	(_I2C1_Status+21)^0,c
  1682  001108                     
  1683                           ;mcc_generated_files/i2c1_master.c: 202:         I2C1_MasterClearIrq();
  1684  001108  EC3F  F00C         	call	_I2C1_MasterClearIrq	;wreg free
  1685  00110C                     
  1686                           ;mcc_generated_files/i2c1_master.c: 203:         I2C1_MasterOpen();
  1687  00110C  EC25  F00B         	call	_I2C1_MasterOpen	;wreg free
  1688  001110                     
  1689                           ;mcc_generated_files/i2c1_master.c: 204:         returnValue = I2C1_NOERR;
  1690  001110  0E00               	movlw	0
  1691  001112  6E2D               	movwf	I2C1_Open@returnValue^0,c
  1692  001114                     l2621:
  1693                           
  1694                           ;mcc_generated_files/i2c1_master.c: 206:     return returnValue;
  1695  001114  502D               	movf	I2C1_Open@returnValue^0,w,c
  1696  001116  0012               	return		;funcret
  1697  001118                     __end_of_I2C1_Open:
  1698                           	callstack 0
  1699                           
  1700 ;; *************** function _I2C1_MasterOpen *****************
  1701 ;; Defined at:
  1702 ;;		line 543 in file "mcc_generated_files/i2c1_master.c"
  1703 ;; Parameters:    Size  Location     Type
  1704 ;;		None
  1705 ;; Auto vars:     Size  Location     Type
  1706 ;;		None
  1707 ;; Return value:  Size  Location     Type
  1708 ;;                  1    wreg      _Bool 
  1709 ;; Registers used:
  1710 ;;		wreg, status,2
  1711 ;; Tracked objects:
  1712 ;;		On entry : 0/0
  1713 ;;		On exit  : 0/0
  1714 ;;		Unchanged: 0/0
  1715 ;; Data sizes:     COMRAM   BANK0   BANK1   BANK2   BANK3   BANK4   BANK5   BANK6   BANK7   BANK8   BANK9  BANK10  BANK1
      +1  BANK12  BANK13  BANK14
  1716 ;;      Params:         0       0       0       0       0       0       0       0       0       0       0       0       
      +0       0       0       0
  1717 ;;      Locals:         0       0       0       0       0       0       0       0       0       0       0       0       
      +0       0       0       0
  1718 ;;      Temps:          0       0       0       0       0       0       0       0       0       0       0       0       
      +0       0       0       0
  1719 ;;      Totals:         0       0       0       0       0       0       0       0       0       0       0       0       
      +0       0       0       0
  1720 ;;Total ram usage:        0 bytes
  1721 ;; Hardware stack levels used: 1
  1722 ;; Hardware stack levels required when called: 4
  1723 ;; This function calls:
  1724 ;;		Nothing
  1725 ;; This function is called by:
  1726 ;;		_I2C1_Open
  1727 ;; This function uses a non-reentrant model
  1728 ;;
  1729                           
  1730                           	psect	text19
  1731  00164A                     __ptext19:
  1732                           	callstack 0
  1733  00164A                     _I2C1_MasterOpen:
  1734                           	callstack 24
  1735  00164A                     
  1736                           ;mcc_generated_files/i2c1_master.c: 545:     if(!SSP1CON1bits.SSPEN)
  1737  00164A  BAC6               	btfsc	198,5,c	;volatile
  1738  00164C  EF2A  F00B         	goto	u161
  1739  001650  EF2C  F00B         	goto	u160
  1740  001654                     u161:
  1741  001654  EF35  F00B         	goto	l632
  1742  001658                     u160:
  1743  001658                     
  1744                           ;mcc_generated_files/i2c1_master.c: 546:     {;mcc_generated_files/i2c1_master.c: 547:  
      +                                 SSP1STAT = 0x00;
  1745  001658  0E00               	movlw	0
  1746  00165A  6EC7               	movwf	199,c	;volatile
  1747                           
  1748                           ;mcc_generated_files/i2c1_master.c: 548:         SSP1CON1 = 0x08;
  1749  00165C  0E08               	movlw	8
  1750  00165E  6EC6               	movwf	198,c	;volatile
  1751                           
  1752                           ;mcc_generated_files/i2c1_master.c: 549:         SSP1CON2 = 0x00;
  1753  001660  0E00               	movlw	0
  1754  001662  6EC5               	movwf	197,c	;volatile
  1755                           
  1756                           ;mcc_generated_files/i2c1_master.c: 550:         SSP1ADD = 0x03;
  1757  001664  0E03               	movlw	3
  1758  001666  6EC8               	movwf	200,c	;volatile
  1759  001668                     
  1760                           ;mcc_generated_files/i2c1_master.c: 551:         SSP1CON1bits.SSPEN = 1;
  1761  001668  8AC6               	bsf	198,5,c	;volatile
  1762  00166A                     l632:
  1763  00166A  0012               	return		;funcret
  1764  00166C                     __end_of_I2C1_MasterOpen:
  1765                           	callstack 0
  1766                           
  1767 ;; *************** function _I2C1_MasterWrite *****************
  1768 ;; Defined at:
  1769 ;;		line 251 in file "mcc_generated_files/i2c1_master.c"
  1770 ;; Parameters:    Size  Location     Type
  1771 ;;		None
  1772 ;; Auto vars:     Size  Location     Type
  1773 ;;		None
  1774 ;; Return value:  Size  Location     Type
  1775 ;;                  1    wreg      enum E355
  1776 ;; Registers used:
  1777 ;;		wreg, fsr2l, fsr2h, status,2, status,0, pcl, pclath, pclatu, tosl, tblptrl, tblptrh, tblptru, prodl, prodh, cstack
  1778 ;; Tracked objects:
  1779 ;;		On entry : 0/0
  1780 ;;		On exit  : 0/0
  1781 ;;		Unchanged: 0/0
  1782 ;; Data sizes:     COMRAM   BANK0   BANK1   BANK2   BANK3   BANK4   BANK5   BANK6   BANK7   BANK8   BANK9  BANK10  BANK1
      +1  BANK12  BANK13  BANK14
  1783 ;;      Params:         0       0       0       0       0       0       0       0       0       0       0       0       
      +0       0       0       0
  1784 ;;      Locals:         0       0       0       0       0       0       0       0       0       0       0       0       
      +0       0       0       0
  1785 ;;      Temps:          0       0       0       0       0       0       0       0       0       0       0       0       
      +0       0       0       0
  1786 ;;      Totals:         0       0       0       0       0       0       0       0       0       0       0       0       
      +0       0       0       0
  1787 ;;Total ram usage:        0 bytes
  1788 ;; Hardware stack levels used: 1
  1789 ;; Hardware stack levels required when called: 11
  1790 ;; This function calls:
  1791 ;;		_I2C1_MasterOperation
  1792 ;; This function is called by:
  1793 ;;		_I2C1_Write1ByteRegister
  1794 ;;		_I2C1_Read1ByteRegister
  1795 ;;		_I2C1_Read2ByteRegister
  1796 ;;		_I2C1_Write2ByteRegister
  1797 ;;		_I2C1_WriteNBytes
  1798 ;;		_I2C1_ReadDataBlock
  1799 ;; This function uses a non-reentrant model
  1800 ;;
  1801                           
  1802                           	psect	text20
  1803  0017E6                     __ptext20:
  1804                           	callstack 0
  1805  0017E6                     _I2C1_MasterWrite:
  1806                           	callstack 18
  1807  0017E6                     
  1808                           ;mcc_generated_files/i2c1_master.c: 253:     return I2C1_MasterOperation(0);;	Return val
      +                          ue of _I2C1_MasterWrite is never used
  1809  0017E6  0E00               	movlw	0
  1810  0017E8  ECC9  F009         	call	_I2C1_MasterOperation
  1811  0017EC  0012               	return		;funcret
  1812  0017EE                     __end_of_I2C1_MasterWrite:
  1813                           	callstack 0
  1814                           
  1815 ;; *************** function _I2C1_MasterOperation *****************
  1816 ;; Defined at:
  1817 ;;		line 224 in file "mcc_generated_files/i2c1_master.c"
  1818 ;; Parameters:    Size  Location     Type
  1819 ;;  read            1    wreg     _Bool 
  1820 ;; Auto vars:     Size  Location     Type
  1821 ;;  read            1    5[COMRAM] _Bool 
  1822 ;;  returnValue     1    6[COMRAM] enum E355
  1823 ;; Return value:  Size  Location     Type
  1824 ;;                  1    wreg      enum E355
  1825 ;; Registers used:
  1826 ;;		wreg, fsr2l, fsr2h, status,2, status,0, pcl, pclath, pclatu, tosl, tblptrl, tblptrh, tblptru, prodl, prodh, cstack
  1827 ;; Tracked objects:
  1828 ;;		On entry : 0/0
  1829 ;;		On exit  : 0/0
  1830 ;;		Unchanged: 0/0
  1831 ;; Data sizes:     COMRAM   BANK0   BANK1   BANK2   BANK3   BANK4   BANK5   BANK6   BANK7   BANK8   BANK9  BANK10  BANK1
      +1  BANK12  BANK13  BANK14
  1832 ;;      Params:         0       0       0       0       0       0       0       0       0       0       0       0       
      +0       0       0       0
  1833 ;;      Locals:         2       0       0       0       0       0       0       0       0       0       0       0       
      +0       0       0       0
  1834 ;;      Temps:          0       0       0       0       0       0       0       0       0       0       0       0       
      +0       0       0       0
  1835 ;;      Totals:         2       0       0       0       0       0       0       0       0       0       0       0       
      +0       0       0       0
  1836 ;;Total ram usage:        2 bytes
  1837 ;; Hardware stack levels used: 1
  1838 ;; Hardware stack levels required when called: 10
  1839 ;; This function calls:
  1840 ;;		_I2C1_MasterStart
  1841 ;;		_I2C1_Poller
  1842 ;; This function is called by:
  1843 ;;		_I2C1_MasterWrite
  1844 ;;		_I2C1_MasterRead
  1845 ;; This function uses a non-reentrant model
  1846 ;;
  1847                           
  1848                           	psect	text21
  1849  001392                     __ptext21:
  1850                           	callstack 0
  1851  001392                     _I2C1_MasterOperation:
  1852                           	callstack 18
  1853                           
  1854                           ;incstack = 0
  1855                           ;I2C1_MasterOperation@read stored from wreg
  1856  001392  6E2F               	movwf	I2C1_MasterOperation@read^0,c
  1857  001394                     
  1858                           ;mcc_generated_files/i2c1_master.c: 224: i2c1_error_t I2C1_MasterOperation(_Bool read);m
      +                          cc_generated_files/i2c1_master.c: 225: {;mcc_generated_files/i2c1_master.c: 226:     i2c
      +                          1_error_t returnValue = I2C1_BUSY;
  1859  001394  0E01               	movlw	1
  1860  001396  6E30               	movwf	I2C1_MasterOperation@returnValue^0,c
  1861  001398                     
  1862                           ;mcc_generated_files/i2c1_master.c: 227:     if(!I2C1_Status.busy)
  1863  001398  B224               	btfsc	(_I2C1_Status+35)^0,1,c
  1864  00139A  EFD1  F009         	goto	u691
  1865  00139E  EFD3  F009         	goto	u690
  1866  0013A2                     u691:
  1867  0013A2  EFE8  F009         	goto	l2545
  1868  0013A6                     u690:
  1869  0013A6                     
  1870                           ;mcc_generated_files/i2c1_master.c: 228:     {;mcc_generated_files/i2c1_master.c: 229:  
      +                                 I2C1_Status.busy = 1;
  1871  0013A6  8224               	bsf	(_I2C1_Status+35)^0,1,c
  1872  0013A8                     
  1873                           ;mcc_generated_files/i2c1_master.c: 230:         returnValue = I2C1_NOERR;
  1874  0013A8  0E00               	movlw	0
  1875  0013AA  6E30               	movwf	I2C1_MasterOperation@returnValue^0,c
  1876  0013AC                     
  1877                           ;mcc_generated_files/i2c1_master.c: 232:         if(read)
  1878  0013AC  502F               	movf	I2C1_MasterOperation@read^0,w,c
  1879  0013AE  B4D8               	btfsc	status,2,c
  1880  0013B0  EFDC  F009         	goto	u701
  1881  0013B4  EFDE  F009         	goto	u700
  1882  0013B8                     u701:
  1883  0013B8  EFE2  F009         	goto	l2539
  1884  0013BC                     u700:
  1885  0013BC                     
  1886                           ;mcc_generated_files/i2c1_master.c: 233:         {;mcc_generated_files/i2c1_master.c: 23
      +                          4:             I2C1_Status.state = I2C1_SEND_ADR_READ;
  1887  0013BC  0E01               	movlw	1
  1888  0013BE  6E22               	movwf	(_I2C1_Status+33)^0,c
  1889                           
  1890                           ;mcc_generated_files/i2c1_master.c: 235:         }
  1891  0013C0  EFE4  F009         	goto	l2541
  1892  0013C4                     l2539:
  1893                           
  1894                           ;mcc_generated_files/i2c1_master.c: 237:         {;mcc_generated_files/i2c1_master.c: 23
      +                          8:             I2C1_Status.state = I2C1_SEND_ADR_WRITE;
  1895  0013C4  0E02               	movlw	2
  1896  0013C6  6E22               	movwf	(_I2C1_Status+33)^0,c
  1897  0013C8                     l2541:
  1898                           
  1899                           ;mcc_generated_files/i2c1_master.c: 240:         I2C1_MasterStart();
  1900  0013C8  EC39  F00C         	call	_I2C1_MasterStart	;wreg free
  1901  0013CC                     
  1902                           ;mcc_generated_files/i2c1_master.c: 241:         I2C1_Poller();
  1903  0013CC  EC56  F00B         	call	_I2C1_Poller	;wreg free
  1904  0013D0                     l2545:
  1905                           
  1906                           ;mcc_generated_files/i2c1_master.c: 243:     return returnValue;
  1907  0013D0  5030               	movf	I2C1_MasterOperation@returnValue^0,w,c
  1908  0013D2  0012               	return		;funcret
  1909  0013D4                     __end_of_I2C1_MasterOperation:
  1910                           	callstack 0
  1911                           
  1912 ;; *************** function _I2C1_Poller *****************
  1913 ;; Defined at:
  1914 ;;		line 312 in file "mcc_generated_files/i2c1_master.c"
  1915 ;; Parameters:    Size  Location     Type
  1916 ;;		None
  1917 ;; Auto vars:     Size  Location     Type
  1918 ;;		None
  1919 ;; Return value:  Size  Location     Type
  1920 ;;                  1    wreg      void 
  1921 ;; Registers used:
  1922 ;;		wreg, fsr2l, fsr2h, status,2, status,0, pcl, pclath, pclatu, tosl, tblptrl, tblptrh, tblptru, prodl, prodh, cstack
  1923 ;; Tracked objects:
  1924 ;;		On entry : 0/0
  1925 ;;		On exit  : 0/0
  1926 ;;		Unchanged: 0/0
  1927 ;; Data sizes:     COMRAM   BANK0   BANK1   BANK2   BANK3   BANK4   BANK5   BANK6   BANK7   BANK8   BANK9  BANK10  BANK1
      +1  BANK12  BANK13  BANK14
  1928 ;;      Params:         0       0       0       0       0       0       0       0       0       0       0       0       
      +0       0       0       0
  1929 ;;      Locals:         0       0       0       0       0       0       0       0       0       0       0       0       
      +0       0       0       0
  1930 ;;      Temps:          0       0       0       0       0       0       0       0       0       0       0       0       
      +0       0       0       0
  1931 ;;      Totals:         0       0       0       0       0       0       0       0       0       0       0       0       
      +0       0       0       0
  1932 ;;Total ram usage:        0 bytes
  1933 ;; Hardware stack levels used: 1
  1934 ;; Hardware stack levels required when called: 9
  1935 ;; This function calls:
  1936 ;;		_I2C1_MasterFsm
  1937 ;;		_I2C1_MasterWaitForEvent
  1938 ;; This function is called by:
  1939 ;;		_I2C1_MasterOperation
  1940 ;; This function uses a non-reentrant model
  1941 ;;
  1942                           
  1943                           	psect	text22
  1944  0016AC                     __ptext22:
  1945                           	callstack 0
  1946  0016AC                     _I2C1_Poller:
  1947                           	callstack 18
  1948  0016AC                     
  1949                           ;mcc_generated_files/i2c1_master.c: 314:     while(I2C1_Status.busy)
  1950  0016AC  EF5C  F00B         	goto	l2513
  1951  0016B0                     l2509:
  1952                           
  1953                           ;mcc_generated_files/i2c1_master.c: 315:     {;mcc_generated_files/i2c1_master.c: 316:  
      +                                 I2C1_MasterWaitForEvent();
  1954  0016B0  ECB0  F00B         	call	_I2C1_MasterWaitForEvent	;wreg free
  1955  0016B4                     
  1956                           ;mcc_generated_files/i2c1_master.c: 317:         I2C1_MasterFsm();
  1957  0016B4  EC73  F009         	call	_I2C1_MasterFsm	;wreg free
  1958  0016B8                     l2513:
  1959                           
  1960                           ;mcc_generated_files/i2c1_master.c: 314:     while(I2C1_Status.busy)
  1961  0016B8  B224               	btfsc	(_I2C1_Status+35)^0,1,c
  1962  0016BA  EF61  F00B         	goto	u681
  1963  0016BE  EF63  F00B         	goto	u680
  1964  0016C2                     u681:
  1965  0016C2  EF58  F00B         	goto	l2509
  1966  0016C6                     u680:
  1967  0016C6  0012               	return		;funcret
  1968  0016C8                     __end_of_I2C1_Poller:
  1969                           	callstack 0
  1970                           
  1971 ;; *************** function _I2C1_MasterWaitForEvent *****************
  1972 ;; Defined at:
  1973 ;;		line 650 in file "mcc_generated_files/i2c1_master.c"
  1974 ;; Parameters:    Size  Location     Type
  1975 ;;		None
  1976 ;; Auto vars:     Size  Location     Type
  1977 ;;		None
  1978 ;; Return value:  Size  Location     Type
  1979 ;;                  1    wreg      void 
  1980 ;; Registers used:
  1981 ;;		None
  1982 ;; Tracked objects:
  1983 ;;		On entry : 0/0
  1984 ;;		On exit  : 0/0
  1985 ;;		Unchanged: 0/0
  1986 ;; Data sizes:     COMRAM   BANK0   BANK1   BANK2   BANK3   BANK4   BANK5   BANK6   BANK7   BANK8   BANK9  BANK10  BANK1
      +1  BANK12  BANK13  BANK14
  1987 ;;      Params:         0       0       0       0       0       0       0       0       0       0       0       0       
      +0       0       0       0
  1988 ;;      Locals:         0       0       0       0       0       0       0       0       0       0       0       0       
      +0       0       0       0
  1989 ;;      Temps:          0       0       0       0       0       0       0       0       0       0       0       0       
      +0       0       0       0
  1990 ;;      Totals:         0       0       0       0       0       0       0       0       0       0       0       0       
      +0       0       0       0
  1991 ;;Total ram usage:        0 bytes
  1992 ;; Hardware stack levels used: 1
  1993 ;; Hardware stack levels required when called: 4
  1994 ;; This function calls:
  1995 ;;		Nothing
  1996 ;; This function is called by:
  1997 ;;		_I2C1_Poller
  1998 ;; This function uses a non-reentrant model
  1999 ;;
  2000                           
  2001                           	psect	text23
  2002  001760                     __ptext23:
  2003                           	callstack 0
  2004  001760                     _I2C1_MasterWaitForEvent:
  2005                           	callstack 22
  2006  001760                     l689:
  2007                           
  2008                           ;mcc_generated_files/i2c1_master.c: 653:     {;mcc_generated_files/i2c1_master.c: 654:  
      +                                 if(PIR1bits.SSP1IF)
  2009  001760  A69E               	btfss	158,3,c	;volatile
  2010  001762  EFB5  F00B         	goto	u111
  2011  001766  EFB7  F00B         	goto	u110
  2012  00176A                     u111:
  2013  00176A  EFB0  F00B         	goto	l689
  2014  00176E                     u110:
  2015  00176E  0012               	return		;funcret
  2016  001770                     __end_of_I2C1_MasterWaitForEvent:
  2017                           	callstack 0
  2018                           
  2019 ;; *************** function _I2C1_MasterFsm *****************
  2020 ;; Defined at:
  2021 ;;		line 321 in file "mcc_generated_files/i2c1_master.c"
  2022 ;; Parameters:    Size  Location     Type
  2023 ;;		None
  2024 ;; Auto vars:     Size  Location     Type
  2025 ;;		None
  2026 ;; Return value:  Size  Location     Type
  2027 ;;                  1    wreg      void 
  2028 ;; Registers used:
  2029 ;;		wreg, fsr2l, fsr2h, status,2, status,0, pcl, pclath, pclatu, tosl, tblptrl, tblptrh, tblptru, prodl, prodh, cstack
  2030 ;; Tracked objects:
  2031 ;;		On entry : 0/0
  2032 ;;		On exit  : 0/0
  2033 ;;		Unchanged: 0/0
  2034 ;; Data sizes:     COMRAM   BANK0   BANK1   BANK2   BANK3   BANK4   BANK5   BANK6   BANK7   BANK8   BANK9  BANK10  BANK1
      +1  BANK12  BANK13  BANK14
  2035 ;;      Params:         0       0       0       0       0       0       0       0       0       0       0       0       
      +0       0       0       0
  2036 ;;      Locals:         0       0       0       0       0       0       0       0       0       0       0       0       
      +0       0       0       0
  2037 ;;      Temps:          0       0       0       0       0       0       0       0       0       0       0       0       
      +0       0       0       0
  2038 ;;      Totals:         0       0       0       0       0       0       0       0       0       0       0       0       
      +0       0       0       0
  2039 ;;Total ram usage:        0 bytes
  2040 ;; Hardware stack levels used: 1
  2041 ;; Hardware stack levels required when called: 8
  2042 ;; This function calls:
  2043 ;;		_I2C1_DO_ADDRESS_NACK
  2044 ;;		_I2C1_DO_IDLE
  2045 ;;		_I2C1_DO_RCEN
  2046 ;;		_I2C1_DO_RESET
  2047 ;;		_I2C1_DO_RX
  2048 ;;		_I2C1_DO_RX_ACK
  2049 ;;		_I2C1_DO_RX_NACK_RESTART
  2050 ;;		_I2C1_DO_RX_NACK_STOP
  2051 ;;		_I2C1_DO_SEND_ADR_READ
  2052 ;;		_I2C1_DO_SEND_ADR_WRITE
  2053 ;;		_I2C1_DO_SEND_RESTART
  2054 ;;		_I2C1_DO_SEND_RESTART_READ
  2055 ;;		_I2C1_DO_SEND_RESTART_WRITE
  2056 ;;		_I2C1_DO_SEND_STOP
  2057 ;;		_I2C1_DO_TX
  2058 ;;		_I2C1_DO_TX_EMPTY
  2059 ;;		_I2C1_MasterClearIrq
  2060 ;;		_I2C1_MasterIsNack
  2061 ;; This function is called by:
  2062 ;;		_I2C1_Poller
  2063 ;; This function uses a non-reentrant model
  2064 ;;
  2065                           
  2066                           	psect	text24
  2067  0012E6                     __ptext24:
  2068                           	callstack 0
  2069  0012E6                     _I2C1_MasterFsm:
  2070                           	callstack 18
  2071  0012E6                     
  2072                           ;mcc_generated_files/i2c1_master.c: 323:     I2C1_MasterClearIrq();
  2073  0012E6  EC3F  F00C         	call	_I2C1_MasterClearIrq	;wreg free
  2074  0012EA                     
  2075                           ;mcc_generated_files/i2c1_master.c: 325:     if(I2C1_Status.addressNackCheck && I2C1_Mas
      +                          terIsNack())
  2076  0012EA  A024               	btfss	(_I2C1_Status+35)^0,0,c
  2077  0012EC  EF7A  F009         	goto	u651
  2078  0012F0  EF7C  F009         	goto	u650
  2079  0012F4                     u651:
  2080  0012F4  EF88  F009         	goto	l2505
  2081  0012F8                     u650:
  2082  0012F8  EC9D  F00B         	call	_I2C1_MasterIsNack	;wreg free
  2083  0012FC  0900               	iorlw	0
  2084  0012FE  B4D8               	btfsc	status,2,c
  2085  001300  EF84  F009         	goto	u661
  2086  001304  EF86  F009         	goto	u660
  2087  001308                     u661:
  2088  001308  EF88  F009         	goto	l2505
  2089  00130C                     u660:
  2090  00130C                     
  2091                           ;mcc_generated_files/i2c1_master.c: 326:     {;mcc_generated_files/i2c1_master.c: 327:  
      +                                 I2C1_Status.state = I2C1_ADDRESS_NACK;
  2092  00130C  0E0F               	movlw	15
  2093  00130E  6E22               	movwf	(_I2C1_Status+33)^0,c
  2094  001310                     l2505:
  2095                           
  2096                           ;mcc_generated_files/i2c1_master.c: 329:     I2C1_Status.state = i2c1_fsmStateTable[I2C1
      +                          _Status.state]();
  2097  001310  5022               	movf	(_I2C1_Status+33)^0,w,c
  2098  001312  0D02               	mullw	2
  2099  001314  0E01               	movlw	low _i2c1_fsmStateTable
  2100  001316  24F3               	addwf	243,w,c
  2101  001318  6EF6               	movwf	tblptrl,c
  2102  00131A  0E0F               	movlw	high _i2c1_fsmStateTable
  2103  00131C  20F4               	addwfc	244,w,c
  2104  00131E  6EF7               	movwf	tblptrh,c
  2105  001320                     	if	0	;There are less than 3 active tblptr bytes
  2106  001320                     	endif
  2107  001320  D802               	call	u678
  2108  001322  EF9F  F009         	goto	u679
  2109  001326                     u678:
  2110  001326  0005               	push	
  2111  001328  6EFA               	movwf	pclath,c
  2112  00132A  0009               	tblrd		*+
  2113  00132C  50F5               	movf	tablat,w,c
  2114  00132E  6EFD               	movwf	tosl,c
  2115  001330  0009               	tblrd		*+
  2116  001332  50F5               	movf	tablat,w,c
  2117  001334  6EFE               	movwf	tosh,c
  2118  001336  50F8               	movf	tblptru,w,c
  2119  001338  6EFF               	movwf	tosu,c
  2120  00133A  50FA               	movf	pclath,w,c
  2121  00133C  0012               	return		;indir
  2122  00133E                     u679:
  2123  00133E  6E22               	movwf	(_I2C1_Status+33)^0,c
  2124  001340  0012               	return		;funcret
  2125  001342                     __end_of_I2C1_MasterFsm:
  2126                           	callstack 0
  2127                           
  2128 ;; *************** function _I2C1_DO_ADDRESS_NACK *****************
  2129 ;; Defined at:
  2130 ;;		line 500 in file "mcc_generated_files/i2c1_master.c"
  2131 ;; Parameters:    Size  Location     Type
  2132 ;;		None
  2133 ;; Auto vars:     Size  Location     Type
  2134 ;;		None
  2135 ;; Return value:  Size  Location     Type
  2136 ;;                  1    wreg      enum E6649
  2137 ;; Registers used:
  2138 ;;		wreg, fsr2l, fsr2h, status,2, status,0, pcl, pclath, pclatu, tosl, prodl, prodh, cstack
  2139 ;; Tracked objects:
  2140 ;;		On entry : 0/0
  2141 ;;		On exit  : 0/0
  2142 ;;		Unchanged: 0/0
  2143 ;; Data sizes:     COMRAM   BANK0   BANK1   BANK2   BANK3   BANK4   BANK5   BANK6   BANK7   BANK8   BANK9  BANK10  BANK1
      +1  BANK12  BANK13  BANK14
  2144 ;;      Params:         0       0       0       0       0       0       0       0       0       0       0       0       
      +0       0       0       0
  2145 ;;      Locals:         0       0       0       0       0       0       0       0       0       0       0       0       
      +0       0       0       0
  2146 ;;      Temps:          2       0       0       0       0       0       0       0       0       0       0       0       
      +0       0       0       0
  2147 ;;      Totals:         2       0       0       0       0       0       0       0       0       0       0       0       
      +0       0       0       0
  2148 ;;Total ram usage:        2 bytes
  2149 ;; Hardware stack levels used: 1
  2150 ;; Hardware stack levels required when called: 7
  2151 ;; This function calls:
  2152 ;;		Absolute function
  2153 ;;		_I2C1_CallbackReturnReset
  2154 ;;		_I2C1_CallbackReturnStop
  2155 ;;		_I2C1_DO_SEND_RESTART
  2156 ;;		_I2C1_DO_SEND_STOP
  2157 ;;		_rd1RegCompleteHandler
  2158 ;;		_rd2RegCompleteHandler
  2159 ;;		_rdBlkRegCompleteHandler
  2160 ;;		_wr1RegCompleteHandler
  2161 ;;		_wr2RegCompleteHandler
  2162 ;; This function is called by:
  2163 ;;		_I2C1_MasterFsm
  2164 ;; This function uses a non-reentrant model
  2165 ;;
  2166                           
  2167                           	psect	text25
  2168  00127C                     __ptext25:
  2169                           	callstack 0
  2170  00127C                     _I2C1_DO_ADDRESS_NACK:
  2171                           	callstack 18
  2172  00127C                     
  2173                           ;mcc_generated_files/i2c1_master.c: 502:     I2C1_Status.addressNackCheck = 0;
  2174  00127C  9024               	bcf	(_I2C1_Status+35)^0,0,c
  2175  00127E                     
  2176                           ;mcc_generated_files/i2c1_master.c: 503:     I2C1_Status.error = I2C1_FAIL;
  2177  00127E  0E02               	movlw	2
  2178  001280  6E23               	movwf	(_I2C1_Status+34)^0,c
  2179                           
  2180                           ;mcc_generated_files/i2c1_master.c: 504:     switch(I2C1_Status.callbackTable[I2C1_ADDR_
      +                          NACK](I2C1_Status.callbackPayload[I2C1_ADDR_NACK]))
  2181  001282  EF4B  F009         	goto	l2491
  2182  001286                     l2481:
  2183                           
  2184                           ;mcc_generated_files/i2c1_master.c: 508:             return I2C1_DO_SEND_RESTART();
  2185  001286  EC07  F00C         	call	_I2C1_DO_SEND_RESTART	;wreg free
  2186  00128A  EF72  F009         	goto	l611
  2187  00128E                     l2485:
  2188                           
  2189                           ;mcc_generated_files/i2c1_master.c: 510:             return I2C1_DO_SEND_STOP();
  2190  00128E  EC03  F00C         	call	_I2C1_DO_SEND_STOP	;wreg free
  2191  001292  EF72  F009         	goto	l611
  2192  001296                     l2491:
  2193  001296  C011  F035         	movff	_I2C1_Status+16,rdBlkRegCompleteHandler@ptr
  2194  00129A  C012  F036         	movff	_I2C1_Status+17,rdBlkRegCompleteHandler@ptr+1
  2195  00129E  EE20  F005         	lfsr	2,_I2C1_Status+4
  2196  0012A2  D802               	call	u648
  2197  0012A4  EF5E  F009         	goto	u649
  2198  0012A8                     u648:
  2199  0012A8  0005               	push	
  2200  0012AA  6EFA               	movwf	pclath,c
  2201  0012AC  50DE               	movf	postinc2,w,c
  2202  0012AE  6EFD               	movwf	tosl,c
  2203  0012B0  50DE               	movf	postinc2,w,c
  2204  0012B2  6EFE               	movwf	tosh,c
  2205  0012B4  50F8               	movf	tblptru,w,c
  2206  0012B6  6EFF               	movwf	tosu,c
  2207  0012B8  50FA               	movf	pclath,w,c
  2208  0012BA  0012               	return		;indir
  2209  0012BC                     u649:
  2210  0012BC  6E2C               	movwf	??_I2C1_DO_ADDRESS_NACK^0,c
  2211  0012BE  6A2D               	clrf	(??_I2C1_DO_ADDRESS_NACK+1)^0,c
  2212                           
  2213                           ; Switch on 2 bytes has been partitioned into a top level switch of size 1, and 1 sub-sw
      +                          itches
  2214                           ; Switch size 1, requested type "simple"
  2215                           ; Number of cases is 1, Range of values is 0 to 0
  2216                           ; switch strategies available:
  2217                           ; Name         Instructions Cycles
  2218                           ; simple_byte            4     3 (average)
  2219                           ;	Chosen strategy is simple_byte
  2220  0012C0  502D               	movf	(??_I2C1_DO_ADDRESS_NACK+1)^0,w,c
  2221  0012C2  0A00               	xorlw	0	; case 0
  2222  0012C4  B4D8               	btfsc	status,2,c
  2223  0012C6  EF67  F009         	goto	l2873
  2224  0012CA  EF47  F009         	goto	l2485
  2225  0012CE                     l2873:
  2226                           
  2227                           ; Switch size 1, requested type "simple"
  2228                           ; Number of cases is 2, Range of values is 2 to 3
  2229                           ; switch strategies available:
  2230                           ; Name         Instructions Cycles
  2231                           ; simple_byte            7     4 (average)
  2232                           ;	Chosen strategy is simple_byte
  2233  0012CE  502C               	movf	??_I2C1_DO_ADDRESS_NACK^0,w,c
  2234  0012D0  0A02               	xorlw	2	; case 2
  2235  0012D2  B4D8               	btfsc	status,2,c
  2236  0012D4  EF43  F009         	goto	l2481
  2237  0012D8  0A01               	xorlw	1	; case 3
  2238  0012DA  B4D8               	btfsc	status,2,c
  2239  0012DC  EF43  F009         	goto	l2481
  2240  0012E0  EF47  F009         	goto	l2485
  2241  0012E4                     l611:
  2242  0012E4  0012               	return		;funcret
  2243  0012E6                     __end_of_I2C1_DO_ADDRESS_NACK:
  2244                           	callstack 0
  2245                           
  2246 ;; *************** function _I2C1_DO_RESET *****************
  2247 ;; Defined at:
  2248 ;;		line 494 in file "mcc_generated_files/i2c1_master.c"
  2249 ;; Parameters:    Size  Location     Type
  2250 ;;		None
  2251 ;; Auto vars:     Size  Location     Type
  2252 ;;		None
  2253 ;; Return value:  Size  Location     Type
  2254 ;;                  1    wreg      enum E6649
  2255 ;; Registers used:
  2256 ;;		wreg, status,2
  2257 ;; Tracked objects:
  2258 ;;		On entry : 0/0
  2259 ;;		On exit  : 0/0
  2260 ;;		Unchanged: 0/0
  2261 ;; Data sizes:     COMRAM   BANK0   BANK1   BANK2   BANK3   BANK4   BANK5   BANK6   BANK7   BANK8   BANK9  BANK10  BANK1
      +1  BANK12  BANK13  BANK14
  2262 ;;      Params:         0       0       0       0       0       0       0       0       0       0       0       0       
      +0       0       0       0
  2263 ;;      Locals:         0       0       0       0       0       0       0       0       0       0       0       0       
      +0       0       0       0
  2264 ;;      Temps:          0       0       0       0       0       0       0       0       0       0       0       0       
      +0       0       0       0
  2265 ;;      Totals:         0       0       0       0       0       0       0       0       0       0       0       0       
      +0       0       0       0
  2266 ;;Total ram usage:        0 bytes
  2267 ;; Hardware stack levels used: 1
  2268 ;; Hardware stack levels required when called: 4
  2269 ;; This function calls:
  2270 ;;		Nothing
  2271 ;; This function is called by:
  2272 ;;		_I2C1_MasterFsm
  2273 ;; This function uses a non-reentrant model
  2274 ;;
  2275                           
  2276                           	psect	text26
  2277  0017C8                     __ptext26:
  2278                           	callstack 0
  2279  0017C8                     _I2C1_DO_RESET:
  2280                           	callstack 21
  2281  0017C8                     
  2282                           ;mcc_generated_files/i2c1_master.c: 496:     I2C1_Status.busy = 0;
  2283  0017C8  9224               	bcf	(_I2C1_Status+35)^0,1,c
  2284  0017CA                     
  2285                           ;mcc_generated_files/i2c1_master.c: 497:     I2C1_Status.error = I2C1_NOERR;
  2286  0017CA  0E00               	movlw	0
  2287  0017CC  6E23               	movwf	(_I2C1_Status+34)^0,c
  2288  0017CE                     
  2289                           ;mcc_generated_files/i2c1_master.c: 498:     return I2C1_RESET;
  2290  0017CE  0E0E               	movlw	14
  2291  0017D0  0012               	return		;funcret
  2292  0017D2                     __end_of_I2C1_DO_RESET:
  2293                           	callstack 0
  2294                           
  2295 ;; *************** function _I2C1_DO_RX_NACK_RESTART *****************
  2296 ;; Defined at:
  2297 ;;		line 488 in file "mcc_generated_files/i2c1_master.c"
  2298 ;; Parameters:    Size  Location     Type
  2299 ;;		None
  2300 ;; Auto vars:     Size  Location     Type
  2301 ;;		None
  2302 ;; Return value:  Size  Location     Type
  2303 ;;                  1    wreg      enum E6649
  2304 ;; Registers used:
  2305 ;;		wreg, cstack
  2306 ;; Tracked objects:
  2307 ;;		On entry : 0/0
  2308 ;;		On exit  : 0/0
  2309 ;;		Unchanged: 0/0
  2310 ;; Data sizes:     COMRAM   BANK0   BANK1   BANK2   BANK3   BANK4   BANK5   BANK6   BANK7   BANK8   BANK9  BANK10  BANK1
      +1  BANK12  BANK13  BANK14
  2311 ;;      Params:         0       0       0       0       0       0       0       0       0       0       0       0       
      +0       0       0       0
  2312 ;;      Locals:         0       0       0       0       0       0       0       0       0       0       0       0       
      +0       0       0       0
  2313 ;;      Temps:          0       0       0       0       0       0       0       0       0       0       0       0       
      +0       0       0       0
  2314 ;;      Totals:         0       0       0       0       0       0       0       0       0       0       0       0       
      +0       0       0       0
  2315 ;;Total ram usage:        0 bytes
  2316 ;; Hardware stack levels used: 1
  2317 ;; Hardware stack levels required when called: 5
  2318 ;; This function calls:
  2319 ;;		_I2C1_MasterSendNack
  2320 ;; This function is called by:
  2321 ;;		_I2C1_DO_RX
  2322 ;;		_I2C1_MasterFsm
  2323 ;; This function uses a non-reentrant model
  2324 ;;
  2325                           
  2326                           	psect	text27
  2327  0017EE                     __ptext27:
  2328                           	callstack 0
  2329  0017EE                     _I2C1_DO_RX_NACK_RESTART:
  2330                           	callstack 20
  2331  0017EE                     
  2332                           ;mcc_generated_files/i2c1_master.c: 490:     I2C1_MasterSendNack();
  2333  0017EE  EC26  F00C         	call	_I2C1_MasterSendNack	;wreg free
  2334  0017F2                     
  2335                           ;mcc_generated_files/i2c1_master.c: 491:     return I2C1_SEND_RESTART;
  2336  0017F2  0E09               	movlw	9
  2337  0017F4  0012               	return		;funcret
  2338  0017F6                     __end_of_I2C1_DO_RX_NACK_RESTART:
  2339                           	callstack 0
  2340                           
  2341 ;; *************** function _I2C1_DO_RX_NACK_STOP *****************
  2342 ;; Defined at:
  2343 ;;		line 482 in file "mcc_generated_files/i2c1_master.c"
  2344 ;; Parameters:    Size  Location     Type
  2345 ;;		None
  2346 ;; Auto vars:     Size  Location     Type
  2347 ;;		None
  2348 ;; Return value:  Size  Location     Type
  2349 ;;                  1    wreg      enum E6649
  2350 ;; Registers used:
  2351 ;;		wreg, cstack
  2352 ;; Tracked objects:
  2353 ;;		On entry : 0/0
  2354 ;;		On exit  : 0/0
  2355 ;;		Unchanged: 0/0
  2356 ;; Data sizes:     COMRAM   BANK0   BANK1   BANK2   BANK3   BANK4   BANK5   BANK6   BANK7   BANK8   BANK9  BANK10  BANK1
      +1  BANK12  BANK13  BANK14
  2357 ;;      Params:         0       0       0       0       0       0       0       0       0       0       0       0       
      +0       0       0       0
  2358 ;;      Locals:         0       0       0       0       0       0       0       0       0       0       0       0       
      +0       0       0       0
  2359 ;;      Temps:          0       0       0       0       0       0       0       0       0       0       0       0       
      +0       0       0       0
  2360 ;;      Totals:         0       0       0       0       0       0       0       0       0       0       0       0       
      +0       0       0       0
  2361 ;;Total ram usage:        0 bytes
  2362 ;; Hardware stack levels used: 1
  2363 ;; Hardware stack levels required when called: 5
  2364 ;; This function calls:
  2365 ;;		_I2C1_MasterSendNack
  2366 ;; This function is called by:
  2367 ;;		_I2C1_DO_RX
  2368 ;;		_I2C1_MasterFsm
  2369 ;; This function uses a non-reentrant model
  2370 ;;
  2371                           
  2372                           	psect	text28
  2373  0017F6                     __ptext28:
  2374                           	callstack 0
  2375  0017F6                     _I2C1_DO_RX_NACK_STOP:
  2376                           	callstack 20
  2377  0017F6                     
  2378                           ;mcc_generated_files/i2c1_master.c: 484:     I2C1_MasterSendNack();
  2379  0017F6  EC26  F00C         	call	_I2C1_MasterSendNack	;wreg free
  2380  0017FA                     
  2381                           ;mcc_generated_files/i2c1_master.c: 485:     return I2C1_SEND_STOP;
  2382  0017FA  0E0A               	movlw	10
  2383  0017FC  0012               	return		;funcret
  2384  0017FE                     __end_of_I2C1_DO_RX_NACK_STOP:
  2385                           	callstack 0
  2386                           
  2387 ;; *************** function _I2C1_DO_RX_ACK *****************
  2388 ;; Defined at:
  2389 ;;		line 475 in file "mcc_generated_files/i2c1_master.c"
  2390 ;; Parameters:    Size  Location     Type
  2391 ;;		None
  2392 ;; Auto vars:     Size  Location     Type
  2393 ;;		None
  2394 ;; Return value:  Size  Location     Type
  2395 ;;                  1    wreg      enum E6649
  2396 ;; Registers used:
  2397 ;;		wreg, cstack
  2398 ;; Tracked objects:
  2399 ;;		On entry : 0/0
  2400 ;;		On exit  : 0/0
  2401 ;;		Unchanged: 0/0
  2402 ;; Data sizes:     COMRAM   BANK0   BANK1   BANK2   BANK3   BANK4   BANK5   BANK6   BANK7   BANK8   BANK9  BANK10  BANK1
      +1  BANK12  BANK13  BANK14
  2403 ;;      Params:         0       0       0       0       0       0       0       0       0       0       0       0       
      +0       0       0       0
  2404 ;;      Locals:         0       0       0       0       0       0       0       0       0       0       0       0       
      +0       0       0       0
  2405 ;;      Temps:          0       0       0       0       0       0       0       0       0       0       0       0       
      +0       0       0       0
  2406 ;;      Totals:         0       0       0       0       0       0       0       0       0       0       0       0       
      +0       0       0       0
  2407 ;;Total ram usage:        0 bytes
  2408 ;; Hardware stack levels used: 1
  2409 ;; Hardware stack levels required when called: 5
  2410 ;; This function calls:
  2411 ;;		_I2C1_MasterSendAck
  2412 ;; This function is called by:
  2413 ;;		_I2C1_MasterFsm
  2414 ;; This function uses a non-reentrant model
  2415 ;;
  2416                           
  2417                           	psect	text29
  2418  0017FE                     __ptext29:
  2419                           	callstack 0
  2420  0017FE                     _I2C1_DO_RX_ACK:
  2421                           	callstack 20
  2422  0017FE                     
  2423                           ;mcc_generated_files/i2c1_master.c: 477:     I2C1_MasterSendAck();
  2424  0017FE  EC23  F00C         	call	_I2C1_MasterSendAck	;wreg free
  2425  001802                     
  2426                           ;mcc_generated_files/i2c1_master.c: 478:     return I2C1_RCEN;
  2427  001802  0E05               	movlw	5
  2428  001804  0012               	return		;funcret
  2429  001806                     __end_of_I2C1_DO_RX_ACK:
  2430                           	callstack 0
  2431                           
  2432 ;; *************** function _I2C1_DO_SEND_STOP *****************
  2433 ;; Defined at:
  2434 ;;		line 469 in file "mcc_generated_files/i2c1_master.c"
  2435 ;; Parameters:    Size  Location     Type
  2436 ;;		None
  2437 ;; Auto vars:     Size  Location     Type
  2438 ;;		None
  2439 ;; Return value:  Size  Location     Type
  2440 ;;                  1    wreg      enum E6649
  2441 ;; Registers used:
  2442 ;;		wreg, cstack
  2443 ;; Tracked objects:
  2444 ;;		On entry : 0/0
  2445 ;;		On exit  : 0/0
  2446 ;;		Unchanged: 0/0
  2447 ;; Data sizes:     COMRAM   BANK0   BANK1   BANK2   BANK3   BANK4   BANK5   BANK6   BANK7   BANK8   BANK9  BANK10  BANK1
      +1  BANK12  BANK13  BANK14
  2448 ;;      Params:         0       0       0       0       0       0       0       0       0       0       0       0       
      +0       0       0       0
  2449 ;;      Locals:         0       0       0       0       0       0       0       0       0       0       0       0       
      +0       0       0       0
  2450 ;;      Temps:          0       0       0       0       0       0       0       0       0       0       0       0       
      +0       0       0       0
  2451 ;;      Totals:         0       0       0       0       0       0       0       0       0       0       0       0       
      +0       0       0       0
  2452 ;;Total ram usage:        0 bytes
  2453 ;; Hardware stack levels used: 1
  2454 ;; Hardware stack levels required when called: 5
  2455 ;; This function calls:
  2456 ;;		_I2C1_MasterStop
  2457 ;; This function is called by:
  2458 ;;		_I2C1_DO_TX
  2459 ;;		_I2C1_DO_TX_EMPTY
  2460 ;;		_I2C1_DO_ADDRESS_NACK
  2461 ;;		_I2C1_MasterFsm
  2462 ;; This function uses a non-reentrant model
  2463 ;;
  2464                           
  2465                           	psect	text30
  2466  001806                     __ptext30:
  2467                           	callstack 0
  2468  001806                     _I2C1_DO_SEND_STOP:
  2469                           	callstack 19
  2470  001806                     
  2471                           ;mcc_generated_files/i2c1_master.c: 471:     I2C1_MasterStop();
  2472  001806  EC35  F00C         	call	_I2C1_MasterStop	;wreg free
  2473  00180A                     
  2474                           ;mcc_generated_files/i2c1_master.c: 472:     return I2C1_IDLE;
  2475  00180A  0E00               	movlw	0
  2476  00180C  0012               	return		;funcret
  2477  00180E                     __end_of_I2C1_DO_SEND_STOP:
  2478                           	callstack 0
  2479                           
  2480 ;; *************** function _I2C1_DO_SEND_RESTART *****************
  2481 ;; Defined at:
  2482 ;;		line 463 in file "mcc_generated_files/i2c1_master.c"
  2483 ;; Parameters:    Size  Location     Type
  2484 ;;		None
  2485 ;; Auto vars:     Size  Location     Type
  2486 ;;		None
  2487 ;; Return value:  Size  Location     Type
  2488 ;;                  1    wreg      enum E6649
  2489 ;; Registers used:
  2490 ;;		wreg, cstack
  2491 ;; Tracked objects:
  2492 ;;		On entry : 0/0
  2493 ;;		On exit  : 0/0
  2494 ;;		Unchanged: 0/0
  2495 ;; Data sizes:     COMRAM   BANK0   BANK1   BANK2   BANK3   BANK4   BANK5   BANK6   BANK7   BANK8   BANK9  BANK10  BANK1
      +1  BANK12  BANK13  BANK14
  2496 ;;      Params:         0       0       0       0       0       0       0       0       0       0       0       0       
      +0       0       0       0
  2497 ;;      Locals:         0       0       0       0       0       0       0       0       0       0       0       0       
      +0       0       0       0
  2498 ;;      Temps:          0       0       0       0       0       0       0       0       0       0       0       0       
      +0       0       0       0
  2499 ;;      Totals:         0       0       0       0       0       0       0       0       0       0       0       0       
      +0       0       0       0
  2500 ;;Total ram usage:        0 bytes
  2501 ;; Hardware stack levels used: 1
  2502 ;; Hardware stack levels required when called: 5
  2503 ;; This function calls:
  2504 ;;		_I2C1_MasterEnableRestart
  2505 ;; This function is called by:
  2506 ;;		_I2C1_DO_TX_EMPTY
  2507 ;;		_I2C1_DO_ADDRESS_NACK
  2508 ;;		_I2C1_MasterFsm
  2509 ;; This function uses a non-reentrant model
  2510 ;;
  2511                           
  2512                           	psect	text31
  2513  00180E                     __ptext31:
  2514                           	callstack 0
  2515  00180E                     _I2C1_DO_SEND_RESTART:
  2516                           	callstack 19
  2517  00180E                     
  2518                           ;mcc_generated_files/i2c1_master.c: 465:     I2C1_MasterEnableRestart();
  2519  00180E  EC37  F00C         	call	_I2C1_MasterEnableRestart	;wreg free
  2520  001812                     
  2521                           ;mcc_generated_files/i2c1_master.c: 466:     return I2C1_SEND_ADR_READ;
  2522  001812  0E01               	movlw	1
  2523  001814  0012               	return		;funcret
  2524  001816                     __end_of_I2C1_DO_SEND_RESTART:
  2525                           	callstack 0
  2526                           
  2527 ;; *************** function _I2C1_DO_SEND_RESTART_WRITE *****************
  2528 ;; Defined at:
  2529 ;;		line 456 in file "mcc_generated_files/i2c1_master.c"
  2530 ;; Parameters:    Size  Location     Type
  2531 ;;		None
  2532 ;; Auto vars:     Size  Location     Type
  2533 ;;		None
  2534 ;; Return value:  Size  Location     Type
  2535 ;;                  1    wreg      enum E6649
  2536 ;; Registers used:
  2537 ;;		wreg, cstack
  2538 ;; Tracked objects:
  2539 ;;		On entry : 0/0
  2540 ;;		On exit  : 0/0
  2541 ;;		Unchanged: 0/0
  2542 ;; Data sizes:     COMRAM   BANK0   BANK1   BANK2   BANK3   BANK4   BANK5   BANK6   BANK7   BANK8   BANK9  BANK10  BANK1
      +1  BANK12  BANK13  BANK14
  2543 ;;      Params:         0       0       0       0       0       0       0       0       0       0       0       0       
      +0       0       0       0
  2544 ;;      Locals:         0       0       0       0       0       0       0       0       0       0       0       0       
      +0       0       0       0
  2545 ;;      Temps:          0       0       0       0       0       0       0       0       0       0       0       0       
      +0       0       0       0
  2546 ;;      Totals:         0       0       0       0       0       0       0       0       0       0       0       0       
      +0       0       0       0
  2547 ;;Total ram usage:        0 bytes
  2548 ;; Hardware stack levels used: 1
  2549 ;; Hardware stack levels required when called: 5
  2550 ;; This function calls:
  2551 ;;		_I2C1_MasterEnableRestart
  2552 ;; This function is called by:
  2553 ;;		_I2C1_DO_TX
  2554 ;;		_I2C1_MasterFsm
  2555 ;; This function uses a non-reentrant model
  2556 ;;
  2557                           
  2558                           	psect	text32
  2559  001816                     __ptext32:
  2560                           	callstack 0
  2561  001816                     _I2C1_DO_SEND_RESTART_WRITE:
  2562                           	callstack 19
  2563  001816                     
  2564                           ;mcc_generated_files/i2c1_master.c: 458:     I2C1_MasterEnableRestart();
  2565  001816  EC37  F00C         	call	_I2C1_MasterEnableRestart	;wreg free
  2566  00181A                     
  2567                           ;mcc_generated_files/i2c1_master.c: 459:     return I2C1_SEND_ADR_WRITE;
  2568  00181A  0E02               	movlw	2
  2569  00181C  0012               	return		;funcret
  2570  00181E                     __end_of_I2C1_DO_SEND_RESTART_WRITE:
  2571                           	callstack 0
  2572                           
  2573 ;; *************** function _I2C1_DO_SEND_RESTART_READ *****************
  2574 ;; Defined at:
  2575 ;;		line 450 in file "mcc_generated_files/i2c1_master.c"
  2576 ;; Parameters:    Size  Location     Type
  2577 ;;		None
  2578 ;; Auto vars:     Size  Location     Type
  2579 ;;		None
  2580 ;; Return value:  Size  Location     Type
  2581 ;;                  1    wreg      enum E6649
  2582 ;; Registers used:
  2583 ;;		wreg, cstack
  2584 ;; Tracked objects:
  2585 ;;		On entry : 0/0
  2586 ;;		On exit  : 0/0
  2587 ;;		Unchanged: 0/0
  2588 ;; Data sizes:     COMRAM   BANK0   BANK1   BANK2   BANK3   BANK4   BANK5   BANK6   BANK7   BANK8   BANK9  BANK10  BANK1
      +1  BANK12  BANK13  BANK14
  2589 ;;      Params:         0       0       0       0       0       0       0       0       0       0       0       0       
      +0       0       0       0
  2590 ;;      Locals:         0       0       0       0       0       0       0       0       0       0       0       0       
      +0       0       0       0
  2591 ;;      Temps:          0       0       0       0       0       0       0       0       0       0       0       0       
      +0       0       0       0
  2592 ;;      Totals:         0       0       0       0       0       0       0       0       0       0       0       0       
      +0       0       0       0
  2593 ;;Total ram usage:        0 bytes
  2594 ;; Hardware stack levels used: 1
  2595 ;; Hardware stack levels required when called: 5
  2596 ;; This function calls:
  2597 ;;		_I2C1_MasterEnableRestart
  2598 ;; This function is called by:
  2599 ;;		_I2C1_DO_TX
  2600 ;;		_I2C1_MasterFsm
  2601 ;; This function uses a non-reentrant model
  2602 ;;
  2603                           
  2604                           	psect	text33
  2605  00181E                     __ptext33:
  2606                           	callstack 0
  2607  00181E                     _I2C1_DO_SEND_RESTART_READ:
  2608                           	callstack 19
  2609  00181E                     
  2610                           ;mcc_generated_files/i2c1_master.c: 452:     I2C1_MasterEnableRestart();
  2611  00181E  EC37  F00C         	call	_I2C1_MasterEnableRestart	;wreg free
  2612  001822                     
  2613                           ;mcc_generated_files/i2c1_master.c: 453:     return I2C1_SEND_ADR_READ;
  2614  001822  0E01               	movlw	1
  2615  001824  0012               	return		;funcret
  2616  001826                     __end_of_I2C1_DO_SEND_RESTART_READ:
  2617                           	callstack 0
  2618                           
  2619 ;; *************** function _I2C1_DO_RCEN *****************
  2620 ;; Defined at:
  2621 ;;		line 402 in file "mcc_generated_files/i2c1_master.c"
  2622 ;; Parameters:    Size  Location     Type
  2623 ;;		None
  2624 ;; Auto vars:     Size  Location     Type
  2625 ;;		None
  2626 ;; Return value:  Size  Location     Type
  2627 ;;                  1    wreg      enum E6649
  2628 ;; Registers used:
  2629 ;;		wreg, cstack
  2630 ;; Tracked objects:
  2631 ;;		On entry : 0/0
  2632 ;;		On exit  : 0/0
  2633 ;;		Unchanged: 0/0
  2634 ;; Data sizes:     COMRAM   BANK0   BANK1   BANK2   BANK3   BANK4   BANK5   BANK6   BANK7   BANK8   BANK9  BANK10  BANK1
      +1  BANK12  BANK13  BANK14
  2635 ;;      Params:         0       0       0       0       0       0       0       0       0       0       0       0       
      +0       0       0       0
  2636 ;;      Locals:         0       0       0       0       0       0       0       0       0       0       0       0       
      +0       0       0       0
  2637 ;;      Temps:          0       0       0       0       0       0       0       0       0       0       0       0       
      +0       0       0       0
  2638 ;;      Totals:         0       0       0       0       0       0       0       0       0       0       0       0       
      +0       0       0       0
  2639 ;;Total ram usage:        0 bytes
  2640 ;; Hardware stack levels used: 1
  2641 ;; Hardware stack levels required when called: 5
  2642 ;; This function calls:
  2643 ;;		_I2C1_MasterStartRx
  2644 ;; This function is called by:
  2645 ;;		_I2C1_MasterFsm
  2646 ;; This function uses a non-reentrant model
  2647 ;;
  2648                           
  2649                           	psect	text34
  2650  0017D2                     __ptext34:
  2651                           	callstack 0
  2652  0017D2                     _I2C1_DO_RCEN:
  2653                           	callstack 20
  2654  0017D2                     
  2655                           ;mcc_generated_files/i2c1_master.c: 404:     I2C1_Status.addressNackCheck = 0;
  2656  0017D2  9024               	bcf	(_I2C1_Status+35)^0,0,c
  2657  0017D4                     
  2658                           ;mcc_generated_files/i2c1_master.c: 405:     I2C1_MasterStartRx();
  2659  0017D4  EC2F  F00C         	call	_I2C1_MasterStartRx	;wreg free
  2660  0017D8                     
  2661                           ;mcc_generated_files/i2c1_master.c: 406:     return I2C1_RX;
  2662  0017D8  0E04               	movlw	4
  2663  0017DA  0012               	return		;funcret
  2664  0017DC                     __end_of_I2C1_DO_RCEN:
  2665                           	callstack 0
  2666                           
  2667 ;; *************** function _I2C1_DO_RX *****************
  2668 ;; Defined at:
  2669 ;;		line 378 in file "mcc_generated_files/i2c1_master.c"
  2670 ;; Parameters:    Size  Location     Type
  2671 ;;		None
  2672 ;; Auto vars:     Size  Location     Type
  2673 ;;		None
  2674 ;; Return value:  Size  Location     Type
  2675 ;;                  1    wreg      enum E6649
  2676 ;; Registers used:
  2677 ;;		wreg, fsr2l, fsr2h, status,2, status,0, pcl, pclath, pclatu, tosl, prodl, prodh, cstack
  2678 ;; Tracked objects:
  2679 ;;		On entry : 0/0
  2680 ;;		On exit  : 0/0
  2681 ;;		Unchanged: 0/0
  2682 ;; Data sizes:     COMRAM   BANK0   BANK1   BANK2   BANK3   BANK4   BANK5   BANK6   BANK7   BANK8   BANK9  BANK10  BANK1
      +1  BANK12  BANK13  BANK14
  2683 ;;      Params:         0       0       0       0       0       0       0       0       0       0       0       0       
      +0       0       0       0
  2684 ;;      Locals:         0       0       0       0       0       0       0       0       0       0       0       0       
      +0       0       0       0
  2685 ;;      Temps:          2       0       0       0       0       0       0       0       0       0       0       0       
      +0       0       0       0
  2686 ;;      Totals:         2       0       0       0       0       0       0       0       0       0       0       0       
      +0       0       0       0
  2687 ;;Total ram usage:        2 bytes
  2688 ;; Hardware stack levels used: 1
  2689 ;; Hardware stack levels required when called: 7
  2690 ;; This function calls:
  2691 ;;		Absolute function
  2692 ;;		_I2C1_CallbackReturnReset
  2693 ;;		_I2C1_CallbackReturnStop
  2694 ;;		_I2C1_DO_RX_NACK_RESTART
  2695 ;;		_I2C1_DO_RX_NACK_STOP
  2696 ;;		_I2C1_MasterGetRxData
  2697 ;;		_I2C1_MasterSendAck
  2698 ;;		_rd1RegCompleteHandler
  2699 ;;		_rd2RegCompleteHandler
  2700 ;;		_rdBlkRegCompleteHandler
  2701 ;;		_wr1RegCompleteHandler
  2702 ;;		_wr2RegCompleteHandler
  2703 ;; This function is called by:
  2704 ;;		_I2C1_MasterFsm
  2705 ;; This function uses a non-reentrant model
  2706 ;;
  2707                           
  2708                           	psect	text35
  2709  000FE6                     __ptext35:
  2710                           	callstack 0
  2711  000FE6                     _I2C1_DO_RX:
  2712                           	callstack 18
  2713  000FE6                     
  2714                           ;mcc_generated_files/i2c1_master.c: 380:     *I2C1_Status.data_ptr++ = I2C1_MasterGetRxD
      +                          ata();
  2715  000FE6  EC2D  F00C         	call	_I2C1_MasterGetRxData	;wreg free
  2716  000FEA  C01E  FFD9         	movff	_I2C1_Status+29,fsr2l
  2717  000FEE  C01F  FFDA         	movff	_I2C1_Status+30,fsr2h
  2718  000FF2  6EDF               	movwf	indf2,c
  2719  000FF4  4A1E               	infsnz	(_I2C1_Status+29)^0,f,c
  2720  000FF6  2A1F               	incf	(_I2C1_Status+30)^0,f,c
  2721  000FF8                     
  2722                           ;mcc_generated_files/i2c1_master.c: 381:     if(--I2C1_Status.data_length)
  2723  000FF8  0620               	decf	(_I2C1_Status+31)^0,f,c
  2724  000FFA  A0D8               	btfss	status,0,c
  2725  000FFC  0621               	decf	(_I2C1_Status+32)^0,f,c
  2726  000FFE  5020               	movf	(_I2C1_Status+31)^0,w,c
  2727  001000  1021               	iorwf	(_I2C1_Status+32)^0,w,c
  2728  001002  B4D8               	btfsc	status,2,c
  2729  001004  EF06  F008         	goto	u611
  2730  001008  EF08  F008         	goto	u610
  2731  00100C                     u611:
  2732  00100C  EF0D  F008         	goto	l548
  2733  001010                     u610:
  2734  001010                     
  2735                           ;mcc_generated_files/i2c1_master.c: 382:     {;mcc_generated_files/i2c1_master.c: 383:  
      +                                 I2C1_MasterSendAck();
  2736  001010  EC23  F00C         	call	_I2C1_MasterSendAck	;wreg free
  2737  001014                     
  2738                           ;mcc_generated_files/i2c1_master.c: 384:         return I2C1_RCEN;
  2739  001014  0E05               	movlw	5
  2740  001016  EF45  F008         	goto	l549
  2741  00101A                     l548:
  2742                           
  2743                           ;mcc_generated_files/i2c1_master.c: 387:     {;mcc_generated_files/i2c1_master.c: 388:  
      +                                 I2C1_Status.bufferFree = 1;
  2744  00101A  8624               	bsf	(_I2C1_Status+35)^0,3,c
  2745                           
  2746                           ;mcc_generated_files/i2c1_master.c: 389:         switch(I2C1_Status.callbackTable[I2C1_D
      +                          ATA_COMPLETE](I2C1_Status.callbackPayload[I2C1_DATA_COMPLETE]))
  2747  00101C  EF18  F008         	goto	l2447
  2748  001020                     l2437:
  2749                           
  2750                           ;mcc_generated_files/i2c1_master.c: 393:                 return I2C1_DO_RX_NACK_RESTART(
      +                          );
  2751  001020  ECF7  F00B         	call	_I2C1_DO_RX_NACK_RESTART	;wreg free
  2752  001024  EF45  F008         	goto	l549
  2753  001028                     l2441:
  2754                           
  2755                           ;mcc_generated_files/i2c1_master.c: 397:                 return I2C1_DO_RX_NACK_STOP();
  2756  001028  ECFB  F00B         	call	_I2C1_DO_RX_NACK_STOP	;wreg free
  2757  00102C  EF45  F008         	goto	l549
  2758  001030                     l2447:
  2759  001030  C00D  F035         	movff	_I2C1_Status+12,rdBlkRegCompleteHandler@ptr
  2760  001034  C00E  F036         	movff	_I2C1_Status+13,rdBlkRegCompleteHandler@ptr+1
  2761  001038  D802               	call	u628
  2762  00103A  EF29  F008         	goto	u629
  2763  00103E                     u628:
  2764  00103E  0005               	push	
  2765  001040  6EFA               	movwf	pclath,c
  2766  001042  5001               	movf	_I2C1_Status^0,w,c
  2767  001044  6EFD               	movwf	tosl,c
  2768  001046  5002               	movf	(_I2C1_Status+1)^0,w,c
  2769  001048  6EFE               	movwf	tosh,c
  2770  00104A  50F8               	movf	tblptru,w,c
  2771  00104C  6EFF               	movwf	tosu,c
  2772  00104E  50FA               	movf	pclath,w,c
  2773  001050  0012               	return		;indir
  2774  001052                     u629:
  2775  001052  6E2C               	movwf	??_I2C1_DO_RX^0,c
  2776  001054  6A2D               	clrf	(??_I2C1_DO_RX+1)^0,c
  2777                           
  2778                           ; Switch on 2 bytes has been partitioned into a top level switch of size 1, and 1 sub-sw
      +                          itches
  2779                           ; Switch size 1, requested type "simple"
  2780                           ; Number of cases is 1, Range of values is 0 to 0
  2781                           ; switch strategies available:
  2782                           ; Name         Instructions Cycles
  2783                           ; simple_byte            4     3 (average)
  2784                           ;	Chosen strategy is simple_byte
  2785  001056  502D               	movf	(??_I2C1_DO_RX+1)^0,w,c
  2786  001058  0A00               	xorlw	0	; case 0
  2787  00105A  B4D8               	btfsc	status,2,c
  2788  00105C  EF32  F008         	goto	l2875
  2789  001060  EF14  F008         	goto	l2441
  2790  001064                     l2875:
  2791                           
  2792                           ; Switch size 1, requested type "simple"
  2793                           ; Number of cases is 4, Range of values is 1 to 4
  2794                           ; switch strategies available:
  2795                           ; Name         Instructions Cycles
  2796                           ; simple_byte           13     7 (average)
  2797                           ;	Chosen strategy is simple_byte
  2798  001064  502C               	movf	??_I2C1_DO_RX^0,w,c
  2799  001066  0A01               	xorlw	1	; case 1
  2800  001068  B4D8               	btfsc	status,2,c
  2801  00106A  EF14  F008         	goto	l2441
  2802  00106E  0A03               	xorlw	3	; case 2
  2803  001070  B4D8               	btfsc	status,2,c
  2804  001072  EF10  F008         	goto	l2437
  2805  001076  0A01               	xorlw	1	; case 3
  2806  001078  B4D8               	btfsc	status,2,c
  2807  00107A  EF10  F008         	goto	l2437
  2808  00107E  0A07               	xorlw	7	; case 4
  2809  001080  B4D8               	btfsc	status,2,c
  2810  001082  EF14  F008         	goto	l2441
  2811  001086  EF14  F008         	goto	l2441
  2812  00108A                     l549:
  2813  00108A  0012               	return		;funcret
  2814  00108C                     __end_of_I2C1_DO_RX:
  2815                           	callstack 0
  2816                           
  2817 ;; *************** function _I2C1_DO_TX *****************
  2818 ;; Defined at:
  2819 ;;		line 354 in file "mcc_generated_files/i2c1_master.c"
  2820 ;; Parameters:    Size  Location     Type
  2821 ;;		None
  2822 ;; Auto vars:     Size  Location     Type
  2823 ;;		None
  2824 ;; Return value:  Size  Location     Type
  2825 ;;                  1    wreg      enum E6649
  2826 ;; Registers used:
  2827 ;;		wreg, fsr2l, fsr2h, status,2, status,0, pcl, pclath, pclatu, tosl, prodl, prodh, cstack
  2828 ;; Tracked objects:
  2829 ;;		On entry : 0/0
  2830 ;;		On exit  : 0/0
  2831 ;;		Unchanged: 0/0
  2832 ;; Data sizes:     COMRAM   BANK0   BANK1   BANK2   BANK3   BANK4   BANK5   BANK6   BANK7   BANK8   BANK9  BANK10  BANK1
      +1  BANK12  BANK13  BANK14
  2833 ;;      Params:         0       0       0       0       0       0       0       0       0       0       0       0       
      +0       0       0       0
  2834 ;;      Locals:         0       0       0       0       0       0       0       0       0       0       0       0       
      +0       0       0       0
  2835 ;;      Temps:          2       0       0       0       0       0       0       0       0       0       0       0       
      +0       0       0       0
  2836 ;;      Totals:         2       0       0       0       0       0       0       0       0       0       0       0       
      +0       0       0       0
  2837 ;;Total ram usage:        2 bytes
  2838 ;; Hardware stack levels used: 1
  2839 ;; Hardware stack levels required when called: 7
  2840 ;; This function calls:
  2841 ;;		Absolute function
  2842 ;;		_I2C1_CallbackReturnReset
  2843 ;;		_I2C1_CallbackReturnStop
  2844 ;;		_I2C1_DO_SEND_RESTART_READ
  2845 ;;		_I2C1_DO_SEND_RESTART_WRITE
  2846 ;;		_I2C1_DO_SEND_STOP
  2847 ;;		_I2C1_MasterIsNack
  2848 ;;		_I2C1_MasterSendTxData
  2849 ;;		_rd1RegCompleteHandler
  2850 ;;		_rd2RegCompleteHandler
  2851 ;;		_rdBlkRegCompleteHandler
  2852 ;;		_wr1RegCompleteHandler
  2853 ;;		_wr2RegCompleteHandler
  2854 ;; This function is called by:
  2855 ;;		_I2C1_MasterFsm
  2856 ;; This function uses a non-reentrant model
  2857 ;;
  2858                           
  2859                           	psect	text36
  2860  000F22                     __ptext36:
  2861                           	callstack 0
  2862  000F22                     _I2C1_DO_TX:
  2863                           	callstack 18
  2864  000F22                     
  2865                           ;mcc_generated_files/i2c1_master.c: 356:     if(I2C1_MasterIsNack())
  2866  000F22  EC9D  F00B         	call	_I2C1_MasterIsNack	;wreg free
  2867  000F26  0900               	iorlw	0
  2868  000F28  B4D8               	btfsc	status,2,c
  2869  000F2A  EF99  F007         	goto	u581
  2870  000F2E  EF9B  F007         	goto	u580
  2871  000F32                     u581:
  2872  000F32  EFD8  F007         	goto	l532
  2873  000F36                     u580:
  2874  000F36  EFA9  F007         	goto	l2407
  2875  000F3A                     l2393:
  2876                           
  2877                           ;mcc_generated_files/i2c1_master.c: 361:                 return I2C1_DO_SEND_RESTART_REA
      +                          D();
  2878  000F3A  EC0F  F00C         	call	_I2C1_DO_SEND_RESTART_READ	;wreg free
  2879  000F3E  EFF2  F007         	goto	l535
  2880  000F42                     l2397:
  2881                           
  2882                           ;mcc_generated_files/i2c1_master.c: 363:                   return I2C1_DO_SEND_RESTART_W
      +                          RITE();
  2883  000F42  EC0B  F00C         	call	_I2C1_DO_SEND_RESTART_WRITE	;wreg free
  2884  000F46  EFF2  F007         	goto	l535
  2885  000F4A                     l2401:
  2886                           
  2887                           ;mcc_generated_files/i2c1_master.c: 367:                 return I2C1_DO_SEND_STOP();
  2888  000F4A  EC03  F00C         	call	_I2C1_DO_SEND_STOP	;wreg free
  2889  000F4E  EFF2  F007         	goto	l535
  2890  000F52                     l2407:
  2891  000F52  C013  F035         	movff	_I2C1_Status+18,rdBlkRegCompleteHandler@ptr
  2892  000F56  C014  F036         	movff	_I2C1_Status+19,rdBlkRegCompleteHandler@ptr+1
  2893  000F5A  EE20  F007         	lfsr	2,_I2C1_Status+6
  2894  000F5E  D802               	call	u598
  2895  000F60  EFBC  F007         	goto	u599
  2896  000F64                     u598:
  2897  000F64  0005               	push	
  2898  000F66  6EFA               	movwf	pclath,c
  2899  000F68  50DE               	movf	postinc2,w,c
  2900  000F6A  6EFD               	movwf	tosl,c
  2901  000F6C  50DE               	movf	postinc2,w,c
  2902  000F6E  6EFE               	movwf	tosh,c
  2903  000F70  50F8               	movf	tblptru,w,c
  2904  000F72  6EFF               	movwf	tosu,c
  2905  000F74  50FA               	movf	pclath,w,c
  2906  000F76  0012               	return		;indir
  2907  000F78                     u599:
  2908  000F78  6E2D               	movwf	??_I2C1_DO_TX^0,c
  2909  000F7A  6A2E               	clrf	(??_I2C1_DO_TX+1)^0,c
  2910                           
  2911                           ; Switch on 2 bytes has been partitioned into a top level switch of size 1, and 1 sub-sw
      +                          itches
  2912                           ; Switch size 1, requested type "simple"
  2913                           ; Number of cases is 1, Range of values is 0 to 0
  2914                           ; switch strategies available:
  2915                           ; Name         Instructions Cycles
  2916                           ; simple_byte            4     3 (average)
  2917                           ;	Chosen strategy is simple_byte
  2918  000F7C  502E               	movf	(??_I2C1_DO_TX+1)^0,w,c
  2919  000F7E  0A00               	xorlw	0	; case 0
  2920  000F80  B4D8               	btfsc	status,2,c
  2921  000F82  EFC5  F007         	goto	l2877
  2922  000F86  EFA5  F007         	goto	l2401
  2923  000F8A                     l2877:
  2924                           
  2925                           ; Switch size 1, requested type "simple"
  2926                           ; Number of cases is 4, Range of values is 1 to 4
  2927                           ; switch strategies available:
  2928                           ; Name         Instructions Cycles
  2929                           ; simple_byte           13     7 (average)
  2930                           ;	Chosen strategy is simple_byte
  2931  000F8A  502D               	movf	??_I2C1_DO_TX^0,w,c
  2932  000F8C  0A01               	xorlw	1	; case 1
  2933  000F8E  B4D8               	btfsc	status,2,c
  2934  000F90  EFA5  F007         	goto	l2401
  2935  000F94  0A03               	xorlw	3	; case 2
  2936  000F96  B4D8               	btfsc	status,2,c
  2937  000F98  EF9D  F007         	goto	l2393
  2938  000F9C  0A01               	xorlw	1	; case 3
  2939  000F9E  B4D8               	btfsc	status,2,c
  2940  000FA0  EFA1  F007         	goto	l2397
  2941  000FA4  0A07               	xorlw	7	; case 4
  2942  000FA6  B4D8               	btfsc	status,2,c
  2943  000FA8  EFA5  F007         	goto	l2401
  2944  000FAC  EFA5  F007         	goto	l2401
  2945  000FB0                     l532:
  2946                           
  2947                           ;mcc_generated_files/i2c1_master.c: 371:     {;mcc_generated_files/i2c1_master.c: 372:  
      +                                 I2C1_Status.addressNackCheck = 0;
  2948  000FB0  9024               	bcf	(_I2C1_Status+35)^0,0,c
  2949  000FB2                     
  2950                           ;mcc_generated_files/i2c1_master.c: 373:         I2C1_MasterSendTxData(*I2C1_Status.data
      +                          _ptr++);
  2951  000FB2  C01E  FFD9         	movff	_I2C1_Status+29,fsr2l
  2952  000FB6  C01F  FFDA         	movff	_I2C1_Status+30,fsr2h
  2953  000FBA  4A1E               	infsnz	(_I2C1_Status+29)^0,f,c
  2954  000FBC  2A1F               	incf	(_I2C1_Status+30)^0,f,c
  2955  000FBE  50DF               	movf	indf2,w,c
  2956  000FC0  EC13  F00C         	call	_I2C1_MasterSendTxData
  2957  000FC4                     
  2958                           ;mcc_generated_files/i2c1_master.c: 374:         return (--I2C1_Status.data_length)?I2C1
      +                          _TX:I2C1_TX_EMPTY;
  2959  000FC4  0620               	decf	(_I2C1_Status+31)^0,f,c
  2960  000FC6  A0D8               	btfss	status,0,c
  2961  000FC8  0621               	decf	(_I2C1_Status+32)^0,f,c
  2962  000FCA  5020               	movf	(_I2C1_Status+31)^0,w,c
  2963  000FCC  1021               	iorwf	(_I2C1_Status+32)^0,w,c
  2964  000FCE  A4D8               	btfss	status,2,c
  2965  000FD0  EFEC  F007         	goto	u601
  2966  000FD4  EFEE  F007         	goto	u600
  2967  000FD8                     u601:
  2968  000FD8  EFF1  F007         	goto	l2415
  2969  000FDC                     u600:
  2970  000FDC  0E06               	movlw	6
  2971  000FDE  EFF2  F007         	goto	l535
  2972  000FE2                     l2415:
  2973  000FE2  0E03               	movlw	3
  2974  000FE4                     l535:
  2975  000FE4  0012               	return		;funcret
  2976  000FE6                     __end_of_I2C1_DO_TX:
  2977                           	callstack 0
  2978                           
  2979 ;; *************** function _I2C1_DO_SEND_ADR_WRITE *****************
  2980 ;; Defined at:
  2981 ;;		line 347 in file "mcc_generated_files/i2c1_master.c"
  2982 ;; Parameters:    Size  Location     Type
  2983 ;;		None
  2984 ;; Auto vars:     Size  Location     Type
  2985 ;;		None
  2986 ;; Return value:  Size  Location     Type
  2987 ;;                  1    wreg      enum E6649
  2988 ;; Registers used:
  2989 ;;		wreg, status,2, status,0, cstack
  2990 ;; Tracked objects:
  2991 ;;		On entry : 0/0
  2992 ;;		On exit  : 0/0
  2993 ;;		Unchanged: 0/0
  2994 ;; Data sizes:     COMRAM   BANK0   BANK1   BANK2   BANK3   BANK4   BANK5   BANK6   BANK7   BANK8   BANK9  BANK10  BANK1
      +1  BANK12  BANK13  BANK14
  2995 ;;      Params:         0       0       0       0       0       0       0       0       0       0       0       0       
      +0       0       0       0
  2996 ;;      Locals:         0       0       0       0       0       0       0       0       0       0       0       0       
      +0       0       0       0
  2997 ;;      Temps:          0       0       0       0       0       0       0       0       0       0       0       0       
      +0       0       0       0
  2998 ;;      Totals:         0       0       0       0       0       0       0       0       0       0       0       0       
      +0       0       0       0
  2999 ;;Total ram usage:        0 bytes
  3000 ;; Hardware stack levels used: 1
  3001 ;; Hardware stack levels required when called: 5
  3002 ;; This function calls:
  3003 ;;		_I2C1_MasterSendTxData
  3004 ;; This function is called by:
  3005 ;;		_I2C1_MasterFsm
  3006 ;; This function uses a non-reentrant model
  3007 ;;
  3008                           
  3009                           	psect	text37
  3010  001770                     __ptext37:
  3011                           	callstack 0
  3012  001770                     _I2C1_DO_SEND_ADR_WRITE:
  3013                           	callstack 20
  3014  001770                     
  3015                           ;mcc_generated_files/i2c1_master.c: 349:     I2C1_Status.addressNackCheck = 1;
  3016  001770  8024               	bsf	(_I2C1_Status+35)^0,0,c
  3017  001772                     
  3018                           ;mcc_generated_files/i2c1_master.c: 350:     I2C1_MasterSendTxData((uint8_t) (I2C1_Statu
      +                          s.address << 1));
  3019  001772  501D               	movf	(_I2C1_Status+28)^0,w,c
  3020  001774  241D               	addwf	(_I2C1_Status+28)^0,w,c
  3021  001776  EC13  F00C         	call	_I2C1_MasterSendTxData
  3022  00177A                     
  3023                           ;mcc_generated_files/i2c1_master.c: 351:     return I2C1_TX;
  3024  00177A  0E03               	movlw	3
  3025  00177C  0012               	return		;funcret
  3026  00177E                     __end_of_I2C1_DO_SEND_ADR_WRITE:
  3027                           	callstack 0
  3028                           
  3029 ;; *************** function _I2C1_DO_SEND_ADR_READ *****************
  3030 ;; Defined at:
  3031 ;;		line 340 in file "mcc_generated_files/i2c1_master.c"
  3032 ;; Parameters:    Size  Location     Type
  3033 ;;		None
  3034 ;; Auto vars:     Size  Location     Type
  3035 ;;		None
  3036 ;; Return value:  Size  Location     Type
  3037 ;;                  1    wreg      enum E6649
  3038 ;; Registers used:
  3039 ;;		wreg, status,0, cstack
  3040 ;; Tracked objects:
  3041 ;;		On entry : 0/0
  3042 ;;		On exit  : 0/0
  3043 ;;		Unchanged: 0/0
  3044 ;; Data sizes:     COMRAM   BANK0   BANK1   BANK2   BANK3   BANK4   BANK5   BANK6   BANK7   BANK8   BANK9  BANK10  BANK1
      +1  BANK12  BANK13  BANK14
  3045 ;;      Params:         0       0       0       0       0       0       0       0       0       0       0       0       
      +0       0       0       0
  3046 ;;      Locals:         0       0       0       0       0       0       0       0       0       0       0       0       
      +0       0       0       0
  3047 ;;      Temps:          0       0       0       0       0       0       0       0       0       0       0       0       
      +0       0       0       0
  3048 ;;      Totals:         0       0       0       0       0       0       0       0       0       0       0       0       
      +0       0       0       0
  3049 ;;Total ram usage:        0 bytes
  3050 ;; Hardware stack levels used: 1
  3051 ;; Hardware stack levels required when called: 5
  3052 ;; This function calls:
  3053 ;;		_I2C1_MasterSendTxData
  3054 ;; This function is called by:
  3055 ;;		_I2C1_MasterFsm
  3056 ;; This function uses a non-reentrant model
  3057 ;;
  3058                           
  3059                           	psect	text38
  3060  00177E                     __ptext38:
  3061                           	callstack 0
  3062  00177E                     _I2C1_DO_SEND_ADR_READ:
  3063                           	callstack 20
  3064  00177E                     
  3065                           ;mcc_generated_files/i2c1_master.c: 342:     I2C1_Status.addressNackCheck = 1;
  3066  00177E  8024               	bsf	(_I2C1_Status+35)^0,0,c
  3067  001780                     
  3068                           ;mcc_generated_files/i2c1_master.c: 343:     I2C1_MasterSendTxData((uint8_t) (I2C1_Statu
      +                          s.address << 1 | 1));
  3069  001780  80D8               	bsf	status,0,c
  3070  001782  341D               	rlcf	(_I2C1_Status+28)^0,w,c
  3071  001784  EC13  F00C         	call	_I2C1_MasterSendTxData
  3072  001788                     
  3073                           ;mcc_generated_files/i2c1_master.c: 344:     return I2C1_RCEN;
  3074  001788  0E05               	movlw	5
  3075  00178A  0012               	return		;funcret
  3076  00178C                     __end_of_I2C1_DO_SEND_ADR_READ:
  3077                           	callstack 0
  3078                           
  3079 ;; *************** function _I2C1_DO_IDLE *****************
  3080 ;; Defined at:
  3081 ;;		line 333 in file "mcc_generated_files/i2c1_master.c"
  3082 ;; Parameters:    Size  Location     Type
  3083 ;;		None
  3084 ;; Auto vars:     Size  Location     Type
  3085 ;;		None
  3086 ;; Return value:  Size  Location     Type
  3087 ;;                  1    wreg      enum E6649
  3088 ;; Registers used:
  3089 ;;		wreg, status,2
  3090 ;; Tracked objects:
  3091 ;;		On entry : 0/0
  3092 ;;		On exit  : 0/0
  3093 ;;		Unchanged: 0/0
  3094 ;; Data sizes:     COMRAM   BANK0   BANK1   BANK2   BANK3   BANK4   BANK5   BANK6   BANK7   BANK8   BANK9  BANK10  BANK1
      +1  BANK12  BANK13  BANK14
  3095 ;;      Params:         0       0       0       0       0       0       0       0       0       0       0       0       
      +0       0       0       0
  3096 ;;      Locals:         0       0       0       0       0       0       0       0       0       0       0       0       
      +0       0       0       0
  3097 ;;      Temps:          0       0       0       0       0       0       0       0       0       0       0       0       
      +0       0       0       0
  3098 ;;      Totals:         0       0       0       0       0       0       0       0       0       0       0       0       
      +0       0       0       0
  3099 ;;Total ram usage:        0 bytes
  3100 ;; Hardware stack levels used: 1
  3101 ;; Hardware stack levels required when called: 4
  3102 ;; This function calls:
  3103 ;;		Nothing
  3104 ;; This function is called by:
  3105 ;;		_I2C1_MasterFsm
  3106 ;; This function uses a non-reentrant model
  3107 ;;
  3108                           
  3109                           	psect	text39
  3110  0017DC                     __ptext39:
  3111                           	callstack 0
  3112  0017DC                     _I2C1_DO_IDLE:
  3113                           	callstack 21
  3114  0017DC                     
  3115                           ;mcc_generated_files/i2c1_master.c: 335:     I2C1_Status.busy = 0;
  3116  0017DC  9224               	bcf	(_I2C1_Status+35)^0,1,c
  3117  0017DE                     
  3118                           ;mcc_generated_files/i2c1_master.c: 336:     I2C1_Status.error = I2C1_NOERR;
  3119  0017DE  0E00               	movlw	0
  3120  0017E0  6E23               	movwf	(_I2C1_Status+34)^0,c
  3121  0017E2                     
  3122                           ;mcc_generated_files/i2c1_master.c: 337:     return I2C1_RESET;
  3123  0017E2  0E0E               	movlw	14
  3124  0017E4  0012               	return		;funcret
  3125  0017E6                     __end_of_I2C1_DO_IDLE:
  3126                           	callstack 0
  3127                           
  3128 ;; *************** function _I2C1_DO_TX_EMPTY *****************
  3129 ;; Defined at:
  3130 ;;		line 409 in file "mcc_generated_files/i2c1_master.c"
  3131 ;; Parameters:    Size  Location     Type
  3132 ;;		None
  3133 ;; Auto vars:     Size  Location     Type
  3134 ;;		None
  3135 ;; Return value:  Size  Location     Type
  3136 ;;                  1    wreg      enum E6649
  3137 ;; Registers used:
  3138 ;;		wreg, fsr2l, fsr2h, status,2, status,0, pcl, pclath, pclatu, tosl, prodl, prodh, cstack
  3139 ;; Tracked objects:
  3140 ;;		On entry : 0/0
  3141 ;;		On exit  : 0/0
  3142 ;;		Unchanged: 0/0
  3143 ;; Data sizes:     COMRAM   BANK0   BANK1   BANK2   BANK3   BANK4   BANK5   BANK6   BANK7   BANK8   BANK9  BANK10  BANK1
      +1  BANK12  BANK13  BANK14
  3144 ;;      Params:         0       0       0       0       0       0       0       0       0       0       0       0       
      +0       0       0       0
  3145 ;;      Locals:         0       0       0       0       0       0       0       0       0       0       0       0       
      +0       0       0       0
  3146 ;;      Temps:          2       0       0       0       0       0       0       0       0       0       0       0       
      +0       0       0       0
  3147 ;;      Totals:         2       0       0       0       0       0       0       0       0       0       0       0       
      +0       0       0       0
  3148 ;;Total ram usage:        2 bytes
  3149 ;; Hardware stack levels used: 1
  3150 ;; Hardware stack levels required when called: 7
  3151 ;; This function calls:
  3152 ;;		Absolute function
  3153 ;;		_I2C1_CallbackReturnReset
  3154 ;;		_I2C1_CallbackReturnStop
  3155 ;;		_I2C1_DO_SEND_RESTART
  3156 ;;		_I2C1_DO_SEND_STOP
  3157 ;;		_I2C1_MasterSetIrq
  3158 ;;		_rd1RegCompleteHandler
  3159 ;;		_rd2RegCompleteHandler
  3160 ;;		_rdBlkRegCompleteHandler
  3161 ;;		_wr1RegCompleteHandler
  3162 ;;		_wr2RegCompleteHandler
  3163 ;; This function is called by:
  3164 ;;		_I2C1_MasterFsm
  3165 ;; This function uses a non-reentrant model
  3166 ;;
  3167                           
  3168                           	psect	text40
  3169  001118                     __ptext40:
  3170                           	callstack 0
  3171  001118                     _I2C1_DO_TX_EMPTY:
  3172                           	callstack 18
  3173  001118                     
  3174                           ;mcc_generated_files/i2c1_master.c: 411:     I2C1_Status.bufferFree = 1;
  3175  001118  8624               	bsf	(_I2C1_Status+35)^0,3,c
  3176                           
  3177                           ;mcc_generated_files/i2c1_master.c: 412:     switch(I2C1_Status.callbackTable[I2C1_DATA_
      +                          COMPLETE](I2C1_Status.callbackPayload[I2C1_DATA_COMPLETE]))
  3178  00111A  EF9C  F008         	goto	l2471
  3179  00111E                     l2455:
  3180                           
  3181                           ;mcc_generated_files/i2c1_master.c: 416:             return I2C1_DO_SEND_RESTART();
  3182  00111E  EC07  F00C         	call	_I2C1_DO_SEND_RESTART	;wreg free
  3183  001122  EFC9  F008         	goto	l566
  3184  001126                     l2459:
  3185                           
  3186                           ;mcc_generated_files/i2c1_master.c: 418:             I2C1_MasterSetIrq();
  3187  001126  EC2B  F00C         	call	_I2C1_MasterSetIrq	;wreg free
  3188  00112A                     
  3189                           ;mcc_generated_files/i2c1_master.c: 419:             return I2C1_TX;
  3190  00112A  0E03               	movlw	3
  3191  00112C  EFC9  F008         	goto	l566
  3192  001130                     l2465:
  3193                           
  3194                           ;mcc_generated_files/i2c1_master.c: 422:             return I2C1_DO_SEND_STOP();
  3195  001130  EC03  F00C         	call	_I2C1_DO_SEND_STOP	;wreg free
  3196  001134  EFC9  F008         	goto	l566
  3197  001138                     l2471:
  3198  001138  C00D  F035         	movff	_I2C1_Status+12,rdBlkRegCompleteHandler@ptr
  3199  00113C  C00E  F036         	movff	_I2C1_Status+13,rdBlkRegCompleteHandler@ptr+1
  3200  001140  D802               	call	u638
  3201  001142  EFAD  F008         	goto	u639
  3202  001146                     u638:
  3203  001146  0005               	push	
  3204  001148  6EFA               	movwf	pclath,c
  3205  00114A  5001               	movf	_I2C1_Status^0,w,c
  3206  00114C  6EFD               	movwf	tosl,c
  3207  00114E  5002               	movf	(_I2C1_Status+1)^0,w,c
  3208  001150  6EFE               	movwf	tosh,c
  3209  001152  50F8               	movf	tblptru,w,c
  3210  001154  6EFF               	movwf	tosu,c
  3211  001156  50FA               	movf	pclath,w,c
  3212  001158  0012               	return		;indir
  3213  00115A                     u639:
  3214  00115A  6E2C               	movwf	??_I2C1_DO_TX_EMPTY^0,c
  3215  00115C  6A2D               	clrf	(??_I2C1_DO_TX_EMPTY+1)^0,c
  3216                           
  3217                           ; Switch on 2 bytes has been partitioned into a top level switch of size 1, and 1 sub-sw
      +                          itches
  3218                           ; Switch size 1, requested type "simple"
  3219                           ; Number of cases is 1, Range of values is 0 to 0
  3220                           ; switch strategies available:
  3221                           ; Name         Instructions Cycles
  3222                           ; simple_byte            4     3 (average)
  3223                           ;	Chosen strategy is simple_byte
  3224  00115E  502D               	movf	(??_I2C1_DO_TX_EMPTY+1)^0,w,c
  3225  001160  0A00               	xorlw	0	; case 0
  3226  001162  B4D8               	btfsc	status,2,c
  3227  001164  EFB6  F008         	goto	l2879
  3228  001168  EF98  F008         	goto	l2465
  3229  00116C                     l2879:
  3230                           
  3231                           ; Switch size 1, requested type "simple"
  3232                           ; Number of cases is 4, Range of values is 1 to 4
  3233                           ; switch strategies available:
  3234                           ; Name         Instructions Cycles
  3235                           ; simple_byte           13     7 (average)
  3236                           ;	Chosen strategy is simple_byte
  3237  00116C  502C               	movf	??_I2C1_DO_TX_EMPTY^0,w,c
  3238  00116E  0A01               	xorlw	1	; case 1
  3239  001170  B4D8               	btfsc	status,2,c
  3240  001172  EF98  F008         	goto	l2465
  3241  001176  0A03               	xorlw	3	; case 2
  3242  001178  B4D8               	btfsc	status,2,c
  3243  00117A  EF8F  F008         	goto	l2455
  3244  00117E  0A01               	xorlw	1	; case 3
  3245  001180  B4D8               	btfsc	status,2,c
  3246  001182  EF8F  F008         	goto	l2455
  3247  001186  0A07               	xorlw	7	; case 4
  3248  001188  B4D8               	btfsc	status,2,c
  3249  00118A  EF93  F008         	goto	l2459
  3250  00118E  EF98  F008         	goto	l2465
  3251  001192                     l566:
  3252  001192  0012               	return		;funcret
  3253  001194                     __end_of_I2C1_DO_TX_EMPTY:
  3254                           	callstack 0
  3255                           
  3256 ;; *************** function _I2C1_MasterSetIrq *****************
  3257 ;; Defined at:
  3258 ;;		line 645 in file "mcc_generated_files/i2c1_master.c"
  3259 ;; Parameters:    Size  Location     Type
  3260 ;;		None
  3261 ;; Auto vars:     Size  Location     Type
  3262 ;;		None
  3263 ;; Return value:  Size  Location     Type
  3264 ;;                  1    wreg      void 
  3265 ;; Registers used:
  3266 ;;		None
  3267 ;; Tracked objects:
  3268 ;;		On entry : 0/0
  3269 ;;		On exit  : 0/0
  3270 ;;		Unchanged: 0/0
  3271 ;; Data sizes:     COMRAM   BANK0   BANK1   BANK2   BANK3   BANK4   BANK5   BANK6   BANK7   BANK8   BANK9  BANK10  BANK1
      +1  BANK12  BANK13  BANK14
  3272 ;;      Params:         0       0       0       0       0       0       0       0       0       0       0       0       
      +0       0       0       0
  3273 ;;      Locals:         0       0       0       0       0       0       0       0       0       0       0       0       
      +0       0       0       0
  3274 ;;      Temps:          0       0       0       0       0       0       0       0       0       0       0       0       
      +0       0       0       0
  3275 ;;      Totals:         0       0       0       0       0       0       0       0       0       0       0       0       
      +0       0       0       0
  3276 ;;Total ram usage:        0 bytes
  3277 ;; Hardware stack levels used: 1
  3278 ;; Hardware stack levels required when called: 4
  3279 ;; This function calls:
  3280 ;;		Nothing
  3281 ;; This function is called by:
  3282 ;;		_I2C1_DO_TX_EMPTY
  3283 ;; This function uses a non-reentrant model
  3284 ;;
  3285                           
  3286                           	psect	text41
  3287  001856                     __ptext41:
  3288                           	callstack 0
  3289  001856                     _I2C1_MasterSetIrq:
  3290                           	callstack 20
  3291  001856                     
  3292                           ;mcc_generated_files/i2c1_master.c: 647:     PIR1bits.SSP1IF = 1;
  3293  001856  869E               	bsf	158,3,c	;volatile
  3294  001858  0012               	return		;funcret
  3295  00185A                     __end_of_I2C1_MasterSetIrq:
  3296                           	callstack 0
  3297                           
  3298 ;; *************** function _I2C1_MasterIsNack *****************
  3299 ;; Defined at:
  3300 ;;		line 598 in file "mcc_generated_files/i2c1_master.c"
  3301 ;; Parameters:    Size  Location     Type
  3302 ;;		None
  3303 ;; Auto vars:     Size  Location     Type
  3304 ;;		None
  3305 ;; Return value:  Size  Location     Type
  3306 ;;                  1    wreg      _Bool 
  3307 ;; Registers used:
  3308 ;;		wreg
  3309 ;; Tracked objects:
  3310 ;;		On entry : 0/0
  3311 ;;		On exit  : 0/0
  3312 ;;		Unchanged: 0/0
  3313 ;; Data sizes:     COMRAM   BANK0   BANK1   BANK2   BANK3   BANK4   BANK5   BANK6   BANK7   BANK8   BANK9  BANK10  BANK1
      +1  BANK12  BANK13  BANK14
  3314 ;;      Params:         0       0       0       0       0       0       0       0       0       0       0       0       
      +0       0       0       0
  3315 ;;      Locals:         0       0       0       0       0       0       0       0       0       0       0       0       
      +0       0       0       0
  3316 ;;      Temps:          0       0       0       0       0       0       0       0       0       0       0       0       
      +0       0       0       0
  3317 ;;      Totals:         0       0       0       0       0       0       0       0       0       0       0       0       
      +0       0       0       0
  3318 ;;Total ram usage:        0 bytes
  3319 ;; Hardware stack levels used: 1
  3320 ;; Hardware stack levels required when called: 4
  3321 ;; This function calls:
  3322 ;;		Nothing
  3323 ;; This function is called by:
  3324 ;;		_I2C1_MasterFsm
  3325 ;;		_I2C1_DO_TX
  3326 ;; This function uses a non-reentrant model
  3327 ;;
  3328                           
  3329                           	psect	text42
  3330  00173A                     __ptext42:
  3331                           	callstack 0
  3332  00173A                     _I2C1_MasterIsNack:
  3333                           	callstack 21
  3334  00173A                     
  3335                           ;mcc_generated_files/i2c1_master.c: 600:     return SSP1CON2bits.ACKSTAT;
  3336  00173A  BCC5               	btfsc	197,6,c	;volatile
  3337  00173C  EFA2  F00B         	goto	u31
  3338  001740  EFA5  F00B         	goto	u30
  3339  001744                     u31:
  3340  001744  0E01               	movlw	1
  3341  001746  EFA6  F00B         	goto	u36
  3342  00174A                     u30:
  3343  00174A  0E00               	movlw	0
  3344  00174C                     u36:
  3345  00174C  0012               	return		;funcret
  3346  00174E                     __end_of_I2C1_MasterIsNack:
  3347                           	callstack 0
  3348                           
  3349 ;; *************** function _I2C1_MasterSendTxData *****************
  3350 ;; Defined at:
  3351 ;;		line 568 in file "mcc_generated_files/i2c1_master.c"
  3352 ;; Parameters:    Size  Location     Type
  3353 ;;  data            1    wreg     unsigned char 
  3354 ;; Auto vars:     Size  Location     Type
  3355 ;;  data            1    2[COMRAM] unsigned char 
  3356 ;; Return value:  Size  Location     Type
  3357 ;;                  1    wreg      void 
  3358 ;; Registers used:
  3359 ;;		wreg
  3360 ;; Tracked objects:
  3361 ;;		On entry : 0/0
  3362 ;;		On exit  : 0/0
  3363 ;;		Unchanged: 0/0
  3364 ;; Data sizes:     COMRAM   BANK0   BANK1   BANK2   BANK3   BANK4   BANK5   BANK6   BANK7   BANK8   BANK9  BANK10  BANK1
      +1  BANK12  BANK13  BANK14
  3365 ;;      Params:         0       0       0       0       0       0       0       0       0       0       0       0       
      +0       0       0       0
  3366 ;;      Locals:         1       0       0       0       0       0       0       0       0       0       0       0       
      +0       0       0       0
  3367 ;;      Temps:          0       0       0       0       0       0       0       0       0       0       0       0       
      +0       0       0       0
  3368 ;;      Totals:         1       0       0       0       0       0       0       0       0       0       0       0       
      +0       0       0       0
  3369 ;;Total ram usage:        1 bytes
  3370 ;; Hardware stack levels used: 1
  3371 ;; Hardware stack levels required when called: 4
  3372 ;; This function calls:
  3373 ;;		Nothing
  3374 ;; This function is called by:
  3375 ;;		_I2C1_DO_SEND_ADR_READ
  3376 ;;		_I2C1_DO_SEND_ADR_WRITE
  3377 ;;		_I2C1_DO_TX
  3378 ;; This function uses a non-reentrant model
  3379 ;;
  3380                           
  3381                           	psect	text43
  3382  001826                     __ptext43:
  3383                           	callstack 0
  3384  001826                     _I2C1_MasterSendTxData:
  3385                           	callstack 20
  3386                           
  3387                           ;incstack = 0
  3388                           ;I2C1_MasterSendTxData@data stored from wreg
  3389  001826  6E2C               	movwf	I2C1_MasterSendTxData@data^0,c
  3390  001828                     
  3391                           ;mcc_generated_files/i2c1_master.c: 568: static __attribute__((inline)) void I2C1_Master
      +                          SendTxData(uint8_t data);mcc_generated_files/i2c1_master.c: 569: {;mcc_generated_files/i
      +                          2c1_master.c: 570:     SSP1BUF = data;
  3392  001828  C02C  FFC9         	movff	I2C1_MasterSendTxData@data,4041	;volatile
  3393  00182C  0012               	return		;funcret
  3394  00182E                     __end_of_I2C1_MasterSendTxData:
  3395                           	callstack 0
  3396                           
  3397 ;; *************** function _I2C1_MasterSendAck *****************
  3398 ;; Defined at:
  3399 ;;		line 603 in file "mcc_generated_files/i2c1_master.c"
  3400 ;; Parameters:    Size  Location     Type
  3401 ;;		None
  3402 ;; Auto vars:     Size  Location     Type
  3403 ;;		None
  3404 ;; Return value:  Size  Location     Type
  3405 ;;                  1    wreg      void 
  3406 ;; Registers used:
  3407 ;;		None
  3408 ;; Tracked objects:
  3409 ;;		On entry : 0/0
  3410 ;;		On exit  : 0/0
  3411 ;;		Unchanged: 0/0
  3412 ;; Data sizes:     COMRAM   BANK0   BANK1   BANK2   BANK3   BANK4   BANK5   BANK6   BANK7   BANK8   BANK9  BANK10  BANK1
      +1  BANK12  BANK13  BANK14
  3413 ;;      Params:         0       0       0       0       0       0       0       0       0       0       0       0       
      +0       0       0       0
  3414 ;;      Locals:         0       0       0       0       0       0       0       0       0       0       0       0       
      +0       0       0       0
  3415 ;;      Temps:          0       0       0       0       0       0       0       0       0       0       0       0       
      +0       0       0       0
  3416 ;;      Totals:         0       0       0       0       0       0       0       0       0       0       0       0       
      +0       0       0       0
  3417 ;;Total ram usage:        0 bytes
  3418 ;; Hardware stack levels used: 1
  3419 ;; Hardware stack levels required when called: 4
  3420 ;; This function calls:
  3421 ;;		Nothing
  3422 ;; This function is called by:
  3423 ;;		_I2C1_DO_RX
  3424 ;;		_I2C1_DO_RX_ACK
  3425 ;; This function uses a non-reentrant model
  3426 ;;
  3427                           
  3428                           	psect	text44
  3429  001846                     __ptext44:
  3430                           	callstack 0
  3431  001846                     _I2C1_MasterSendAck:
  3432                           	callstack 20
  3433  001846                     
  3434                           ;mcc_generated_files/i2c1_master.c: 605:     SSP1CON2bits.ACKDT = 0;
  3435  001846  9AC5               	bcf	197,5,c	;volatile
  3436                           
  3437                           ;mcc_generated_files/i2c1_master.c: 606:     SSP1CON2bits.ACKEN = 1;
  3438  001848  88C5               	bsf	197,4,c	;volatile
  3439  00184A  0012               	return		;funcret
  3440  00184C                     __end_of_I2C1_MasterSendAck:
  3441                           	callstack 0
  3442                           
  3443 ;; *************** function _I2C1_MasterGetRxData *****************
  3444 ;; Defined at:
  3445 ;;		line 563 in file "mcc_generated_files/i2c1_master.c"
  3446 ;; Parameters:    Size  Location     Type
  3447 ;;		None
  3448 ;; Auto vars:     Size  Location     Type
  3449 ;;		None
  3450 ;; Return value:  Size  Location     Type
  3451 ;;                  1    wreg      unsigned char 
  3452 ;; Registers used:
  3453 ;;		wreg, status,2
  3454 ;; Tracked objects:
  3455 ;;		On entry : 0/0
  3456 ;;		On exit  : 0/0
  3457 ;;		Unchanged: 0/0
  3458 ;; Data sizes:     COMRAM   BANK0   BANK1   BANK2   BANK3   BANK4   BANK5   BANK6   BANK7   BANK8   BANK9  BANK10  BANK1
      +1  BANK12  BANK13  BANK14
  3459 ;;      Params:         0       0       0       0       0       0       0       0       0       0       0       0       
      +0       0       0       0
  3460 ;;      Locals:         0       0       0       0       0       0       0       0       0       0       0       0       
      +0       0       0       0
  3461 ;;      Temps:          0       0       0       0       0       0       0       0       0       0       0       0       
      +0       0       0       0
  3462 ;;      Totals:         0       0       0       0       0       0       0       0       0       0       0       0       
      +0       0       0       0
  3463 ;;Total ram usage:        0 bytes
  3464 ;; Hardware stack levels used: 1
  3465 ;; Hardware stack levels required when called: 4
  3466 ;; This function calls:
  3467 ;;		Nothing
  3468 ;; This function is called by:
  3469 ;;		_I2C1_DO_RX
  3470 ;; This function uses a non-reentrant model
  3471 ;;
  3472                           
  3473                           	psect	text45
  3474  00185A                     __ptext45:
  3475                           	callstack 0
  3476  00185A                     _I2C1_MasterGetRxData:
  3477                           	callstack 20
  3478  00185A                     
  3479                           ;mcc_generated_files/i2c1_master.c: 565:     return SSP1BUF;
  3480  00185A  50C9               	movf	201,w,c	;volatile
  3481  00185C  0012               	return		;funcret
  3482  00185E                     __end_of_I2C1_MasterGetRxData:
  3483                           	callstack 0
  3484                           
  3485 ;; *************** function _I2C1_MasterSendNack *****************
  3486 ;; Defined at:
  3487 ;;		line 609 in file "mcc_generated_files/i2c1_master.c"
  3488 ;; Parameters:    Size  Location     Type
  3489 ;;		None
  3490 ;; Auto vars:     Size  Location     Type
  3491 ;;		None
  3492 ;; Return value:  Size  Location     Type
  3493 ;;                  1    wreg      void 
  3494 ;; Registers used:
  3495 ;;		None
  3496 ;; Tracked objects:
  3497 ;;		On entry : 0/0
  3498 ;;		On exit  : 0/0
  3499 ;;		Unchanged: 0/0
  3500 ;; Data sizes:     COMRAM   BANK0   BANK1   BANK2   BANK3   BANK4   BANK5   BANK6   BANK7   BANK8   BANK9  BANK10  BANK1
      +1  BANK12  BANK13  BANK14
  3501 ;;      Params:         0       0       0       0       0       0       0       0       0       0       0       0       
      +0       0       0       0
  3502 ;;      Locals:         0       0       0       0       0       0       0       0       0       0       0       0       
      +0       0       0       0
  3503 ;;      Temps:          0       0       0       0       0       0       0       0       0       0       0       0       
      +0       0       0       0
  3504 ;;      Totals:         0       0       0       0       0       0       0       0       0       0       0       0       
      +0       0       0       0
  3505 ;;Total ram usage:        0 bytes
  3506 ;; Hardware stack levels used: 1
  3507 ;; Hardware stack levels required when called: 4
  3508 ;; This function calls:
  3509 ;;		Nothing
  3510 ;; This function is called by:
  3511 ;;		_I2C1_DO_RX_NACK_STOP
  3512 ;;		_I2C1_DO_RX_NACK_RESTART
  3513 ;; This function uses a non-reentrant model
  3514 ;;
  3515                           
  3516                           	psect	text46
  3517  00184C                     __ptext46:
  3518                           	callstack 0
  3519  00184C                     _I2C1_MasterSendNack:
  3520                           	callstack 20
  3521  00184C                     
  3522                           ;mcc_generated_files/i2c1_master.c: 611:     SSP1CON2bits.ACKDT = 1;
  3523  00184C  8AC5               	bsf	197,5,c	;volatile
  3524                           
  3525                           ;mcc_generated_files/i2c1_master.c: 612:     SSP1CON2bits.ACKEN = 1;
  3526  00184E  88C5               	bsf	197,4,c	;volatile
  3527  001850  0012               	return		;funcret
  3528  001852                     __end_of_I2C1_MasterSendNack:
  3529                           	callstack 0
  3530                           
  3531 ;; *************** function _I2C1_MasterStartRx *****************
  3532 ;; Defined at:
  3533 ;;		line 583 in file "mcc_generated_files/i2c1_master.c"
  3534 ;; Parameters:    Size  Location     Type
  3535 ;;		None
  3536 ;; Auto vars:     Size  Location     Type
  3537 ;;		None
  3538 ;; Return value:  Size  Location     Type
  3539 ;;                  1    wreg      void 
  3540 ;; Registers used:
  3541 ;;		None
  3542 ;; Tracked objects:
  3543 ;;		On entry : 0/0
  3544 ;;		On exit  : 0/0
  3545 ;;		Unchanged: 0/0
  3546 ;; Data sizes:     COMRAM   BANK0   BANK1   BANK2   BANK3   BANK4   BANK5   BANK6   BANK7   BANK8   BANK9  BANK10  BANK1
      +1  BANK12  BANK13  BANK14
  3547 ;;      Params:         0       0       0       0       0       0       0       0       0       0       0       0       
      +0       0       0       0
  3548 ;;      Locals:         0       0       0       0       0       0       0       0       0       0       0       0       
      +0       0       0       0
  3549 ;;      Temps:          0       0       0       0       0       0       0       0       0       0       0       0       
      +0       0       0       0
  3550 ;;      Totals:         0       0       0       0       0       0       0       0       0       0       0       0       
      +0       0       0       0
  3551 ;;Total ram usage:        0 bytes
  3552 ;; Hardware stack levels used: 1
  3553 ;; Hardware stack levels required when called: 4
  3554 ;; This function calls:
  3555 ;;		Nothing
  3556 ;; This function is called by:
  3557 ;;		_I2C1_DO_RCEN
  3558 ;; This function uses a non-reentrant model
  3559 ;;
  3560                           
  3561                           	psect	text47
  3562  00185E                     __ptext47:
  3563                           	callstack 0
  3564  00185E                     _I2C1_MasterStartRx:
  3565                           	callstack 20
  3566  00185E                     
  3567                           ;mcc_generated_files/i2c1_master.c: 585:     SSP1CON2bits.RCEN = 1;
  3568  00185E  86C5               	bsf	197,3,c	;volatile
  3569  001860  0012               	return		;funcret
  3570  001862                     __end_of_I2C1_MasterStartRx:
  3571                           	callstack 0
  3572                           
  3573 ;; *************** function _rdBlkRegCompleteHandler *****************
  3574 ;; Defined at:
  3575 ;;		line 170 in file "mcc_generated_files/examples/i2c1_master_example.c"
  3576 ;; Parameters:    Size  Location     Type
  3577 ;;  ptr             2   11[COMRAM] PTR void 
  3578 ;;		 -> I2C1_ReadDataBlock@bufferBlock(4), I2C1_Write2ByteRegister@data(2), I2C1_Write1ByteRegister@data(1), I2C1_Read2B
      +yteRegister@returnValue(2), 
  3579 ;;		 -> I2C1_Read1ByteRegister@returnValue(1), NULL(0), 
  3580 ;; Auto vars:     Size  Location     Type
  3581 ;;		None
  3582 ;; Return value:  Size  Location     Type
  3583 ;;                  1    wreg      enum E360
  3584 ;; Registers used:
  3585 ;;		wreg, fsr2l, fsr2h, status,2, status,0, prodl, prodh, cstack
  3586 ;; Tracked objects:
  3587 ;;		On entry : 0/0
  3588 ;;		On exit  : 0/0
  3589 ;;		Unchanged: 0/0
  3590 ;; Data sizes:     COMRAM   BANK0   BANK1   BANK2   BANK3   BANK4   BANK5   BANK6   BANK7   BANK8   BANK9  BANK10  BANK1
      +1  BANK12  BANK13  BANK14
  3591 ;;      Params:         2       0       0       0       0       0       0       0       0       0       0       0       
      +0       0       0       0
  3592 ;;      Locals:         0       0       0       0       0       0       0       0       0       0       0       0       
      +0       0       0       0
  3593 ;;      Temps:          0       0       0       0       0       0       0       0       0       0       0       0       
      +0       0       0       0
  3594 ;;      Totals:         2       0       0       0       0       0       0       0       0       0       0       0       
      +0       0       0       0
  3595 ;;Total ram usage:        2 bytes
  3596 ;; Hardware stack levels used: 1
  3597 ;; Hardware stack levels required when called: 6
  3598 ;; This function calls:
  3599 ;;		_I2C1_SetBuffer
  3600 ;;		_I2C1_SetDataCompleteCallback
  3601 ;; This function is called by:
  3602 ;;		_I2C1_ReadDataBlock
  3603 ;;		_I2C1_DO_TX
  3604 ;;		_I2C1_DO_RX
  3605 ;;		_I2C1_DO_TX_EMPTY
  3606 ;;		_I2C1_DO_ADDRESS_NACK
  3607 ;;		_I2C1_DO_RX_EMPTY
  3608 ;; This function uses a non-reentrant model
  3609 ;;
  3610                           
  3611                           	psect	text48
  3612  0013D4                     __ptext48:
  3613                           	callstack 0
  3614  0013D4                     _rdBlkRegCompleteHandler:
  3615                           	callstack 18
  3616  0013D4                     
  3617                           ;mcc_generated_files/examples/i2c1_master_example.c: 170: static i2c1_operations_t rdBlk
      +                          RegCompleteHandler(void *ptr);mcc_generated_files/examples/i2c1_master_example.c: 171: {
      +                          ;mcc_generated_files/examples/i2c1_master_example.c: 172:     I2C1_SetBuffer(((i2c1_buff
      +                          er_t *)ptr)->data,((i2c1_buffer_t*)ptr)->len);
  3618  0013D4  EE20 F002          	lfsr	2,2
  3619  0013D8  5035               	movf	rdBlkRegCompleteHandler@ptr^0,w,c
  3620  0013DA  26D9               	addwf	fsr2l,f,c
  3621  0013DC  5036               	movf	(rdBlkRegCompleteHandler@ptr+1)^0,w,c
  3622  0013DE  22DA               	addwfc	fsr2h,f,c
  3623  0013E0  CFDE F02C          	movff	postinc2,I2C1_SetBuffer@buffer
  3624  0013E4  CFDD F02D          	movff	postdec2,I2C1_SetBuffer@buffer+1
  3625  0013E8  C035  FFD9         	movff	rdBlkRegCompleteHandler@ptr,fsr2l
  3626  0013EC  C036  FFDA         	movff	rdBlkRegCompleteHandler@ptr+1,fsr2h
  3627  0013F0  CFDE F02E          	movff	postinc2,I2C1_SetBuffer@bufferSize
  3628  0013F4  CFDD F02F          	movff	postdec2,I2C1_SetBuffer@bufferSize+1
  3629  0013F8  EC36  F00B         	call	_I2C1_SetBuffer	;wreg free
  3630  0013FC                     
  3631                           ;mcc_generated_files/examples/i2c1_master_example.c: 173:     I2C1_SetDataCompleteCallba
      +                          ck(((void*)0),((void*)0));
  3632  0013FC  0E00               	movlw	0
  3633  0013FE  6E31               	movwf	I2C1_SetDataCompleteCallback@cb^0,c
  3634  001400  0E00               	movlw	0
  3635  001402  6E32               	movwf	(I2C1_SetDataCompleteCallback@cb+1)^0,c
  3636  001404  0E00               	movlw	0
  3637  001406  6E33               	movwf	I2C1_SetDataCompleteCallback@ptr^0,c
  3638  001408  0E00               	movlw	0
  3639  00140A  6E34               	movwf	(I2C1_SetDataCompleteCallback@ptr+1)^0,c
  3640  00140C  EC7D  F00B         	call	_I2C1_SetDataCompleteCallback	;wreg free
  3641  001410                     
  3642                           ;mcc_generated_files/examples/i2c1_master_example.c: 174:     return I2C1_RESTART_READ;
  3643  001410  0E02               	movlw	2
  3644  001412  0012               	return		;funcret
  3645  001414                     __end_of_rdBlkRegCompleteHandler:
  3646                           	callstack 0
  3647                           
  3648 ;; *************** function _wr1RegCompleteHandler *****************
  3649 ;; Defined at:
  3650 ;;		line 156 in file "mcc_generated_files/examples/i2c1_master_example.c"
  3651 ;; Parameters:    Size  Location     Type
  3652 ;;  ptr             2   11[COMRAM] PTR void 
  3653 ;;		 -> I2C1_ReadDataBlock@bufferBlock(4), I2C1_Write2ByteRegister@data(2), I2C1_Write1ByteRegister@data(1), I2C1_Read2B
      +yteRegister@returnValue(2), 
  3654 ;;		 -> I2C1_Read1ByteRegister@returnValue(1), NULL(0), 
  3655 ;; Auto vars:     Size  Location     Type
  3656 ;;		None
  3657 ;; Return value:  Size  Location     Type
  3658 ;;                  1    wreg      enum E360
  3659 ;; Registers used:
  3660 ;;		wreg, fsr2l, fsr2h, status,2, status,0, prodl, prodh, cstack
  3661 ;; Tracked objects:
  3662 ;;		On entry : 0/0
  3663 ;;		On exit  : 0/0
  3664 ;;		Unchanged: 0/0
  3665 ;; Data sizes:     COMRAM   BANK0   BANK1   BANK2   BANK3   BANK4   BANK5   BANK6   BANK7   BANK8   BANK9  BANK10  BANK1
      +1  BANK12  BANK13  BANK14
  3666 ;;      Params:         2       0       0       0       0       0       0       0       0       0       0       0       
      +0       0       0       0
  3667 ;;      Locals:         0       0       0       0       0       0       0       0       0       0       0       0       
      +0       0       0       0
  3668 ;;      Temps:          0       0       0       0       0       0       0       0       0       0       0       0       
      +0       0       0       0
  3669 ;;      Totals:         2       0       0       0       0       0       0       0       0       0       0       0       
      +0       0       0       0
  3670 ;;Total ram usage:        2 bytes
  3671 ;; Hardware stack levels used: 1
  3672 ;; Hardware stack levels required when called: 6
  3673 ;; This function calls:
  3674 ;;		_I2C1_SetBuffer
  3675 ;;		_I2C1_SetDataCompleteCallback
  3676 ;; This function is called by:
  3677 ;;		_I2C1_Write1ByteRegister
  3678 ;;		_I2C1_DO_TX
  3679 ;;		_I2C1_DO_RX
  3680 ;;		_I2C1_DO_TX_EMPTY
  3681 ;;		_I2C1_DO_ADDRESS_NACK
  3682 ;;		_I2C1_DO_RX_EMPTY
  3683 ;; This function uses a non-reentrant model
  3684 ;;
  3685                           
  3686                           	psect	text49
  3687  00154E                     __ptext49:
  3688                           	callstack 0
  3689  00154E                     _wr1RegCompleteHandler:
  3690                           	callstack 18
  3691  00154E                     
  3692                           ;mcc_generated_files/examples/i2c1_master_example.c: 156: static i2c1_operations_t wr1Re
      +                          gCompleteHandler(void *ptr);mcc_generated_files/examples/i2c1_master_example.c: 157: {;m
      +                          cc_generated_files/examples/i2c1_master_example.c: 158:     I2C1_SetBuffer(ptr,1);
  3693  00154E  C035  F02C         	movff	wr1RegCompleteHandler@ptr,I2C1_SetBuffer@buffer
  3694  001552  C036  F02D         	movff	wr1RegCompleteHandler@ptr+1,I2C1_SetBuffer@buffer+1
  3695  001556  0E00               	movlw	0
  3696  001558  6E2F               	movwf	(I2C1_SetBuffer@bufferSize+1)^0,c
  3697  00155A  0E01               	movlw	1
  3698  00155C  6E2E               	movwf	I2C1_SetBuffer@bufferSize^0,c
  3699  00155E  EC36  F00B         	call	_I2C1_SetBuffer	;wreg free
  3700  001562                     
  3701                           ;mcc_generated_files/examples/i2c1_master_example.c: 159:     I2C1_SetDataCompleteCallba
      +                          ck(((void*)0),((void*)0));
  3702  001562  0E00               	movlw	0
  3703  001564  6E31               	movwf	I2C1_SetDataCompleteCallback@cb^0,c
  3704  001566  0E00               	movlw	0
  3705  001568  6E32               	movwf	(I2C1_SetDataCompleteCallback@cb+1)^0,c
  3706  00156A  0E00               	movlw	0
  3707  00156C  6E33               	movwf	I2C1_SetDataCompleteCallback@ptr^0,c
  3708  00156E  0E00               	movlw	0
  3709  001570  6E34               	movwf	(I2C1_SetDataCompleteCallback@ptr+1)^0,c
  3710  001572  EC7D  F00B         	call	_I2C1_SetDataCompleteCallback	;wreg free
  3711  001576                     
  3712                           ;mcc_generated_files/examples/i2c1_master_example.c: 160:     return I2C1_CONTINUE;
  3713  001576  0E04               	movlw	4
  3714  001578  0012               	return		;funcret
  3715  00157A                     __end_of_wr1RegCompleteHandler:
  3716                           	callstack 0
  3717                           
  3718 ;; *************** function _rd2RegCompleteHandler *****************
  3719 ;; Defined at:
  3720 ;;		line 149 in file "mcc_generated_files/examples/i2c1_master_example.c"
  3721 ;; Parameters:    Size  Location     Type
  3722 ;;  ptr             2   11[COMRAM] PTR void 
  3723 ;;		 -> I2C1_ReadDataBlock@bufferBlock(4), I2C1_Write2ByteRegister@data(2), I2C1_Write1ByteRegister@data(1), I2C1_Read2B
      +yteRegister@returnValue(2), 
  3724 ;;		 -> I2C1_Read1ByteRegister@returnValue(1), NULL(0), 
  3725 ;; Auto vars:     Size  Location     Type
  3726 ;;		None
  3727 ;; Return value:  Size  Location     Type
  3728 ;;                  1    wreg      enum E360
  3729 ;; Registers used:
  3730 ;;		wreg, fsr2l, fsr2h, status,2, status,0, prodl, prodh, cstack
  3731 ;; Tracked objects:
  3732 ;;		On entry : 0/0
  3733 ;;		On exit  : 0/0
  3734 ;;		Unchanged: 0/0
  3735 ;; Data sizes:     COMRAM   BANK0   BANK1   BANK2   BANK3   BANK4   BANK5   BANK6   BANK7   BANK8   BANK9  BANK10  BANK1
      +1  BANK12  BANK13  BANK14
  3736 ;;      Params:         2       0       0       0       0       0       0       0       0       0       0       0       
      +0       0       0       0
  3737 ;;      Locals:         0       0       0       0       0       0       0       0       0       0       0       0       
      +0       0       0       0
  3738 ;;      Temps:          0       0       0       0       0       0       0       0       0       0       0       0       
      +0       0       0       0
  3739 ;;      Totals:         2       0       0       0       0       0       0       0       0       0       0       0       
      +0       0       0       0
  3740 ;;Total ram usage:        2 bytes
  3741 ;; Hardware stack levels used: 1
  3742 ;; Hardware stack levels required when called: 6
  3743 ;; This function calls:
  3744 ;;		_I2C1_SetBuffer
  3745 ;;		_I2C1_SetDataCompleteCallback
  3746 ;; This function is called by:
  3747 ;;		_I2C1_Read2ByteRegister
  3748 ;;		_I2C1_DO_TX
  3749 ;;		_I2C1_DO_RX
  3750 ;;		_I2C1_DO_TX_EMPTY
  3751 ;;		_I2C1_DO_ADDRESS_NACK
  3752 ;;		_I2C1_DO_RX_EMPTY
  3753 ;; This function uses a non-reentrant model
  3754 ;;
  3755                           
  3756                           	psect	text50
  3757  00157A                     __ptext50:
  3758                           	callstack 0
  3759  00157A                     _rd2RegCompleteHandler:
  3760                           	callstack 18
  3761  00157A                     
  3762                           ;mcc_generated_files/examples/i2c1_master_example.c: 149: static i2c1_operations_t rd2Re
      +                          gCompleteHandler(void *ptr);mcc_generated_files/examples/i2c1_master_example.c: 150: {;m
      +                          cc_generated_files/examples/i2c1_master_example.c: 151:     I2C1_SetBuffer(ptr,2);
  3763  00157A  C035  F02C         	movff	rd2RegCompleteHandler@ptr,I2C1_SetBuffer@buffer
  3764  00157E  C036  F02D         	movff	rd2RegCompleteHandler@ptr+1,I2C1_SetBuffer@buffer+1
  3765  001582  0E00               	movlw	0
  3766  001584  6E2F               	movwf	(I2C1_SetBuffer@bufferSize+1)^0,c
  3767  001586  0E02               	movlw	2
  3768  001588  6E2E               	movwf	I2C1_SetBuffer@bufferSize^0,c
  3769  00158A  EC36  F00B         	call	_I2C1_SetBuffer	;wreg free
  3770  00158E                     
  3771                           ;mcc_generated_files/examples/i2c1_master_example.c: 152:     I2C1_SetDataCompleteCallba
      +                          ck(((void*)0),((void*)0));
  3772  00158E  0E00               	movlw	0
  3773  001590  6E31               	movwf	I2C1_SetDataCompleteCallback@cb^0,c
  3774  001592  0E00               	movlw	0
  3775  001594  6E32               	movwf	(I2C1_SetDataCompleteCallback@cb+1)^0,c
  3776  001596  0E00               	movlw	0
  3777  001598  6E33               	movwf	I2C1_SetDataCompleteCallback@ptr^0,c
  3778  00159A  0E00               	movlw	0
  3779  00159C  6E34               	movwf	(I2C1_SetDataCompleteCallback@ptr+1)^0,c
  3780  00159E  EC7D  F00B         	call	_I2C1_SetDataCompleteCallback	;wreg free
  3781  0015A2                     
  3782                           ;mcc_generated_files/examples/i2c1_master_example.c: 153:     return I2C1_RESTART_READ;
  3783  0015A2  0E02               	movlw	2
  3784  0015A4  0012               	return		;funcret
  3785  0015A6                     __end_of_rd2RegCompleteHandler:
  3786                           	callstack 0
  3787                           
  3788 ;; *************** function _rd1RegCompleteHandler *****************
  3789 ;; Defined at:
  3790 ;;		line 142 in file "mcc_generated_files/examples/i2c1_master_example.c"
  3791 ;; Parameters:    Size  Location     Type
  3792 ;;  ptr             2   11[COMRAM] PTR void 
  3793 ;;		 -> I2C1_ReadDataBlock@bufferBlock(4), I2C1_Write2ByteRegister@data(2), I2C1_Write1ByteRegister@data(1), I2C1_Read2B
      +yteRegister@returnValue(2), 
  3794 ;;		 -> I2C1_Read1ByteRegister@returnValue(1), NULL(0), 
  3795 ;; Auto vars:     Size  Location     Type
  3796 ;;		None
  3797 ;; Return value:  Size  Location     Type
  3798 ;;                  1    wreg      enum E360
  3799 ;; Registers used:
  3800 ;;		wreg, fsr2l, fsr2h, status,2, status,0, prodl, prodh, cstack
  3801 ;; Tracked objects:
  3802 ;;		On entry : 0/0
  3803 ;;		On exit  : 0/0
  3804 ;;		Unchanged: 0/0
  3805 ;; Data sizes:     COMRAM   BANK0   BANK1   BANK2   BANK3   BANK4   BANK5   BANK6   BANK7   BANK8   BANK9  BANK10  BANK1
      +1  BANK12  BANK13  BANK14
  3806 ;;      Params:         2       0       0       0       0       0       0       0       0       0       0       0       
      +0       0       0       0
  3807 ;;      Locals:         0       0       0       0       0       0       0       0       0       0       0       0       
      +0       0       0       0
  3808 ;;      Temps:          0       0       0       0       0       0       0       0       0       0       0       0       
      +0       0       0       0
  3809 ;;      Totals:         2       0       0       0       0       0       0       0       0       0       0       0       
      +0       0       0       0
  3810 ;;Total ram usage:        2 bytes
  3811 ;; Hardware stack levels used: 1
  3812 ;; Hardware stack levels required when called: 6
  3813 ;; This function calls:
  3814 ;;		_I2C1_SetBuffer
  3815 ;;		_I2C1_SetDataCompleteCallback
  3816 ;; This function is called by:
  3817 ;;		_I2C1_Read1ByteRegister
  3818 ;;		_I2C1_DO_TX
  3819 ;;		_I2C1_DO_RX
  3820 ;;		_I2C1_DO_TX_EMPTY
  3821 ;;		_I2C1_DO_ADDRESS_NACK
  3822 ;;		_I2C1_DO_RX_EMPTY
  3823 ;; This function uses a non-reentrant model
  3824 ;;
  3825                           
  3826                           	psect	text51
  3827  0015A6                     __ptext51:
  3828                           	callstack 0
  3829  0015A6                     _rd1RegCompleteHandler:
  3830                           	callstack 18
  3831  0015A6                     
  3832                           ;mcc_generated_files/examples/i2c1_master_example.c: 142: static i2c1_operations_t rd1Re
      +                          gCompleteHandler(void *ptr);mcc_generated_files/examples/i2c1_master_example.c: 143: {;m
      +                          cc_generated_files/examples/i2c1_master_example.c: 144:     I2C1_SetBuffer(ptr,1);
  3833  0015A6  C035  F02C         	movff	rd1RegCompleteHandler@ptr,I2C1_SetBuffer@buffer
  3834  0015AA  C036  F02D         	movff	rd1RegCompleteHandler@ptr+1,I2C1_SetBuffer@buffer+1
  3835  0015AE  0E00               	movlw	0
  3836  0015B0  6E2F               	movwf	(I2C1_SetBuffer@bufferSize+1)^0,c
  3837  0015B2  0E01               	movlw	1
  3838  0015B4  6E2E               	movwf	I2C1_SetBuffer@bufferSize^0,c
  3839  0015B6  EC36  F00B         	call	_I2C1_SetBuffer	;wreg free
  3840  0015BA                     
  3841                           ;mcc_generated_files/examples/i2c1_master_example.c: 145:     I2C1_SetDataCompleteCallba
      +                          ck(((void*)0),((void*)0));
  3842  0015BA  0E00               	movlw	0
  3843  0015BC  6E31               	movwf	I2C1_SetDataCompleteCallback@cb^0,c
  3844  0015BE  0E00               	movlw	0
  3845  0015C0  6E32               	movwf	(I2C1_SetDataCompleteCallback@cb+1)^0,c
  3846  0015C2  0E00               	movlw	0
  3847  0015C4  6E33               	movwf	I2C1_SetDataCompleteCallback@ptr^0,c
  3848  0015C6  0E00               	movlw	0
  3849  0015C8  6E34               	movwf	(I2C1_SetDataCompleteCallback@ptr+1)^0,c
  3850  0015CA  EC7D  F00B         	call	_I2C1_SetDataCompleteCallback	;wreg free
  3851  0015CE                     
  3852                           ;mcc_generated_files/examples/i2c1_master_example.c: 146:     return I2C1_RESTART_READ;
  3853  0015CE  0E02               	movlw	2
  3854  0015D0  0012               	return		;funcret
  3855  0015D2                     __end_of_rd1RegCompleteHandler:
  3856                           	callstack 0
  3857                           
  3858 ;; *************** function _I2C1_CallbackReturnReset *****************
  3859 ;; Defined at:
  3860 ;;		line 525 in file "mcc_generated_files/i2c1_master.c"
  3861 ;; Parameters:    Size  Location     Type
  3862 ;;  funPtr          2   11[COMRAM] PTR void 
  3863 ;;		 -> I2C1_ReadDataBlock@bufferBlock(4), I2C1_Write2ByteRegister@data(2), I2C1_Write1ByteRegister@data(1), I2C1_Read2B
      +yteRegister@returnValue(2), 
  3864 ;;		 -> I2C1_Read1ByteRegister@returnValue(1), NULL(0), 
  3865 ;; Auto vars:     Size  Location     Type
  3866 ;;		None
  3867 ;; Return value:  Size  Location     Type
  3868 ;;                  1    wreg      enum E360
  3869 ;; Registers used:
  3870 ;;		wreg
  3871 ;; Tracked objects:
  3872 ;;		On entry : 0/0
  3873 ;;		On exit  : 0/0
  3874 ;;		Unchanged: 0/0
  3875 ;; Data sizes:     COMRAM   BANK0   BANK1   BANK2   BANK3   BANK4   BANK5   BANK6   BANK7   BANK8   BANK9  BANK10  BANK1
      +1  BANK12  BANK13  BANK14
  3876 ;;      Params:         2       0       0       0       0       0       0       0       0       0       0       0       
      +0       0       0       0
  3877 ;;      Locals:         0       0       0       0       0       0       0       0       0       0       0       0       
      +0       0       0       0
  3878 ;;      Temps:          0       0       0       0       0       0       0       0       0       0       0       0       
      +0       0       0       0
  3879 ;;      Totals:         2       0       0       0       0       0       0       0       0       0       0       0       
      +0       0       0       0
  3880 ;;Total ram usage:        2 bytes
  3881 ;; Hardware stack levels used: 1
  3882 ;; Hardware stack levels required when called: 4
  3883 ;; This function calls:
  3884 ;;		Nothing
  3885 ;; This function is called by:
  3886 ;;		_I2C1_Open
  3887 ;;		_I2C1_DO_TX
  3888 ;;		_I2C1_DO_RX
  3889 ;;		_I2C1_DO_TX_EMPTY
  3890 ;;		_I2C1_DO_ADDRESS_NACK
  3891 ;;		_I2C1_DO_RX_EMPTY
  3892 ;; This function uses a non-reentrant model
  3893 ;;
  3894                           
  3895                           	psect	text52
  3896  001862                     __ptext52:
  3897                           	callstack 0
  3898  001862                     _I2C1_CallbackReturnReset:
  3899                           	callstack 20
  3900  001862                     
  3901                           ;mcc_generated_files/i2c1_master.c: 525: i2c1_operations_t I2C1_CallbackReturnReset(void
      +                           *funPtr);mcc_generated_files/i2c1_master.c: 526: {;mcc_generated_files/i2c1_master.c: 5
      +                          27:     return I2C1_RESET_LINK;
  3902  001862  0E05               	movlw	5
  3903  001864  0012               	return		;funcret
  3904  001866                     __end_of_I2C1_CallbackReturnReset:
  3905                           	callstack 0
  3906                           
  3907 ;; *************** function _I2C1_CallbackReturnStop *****************
  3908 ;; Defined at:
  3909 ;;		line 520 in file "mcc_generated_files/i2c1_master.c"
  3910 ;; Parameters:    Size  Location     Type
  3911 ;;  funPtr          2   11[COMRAM] PTR void 
  3912 ;;		 -> I2C1_ReadDataBlock@bufferBlock(4), I2C1_Write2ByteRegister@data(2), I2C1_Write1ByteRegister@data(1), I2C1_Read2B
      +yteRegister@returnValue(2), 
  3913 ;;		 -> I2C1_Read1ByteRegister@returnValue(1), NULL(0), 
  3914 ;; Auto vars:     Size  Location     Type
  3915 ;;		None
  3916 ;; Return value:  Size  Location     Type
  3917 ;;                  1    wreg      enum E360
  3918 ;; Registers used:
  3919 ;;		wreg
  3920 ;; Tracked objects:
  3921 ;;		On entry : 0/0
  3922 ;;		On exit  : 0/0
  3923 ;;		Unchanged: 0/0
  3924 ;; Data sizes:     COMRAM   BANK0   BANK1   BANK2   BANK3   BANK4   BANK5   BANK6   BANK7   BANK8   BANK9  BANK10  BANK1
      +1  BANK12  BANK13  BANK14
  3925 ;;      Params:         2       0       0       0       0       0       0       0       0       0       0       0       
      +0       0       0       0
  3926 ;;      Locals:         0       0       0       0       0       0       0       0       0       0       0       0       
      +0       0       0       0
  3927 ;;      Temps:          0       0       0       0       0       0       0       0       0       0       0       0       
      +0       0       0       0
  3928 ;;      Totals:         2       0       0       0       0       0       0       0       0       0       0       0       
      +0       0       0       0
  3929 ;;Total ram usage:        2 bytes
  3930 ;; Hardware stack levels used: 1
  3931 ;; Hardware stack levels required when called: 4
  3932 ;; This function calls:
  3933 ;;		Nothing
  3934 ;; This function is called by:
  3935 ;;		_I2C1_Open
  3936 ;;		_I2C1_SetCallback
  3937 ;;		_I2C1_DO_TX
  3938 ;;		_I2C1_DO_RX
  3939 ;;		_I2C1_DO_TX_EMPTY
  3940 ;;		_I2C1_DO_ADDRESS_NACK
  3941 ;;		_I2C1_DO_RX_EMPTY
  3942 ;; This function uses a non-reentrant model
  3943 ;;
  3944                           
  3945                           	psect	text53
  3946  001866                     __ptext53:
  3947                           	callstack 0
  3948  001866                     _I2C1_CallbackReturnStop:
  3949                           	callstack 20
  3950  001866                     
  3951                           ;mcc_generated_files/i2c1_master.c: 520: i2c1_operations_t I2C1_CallbackReturnStop(void 
      +                          *funPtr);mcc_generated_files/i2c1_master.c: 521: {;mcc_generated_files/i2c1_master.c: 52
      +                          2:     return I2C1_STOP;
  3952  001866  0E01               	movlw	1
  3953  001868  0012               	return		;funcret
  3954  00186A                     __end_of_I2C1_CallbackReturnStop:
  3955                           	callstack 0
  3956                           
  3957 ;; *************** function _wr2RegCompleteHandler *****************
  3958 ;; Defined at:
  3959 ;;		line 163 in file "mcc_generated_files/examples/i2c1_master_example.c"
  3960 ;; Parameters:    Size  Location     Type
  3961 ;;  ptr             2   11[COMRAM] PTR void 
  3962 ;;		 -> I2C1_ReadDataBlock@bufferBlock(4), I2C1_Write2ByteRegister@data(2), I2C1_Write1ByteRegister@data(1), I2C1_Read2B
      +yteRegister@returnValue(2), 
  3963 ;;		 -> I2C1_Read1ByteRegister@returnValue(1), NULL(0), 
  3964 ;; Auto vars:     Size  Location     Type
  3965 ;;		None
  3966 ;; Return value:  Size  Location     Type
  3967 ;;                  1    wreg      enum E360
  3968 ;; Registers used:
  3969 ;;		wreg, fsr2l, fsr2h, status,2, status,0, prodl, prodh, cstack
  3970 ;; Tracked objects:
  3971 ;;		On entry : 0/0
  3972 ;;		On exit  : 0/0
  3973 ;;		Unchanged: 0/0
  3974 ;; Data sizes:     COMRAM   BANK0   BANK1   BANK2   BANK3   BANK4   BANK5   BANK6   BANK7   BANK8   BANK9  BANK10  BANK1
      +1  BANK12  BANK13  BANK14
  3975 ;;      Params:         2       0       0       0       0       0       0       0       0       0       0       0       
      +0       0       0       0
  3976 ;;      Locals:         0       0       0       0       0       0       0       0       0       0       0       0       
      +0       0       0       0
  3977 ;;      Temps:          0       0       0       0       0       0       0       0       0       0       0       0       
      +0       0       0       0
  3978 ;;      Totals:         2       0       0       0       0       0       0       0       0       0       0       0       
      +0       0       0       0
  3979 ;;Total ram usage:        2 bytes
  3980 ;; Hardware stack levels used: 1
  3981 ;; Hardware stack levels required when called: 6
  3982 ;; This function calls:
  3983 ;;		_I2C1_SetBuffer
  3984 ;;		_I2C1_SetDataCompleteCallback
  3985 ;; This function is called by:
  3986 ;;		_I2C1_Write2ByteRegister
  3987 ;;		_I2C1_DO_TX
  3988 ;;		_I2C1_DO_RX
  3989 ;;		_I2C1_DO_TX_EMPTY
  3990 ;;		_I2C1_DO_ADDRESS_NACK
  3991 ;;		_I2C1_DO_RX_EMPTY
  3992 ;; This function uses a non-reentrant model
  3993 ;;
  3994                           
  3995                           	psect	text54
  3996  0015D2                     __ptext54:
  3997                           	callstack 0
  3998  0015D2                     _wr2RegCompleteHandler:
  3999                           	callstack 18
  4000  0015D2                     
  4001                           ;mcc_generated_files/examples/i2c1_master_example.c: 163: static i2c1_operations_t wr2Re
      +                          gCompleteHandler(void *ptr);mcc_generated_files/examples/i2c1_master_example.c: 164: {;m
      +                          cc_generated_files/examples/i2c1_master_example.c: 165:     I2C1_SetBuffer(ptr,2);
  4002  0015D2  C035  F02C         	movff	wr2RegCompleteHandler@ptr,I2C1_SetBuffer@buffer
  4003  0015D6  C036  F02D         	movff	wr2RegCompleteHandler@ptr+1,I2C1_SetBuffer@buffer+1
  4004  0015DA  0E00               	movlw	0
  4005  0015DC  6E2F               	movwf	(I2C1_SetBuffer@bufferSize+1)^0,c
  4006  0015DE  0E02               	movlw	2
  4007  0015E0  6E2E               	movwf	I2C1_SetBuffer@bufferSize^0,c
  4008  0015E2  EC36  F00B         	call	_I2C1_SetBuffer	;wreg free
  4009  0015E6                     
  4010                           ;mcc_generated_files/examples/i2c1_master_example.c: 166:     I2C1_SetDataCompleteCallba
      +                          ck(((void*)0),((void*)0));
  4011  0015E6  0E00               	movlw	0
  4012  0015E8  6E31               	movwf	I2C1_SetDataCompleteCallback@cb^0,c
  4013  0015EA  0E00               	movlw	0
  4014  0015EC  6E32               	movwf	(I2C1_SetDataCompleteCallback@cb+1)^0,c
  4015  0015EE  0E00               	movlw	0
  4016  0015F0  6E33               	movwf	I2C1_SetDataCompleteCallback@ptr^0,c
  4017  0015F2  0E00               	movlw	0
  4018  0015F4  6E34               	movwf	(I2C1_SetDataCompleteCallback@ptr+1)^0,c
  4019  0015F6  EC7D  F00B         	call	_I2C1_SetDataCompleteCallback	;wreg free
  4020  0015FA                     
  4021                           ;mcc_generated_files/examples/i2c1_master_example.c: 167:     return I2C1_CONTINUE;
  4022  0015FA  0E04               	movlw	4
  4023  0015FC  0012               	return		;funcret
  4024  0015FE                     __end_of_wr2RegCompleteHandler:
  4025                           	callstack 0
  4026                           
  4027 ;; *************** function _I2C1_SetDataCompleteCallback *****************
  4028 ;; Defined at:
  4029 ;;		line 273 in file "mcc_generated_files/i2c1_master.c"
  4030 ;; Parameters:    Size  Location     Type
  4031 ;;  cb              2    7[COMRAM] PTR FTN(PTR void ,)enum 
  4032 ;;		 -> rdBlkRegCompleteHandler(1), wr2RegCompleteHandler(1), wr1RegCompleteHandler(1), rd2RegCompleteHandler(1), 
  4033 ;;		 -> rd1RegCompleteHandler(1), Absolute function(1), 
  4034 ;;  ptr             2    9[COMRAM] PTR void 
  4035 ;;		 -> I2C1_ReadDataBlock@bufferBlock(4), I2C1_Write2ByteRegister@data(2), I2C1_Write1ByteRegister@data(1), I2C1_Read2B
      +yteRegister@returnValue(2), 
  4036 ;;		 -> I2C1_Read1ByteRegister@returnValue(1), NULL(0), 
  4037 ;; Auto vars:     Size  Location     Type
  4038 ;;		None
  4039 ;; Return value:  Size  Location     Type
  4040 ;;                  1    wreg      void 
  4041 ;; Registers used:
  4042 ;;		wreg, fsr2l, fsr2h, status,2, status,0, prodl, prodh, cstack
  4043 ;; Tracked objects:
  4044 ;;		On entry : 0/0
  4045 ;;		On exit  : 0/0
  4046 ;;		Unchanged: 0/0
  4047 ;; Data sizes:     COMRAM   BANK0   BANK1   BANK2   BANK3   BANK4   BANK5   BANK6   BANK7   BANK8   BANK9  BANK10  BANK1
      +1  BANK12  BANK13  BANK14
  4048 ;;      Params:         4       0       0       0       0       0       0       0       0       0       0       0       
      +0       0       0       0
  4049 ;;      Locals:         0       0       0       0       0       0       0       0       0       0       0       0       
      +0       0       0       0
  4050 ;;      Temps:          0       0       0       0       0       0       0       0       0       0       0       0       
      +0       0       0       0
  4051 ;;      Totals:         4       0       0       0       0       0       0       0       0       0       0       0       
      +0       0       0       0
  4052 ;;Total ram usage:        4 bytes
  4053 ;; Hardware stack levels used: 1
  4054 ;; Hardware stack levels required when called: 5
  4055 ;; This function calls:
  4056 ;;		_I2C1_SetCallback
  4057 ;; This function is called by:
  4058 ;;		_I2C1_Write1ByteRegister
  4059 ;;		_rd1RegCompleteHandler
  4060 ;;		_rd2RegCompleteHandler
  4061 ;;		_wr1RegCompleteHandler
  4062 ;;		_wr2RegCompleteHandler
  4063 ;;		_rdBlkRegCompleteHandler
  4064 ;;		_I2C1_Read1ByteRegister
  4065 ;;		_I2C1_Read2ByteRegister
  4066 ;;		_I2C1_Write2ByteRegister
  4067 ;;		_I2C1_ReadDataBlock
  4068 ;; This function uses a non-reentrant model
  4069 ;;
  4070                           
  4071                           	psect	text55
  4072  0016FA                     __ptext55:
  4073                           	callstack 0
  4074  0016FA                     _I2C1_SetDataCompleteCallback:
  4075                           	callstack 24
  4076  0016FA                     
  4077                           ;mcc_generated_files/i2c1_master.c: 273: void I2C1_SetDataCompleteCallback(i2c1_callback
      +                          _t cb, void *ptr);mcc_generated_files/i2c1_master.c: 274: {;mcc_generated_files/i2c1_mas
      +                          ter.c: 275:     I2C1_SetCallback(I2C1_DATA_COMPLETE, cb, ptr);
  4078  0016FA  C031  F02C         	movff	I2C1_SetDataCompleteCallback@cb,I2C1_SetCallback@cb
  4079  0016FE  C032  F02D         	movff	I2C1_SetDataCompleteCallback@cb+1,I2C1_SetCallback@cb+1
  4080  001702  C033  F02E         	movff	I2C1_SetDataCompleteCallback@ptr,I2C1_SetCallback@ptr
  4081  001706  C034  F02F         	movff	I2C1_SetDataCompleteCallback@ptr+1,I2C1_SetCallback@ptr+1
  4082  00170A  0E00               	movlw	0
  4083  00170C  ECCA  F008         	call	_I2C1_SetCallback
  4084  001710  0012               	return		;funcret
  4085  001712                     __end_of_I2C1_SetDataCompleteCallback:
  4086                           	callstack 0
  4087                           
  4088 ;; *************** function _I2C1_SetCallback *****************
  4089 ;; Defined at:
  4090 ;;		line 298 in file "mcc_generated_files/i2c1_master.c"
  4091 ;; Parameters:    Size  Location     Type
  4092 ;;  idx             1    wreg     enum E6667
  4093 ;;  cb              2    2[COMRAM] PTR FTN(PTR void ,)enum 
  4094 ;;		 -> rdBlkRegCompleteHandler(1), wr2RegCompleteHandler(1), wr1RegCompleteHandler(1), rd2RegCompleteHandler(1), 
  4095 ;;		 -> rd1RegCompleteHandler(1), Absolute function(1), 
  4096 ;;  ptr             2    4[COMRAM] PTR void 
  4097 ;;		 -> I2C1_ReadDataBlock@bufferBlock(4), I2C1_Write2ByteRegister@data(2), I2C1_Write1ByteRegister@data(1), I2C1_Read2B
      +yteRegister@returnValue(2), 
  4098 ;;		 -> I2C1_Read1ByteRegister@returnValue(1), NULL(0), 
  4099 ;; Auto vars:     Size  Location     Type
  4100 ;;  idx             1    6[COMRAM] enum E6667
  4101 ;; Return value:  Size  Location     Type
  4102 ;;                  1    wreg      void 
  4103 ;; Registers used:
  4104 ;;		wreg, fsr2l, fsr2h, status,2, status,0, prodl, prodh
  4105 ;; Tracked objects:
  4106 ;;		On entry : 0/0
  4107 ;;		On exit  : 0/0
  4108 ;;		Unchanged: 0/0
  4109 ;; Data sizes:     COMRAM   BANK0   BANK1   BANK2   BANK3   BANK4   BANK5   BANK6   BANK7   BANK8   BANK9  BANK10  BANK1
      +1  BANK12  BANK13  BANK14
  4110 ;;      Params:         4       0       0       0       0       0       0       0       0       0       0       0       
      +0       0       0       0
  4111 ;;      Locals:         1       0       0       0       0       0       0       0       0       0       0       0       
      +0       0       0       0
  4112 ;;      Temps:          0       0       0       0       0       0       0       0       0       0       0       0       
      +0       0       0       0
  4113 ;;      Totals:         5       0       0       0       0       0       0       0       0       0       0       0       
      +0       0       0       0
  4114 ;;Total ram usage:        5 bytes
  4115 ;; Hardware stack levels used: 1
  4116 ;; Hardware stack levels required when called: 4
  4117 ;; This function calls:
  4118 ;;		Nothing
  4119 ;; This function is called by:
  4120 ;;		_I2C1_SetDataCompleteCallback
  4121 ;;		_I2C1_SetAddressNackCallback
  4122 ;;		_I2C1_SetWriteCollisionCallback
  4123 ;;		_I2C1_SetDataNackCallback
  4124 ;;		_I2C1_SetTimeoutCallback
  4125 ;; This function uses a non-reentrant model
  4126 ;;
  4127                           
  4128                           	psect	text56
  4129  001194                     __ptext56:
  4130                           	callstack 0
  4131  001194                     _I2C1_SetCallback:
  4132                           	callstack 24
  4133                           
  4134                           ;incstack = 0
  4135                           ;I2C1_SetCallback@idx stored from wreg
  4136  001194  6E30               	movwf	I2C1_SetCallback@idx^0,c
  4137  001196                     
  4138                           ;mcc_generated_files/i2c1_master.c: 298: static void I2C1_SetCallback(i2c1_callbackIndex
      +                          _t idx, i2c1_callback_t cb, void *ptr);mcc_generated_files/i2c1_master.c: 299: {;mcc_gen
      +                          erated_files/i2c1_master.c: 300:     if(cb)
  4139  001196  502C               	movf	I2C1_SetCallback@cb^0,w,c
  4140  001198  102D               	iorwf	(I2C1_SetCallback@cb+1)^0,w,c
  4141  00119A  B4D8               	btfsc	status,2,c
  4142  00119C  EFD2  F008         	goto	u561
  4143  0011A0  EFD4  F008         	goto	u560
  4144  0011A4                     u561:
  4145  0011A4  EFEE  F008         	goto	l2333
  4146  0011A8                     u560:
  4147  0011A8                     
  4148                           ;mcc_generated_files/i2c1_master.c: 301:     {;mcc_generated_files/i2c1_master.c: 302:  
      +                                 I2C1_Status.callbackTable[idx] = cb;
  4149  0011A8  5030               	movf	I2C1_SetCallback@idx^0,w,c
  4150  0011AA  0D02               	mullw	2
  4151  0011AC  0E01               	movlw	low _I2C1_Status
  4152  0011AE  24F3               	addwf	243,w,c
  4153  0011B0  6ED9               	movwf	fsr2l,c
  4154  0011B2  0E00               	movlw	high _I2C1_Status
  4155  0011B4  20F4               	addwfc	prodh,w,c
  4156  0011B6  6EDA               	movwf	fsr2h,c
  4157  0011B8  C02C  FFDE         	movff	I2C1_SetCallback@cb,postinc2
  4158  0011BC  C02D  FFDD         	movff	I2C1_SetCallback@cb+1,postdec2
  4159                           
  4160                           ;mcc_generated_files/i2c1_master.c: 303:         I2C1_Status.callbackPayload[idx] = ptr;
  4161  0011C0  5030               	movf	I2C1_SetCallback@idx^0,w,c
  4162  0011C2  0D02               	mullw	2
  4163  0011C4  0E0D               	movlw	low (_I2C1_Status+12)
  4164  0011C6  24F3               	addwf	243,w,c
  4165  0011C8  6ED9               	movwf	fsr2l,c
  4166  0011CA  0E00               	movlw	high (_I2C1_Status+12)
  4167  0011CC  20F4               	addwfc	prodh,w,c
  4168  0011CE  6EDA               	movwf	fsr2h,c
  4169  0011D0  C02E  FFDE         	movff	I2C1_SetCallback@ptr,postinc2
  4170  0011D4  C02F  FFDD         	movff	I2C1_SetCallback@ptr+1,postdec2
  4171                           
  4172                           ;mcc_generated_files/i2c1_master.c: 304:     }
  4173  0011D8  EF06  F009         	goto	l510
  4174  0011DC                     l2333:
  4175                           
  4176                           ;mcc_generated_files/i2c1_master.c: 306:     {;mcc_generated_files/i2c1_master.c: 307:  
      +                                 I2C1_Status.callbackTable[idx] = I2C1_CallbackReturnStop;
  4177  0011DC  5030               	movf	I2C1_SetCallback@idx^0,w,c
  4178  0011DE  0D02               	mullw	2
  4179  0011E0  0E01               	movlw	low _I2C1_Status
  4180  0011E2  24F3               	addwf	243,w,c
  4181  0011E4  6ED9               	movwf	fsr2l,c
  4182  0011E6  0E00               	movlw	high _I2C1_Status
  4183  0011E8  20F4               	addwfc	prodh,w,c
  4184  0011EA  6EDA               	movwf	fsr2h,c
  4185  0011EC  0E66               	movlw	low _I2C1_CallbackReturnStop
  4186  0011EE  6EDE               	movwf	postinc2,c
  4187  0011F0  0E18               	movlw	high _I2C1_CallbackReturnStop
  4188  0011F2  6EDD               	movwf	postdec2,c
  4189                           
  4190                           ;mcc_generated_files/i2c1_master.c: 308:         I2C1_Status.callbackPayload[idx] = ((vo
      +                          id*)0);
  4191  0011F4  5030               	movf	I2C1_SetCallback@idx^0,w,c
  4192  0011F6  0D02               	mullw	2
  4193  0011F8  0E0D               	movlw	low (_I2C1_Status+12)
  4194  0011FA  24F3               	addwf	243,w,c
  4195  0011FC  6ED9               	movwf	fsr2l,c
  4196  0011FE  0E00               	movlw	high (_I2C1_Status+12)
  4197  001200  20F4               	addwfc	prodh,w,c
  4198  001202  6EDA               	movwf	fsr2h,c
  4199  001204  0E00               	movlw	0
  4200  001206  6EDE               	movwf	postinc2,c
  4201  001208  0E00               	movlw	0
  4202  00120A  6EDD               	movwf	postdec2,c
  4203  00120C                     l510:
  4204  00120C  0012               	return		;funcret
  4205  00120E                     __end_of_I2C1_SetCallback:
  4206                           	callstack 0
  4207                           
  4208 ;; *************** function _I2C1_SetBuffer *****************
  4209 ;; Defined at:
  4210 ;;		line 263 in file "mcc_generated_files/i2c1_master.c"
  4211 ;; Parameters:    Size  Location     Type
  4212 ;;  buffer          2    2[COMRAM] PTR void 
  4213 ;;		 -> I2C1_Read1ByteRegister@returnValue.data(3), I2C1_Read2ByteRegister@returnValue.data(3), I2C1_Write1ByteRegister@
      +data.data(3), I2C1_Write2ByteRegister@data.data(3), 
  4214 ;;		 -> I2C1_ReadDataBlock@reg(1), I2C1_ReadDataBlock@bufferBlock(4), bufferBlock.data(3), I2C1_Write2ByteRegister@reg(1
      +), 
  4215 ;;		 -> I2C1_Write2ByteRegister@data(2), I2C1_Write1ByteRegister@reg(1), I2C1_Write1ByteRegister@data(1), I2C1_Read2Byte
      +Register@reg(1), 
  4216 ;;		 -> I2C1_Read2ByteRegister@returnValue(2), I2C1_Read1ByteRegister@reg(1), I2C1_Read1ByteRegister@returnValue(1), NUL
      +L(0), 
  4217 ;;  bufferSize      2    4[COMRAM] unsigned int 
  4218 ;; Auto vars:     Size  Location     Type
  4219 ;;		None
  4220 ;; Return value:  Size  Location     Type
  4221 ;;                  1    wreg      void 
  4222 ;; Registers used:
  4223 ;;		wreg, status,2, status,0
  4224 ;; Tracked objects:
  4225 ;;		On entry : 0/0
  4226 ;;		On exit  : 0/0
  4227 ;;		Unchanged: 0/0
  4228 ;; Data sizes:     COMRAM   BANK0   BANK1   BANK2   BANK3   BANK4   BANK5   BANK6   BANK7   BANK8   BANK9  BANK10  BANK1
      +1  BANK12  BANK13  BANK14
  4229 ;;      Params:         4       0       0       0       0       0       0       0       0       0       0       0       
      +0       0       0       0
  4230 ;;      Locals:         0       0       0       0       0       0       0       0       0       0       0       0       
      +0       0       0       0
  4231 ;;      Temps:          0       0       0       0       0       0       0       0       0       0       0       0       
      +0       0       0       0
  4232 ;;      Totals:         4       0       0       0       0       0       0       0       0       0       0       0       
      +0       0       0       0
  4233 ;;Total ram usage:        4 bytes
  4234 ;; Hardware stack levels used: 1
  4235 ;; Hardware stack levels required when called: 4
  4236 ;; This function calls:
  4237 ;;		Nothing
  4238 ;; This function is called by:
  4239 ;;		_I2C1_Write1ByteRegister
  4240 ;;		_rd1RegCompleteHandler
  4241 ;;		_rd2RegCompleteHandler
  4242 ;;		_wr1RegCompleteHandler
  4243 ;;		_wr2RegCompleteHandler
  4244 ;;		_rdBlkRegCompleteHandler
  4245 ;;		_I2C1_Read1ByteRegister
  4246 ;;		_I2C1_Read2ByteRegister
  4247 ;;		_I2C1_Write2ByteRegister
  4248 ;;		_I2C1_WriteNBytes
  4249 ;;		_I2C1_ReadNBytes
  4250 ;;		_I2C1_ReadDataBlock
  4251 ;; This function uses a non-reentrant model
  4252 ;;
  4253                           
  4254                           	psect	text57
  4255  00166C                     __ptext57:
  4256                           	callstack 0
  4257  00166C                     _I2C1_SetBuffer:
  4258                           	callstack 25
  4259  00166C                     
  4260                           ;mcc_generated_files/i2c1_master.c: 263: void I2C1_SetBuffer(void *buffer, size_t buffer
      +                          Size);mcc_generated_files/i2c1_master.c: 264: {;mcc_generated_files/i2c1_master.c: 265: 
      +                              if(I2C1_Status.bufferFree)
  4261  00166C  A624               	btfss	(_I2C1_Status+35)^0,3,c
  4262  00166E  EF3B  F00B         	goto	u571
  4263  001672  EF3D  F00B         	goto	u570
  4264  001676                     u571:
  4265  001676  EF46  F00B         	goto	l490
  4266  00167A                     u570:
  4267  00167A                     
  4268                           ;mcc_generated_files/i2c1_master.c: 266:     {;mcc_generated_files/i2c1_master.c: 267:  
      +                                 I2C1_Status.data_ptr = buffer;
  4269  00167A  C02C  F01E         	movff	I2C1_SetBuffer@buffer,_I2C1_Status+29
  4270  00167E  C02D  F01F         	movff	I2C1_SetBuffer@buffer+1,_I2C1_Status+30
  4271  001682                     
  4272                           ;mcc_generated_files/i2c1_master.c: 268:         I2C1_Status.data_length = bufferSize;
  4273  001682  C02E  F020         	movff	I2C1_SetBuffer@bufferSize,_I2C1_Status+31
  4274  001686  C02F  F021         	movff	I2C1_SetBuffer@bufferSize+1,_I2C1_Status+32
  4275  00168A                     
  4276                           ;mcc_generated_files/i2c1_master.c: 269:         I2C1_Status.bufferFree = 0;
  4277  00168A  9624               	bcf	(_I2C1_Status+35)^0,3,c
  4278  00168C                     l490:
  4279  00168C  0012               	return		;funcret
  4280  00168E                     __end_of_I2C1_SetBuffer:
  4281                           	callstack 0
  4282                           
  4283 ;; *************** function _I2C1_MasterStop *****************
  4284 ;; Defined at:
  4285 ;;		line 593 in file "mcc_generated_files/i2c1_master.c"
  4286 ;; Parameters:    Size  Location     Type
  4287 ;;		None
  4288 ;; Auto vars:     Size  Location     Type
  4289 ;;		None
  4290 ;; Return value:  Size  Location     Type
  4291 ;;                  1    wreg      void 
  4292 ;; Registers used:
  4293 ;;		None
  4294 ;; Tracked objects:
  4295 ;;		On entry : 0/0
  4296 ;;		On exit  : 0/0
  4297 ;;		Unchanged: 0/0
  4298 ;; Data sizes:     COMRAM   BANK0   BANK1   BANK2   BANK3   BANK4   BANK5   BANK6   BANK7   BANK8   BANK9  BANK10  BANK1
      +1  BANK12  BANK13  BANK14
  4299 ;;      Params:         0       0       0       0       0       0       0       0       0       0       0       0       
      +0       0       0       0
  4300 ;;      Locals:         0       0       0       0       0       0       0       0       0       0       0       0       
      +0       0       0       0
  4301 ;;      Temps:          0       0       0       0       0       0       0       0       0       0       0       0       
      +0       0       0       0
  4302 ;;      Totals:         0       0       0       0       0       0       0       0       0       0       0       0       
      +0       0       0       0
  4303 ;;Total ram usage:        0 bytes
  4304 ;; Hardware stack levels used: 1
  4305 ;; Hardware stack levels required when called: 4
  4306 ;; This function calls:
  4307 ;;		Nothing
  4308 ;; This function is called by:
  4309 ;;		_I2C1_DO_SEND_STOP
  4310 ;; This function uses a non-reentrant model
  4311 ;;
  4312                           
  4313                           	psect	text58
  4314  00186A                     __ptext58:
  4315                           	callstack 0
  4316  00186A                     _I2C1_MasterStop:
  4317                           	callstack 19
  4318  00186A                     
  4319                           ;mcc_generated_files/i2c1_master.c: 595:     SSP1CON2bits.PEN = 1;
  4320  00186A  84C5               	bsf	197,2,c	;volatile
  4321  00186C  0012               	return		;funcret
  4322  00186E                     __end_of_I2C1_MasterStop:
  4323                           	callstack 0
  4324                           
  4325 ;; *************** function _I2C1_MasterEnableRestart *****************
  4326 ;; Defined at:
  4327 ;;		line 573 in file "mcc_generated_files/i2c1_master.c"
  4328 ;; Parameters:    Size  Location     Type
  4329 ;;		None
  4330 ;; Auto vars:     Size  Location     Type
  4331 ;;		None
  4332 ;; Return value:  Size  Location     Type
  4333 ;;                  1    wreg      void 
  4334 ;; Registers used:
  4335 ;;		None
  4336 ;; Tracked objects:
  4337 ;;		On entry : 0/0
  4338 ;;		On exit  : 0/0
  4339 ;;		Unchanged: 0/0
  4340 ;; Data sizes:     COMRAM   BANK0   BANK1   BANK2   BANK3   BANK4   BANK5   BANK6   BANK7   BANK8   BANK9  BANK10  BANK1
      +1  BANK12  BANK13  BANK14
  4341 ;;      Params:         0       0       0       0       0       0       0       0       0       0       0       0       
      +0       0       0       0
  4342 ;;      Locals:         0       0       0       0       0       0       0       0       0       0       0       0       
      +0       0       0       0
  4343 ;;      Temps:          0       0       0       0       0       0       0       0       0       0       0       0       
      +0       0       0       0
  4344 ;;      Totals:         0       0       0       0       0       0       0       0       0       0       0       0       
      +0       0       0       0
  4345 ;;Total ram usage:        0 bytes
  4346 ;; Hardware stack levels used: 1
  4347 ;; Hardware stack levels required when called: 4
  4348 ;; This function calls:
  4349 ;;		Nothing
  4350 ;; This function is called by:
  4351 ;;		_I2C1_DO_SEND_RESTART_READ
  4352 ;;		_I2C1_DO_SEND_RESTART_WRITE
  4353 ;;		_I2C1_DO_SEND_RESTART
  4354 ;;		_I2C1_DO_RX_EMPTY
  4355 ;; This function uses a non-reentrant model
  4356 ;;
  4357                           
  4358                           	psect	text59
  4359  00186E                     __ptext59:
  4360                           	callstack 0
  4361  00186E                     _I2C1_MasterEnableRestart:
  4362                           	callstack 19
  4363  00186E                     
  4364                           ;mcc_generated_files/i2c1_master.c: 575:     SSP1CON2bits.RSEN = 1;
  4365  00186E  82C5               	bsf	197,1,c	;volatile
  4366  001870  0012               	return		;funcret
  4367  001872                     __end_of_I2C1_MasterEnableRestart:
  4368                           	callstack 0
  4369                           
  4370 ;; *************** function _I2C1_MasterStart *****************
  4371 ;; Defined at:
  4372 ;;		line 588 in file "mcc_generated_files/i2c1_master.c"
  4373 ;; Parameters:    Size  Location     Type
  4374 ;;		None
  4375 ;; Auto vars:     Size  Location     Type
  4376 ;;		None
  4377 ;; Return value:  Size  Location     Type
  4378 ;;                  1    wreg      void 
  4379 ;; Registers used:
  4380 ;;		None
  4381 ;; Tracked objects:
  4382 ;;		On entry : 0/0
  4383 ;;		On exit  : 0/0
  4384 ;;		Unchanged: 0/0
  4385 ;; Data sizes:     COMRAM   BANK0   BANK1   BANK2   BANK3   BANK4   BANK5   BANK6   BANK7   BANK8   BANK9  BANK10  BANK1
      +1  BANK12  BANK13  BANK14
  4386 ;;      Params:         0       0       0       0       0       0       0       0       0       0       0       0       
      +0       0       0       0
  4387 ;;      Locals:         0       0       0       0       0       0       0       0       0       0       0       0       
      +0       0       0       0
  4388 ;;      Temps:          0       0       0       0       0       0       0       0       0       0       0       0       
      +0       0       0       0
  4389 ;;      Totals:         0       0       0       0       0       0       0       0       0       0       0       0       
      +0       0       0       0
  4390 ;;Total ram usage:        0 bytes
  4391 ;; Hardware stack levels used: 1
  4392 ;; Hardware stack levels required when called: 4
  4393 ;; This function calls:
  4394 ;;		Nothing
  4395 ;; This function is called by:
  4396 ;;		_I2C1_MasterOperation
  4397 ;; This function uses a non-reentrant model
  4398 ;;
  4399                           
  4400                           	psect	text60
  4401  001872                     __ptext60:
  4402                           	callstack 0
  4403  001872                     _I2C1_MasterStart:
  4404                           	callstack 23
  4405  001872                     
  4406                           ;mcc_generated_files/i2c1_master.c: 590:     SSP1CON2bits.SEN = 1;
  4407  001872  80C5               	bsf	197,0,c	;volatile
  4408  001874  0012               	return		;funcret
  4409  001876                     __end_of_I2C1_MasterStart:
  4410                           	callstack 0
  4411                           
  4412 ;; *************** function _I2C1_Close *****************
  4413 ;; Defined at:
  4414 ;;		line 209 in file "mcc_generated_files/i2c1_master.c"
  4415 ;; Parameters:    Size  Location     Type
  4416 ;;		None
  4417 ;; Auto vars:     Size  Location     Type
  4418 ;;  returnValue     1    2[COMRAM] enum E355
  4419 ;; Return value:  Size  Location     Type
  4420 ;;                  1    wreg      enum E355
  4421 ;; Registers used:
  4422 ;;		wreg, status,2, cstack
  4423 ;; Tracked objects:
  4424 ;;		On entry : 0/0
  4425 ;;		On exit  : 0/0
  4426 ;;		Unchanged: 0/0
  4427 ;; Data sizes:     COMRAM   BANK0   BANK1   BANK2   BANK3   BANK4   BANK5   BANK6   BANK7   BANK8   BANK9  BANK10  BANK1
      +1  BANK12  BANK13  BANK14
  4428 ;;      Params:         0       0       0       0       0       0       0       0       0       0       0       0       
      +0       0       0       0
  4429 ;;      Locals:         1       0       0       0       0       0       0       0       0       0       0       0       
      +0       0       0       0
  4430 ;;      Temps:          0       0       0       0       0       0       0       0       0       0       0       0       
      +0       0       0       0
  4431 ;;      Totals:         1       0       0       0       0       0       0       0       0       0       0       0       
      +0       0       0       0
  4432 ;;Total ram usage:        1 bytes
  4433 ;; Hardware stack levels used: 1
  4434 ;; Hardware stack levels required when called: 5
  4435 ;; This function calls:
  4436 ;;		_I2C1_MasterClearIrq
  4437 ;;		_I2C1_MasterClose
  4438 ;;		_I2C1_MasterDisableIrq
  4439 ;; This function is called by:
  4440 ;;		_I2C1_Write1ByteRegister
  4441 ;;		_I2C1_Read1ByteRegister
  4442 ;;		_I2C1_Read2ByteRegister
  4443 ;;		_I2C1_Write2ByteRegister
  4444 ;;		_I2C1_WriteNBytes
  4445 ;;		_I2C1_ReadNBytes
  4446 ;;		_I2C1_ReadDataBlock
  4447 ;; This function uses a non-reentrant model
  4448 ;;
  4449                           
  4450                           	psect	text61
  4451  0015FE                     __ptext61:
  4452                           	callstack 0
  4453  0015FE                     _I2C1_Close:
  4454                           	callstack 24
  4455  0015FE                     
  4456                           ;mcc_generated_files/i2c1_master.c: 211:     i2c1_error_t returnValue = I2C1_BUSY;
  4457  0015FE  0E01               	movlw	1
  4458  001600  6E2C               	movwf	I2C1_Close@returnValue^0,c
  4459  001602                     
  4460                           ;mcc_generated_files/i2c1_master.c: 212:     if(!I2C1_Status.busy)
  4461  001602  B224               	btfsc	(_I2C1_Status+35)^0,1,c
  4462  001604  EF06  F00B         	goto	u261
  4463  001608  EF08  F00B         	goto	u260
  4464  00160C                     u261:
  4465  00160C  EF12  F00B         	goto	l1937
  4466  001610                     u260:
  4467  001610                     
  4468                           ;mcc_generated_files/i2c1_master.c: 213:     {;mcc_generated_files/i2c1_master.c: 214:  
      +                                 I2C1_Status.inUse = 0;
  4469  001610  9424               	bcf	(_I2C1_Status+35)^0,2,c
  4470                           
  4471                           ;mcc_generated_files/i2c1_master.c: 215:         I2C1_Status.address = 0xff;
  4472  001612  681D               	setf	(_I2C1_Status+28)^0,c
  4473  001614                     
  4474                           ;mcc_generated_files/i2c1_master.c: 216:         I2C1_MasterClearIrq();
  4475  001614  EC3F  F00C         	call	_I2C1_MasterClearIrq	;wreg free
  4476                           
  4477                           ;mcc_generated_files/i2c1_master.c: 217:         I2C1_MasterDisableIrq();
  4478  001618  EC3B  F00C         	call	_I2C1_MasterDisableIrq	;wreg free
  4479                           
  4480                           ;mcc_generated_files/i2c1_master.c: 218:         I2C1_MasterClose();
  4481  00161C  EC3D  F00C         	call	_I2C1_MasterClose	;wreg free
  4482  001620                     
  4483                           ;mcc_generated_files/i2c1_master.c: 219:         returnValue = I2C1_Status.error;
  4484  001620  C023  F02C         	movff	_I2C1_Status+34,I2C1_Close@returnValue
  4485  001624                     l1937:
  4486                           
  4487                           ;mcc_generated_files/i2c1_master.c: 221:     return returnValue;
  4488  001624  502C               	movf	I2C1_Close@returnValue^0,w,c
  4489  001626  0012               	return		;funcret
  4490  001628                     __end_of_I2C1_Close:
  4491                           	callstack 0
  4492                           
  4493 ;; *************** function _I2C1_MasterDisableIrq *****************
  4494 ;; Defined at:
  4495 ;;		line 635 in file "mcc_generated_files/i2c1_master.c"
  4496 ;; Parameters:    Size  Location     Type
  4497 ;;		None
  4498 ;; Auto vars:     Size  Location     Type
  4499 ;;		None
  4500 ;; Return value:  Size  Location     Type
  4501 ;;                  1    wreg      void 
  4502 ;; Registers used:
  4503 ;;		None
  4504 ;; Tracked objects:
  4505 ;;		On entry : 0/0
  4506 ;;		On exit  : 0/0
  4507 ;;		Unchanged: 0/0
  4508 ;; Data sizes:     COMRAM   BANK0   BANK1   BANK2   BANK3   BANK4   BANK5   BANK6   BANK7   BANK8   BANK9  BANK10  BANK1
      +1  BANK12  BANK13  BANK14
  4509 ;;      Params:         0       0       0       0       0       0       0       0       0       0       0       0       
      +0       0       0       0
  4510 ;;      Locals:         0       0       0       0       0       0       0       0       0       0       0       0       
      +0       0       0       0
  4511 ;;      Temps:          0       0       0       0       0       0       0       0       0       0       0       0       
      +0       0       0       0
  4512 ;;      Totals:         0       0       0       0       0       0       0       0       0       0       0       0       
      +0       0       0       0
  4513 ;;Total ram usage:        0 bytes
  4514 ;; Hardware stack levels used: 1
  4515 ;; Hardware stack levels required when called: 4
  4516 ;; This function calls:
  4517 ;;		Nothing
  4518 ;; This function is called by:
  4519 ;;		_I2C1_Close
  4520 ;;		_I2C1_SetTimeOut
  4521 ;; This function uses a non-reentrant model
  4522 ;;
  4523                           
  4524                           	psect	text62
  4525  001876                     __ptext62:
  4526                           	callstack 0
  4527  001876                     _I2C1_MasterDisableIrq:
  4528                           	callstack 24
  4529  001876                     
  4530                           ;mcc_generated_files/i2c1_master.c: 637:     PIE1bits.SSP1IE = 0;
  4531  001876  969D               	bcf	157,3,c	;volatile
  4532  001878  0012               	return		;funcret
  4533  00187A                     __end_of_I2C1_MasterDisableIrq:
  4534                           	callstack 0
  4535                           
  4536 ;; *************** function _I2C1_MasterClose *****************
  4537 ;; Defined at:
  4538 ;;		line 557 in file "mcc_generated_files/i2c1_master.c"
  4539 ;; Parameters:    Size  Location     Type
  4540 ;;		None
  4541 ;; Auto vars:     Size  Location     Type
  4542 ;;		None
  4543 ;; Return value:  Size  Location     Type
  4544 ;;                  1    wreg      void 
  4545 ;; Registers used:
  4546 ;;		None
  4547 ;; Tracked objects:
  4548 ;;		On entry : 0/0
  4549 ;;		On exit  : 0/0
  4550 ;;		Unchanged: 0/0
  4551 ;; Data sizes:     COMRAM   BANK0   BANK1   BANK2   BANK3   BANK4   BANK5   BANK6   BANK7   BANK8   BANK9  BANK10  BANK1
      +1  BANK12  BANK13  BANK14
  4552 ;;      Params:         0       0       0       0       0       0       0       0       0       0       0       0       
      +0       0       0       0
  4553 ;;      Locals:         0       0       0       0       0       0       0       0       0       0       0       0       
      +0       0       0       0
  4554 ;;      Temps:          0       0       0       0       0       0       0       0       0       0       0       0       
      +0       0       0       0
  4555 ;;      Totals:         0       0       0       0       0       0       0       0       0       0       0       0       
      +0       0       0       0
  4556 ;;Total ram usage:        0 bytes
  4557 ;; Hardware stack levels used: 1
  4558 ;; Hardware stack levels required when called: 4
  4559 ;; This function calls:
  4560 ;;		Nothing
  4561 ;; This function is called by:
  4562 ;;		_I2C1_Close
  4563 ;; This function uses a non-reentrant model
  4564 ;;
  4565                           
  4566                           	psect	text63
  4567  00187A                     __ptext63:
  4568                           	callstack 0
  4569  00187A                     _I2C1_MasterClose:
  4570                           	callstack 24
  4571  00187A                     
  4572                           ;mcc_generated_files/i2c1_master.c: 560:     SSP1CON1bits.SSPEN = 0;
  4573  00187A  9AC6               	bcf	198,5,c	;volatile
  4574  00187C  0012               	return		;funcret
  4575  00187E                     __end_of_I2C1_MasterClose:
  4576                           	callstack 0
  4577                           
  4578 ;; *************** function _I2C1_MasterClearIrq *****************
  4579 ;; Defined at:
  4580 ;;		line 640 in file "mcc_generated_files/i2c1_master.c"
  4581 ;; Parameters:    Size  Location     Type
  4582 ;;		None
  4583 ;; Auto vars:     Size  Location     Type
  4584 ;;		None
  4585 ;; Return value:  Size  Location     Type
  4586 ;;                  1    wreg      void 
  4587 ;; Registers used:
  4588 ;;		None
  4589 ;; Tracked objects:
  4590 ;;		On entry : 0/0
  4591 ;;		On exit  : 0/0
  4592 ;;		Unchanged: 0/0
  4593 ;; Data sizes:     COMRAM   BANK0   BANK1   BANK2   BANK3   BANK4   BANK5   BANK6   BANK7   BANK8   BANK9  BANK10  BANK1
      +1  BANK12  BANK13  BANK14
  4594 ;;      Params:         0       0       0       0       0       0       0       0       0       0       0       0       
      +0       0       0       0
  4595 ;;      Locals:         0       0       0       0       0       0       0       0       0       0       0       0       
      +0       0       0       0
  4596 ;;      Temps:          0       0       0       0       0       0       0       0       0       0       0       0       
      +0       0       0       0
  4597 ;;      Totals:         0       0       0       0       0       0       0       0       0       0       0       0       
      +0       0       0       0
  4598 ;;Total ram usage:        0 bytes
  4599 ;; Hardware stack levels used: 1
  4600 ;; Hardware stack levels required when called: 4
  4601 ;; This function calls:
  4602 ;;		Nothing
  4603 ;; This function is called by:
  4604 ;;		_I2C1_Open
  4605 ;;		_I2C1_Close
  4606 ;;		_I2C1_MasterFsm
  4607 ;; This function uses a non-reentrant model
  4608 ;;
  4609                           
  4610                           	psect	text64
  4611  00187E                     __ptext64:
  4612                           	callstack 0
  4613  00187E                     _I2C1_MasterClearIrq:
  4614                           	callstack 24
  4615  00187E                     
  4616                           ;mcc_generated_files/i2c1_master.c: 642:     PIR1bits.SSP1IF = 0;
  4617  00187E  969E               	bcf	158,3,c	;volatile
  4618  001880  0012               	return		;funcret
  4619  001882                     __end_of_I2C1_MasterClearIrq:
  4620                           	callstack 0
  4621                           
  4622 ;; *************** function _INTERRUPT_InterruptManager *****************
  4623 ;; Defined at:
  4624 ;;		line 58 in file "mcc_generated_files/interrupt_manager.c"
  4625 ;; Parameters:    Size  Location     Type
  4626 ;;		None
  4627 ;; Auto vars:     Size  Location     Type
  4628 ;;		None
  4629 ;; Return value:  Size  Location     Type
  4630 ;;                  1    wreg      void 
  4631 ;; Registers used:
  4632 ;;		wreg, status,2, status,0, pcl, pclath, pclatu, tosl, cstack
  4633 ;; Tracked objects:
  4634 ;;		On entry : 0/0
  4635 ;;		On exit  : 0/0
  4636 ;;		Unchanged: 0/0
  4637 ;; Data sizes:     COMRAM   BANK0   BANK1   BANK2   BANK3   BANK4   BANK5   BANK6   BANK7   BANK8   BANK9  BANK10  BANK1
      +1  BANK12  BANK13  BANK14
  4638 ;;      Params:         0       0       0       0       0       0       0       0       0       0       0       0       
      +0       0       0       0
  4639 ;;      Locals:         0       0       0       0       0       0       0       0       0       0       0       0       
      +0       0       0       0
  4640 ;;      Temps:          2       0       0       0       0       0       0       0       0       0       0       0       
      +0       0       0       0
  4641 ;;      Totals:         2       0       0       0       0       0       0       0       0       0       0       0       
      +0       0       0       0
  4642 ;;Total ram usage:        2 bytes
  4643 ;; Hardware stack levels used: 1
  4644 ;; Hardware stack levels required when called: 3
  4645 ;; This function calls:
  4646 ;;		_INT0_ISR
  4647 ;;		_INT1_ISR
  4648 ;;		_INT2_ISR
  4649 ;; This function is called by:
  4650 ;;		Interrupt level 2
  4651 ;; This function uses a non-reentrant model
  4652 ;;
  4653                           
  4654                           	psect	intcode
  4655  000008                     __pintcode:
  4656                           	callstack 0
  4657  000008                     _INTERRUPT_InterruptManager:
  4658                           	callstack 18
  4659                           
  4660                           ;incstack = 0
  4661  000008  8245               	bsf	int$flags,1,c	;set compiler interrupt flag (level 2)
  4662  00000A  CFFA F02A          	movff	pclath,??_INTERRUPT_InterruptManager
  4663  00000E  CFFB F02B          	movff	pclatu,??_INTERRUPT_InterruptManager+1
  4664  000012                     
  4665                           ;mcc_generated_files/interrupt_manager.c: 61:     if(INTCONbits.INT0IE == 1 && INTCONbit
      +                          s.INT0IF == 1)
  4666  000012  A8F2               	btfss	242,4,c	;volatile
  4667  000014  EF0E  F000         	goto	i2u35_41
  4668  000018  EF10  F000         	goto	i2u35_40
  4669  00001C                     i2u35_41:
  4670  00001C  EF1B  F000         	goto	i2l150
  4671  000020                     i2u35_40:
  4672  000020  A2F2               	btfss	242,1,c	;volatile
  4673  000022  EF15  F000         	goto	i2u36_41
  4674  000026  EF17  F000         	goto	i2u36_40
  4675  00002A                     i2u36_41:
  4676  00002A  EF1B  F000         	goto	i2l150
  4677  00002E                     i2u36_40:
  4678  00002E                     
  4679                           ;mcc_generated_files/interrupt_manager.c: 62:     {;mcc_generated_files/interrupt_manage
      +                          r.c: 63:         INT0_ISR();
  4680  00002E  EC1F  F00C         	call	_INT0_ISR	;wreg free
  4681                           
  4682                           ;mcc_generated_files/interrupt_manager.c: 64:     }
  4683  000032  EF3F  F000         	goto	i2l156
  4684  000036                     i2l150:
  4685  000036  A6F0               	btfss	240,3,c	;volatile
  4686  000038  EF20  F000         	goto	i2u37_41
  4687  00003C  EF22  F000         	goto	i2u37_40
  4688  000040                     i2u37_41:
  4689  000040  EF2D  F000         	goto	i2l152
  4690  000044                     i2u37_40:
  4691  000044  A0F0               	btfss	240,0,c	;volatile
  4692  000046  EF27  F000         	goto	i2u38_41
  4693  00004A  EF29  F000         	goto	i2u38_40
  4694  00004E                     i2u38_41:
  4695  00004E  EF2D  F000         	goto	i2l152
  4696  000052                     i2u38_40:
  4697  000052                     
  4698                           ;mcc_generated_files/interrupt_manager.c: 66:     {;mcc_generated_files/interrupt_manage
      +                          r.c: 67:         INT1_ISR();
  4699  000052  EC1B  F00C         	call	_INT1_ISR	;wreg free
  4700                           
  4701                           ;mcc_generated_files/interrupt_manager.c: 68:     }
  4702  000056  EF3F  F000         	goto	i2l156
  4703  00005A                     i2l152:
  4704  00005A  A8F0               	btfss	240,4,c	;volatile
  4705  00005C  EF32  F000         	goto	i2u39_41
  4706  000060  EF34  F000         	goto	i2u39_40
  4707  000064                     i2u39_41:
  4708  000064  EF3F  F000         	goto	i2l153
  4709  000068                     i2u39_40:
  4710  000068  A2F0               	btfss	240,1,c	;volatile
  4711  00006A  EF39  F000         	goto	i2u40_41
  4712  00006E  EF3B  F000         	goto	i2u40_40
  4713  000072                     i2u40_41:
  4714  000072  EF3F  F000         	goto	i2l153
  4715  000076                     i2u40_40:
  4716  000076                     
  4717                           ;mcc_generated_files/interrupt_manager.c: 70:     {;mcc_generated_files/interrupt_manage
      +                          r.c: 71:         INT2_ISR();
  4718  000076  EC17  F00C         	call	_INT2_ISR	;wreg free
  4719                           
  4720                           ;mcc_generated_files/interrupt_manager.c: 72:     }
  4721  00007A  EF3F  F000         	goto	i2l156
  4722  00007E                     i2l153:
  4723  00007E                     i2l156:
  4724  00007E  C02B  FFFB         	movff	??_INTERRUPT_InterruptManager+1,pclatu
  4725  000082  C02A  FFFA         	movff	??_INTERRUPT_InterruptManager,pclath
  4726  000086  9245               	bcf	int$flags,1,c	;clear compiler interrupt flag (level 2)
  4727  000088  0011               	retfie		f
  4728  00008A                     __end_of_INTERRUPT_InterruptManager:
  4729                           	callstack 0
  4730                           
  4731 ;; *************** function _INT2_ISR *****************
  4732 ;; Defined at:
  4733 ;;		line 86 in file "mcc_generated_files/ext_int.c"
  4734 ;; Parameters:    Size  Location     Type
  4735 ;;		None
  4736 ;; Auto vars:     Size  Location     Type
  4737 ;;		None
  4738 ;; Return value:  Size  Location     Type
  4739 ;;                  1    wreg      void 
  4740 ;; Registers used:
  4741 ;;		wreg, status,2, status,0, pcl, pclath, pclatu, tosl, cstack
  4742 ;; Tracked objects:
  4743 ;;		On entry : 0/0
  4744 ;;		On exit  : 0/0
  4745 ;;		Unchanged: 0/0
  4746 ;; Data sizes:     COMRAM   BANK0   BANK1   BANK2   BANK3   BANK4   BANK5   BANK6   BANK7   BANK8   BANK9  BANK10  BANK1
      +1  BANK12  BANK13  BANK14
  4747 ;;      Params:         0       0       0       0       0       0       0       0       0       0       0       0       
      +0       0       0       0
  4748 ;;      Locals:         0       0       0       0       0       0       0       0       0       0       0       0       
      +0       0       0       0
  4749 ;;      Temps:          0       0       0       0       0       0       0       0       0       0       0       0       
      +0       0       0       0
  4750 ;;      Totals:         0       0       0       0       0       0       0       0       0       0       0       0       
      +0       0       0       0
  4751 ;;Total ram usage:        0 bytes
  4752 ;; Hardware stack levels used: 1
  4753 ;; Hardware stack levels required when called: 2
  4754 ;; This function calls:
  4755 ;;		_INT2_CallBack
  4756 ;; This function is called by:
  4757 ;;		_INTERRUPT_InterruptManager
  4758 ;; This function uses a non-reentrant model
  4759 ;;
  4760                           
  4761                           	psect	text66
  4762  00182E                     __ptext66:
  4763                           	callstack 0
  4764  00182E                     _INT2_ISR:
  4765                           	callstack 18
  4766  00182E                     
  4767                           ;mcc_generated_files/ext_int.c: 88:     (INTCON3bits.INT2IF = 0);
  4768  00182E  92F0               	bcf	240,1,c	;volatile
  4769  001830                     
  4770                           ;mcc_generated_files/ext_int.c: 91:     INT2_CallBack();
  4771  001830  EC62  F00A         	call	_INT2_CallBack	;wreg free
  4772  001834  0012               	return		;funcret
  4773  001836                     __end_of_INT2_ISR:
  4774                           	callstack 0
  4775                           
  4776 ;; *************** function _INT2_CallBack *****************
  4777 ;; Defined at:
  4778 ;;		line 95 in file "mcc_generated_files/ext_int.c"
  4779 ;; Parameters:    Size  Location     Type
  4780 ;;		None
  4781 ;; Auto vars:     Size  Location     Type
  4782 ;;		None
  4783 ;; Return value:  Size  Location     Type
  4784 ;;                  1    wreg      void 
  4785 ;; Registers used:
  4786 ;;		wreg, status,2, status,0, pcl, pclath, pclatu, tosl, cstack
  4787 ;; Tracked objects:
  4788 ;;		On entry : 0/0
  4789 ;;		On exit  : 0/0
  4790 ;;		Unchanged: 0/0
  4791 ;; Data sizes:     COMRAM   BANK0   BANK1   BANK2   BANK3   BANK4   BANK5   BANK6   BANK7   BANK8   BANK9  BANK10  BANK1
      +1  BANK12  BANK13  BANK14
  4792 ;;      Params:         0       0       0       0       0       0       0       0       0       0       0       0       
      +0       0       0       0
  4793 ;;      Locals:         0       0       0       0       0       0       0       0       0       0       0       0       
      +0       0       0       0
  4794 ;;      Temps:          0       0       0       0       0       0       0       0       0       0       0       0       
      +0       0       0       0
  4795 ;;      Totals:         0       0       0       0       0       0       0       0       0       0       0       0       
      +0       0       0       0
  4796 ;;Total ram usage:        0 bytes
  4797 ;; Hardware stack levels used: 1
  4798 ;; Hardware stack levels required when called: 1
  4799 ;; This function calls:
  4800 ;;		Absolute function
  4801 ;;		_INT2_DefaultInterruptHandler
  4802 ;; This function is called by:
  4803 ;;		_INT2_ISR
  4804 ;; This function uses a non-reentrant model
  4805 ;;
  4806                           
  4807                           	psect	text67
  4808  0014C4                     __ptext67:
  4809                           	callstack 0
  4810  0014C4                     _INT2_CallBack:
  4811                           	callstack 18
  4812  0014C4                     
  4813                           ;mcc_generated_files/ext_int.c: 98:     if(INT2_InterruptHandler)
  4814  0014C4  5038               	movf	_INT2_InterruptHandler^0,w,c
  4815  0014C6  1039               	iorwf	(_INT2_InterruptHandler+1)^0,w,c
  4816  0014C8  B4D8               	btfsc	status,2,c
  4817  0014CA  EF69  F00A         	goto	i2u23_41
  4818  0014CE  EF6B  F00A         	goto	i2u23_40
  4819  0014D2                     i2u23_41:
  4820  0014D2  EF78  F00A         	goto	i2l207
  4821  0014D6                     i2u23_40:
  4822  0014D6                     
  4823                           ;mcc_generated_files/ext_int.c: 99:     {;mcc_generated_files/ext_int.c: 100:         IN
      +                          T2_InterruptHandler();
  4824  0014D6  D802               	call	i2u24_48
  4825  0014D8  EF78  F00A         	goto	i2u24_49
  4826  0014DC                     i2u24_48:
  4827  0014DC  0005               	push	
  4828  0014DE  6EFA               	movwf	pclath,c
  4829  0014E0  5038               	movf	_INT2_InterruptHandler^0,w,c
  4830  0014E2  6EFD               	movwf	tosl,c
  4831  0014E4  5039               	movf	(_INT2_InterruptHandler+1)^0,w,c
  4832  0014E6  6EFE               	movwf	tosh,c
  4833  0014E8  50F8               	movf	tblptru,w,c
  4834  0014EA  6EFF               	movwf	tosu,c
  4835  0014EC  50FA               	movf	pclath,w,c
  4836  0014EE  0012               	return		;indir
  4837  0014F0                     i2u24_49:
  4838  0014F0                     i2l207:
  4839  0014F0  0012               	return		;funcret
  4840  0014F2                     __end_of_INT2_CallBack:
  4841                           	callstack 0
  4842                           
  4843 ;; *************** function _INT2_DefaultInterruptHandler *****************
  4844 ;; Defined at:
  4845 ;;		line 108 in file "mcc_generated_files/ext_int.c"
  4846 ;; Parameters:    Size  Location     Type
  4847 ;;		None
  4848 ;; Auto vars:     Size  Location     Type
  4849 ;;		None
  4850 ;; Return value:  Size  Location     Type
  4851 ;;                  1    wreg      void 
  4852 ;; Registers used:
  4853 ;;		None
  4854 ;; Tracked objects:
  4855 ;;		On entry : 0/0
  4856 ;;		On exit  : 0/0
  4857 ;;		Unchanged: 0/0
  4858 ;; Data sizes:     COMRAM   BANK0   BANK1   BANK2   BANK3   BANK4   BANK5   BANK6   BANK7   BANK8   BANK9  BANK10  BANK1
      +1  BANK12  BANK13  BANK14
  4859 ;;      Params:         0       0       0       0       0       0       0       0       0       0       0       0       
      +0       0       0       0
  4860 ;;      Locals:         0       0       0       0       0       0       0       0       0       0       0       0       
      +0       0       0       0
  4861 ;;      Temps:          0       0       0       0       0       0       0       0       0       0       0       0       
      +0       0       0       0
  4862 ;;      Totals:         0       0       0       0       0       0       0       0       0       0       0       0       
      +0       0       0       0
  4863 ;;Total ram usage:        0 bytes
  4864 ;; Hardware stack levels used: 1
  4865 ;; This function calls:
  4866 ;;		Nothing
  4867 ;; This function is called by:
  4868 ;;		_EXT_INT_Initialize
  4869 ;;		_INT2_CallBack
  4870 ;; This function uses a non-reentrant model
  4871 ;;
  4872                           
  4873                           	psect	text68
  4874  001882                     __ptext68:
  4875                           	callstack 0
  4876  001882                     _INT2_DefaultInterruptHandler:
  4877                           	callstack 18
  4878  001882  0012               	return		;funcret
  4879  001884                     __end_of_INT2_DefaultInterruptHandler:
  4880                           	callstack 0
  4881                           
  4882 ;; *************** function _INT1_ISR *****************
  4883 ;; Defined at:
  4884 ;;		line 60 in file "mcc_generated_files/ext_int.c"
  4885 ;; Parameters:    Size  Location     Type
  4886 ;;		None
  4887 ;; Auto vars:     Size  Location     Type
  4888 ;;		None
  4889 ;; Return value:  Size  Location     Type
  4890 ;;                  1    wreg      void 
  4891 ;; Registers used:
  4892 ;;		wreg, status,2, status,0, pcl, pclath, pclatu, tosl, cstack
  4893 ;; Tracked objects:
  4894 ;;		On entry : 0/0
  4895 ;;		On exit  : 0/0
  4896 ;;		Unchanged: 0/0
  4897 ;; Data sizes:     COMRAM   BANK0   BANK1   BANK2   BANK3   BANK4   BANK5   BANK6   BANK7   BANK8   BANK9  BANK10  BANK1
      +1  BANK12  BANK13  BANK14
  4898 ;;      Params:         0       0       0       0       0       0       0       0       0       0       0       0       
      +0       0       0       0
  4899 ;;      Locals:         0       0       0       0       0       0       0       0       0       0       0       0       
      +0       0       0       0
  4900 ;;      Temps:          0       0       0       0       0       0       0       0       0       0       0       0       
      +0       0       0       0
  4901 ;;      Totals:         0       0       0       0       0       0       0       0       0       0       0       0       
      +0       0       0       0
  4902 ;;Total ram usage:        0 bytes
  4903 ;; Hardware stack levels used: 1
  4904 ;; Hardware stack levels required when called: 2
  4905 ;; This function calls:
  4906 ;;		_INT1_CallBack
  4907 ;; This function is called by:
  4908 ;;		_INTERRUPT_InterruptManager
  4909 ;; This function uses a non-reentrant model
  4910 ;;
  4911                           
  4912                           	psect	text69
  4913  001836                     __ptext69:
  4914                           	callstack 0
  4915  001836                     _INT1_ISR:
  4916                           	callstack 18
  4917  001836                     
  4918                           ;mcc_generated_files/ext_int.c: 62:     (INTCON3bits.INT1IF = 0);
  4919  001836  90F0               	bcf	240,0,c	;volatile
  4920  001838                     
  4921                           ;mcc_generated_files/ext_int.c: 65:     INT1_CallBack();
  4922  001838  EC79  F00A         	call	_INT1_CallBack	;wreg free
  4923  00183C  0012               	return		;funcret
  4924  00183E                     __end_of_INT1_ISR:
  4925                           	callstack 0
  4926                           
  4927 ;; *************** function _INT1_CallBack *****************
  4928 ;; Defined at:
  4929 ;;		line 69 in file "mcc_generated_files/ext_int.c"
  4930 ;; Parameters:    Size  Location     Type
  4931 ;;		None
  4932 ;; Auto vars:     Size  Location     Type
  4933 ;;		None
  4934 ;; Return value:  Size  Location     Type
  4935 ;;                  1    wreg      void 
  4936 ;; Registers used:
  4937 ;;		wreg, status,2, status,0, pcl, pclath, pclatu, tosl, cstack
  4938 ;; Tracked objects:
  4939 ;;		On entry : 0/0
  4940 ;;		On exit  : 0/0
  4941 ;;		Unchanged: 0/0
  4942 ;; Data sizes:     COMRAM   BANK0   BANK1   BANK2   BANK3   BANK4   BANK5   BANK6   BANK7   BANK8   BANK9  BANK10  BANK1
      +1  BANK12  BANK13  BANK14
  4943 ;;      Params:         0       0       0       0       0       0       0       0       0       0       0       0       
      +0       0       0       0
  4944 ;;      Locals:         0       0       0       0       0       0       0       0       0       0       0       0       
      +0       0       0       0
  4945 ;;      Temps:          0       0       0       0       0       0       0       0       0       0       0       0       
      +0       0       0       0
  4946 ;;      Totals:         0       0       0       0       0       0       0       0       0       0       0       0       
      +0       0       0       0
  4947 ;;Total ram usage:        0 bytes
  4948 ;; Hardware stack levels used: 1
  4949 ;; Hardware stack levels required when called: 1
  4950 ;; This function calls:
  4951 ;;		Absolute function
  4952 ;;		_INT1_DefaultInterruptHandler
  4953 ;; This function is called by:
  4954 ;;		_INT1_ISR
  4955 ;; This function uses a non-reentrant model
  4956 ;;
  4957                           
  4958                           	psect	text70
  4959  0014F2                     __ptext70:
  4960                           	callstack 0
  4961  0014F2                     _INT1_CallBack:
  4962                           	callstack 18
  4963  0014F2                     
  4964                           ;mcc_generated_files/ext_int.c: 72:     if(INT1_InterruptHandler)
  4965  0014F2  503A               	movf	_INT1_InterruptHandler^0,w,c
  4966  0014F4  103B               	iorwf	(_INT1_InterruptHandler+1)^0,w,c
  4967  0014F6  B4D8               	btfsc	status,2,c
  4968  0014F8  EF80  F00A         	goto	i2u21_41
  4969  0014FC  EF82  F00A         	goto	i2u21_40
  4970  001500                     i2u21_41:
  4971  001500  EF8F  F00A         	goto	i2l194
  4972  001504                     i2u21_40:
  4973  001504                     
  4974                           ;mcc_generated_files/ext_int.c: 73:     {;mcc_generated_files/ext_int.c: 74:         INT
      +                          1_InterruptHandler();
  4975  001504  D802               	call	i2u22_48
  4976  001506  EF8F  F00A         	goto	i2u22_49
  4977  00150A                     i2u22_48:
  4978  00150A  0005               	push	
  4979  00150C  6EFA               	movwf	pclath,c
  4980  00150E  503A               	movf	_INT1_InterruptHandler^0,w,c
  4981  001510  6EFD               	movwf	tosl,c
  4982  001512  503B               	movf	(_INT1_InterruptHandler+1)^0,w,c
  4983  001514  6EFE               	movwf	tosh,c
  4984  001516  50F8               	movf	tblptru,w,c
  4985  001518  6EFF               	movwf	tosu,c
  4986  00151A  50FA               	movf	pclath,w,c
  4987  00151C  0012               	return		;indir
  4988  00151E                     i2u22_49:
  4989  00151E                     i2l194:
  4990  00151E  0012               	return		;funcret
  4991  001520                     __end_of_INT1_CallBack:
  4992                           	callstack 0
  4993                           
  4994 ;; *************** function _INT1_DefaultInterruptHandler *****************
  4995 ;; Defined at:
  4996 ;;		line 82 in file "mcc_generated_files/ext_int.c"
  4997 ;; Parameters:    Size  Location     Type
  4998 ;;		None
  4999 ;; Auto vars:     Size  Location     Type
  5000 ;;		None
  5001 ;; Return value:  Size  Location     Type
  5002 ;;                  1    wreg      void 
  5003 ;; Registers used:
  5004 ;;		None
  5005 ;; Tracked objects:
  5006 ;;		On entry : 0/0
  5007 ;;		On exit  : 0/0
  5008 ;;		Unchanged: 0/0
  5009 ;; Data sizes:     COMRAM   BANK0   BANK1   BANK2   BANK3   BANK4   BANK5   BANK6   BANK7   BANK8   BANK9  BANK10  BANK1
      +1  BANK12  BANK13  BANK14
  5010 ;;      Params:         0       0       0       0       0       0       0       0       0       0       0       0       
      +0       0       0       0
  5011 ;;      Locals:         0       0       0       0       0       0       0       0       0       0       0       0       
      +0       0       0       0
  5012 ;;      Temps:          0       0       0       0       0       0       0       0       0       0       0       0       
      +0       0       0       0
  5013 ;;      Totals:         0       0       0       0       0       0       0       0       0       0       0       0       
      +0       0       0       0
  5014 ;;Total ram usage:        0 bytes
  5015 ;; Hardware stack levels used: 1
  5016 ;; This function calls:
  5017 ;;		Nothing
  5018 ;; This function is called by:
  5019 ;;		_EXT_INT_Initialize
  5020 ;;		_INT1_CallBack
  5021 ;; This function uses a non-reentrant model
  5022 ;;
  5023                           
  5024                           	psect	text71
  5025  001884                     __ptext71:
  5026                           	callstack 0
  5027  001884                     _INT1_DefaultInterruptHandler:
  5028                           	callstack 18
  5029  001884  0012               	return		;funcret
  5030  001886                     __end_of_INT1_DefaultInterruptHandler:
  5031                           	callstack 0
  5032                           
  5033 ;; *************** function _INT0_ISR *****************
  5034 ;; Defined at:
  5035 ;;		line 34 in file "mcc_generated_files/ext_int.c"
  5036 ;; Parameters:    Size  Location     Type
  5037 ;;		None
  5038 ;; Auto vars:     Size  Location     Type
  5039 ;;		None
  5040 ;; Return value:  Size  Location     Type
  5041 ;;                  1    wreg      void 
  5042 ;; Registers used:
  5043 ;;		wreg, status,2, status,0, pcl, pclath, pclatu, tosl, cstack
  5044 ;; Tracked objects:
  5045 ;;		On entry : 0/0
  5046 ;;		On exit  : 0/0
  5047 ;;		Unchanged: 0/0
  5048 ;; Data sizes:     COMRAM   BANK0   BANK1   BANK2   BANK3   BANK4   BANK5   BANK6   BANK7   BANK8   BANK9  BANK10  BANK1
      +1  BANK12  BANK13  BANK14
  5049 ;;      Params:         0       0       0       0       0       0       0       0       0       0       0       0       
      +0       0       0       0
  5050 ;;      Locals:         0       0       0       0       0       0       0       0       0       0       0       0       
      +0       0       0       0
  5051 ;;      Temps:          0       0       0       0       0       0       0       0       0       0       0       0       
      +0       0       0       0
  5052 ;;      Totals:         0       0       0       0       0       0       0       0       0       0       0       0       
      +0       0       0       0
  5053 ;;Total ram usage:        0 bytes
  5054 ;; Hardware stack levels used: 1
  5055 ;; Hardware stack levels required when called: 2
  5056 ;; This function calls:
  5057 ;;		_INT0_CallBack
  5058 ;; This function is called by:
  5059 ;;		_INTERRUPT_InterruptManager
  5060 ;; This function uses a non-reentrant model
  5061 ;;
  5062                           
  5063                           	psect	text72
  5064  00183E                     __ptext72:
  5065                           	callstack 0
  5066  00183E                     _INT0_ISR:
  5067                           	callstack 18
  5068  00183E                     
  5069                           ;mcc_generated_files/ext_int.c: 36:     (INTCONbits.INT0IF = 0);
  5070  00183E  92F2               	bcf	242,1,c	;volatile
  5071  001840                     
  5072                           ;mcc_generated_files/ext_int.c: 39:     INT0_CallBack();
  5073  001840  EC90  F00A         	call	_INT0_CallBack	;wreg free
  5074  001844  0012               	return		;funcret
  5075  001846                     __end_of_INT0_ISR:
  5076                           	callstack 0
  5077                           
  5078 ;; *************** function _INT0_CallBack *****************
  5079 ;; Defined at:
  5080 ;;		line 43 in file "mcc_generated_files/ext_int.c"
  5081 ;; Parameters:    Size  Location     Type
  5082 ;;		None
  5083 ;; Auto vars:     Size  Location     Type
  5084 ;;		None
  5085 ;; Return value:  Size  Location     Type
  5086 ;;                  1    wreg      void 
  5087 ;; Registers used:
  5088 ;;		wreg, status,2, status,0, pcl, pclath, pclatu, tosl, cstack
  5089 ;; Tracked objects:
  5090 ;;		On entry : 0/0
  5091 ;;		On exit  : 0/0
  5092 ;;		Unchanged: 0/0
  5093 ;; Data sizes:     COMRAM   BANK0   BANK1   BANK2   BANK3   BANK4   BANK5   BANK6   BANK7   BANK8   BANK9  BANK10  BANK1
      +1  BANK12  BANK13  BANK14
  5094 ;;      Params:         0       0       0       0       0       0       0       0       0       0       0       0       
      +0       0       0       0
  5095 ;;      Locals:         0       0       0       0       0       0       0       0       0       0       0       0       
      +0       0       0       0
  5096 ;;      Temps:          0       0       0       0       0       0       0       0       0       0       0       0       
      +0       0       0       0
  5097 ;;      Totals:         0       0       0       0       0       0       0       0       0       0       0       0       
      +0       0       0       0
  5098 ;;Total ram usage:        0 bytes
  5099 ;; Hardware stack levels used: 1
  5100 ;; Hardware stack levels required when called: 1
  5101 ;; This function calls:
  5102 ;;		Absolute function
  5103 ;;		_INT0_DefaultInterruptHandler
  5104 ;; This function is called by:
  5105 ;;		_INT0_ISR
  5106 ;; This function uses a non-reentrant model
  5107 ;;
  5108                           
  5109                           	psect	text73
  5110  001520                     __ptext73:
  5111                           	callstack 0
  5112  001520                     _INT0_CallBack:
  5113                           	callstack 18
  5114  001520                     
  5115                           ;mcc_generated_files/ext_int.c: 46:     if(INT0_InterruptHandler)
  5116  001520  503C               	movf	_INT0_InterruptHandler^0,w,c
  5117  001522  103D               	iorwf	(_INT0_InterruptHandler+1)^0,w,c
  5118  001524  B4D8               	btfsc	status,2,c
  5119  001526  EF97  F00A         	goto	i2u19_41
  5120  00152A  EF99  F00A         	goto	i2u19_40
  5121  00152E                     i2u19_41:
  5122  00152E  EFA6  F00A         	goto	i2l181
  5123  001532                     i2u19_40:
  5124  001532                     
  5125                           ;mcc_generated_files/ext_int.c: 47:     {;mcc_generated_files/ext_int.c: 48:         INT
      +                          0_InterruptHandler();
  5126  001532  D802               	call	i2u20_48
  5127  001534  EFA6  F00A         	goto	i2u20_49
  5128  001538                     i2u20_48:
  5129  001538  0005               	push	
  5130  00153A  6EFA               	movwf	pclath,c
  5131  00153C  503C               	movf	_INT0_InterruptHandler^0,w,c
  5132  00153E  6EFD               	movwf	tosl,c
  5133  001540  503D               	movf	(_INT0_InterruptHandler+1)^0,w,c
  5134  001542  6EFE               	movwf	tosh,c
  5135  001544  50F8               	movf	tblptru,w,c
  5136  001546  6EFF               	movwf	tosu,c
  5137  001548  50FA               	movf	pclath,w,c
  5138  00154A  0012               	return		;indir
  5139  00154C                     i2u20_49:
  5140  00154C                     i2l181:
  5141  00154C  0012               	return		;funcret
  5142  00154E                     __end_of_INT0_CallBack:
  5143                           	callstack 0
  5144                           
  5145 ;; *************** function _INT0_DefaultInterruptHandler *****************
  5146 ;; Defined at:
  5147 ;;		line 56 in file "mcc_generated_files/ext_int.c"
  5148 ;; Parameters:    Size  Location     Type
  5149 ;;		None
  5150 ;; Auto vars:     Size  Location     Type
  5151 ;;		None
  5152 ;; Return value:  Size  Location     Type
  5153 ;;                  1    wreg      void 
  5154 ;; Registers used:
  5155 ;;		None
  5156 ;; Tracked objects:
  5157 ;;		On entry : 0/0
  5158 ;;		On exit  : 0/0
  5159 ;;		Unchanged: 0/0
  5160 ;; Data sizes:     COMRAM   BANK0   BANK1   BANK2   BANK3   BANK4   BANK5   BANK6   BANK7   BANK8   BANK9  BANK10  BANK1
      +1  BANK12  BANK13  BANK14
  5161 ;;      Params:         0       0       0       0       0       0       0       0       0       0       0       0       
      +0       0       0       0
  5162 ;;      Locals:         0       0       0       0       0       0       0       0       0       0       0       0       
      +0       0       0       0
  5163 ;;      Temps:          0       0       0       0       0       0       0       0       0       0       0       0       
      +0       0       0       0
  5164 ;;      Totals:         0       0       0       0       0       0       0       0       0       0       0       0       
      +0       0       0       0
  5165 ;;Total ram usage:        0 bytes
  5166 ;; Hardware stack levels used: 1
  5167 ;; This function calls:
  5168 ;;		Nothing
  5169 ;; This function is called by:
  5170 ;;		_EXT_INT_Initialize
  5171 ;;		_INT0_CallBack
  5172 ;; This function uses a non-reentrant model
  5173 ;;
  5174                           
  5175                           	psect	text74
  5176  001886                     __ptext74:
  5177                           	callstack 0
  5178  001886                     _INT0_DefaultInterruptHandler:
  5179                           	callstack 18
  5180  001886  0012               	return		;funcret
  5181  001888                     __end_of_INT0_DefaultInterruptHandler:
  5182                           	callstack 0
  5183                           
  5184                           	psect	text75
  5185  000000                     __ptext75:
  5186                           	callstack 0
  5187  000000                     
  5188                           	psect	rparam
  5189  0000                     
  5190                           	psect	temp
  5191  000045                     btemp:
  5192                           	callstack 0
  5193  000045                     	ds	1
  5194  0000                     int$flags	set	btemp
  5195  0000                     wtemp8	set	btemp+1
  5196  0000                     ttemp5	set	btemp+1
  5197  0000                     ttemp6	set	btemp+4
  5198  0000                     ttemp7	set	btemp+8
  5199                           
  5200                           	psect	config
  5201                           
  5202                           ;Config register CONFIG1L @ 0xFFF8
  5203                           ;	Watchdog Timer
  5204                           ;	WDTEN = OFF, Disabled - Controlled by SWDTEN bit
  5205                           ;	PLL Prescaler Selection
  5206                           ;	PLLDIV = 1, No prescale (4 MHz oscillator input drives PLL directly)
  5207                           ;	PLL Enable Configuration Bit
  5208                           ;	CFGPLLEN = OFF, PLL Disabled
  5209                           ;	Stack Overflow/Underflow Reset
  5210                           ;	STVREN = ON, Enabled
  5211                           ;	Extended Instruction Set
  5212                           ;	XINST = OFF, Disabled
  5213  FFF8                     	org	65528
  5214  FFF8  BE                 	db	190
  5215                           
  5216                           ;Config register CONFIG1H @ 0xFFF9
  5217                           ;	CPU System Clock Postscaler
  5218                           ;	CPUDIV = OSC1, No CPU system clock divide
  5219                           ;	Code Protect
  5220                           ;	CP0 = OFF, Program memory is not code-protected
  5221  FFF9                     	org	65529
  5222  FFF9  F7                 	db	247
  5223                           
  5224                           ;Config register CONFIG2L @ 0xFFFA
  5225                           ;	Oscillator
  5226                           ;	OSC = ECPLL, EC+PLL (CLKO-RA6), USB-EC+PLL
  5227                           ;	T1OSC/SOSC Power Selection Bits
  5228                           ;	SOSCSEL = DIG, Digital (SCLKI) mode selected
  5229                           ;	EC Clock Out Enable Bit
  5230                           ;	CLKOEC = ON, CLKO output enabled on the RA6 pin
  5231                           ;	Fail-Safe Clock Monitor
  5232                           ;	FCMEN = ON, Enabled
  5233                           ;	Internal External Oscillator Switch Over Mode
  5234                           ;	IESO = ON, Enabled
  5235  FFFA                     	org	65530
  5236  FFFA  F7                 	db	247
  5237                           
  5238                           ;Config register CONFIG2H @ 0xFFFB
  5239                           ;	Watchdog Postscaler
  5240                           ;	WDTPS = 32768, 1:32768
  5241  FFFB                     	org	65531
  5242  FFFB  FF                 	db	255
  5243                           
  5244                           ;Config register CONFIG3L @ 0xFFFC
  5245                           ;	DSWDT Clock Select
  5246                           ;	DSWDTOSC = INTOSCREF, DSWDT uses INTRC
  5247                           ;	RTCC Clock Select
  5248                           ;	RTCOSC = T1OSCREF, RTCC uses T1OSC/T1CKI
  5249                           ;	Deep Sleep BOR
  5250                           ;	DSBOREN = ON, Enabled
  5251                           ;	Deep Sleep Watchdog Timer
  5252                           ;	DSWDTEN = ON, Enabled
  5253                           ;	Deep Sleep Watchdog Postscaler
  5254                           ;	DSWDTPS = G2, 1:2,147,483,648 (25.7 days)
  5255  FFFC                     	org	65532
  5256  FFFC  FF                 	db	255
  5257                           
  5258                           ;Config register CONFIG3H @ 0xFFFD
  5259                           ;	IOLOCK One-Way Set Enable bit
  5260                           ;	IOL1WAY = ON, The IOLOCK bit (PPSCON<0>) can be set once
  5261                           ;	ADC 10 or 12 Bit Select
  5262                           ;	ADCSEL = BIT10, 10 - Bit ADC Enabled
  5263                           ;	MSSP address masking
  5264                           ;	MSSP7B_EN = MSK7, 7 Bit address masking mode
  5265  FFFD                     	org	65533
  5266  FFFD  FB                 	db	251
  5267                           
  5268                           ;Config register CONFIG4L @ 0xFFFE
  5269                           ;	Write/Erase Protect Page Start/End Location
  5270                           ;	WPFP = PAGE_63, Write Protect Program Flash Page 63
  5271                           ;	Write/Erase Protect Configuration Region
  5272                           ;	WPCFG = OFF, Configuration Words page not erase/write-protected
  5273  FFFE                     	org	65534
  5274  FFFE  BF                 	db	191
  5275                           
  5276                           ;Config register CONFIG4H @ 0xFFFF
  5277                           ;	Write Protect Disable bit
  5278                           ;	WPDIS = OFF, WPFP<6:0>/WPEND region ignored
  5279                           ;	Write/Erase Protect Region Select bit (valid when WPDIS = 0)
  5280                           ;	WPEND = PAGE_WPFP, Pages WPFP<6:0> through Configuration Words erase/write protected
  5281                           ;	Low Speed USB mode with 48 MHz system clock bit
  5282                           ;	LS48MHZ = SYS48X8, System clock at 48 MHz USB CLKEN divide-by is set to 8
  5283  FFFF                     	org	65535
  5284  FFFF  FB                 	db	251
  5285                           tosu	equ	0xFFF
  5286                           tosh	equ	0xFFE
  5287                           tosl	equ	0xFFD
  5288                           stkptr	equ	0xFFC
  5289                           pclatu	equ	0xFFB
  5290                           pclath	equ	0xFFA
  5291                           pcl	equ	0xFF9
  5292                           tblptru	equ	0xFF8
  5293                           tblptrh	equ	0xFF7
  5294                           tblptrl	equ	0xFF6
  5295                           tablat	equ	0xFF5
  5296                           prodh	equ	0xFF4
  5297                           prodl	equ	0xFF3
  5298                           indf0	equ	0xFEF
  5299                           postinc0	equ	0xFEE
  5300                           postdec0	equ	0xFED
  5301                           preinc0	equ	0xFEC
  5302                           plusw0	equ	0xFEB
  5303                           fsr0h	equ	0xFEA
  5304                           fsr0l	equ	0xFE9
  5305                           wreg	equ	0xFE8
  5306                           indf1	equ	0xFE7
  5307                           postinc1	equ	0xFE6
  5308                           postdec1	equ	0xFE5
  5309                           preinc1	equ	0xFE4
  5310                           plusw1	equ	0xFE3
  5311                           fsr1h	equ	0xFE2
  5312                           fsr1l	equ	0xFE1
  5313                           bsr	equ	0xFE0
  5314                           indf2	equ	0xFDF
  5315                           postinc2	equ	0xFDE
  5316                           postdec2	equ	0xFDD
  5317                           preinc2	equ	0xFDC
  5318                           plusw2	equ	0xFDB
  5319                           fsr2h	equ	0xFDA
  5320                           fsr2l	equ	0xFD9
  5321                           status	equ	0xFD8

Data Sizes:
    Strings     0
    Constant    32
    Data        0
    BSS         41
    Persistent  13
    Stack       0

Auto Spaces:
    Space          Size  Autos    Used
    COMRAM           94     14      68
    BANK0           160      0       0
    BANK1           256      0       0
    BANK2           256      0       0
    BANK3           256      0       0
    BANK4           256      0       0
    BANK5           256      0       0
    BANK6           256      0       0
    BANK7           256      0       0
    BANK8           256      0       0
    BANK9           256      0       0
    BANK10          256      0       0
    BANK11          256      0       0
    BANK12          256      0       0
    BANK13          256      0       0
    BANK14          176      0       0

Pointer List with Targets:

    I2C1_Read1ByteRegister@returnValue.data	PTR unsigned char  size(2) Largest target is 0

    I2C1_Read2ByteRegister@returnValue.data	PTR unsigned char  size(2) Largest target is 0

    I2C1_Write1ByteRegister@data.data	PTR unsigned char  size(2) Largest target is 0

    I2C1_Write2ByteRegister@data.data	PTR unsigned char  size(2) Largest target is 0

    I2C1_DO_TX$2806$0	PTR void  size(2) Largest target is 5
		 -> I2C1_ReadDataBlock@bufferBlock(COMRAM[4]), I2C1_Write2ByteRegister@data(COMRAM[2]), I2C1_Write1ByteRegister@data(COMRAM[1]), I2C1_Read2ByteRegister@returnValue(COMRAM[2]), 
		 -> I2C1_Read1ByteRegister@returnValue(COMRAM[1]), NULL(NULL[0]), 

    I2C1_DO_RX$2812$0	PTR void  size(2) Largest target is 5
		 -> I2C1_ReadDataBlock@bufferBlock(COMRAM[4]), I2C1_Write2ByteRegister@data(COMRAM[2]), I2C1_Write1ByteRegister@data(COMRAM[1]), I2C1_Read2ByteRegister@returnValue(COMRAM[2]), 
		 -> I2C1_Read1ByteRegister@returnValue(COMRAM[1]), NULL(NULL[0]), 

    I2C1_DO_TX_EMPTY$2818$0	PTR void  size(2) Largest target is 5
		 -> I2C1_ReadDataBlock@bufferBlock(COMRAM[4]), I2C1_Write2ByteRegister@data(COMRAM[2]), I2C1_Write1ByteRegister@data(COMRAM[1]), I2C1_Read2ByteRegister@returnValue(COMRAM[2]), 
		 -> I2C1_Read1ByteRegister@returnValue(COMRAM[1]), NULL(NULL[0]), 

    I2C1_DO_RX_EMPTY$2824$0	PTR void  size(2) Largest target is 5
		 -> I2C1_ReadDataBlock@bufferBlock(COMRAM[4]), I2C1_Write2ByteRegister@data(COMRAM[2]), I2C1_Write1ByteRegister@data(COMRAM[1]), I2C1_Read2ByteRegister@returnValue(COMRAM[2]), 
		 -> I2C1_Read1ByteRegister@returnValue(COMRAM[1]), NULL(NULL[0]), 

    I2C1_DO_TX_EMPTY$2823	PTR void  size(2) Largest target is 5
		 -> I2C1_ReadDataBlock@bufferBlock(COMRAM[4]), I2C1_Write2ByteRegister@data(COMRAM[2]), I2C1_Write1ByteRegister@data(COMRAM[1]), I2C1_Read2ByteRegister@returnValue(COMRAM[2]), 
		 -> I2C1_Read1ByteRegister@returnValue(COMRAM[1]), NULL(NULL[0]), 

    I2C1_DO_TX_EMPTY$2818	PTR FTN(PTR void ,)enum E360 size(2) Largest target is 1
		 -> rdBlkRegCompleteHandler(), wr2RegCompleteHandler(), wr1RegCompleteHandler(), rd2RegCompleteHandler(), 
		 -> rd1RegCompleteHandler(), I2C1_CallbackReturnReset(), I2C1_CallbackReturnStop(), Absolute function(), 

    I2C1_DO_RX$2817	PTR void  size(2) Largest target is 5
		 -> I2C1_ReadDataBlock@bufferBlock(COMRAM[4]), I2C1_Write2ByteRegister@data(COMRAM[2]), I2C1_Write1ByteRegister@data(COMRAM[1]), I2C1_Read2ByteRegister@returnValue(COMRAM[2]), 
		 -> I2C1_Read1ByteRegister@returnValue(COMRAM[1]), NULL(NULL[0]), 

    I2C1_DO_RX$2812	PTR FTN(PTR void ,)enum E360 size(2) Largest target is 1
		 -> rdBlkRegCompleteHandler(), wr2RegCompleteHandler(), wr1RegCompleteHandler(), rd2RegCompleteHandler(), 
		 -> rd1RegCompleteHandler(), I2C1_CallbackReturnReset(), I2C1_CallbackReturnStop(), Absolute function(), 

    I2C1_DO_TX$2811	PTR void  size(2) Largest target is 5
		 -> I2C1_ReadDataBlock@bufferBlock(COMRAM[4]), I2C1_Write2ByteRegister@data(COMRAM[2]), I2C1_Write1ByteRegister@data(COMRAM[1]), I2C1_Read2ByteRegister@returnValue(COMRAM[2]), 
		 -> I2C1_Read1ByteRegister@returnValue(COMRAM[1]), NULL(NULL[0]), 

    I2C1_DO_TX$2806	PTR FTN(PTR void ,)enum E360 size(2) Largest target is 1
		 -> rdBlkRegCompleteHandler(), wr2RegCompleteHandler(), wr1RegCompleteHandler(), rd2RegCompleteHandler(), 
		 -> rd1RegCompleteHandler(), I2C1_CallbackReturnReset(), I2C1_CallbackReturnStop(), Absolute function(), 

    I2C1_MasterFsm$2805	const PTR FTN()enum E6649 size(2) Largest target is 1
		 -> I2C1_DO_ADDRESS_NACK(), I2C1_DO_RESET(), I2C1_DO_RX_NACK_RESTART(), I2C1_DO_RX_NACK_STOP(), 
		 -> I2C1_DO_RX_ACK(), I2C1_DO_SEND_STOP(), I2C1_DO_SEND_RESTART(), I2C1_DO_SEND_RESTART_WRITE(), 
		 -> I2C1_DO_SEND_RESTART_READ(), I2C1_DO_TX_EMPTY(), I2C1_DO_RCEN(), I2C1_DO_RX(), 
		 -> I2C1_DO_TX(), I2C1_DO_SEND_ADR_WRITE(), I2C1_DO_SEND_ADR_READ(), I2C1_DO_IDLE(), 

    I2C1_CallbackReturnStop@funPtr	PTR void  size(2) Largest target is 5
		 -> I2C1_ReadDataBlock@bufferBlock(COMRAM[4]), I2C1_Write2ByteRegister@data(COMRAM[2]), I2C1_Write1ByteRegister@data(COMRAM[1]), I2C1_Read2ByteRegister@returnValue(COMRAM[2]), 
		 -> I2C1_Read1ByteRegister@returnValue(COMRAM[1]), NULL(NULL[0]), 

    I2C1_CallbackReturnReset@funPtr	PTR void  size(2) Largest target is 5
		 -> I2C1_ReadDataBlock@bufferBlock(COMRAM[4]), I2C1_Write2ByteRegister@data(COMRAM[2]), I2C1_Write1ByteRegister@data(COMRAM[1]), I2C1_Read2ByteRegister@returnValue(COMRAM[2]), 
		 -> I2C1_Read1ByteRegister@returnValue(COMRAM[1]), NULL(NULL[0]), 

    cb$0	PTR void  size(2) Largest target is 5
		 -> I2C1_ReadDataBlock@bufferBlock(COMRAM[4]), I2C1_Write2ByteRegister@data(COMRAM[2]), I2C1_Write1ByteRegister@data(COMRAM[1]), I2C1_Read2ByteRegister@returnValue(COMRAM[2]), 
		 -> I2C1_Read1ByteRegister@returnValue(COMRAM[1]), NULL(NULL[0]), 

    cb$0	PTR void  size(2) Largest target is 5
		 -> I2C1_ReadDataBlock@bufferBlock(COMRAM[4]), I2C1_Write2ByteRegister@data(COMRAM[2]), I2C1_Write1ByteRegister@data(COMRAM[1]), I2C1_Read2ByteRegister@returnValue(COMRAM[2]), 
		 -> I2C1_Read1ByteRegister@returnValue(COMRAM[1]), NULL(NULL[0]), 

    S1229$0$0	PTR void  size(2) Largest target is 5
		 -> I2C1_ReadDataBlock@bufferBlock(COMRAM[4]), I2C1_Write2ByteRegister@data(COMRAM[2]), I2C1_Write1ByteRegister@data(COMRAM[1]), I2C1_Read2ByteRegister@returnValue(COMRAM[2]), 
		 -> I2C1_Read1ByteRegister@returnValue(COMRAM[1]), NULL(NULL[0]), 

    ADC_InterruptHandler	PTR FTN()void  size(2) Largest target is 1
		 -> Absolute function(), 

    rdBlkRegCompleteHandler@ptr.data	PTR unsigned char  size(2) Largest target is 0

    rdBlkRegCompleteHandler@ptr	PTR void  size(2) Largest target is 5
		 -> I2C1_ReadDataBlock@bufferBlock(COMRAM[4]), I2C1_Write2ByteRegister@data(COMRAM[2]), I2C1_Write1ByteRegister@data(COMRAM[1]), I2C1_Read2ByteRegister@returnValue(COMRAM[2]), 
		 -> I2C1_Read1ByteRegister@returnValue(COMRAM[1]), NULL(NULL[0]), 

    wr2RegCompleteHandler@ptr	PTR void  size(2) Largest target is 5
		 -> I2C1_ReadDataBlock@bufferBlock(COMRAM[4]), I2C1_Write2ByteRegister@data(COMRAM[2]), I2C1_Write1ByteRegister@data(COMRAM[1]), I2C1_Read2ByteRegister@returnValue(COMRAM[2]), 
		 -> I2C1_Read1ByteRegister@returnValue(COMRAM[1]), NULL(NULL[0]), 

    wr1RegCompleteHandler@ptr	PTR void  size(2) Largest target is 5
		 -> I2C1_ReadDataBlock@bufferBlock(COMRAM[4]), I2C1_Write2ByteRegister@data(COMRAM[2]), I2C1_Write1ByteRegister@data(COMRAM[1]), I2C1_Read2ByteRegister@returnValue(COMRAM[2]), 
		 -> I2C1_Read1ByteRegister@returnValue(COMRAM[1]), NULL(NULL[0]), 

    rd2RegCompleteHandler@ptr	PTR void  size(2) Largest target is 5
		 -> I2C1_ReadDataBlock@bufferBlock(COMRAM[4]), I2C1_Write2ByteRegister@data(COMRAM[2]), I2C1_Write1ByteRegister@data(COMRAM[1]), I2C1_Read2ByteRegister@returnValue(COMRAM[2]), 
		 -> I2C1_Read1ByteRegister@returnValue(COMRAM[1]), NULL(NULL[0]), 

    rd1RegCompleteHandler@ptr	PTR void  size(2) Largest target is 5
		 -> I2C1_ReadDataBlock@bufferBlock(COMRAM[4]), I2C1_Write2ByteRegister@data(COMRAM[2]), I2C1_Write1ByteRegister@data(COMRAM[1]), I2C1_Read2ByteRegister@returnValue(COMRAM[2]), 
		 -> I2C1_Read1ByteRegister@returnValue(COMRAM[1]), NULL(NULL[0]), 

    S1984$data	PTR unsigned char  size(2) Largest target is 0

    bufferBlock.data	PTR unsigned char  size(2) Largest target is 0

    I2C1_SetCallback@ptr	PTR void  size(2) Largest target is 5
		 -> I2C1_ReadDataBlock@bufferBlock(COMRAM[4]), I2C1_Write2ByteRegister@data(COMRAM[2]), I2C1_Write1ByteRegister@data(COMRAM[1]), I2C1_Read2ByteRegister@returnValue(COMRAM[2]), 
		 -> I2C1_Read1ByteRegister@returnValue(COMRAM[1]), NULL(NULL[0]), 

    I2C1_SetCallback@cb	PTR FTN(PTR void ,)enum E360 size(2) Largest target is 1
		 -> rdBlkRegCompleteHandler(), wr2RegCompleteHandler(), wr1RegCompleteHandler(), rd2RegCompleteHandler(), 
		 -> rd1RegCompleteHandler(), Absolute function(), 

    I2C1_SetAddressNackCallback@ptr	PTR void  size(2) Largest target is 0
		 -> NULL(NULL[0]), 

    I2C1_SetAddressNackCallback@cb	PTR FTN(PTR void ,)enum E360 size(2) Largest target is 1
		 -> Absolute function(), 

    I2C1_SetDataCompleteCallback@ptr	PTR void  size(2) Largest target is 5
		 -> I2C1_ReadDataBlock@bufferBlock(COMRAM[4]), I2C1_Write2ByteRegister@data(COMRAM[2]), I2C1_Write1ByteRegister@data(COMRAM[1]), I2C1_Read2ByteRegister@returnValue(COMRAM[2]), 
		 -> I2C1_Read1ByteRegister@returnValue(COMRAM[1]), NULL(NULL[0]), 

    I2C1_SetDataCompleteCallback@cb	PTR FTN(PTR void ,)enum E360 size(2) Largest target is 1
		 -> rdBlkRegCompleteHandler(), wr2RegCompleteHandler(), wr1RegCompleteHandler(), rd2RegCompleteHandler(), 
		 -> rd1RegCompleteHandler(), Absolute function(), 

    I2C1_SetBuffer@buffer	PTR void  size(2) Largest target is 5
		 -> I2C1_Read1ByteRegister@returnValue.data(COMRAM[3]), I2C1_Read2ByteRegister@returnValue.data(COMRAM[3]), I2C1_Write1ByteRegister@data.data(COMRAM[3]), I2C1_Write2ByteRegister@data.data(COMRAM[3]), 
		 -> I2C1_ReadDataBlock@reg(COMRAM[1]), I2C1_ReadDataBlock@bufferBlock(COMRAM[4]), bufferBlock.data(COMRAM[3]), I2C1_Write2ByteRegister@reg(COMRAM[1]), 
		 -> I2C1_Write2ByteRegister@data(COMRAM[2]), I2C1_Write1ByteRegister@reg(COMRAM[1]), I2C1_Write1ByteRegister@data(COMRAM[1]), I2C1_Read2ByteRegister@reg(COMRAM[1]), 
		 -> I2C1_Read2ByteRegister@returnValue(COMRAM[2]), I2C1_Read1ByteRegister@reg(COMRAM[1]), I2C1_Read1ByteRegister@returnValue(COMRAM[1]), NULL(NULL[0]), 

    S1229$data_ptr	PTR unsigned char  size(2) Largest target is 5
		 -> I2C1_ReadDataBlock@reg(COMRAM[1]), I2C1_ReadDataBlock@bufferBlock(COMRAM[4]), I2C1_Write2ByteRegister@reg(COMRAM[1]), I2C1_Write2ByteRegister@data(COMRAM[2]), 
		 -> I2C1_Write1ByteRegister@reg(COMRAM[1]), I2C1_Write1ByteRegister@data(COMRAM[1]), I2C1_Read2ByteRegister@reg(COMRAM[1]), I2C1_Read2ByteRegister@returnValue(COMRAM[2]), 
		 -> I2C1_Read1ByteRegister@reg(COMRAM[1]), I2C1_Read1ByteRegister@returnValue(COMRAM[1]), NULL(NULL[0]), 

    I2C1_Status.data_ptr	PTR unsigned char  size(2) Largest target is 5
		 -> I2C1_Read1ByteRegister@returnValue.data(COMRAM[3]), I2C1_Read2ByteRegister@returnValue.data(COMRAM[3]), I2C1_Write1ByteRegister@data.data(COMRAM[3]), I2C1_Write2ByteRegister@data.data(COMRAM[3]), 
		 -> I2C1_ReadDataBlock@reg(COMRAM[1]), I2C1_ReadDataBlock@bufferBlock(COMRAM[4]), bufferBlock.data(COMRAM[3]), I2C1_Write2ByteRegister@reg(COMRAM[1]), 
		 -> I2C1_Write2ByteRegister@data(COMRAM[2]), I2C1_Write1ByteRegister@reg(COMRAM[1]), I2C1_Write1ByteRegister@data(COMRAM[1]), I2C1_Read2ByteRegister@reg(COMRAM[1]), 
		 -> I2C1_Read2ByteRegister@returnValue(COMRAM[2]), I2C1_Read1ByteRegister@reg(COMRAM[1]), I2C1_Read1ByteRegister@returnValue(COMRAM[1]), NULL(NULL[0]), 

    S1229$callbackPayload	PTR void [6] size(2) Largest target is 5
		 -> I2C1_ReadDataBlock@bufferBlock(COMRAM[4]), I2C1_Write2ByteRegister@data(COMRAM[2]), I2C1_Write1ByteRegister@data(COMRAM[1]), I2C1_Read2ByteRegister@returnValue(COMRAM[2]), 
		 -> I2C1_Read1ByteRegister@returnValue(COMRAM[1]), NULL(NULL[0]), 

    I2C1_Status.callbackPayload	PTR void [6] size(2) Largest target is 5
		 -> I2C1_ReadDataBlock@bufferBlock(COMRAM[4]), I2C1_Write2ByteRegister@data(COMRAM[2]), I2C1_Write1ByteRegister@data(COMRAM[1]), I2C1_Read2ByteRegister@returnValue(COMRAM[2]), 
		 -> I2C1_Read1ByteRegister@returnValue(COMRAM[1]), NULL(NULL[0]), 

    S1229$callbackTable	PTR FTN(PTR void ,)enum E360[6] size(2) Largest target is 1
		 -> rdBlkRegCompleteHandler(), wr2RegCompleteHandler(), wr1RegCompleteHandler(), rd2RegCompleteHandler(), 
		 -> rd1RegCompleteHandler(), I2C1_CallbackReturnReset(), I2C1_CallbackReturnStop(), Absolute function(), 

    I2C1_Status.callbackTable	PTR FTN(PTR void ,)enum E360[6] size(2) Largest target is 1
		 -> rdBlkRegCompleteHandler(), wr2RegCompleteHandler(), wr1RegCompleteHandler(), rd2RegCompleteHandler(), 
		 -> rd1RegCompleteHandler(), I2C1_CallbackReturnReset(), I2C1_CallbackReturnStop(), Absolute function(), 

    i2c1_fsmStateTable	const PTR FTN()enum E6649[16] size(2) Largest target is 1
		 -> I2C1_DO_ADDRESS_NACK(), I2C1_DO_RESET(), I2C1_DO_RX_NACK_RESTART(), I2C1_DO_RX_NACK_STOP(), 
		 -> I2C1_DO_RX_ACK(), I2C1_DO_SEND_STOP(), I2C1_DO_SEND_RESTART(), I2C1_DO_SEND_RESTART_WRITE(), 
		 -> I2C1_DO_SEND_RESTART_READ(), I2C1_DO_TX_EMPTY(), I2C1_DO_RCEN(), I2C1_DO_RX(), 
		 -> I2C1_DO_TX(), I2C1_DO_SEND_ADR_WRITE(), I2C1_DO_SEND_ADR_READ(), I2C1_DO_IDLE(), 

    INT2_SetInterruptHandler@InterruptHandler	PTR FTN()void  size(2) Largest target is 1
		 -> INT2_DefaultInterruptHandler(), 

    INT2_InterruptHandler	PTR FTN()void  size(2) Largest target is 1
		 -> INT2_DefaultInterruptHandler(), Absolute function(), 

    INT1_SetInterruptHandler@InterruptHandler	PTR FTN()void  size(2) Largest target is 1
		 -> INT1_DefaultInterruptHandler(), 

    INT1_InterruptHandler	PTR FTN()void  size(2) Largest target is 1
		 -> INT1_DefaultInterruptHandler(), Absolute function(), 

    INT0_SetInterruptHandler@InterruptHandler	PTR FTN()void  size(2) Largest target is 1
		 -> INT0_DefaultInterruptHandler(), 

    INT0_InterruptHandler	PTR FTN()void  size(2) Largest target is 1
		 -> INT0_DefaultInterruptHandler(), Absolute function(), 

    EUSART1_SetErrorHandler@interruptHandler	PTR FTN()void  size(2) Largest target is 1
		 -> EUSART1_DefaultErrorHandler(), 

    EUSART1_ErrorHandler	PTR FTN()void  size(2) Largest target is 1
		 -> Absolute function(), EUSART1_DefaultErrorHandler(), 

    EUSART1_SetOverrunErrorHandler@interruptHandler	PTR FTN()void  size(2) Largest target is 1
		 -> EUSART1_DefaultOverrunErrorHandler(), 

    EUSART1_OverrunErrorHandler	PTR FTN()void  size(2) Largest target is 1
		 -> Absolute function(), EUSART1_DefaultOverrunErrorHandler(), 

    EUSART1_SetFramingErrorHandler@interruptHandler	PTR FTN()void  size(2) Largest target is 1
		 -> EUSART1_DefaultFramingErrorHandler(), 

    EUSART1_FramingErrorHandler	PTR FTN()void  size(2) Largest target is 1
		 -> Absolute function(), EUSART1_DefaultFramingErrorHandler(), 


Critical Paths under _main in COMRAM

    _main->_I2C1_Write1ByteRegister
    _EXT_INT_Initialize->_INT0_SetInterruptHandler
    _EXT_INT_Initialize->_INT1_SetInterruptHandler
    _EXT_INT_Initialize->_INT2_SetInterruptHandler
    _EUSART1_Initialize->_EUSART1_SetErrorHandler
    _EUSART1_Initialize->_EUSART1_SetFramingErrorHandler
    _EUSART1_Initialize->_EUSART1_SetOverrunErrorHandler
    _I2C1_Write1ByteRegister->_I2C1_SetAddressNackCallback
    _I2C1_Write1ByteRegister->_I2C1_SetDataCompleteCallback
    _I2C1_SetAddressNackCallback->_I2C1_SetCallback
    _I2C1_MasterWrite->_I2C1_MasterOperation
    _I2C1_MasterFsm->_I2C1_DO_TX
    _I2C1_DO_TX->_I2C1_MasterSendTxData
    _I2C1_DO_SEND_ADR_WRITE->_I2C1_MasterSendTxData
    _wr2RegCompleteHandler->_I2C1_SetDataCompleteCallback
    _wr1RegCompleteHandler->_I2C1_SetDataCompleteCallback
    _rdBlkRegCompleteHandler->_I2C1_SetDataCompleteCallback
    _rd2RegCompleteHandler->_I2C1_SetDataCompleteCallback
    _rd1RegCompleteHandler->_I2C1_SetDataCompleteCallback
    _I2C1_SetDataCompleteCallback->_I2C1_SetCallback

Critical Paths under _INTERRUPT_InterruptManager in COMRAM

    None.

Critical Paths under _main in BANK0

    None.

Critical Paths under _INTERRUPT_InterruptManager in BANK0

    None.

Critical Paths under _main in BANK1

    None.

Critical Paths under _INTERRUPT_InterruptManager in BANK1

    None.

Critical Paths under _main in BANK2

    None.

Critical Paths under _INTERRUPT_InterruptManager in BANK2

    None.

Critical Paths under _main in BANK3

    None.

Critical Paths under _INTERRUPT_InterruptManager in BANK3

    None.

Critical Paths under _main in BANK4

    None.

Critical Paths under _INTERRUPT_InterruptManager in BANK4

    None.

Critical Paths under _main in BANK5

    None.

Critical Paths under _INTERRUPT_InterruptManager in BANK5

    None.

Critical Paths under _main in BANK6

    None.

Critical Paths under _INTERRUPT_InterruptManager in BANK6

    None.

Critical Paths under _main in BANK7

    None.

Critical Paths under _INTERRUPT_InterruptManager in BANK7

    None.

Critical Paths under _main in BANK8

    None.

Critical Paths under _INTERRUPT_InterruptManager in BANK8

    None.

Critical Paths under _main in BANK9

    None.

Critical Paths under _INTERRUPT_InterruptManager in BANK9

    None.

Critical Paths under _main in BANK10

    None.

Critical Paths under _INTERRUPT_InterruptManager in BANK10

    None.

Critical Paths under _main in BANK11

    None.

Critical Paths under _INTERRUPT_InterruptManager in BANK11

    None.

Critical Paths under _main in BANK12

    None.

Critical Paths under _INTERRUPT_InterruptManager in BANK12

    None.

Critical Paths under _main in BANK13

    None.

Critical Paths under _INTERRUPT_InterruptManager in BANK13

    None.

Critical Paths under _main in BANK14

    None.

Critical Paths under _INTERRUPT_InterruptManager in BANK14

    None.

Call Graph Tables:

 ---------------------------------------------------------------------------------
 (Depth) Function   	        Calls       Base Space   Used Autos Params    Refs
 ---------------------------------------------------------------------------------
 (0) _main                                                 0     0      0   95888
                    _I2C1_Initialize
                          _I2C1_Open
            _I2C1_Write1ByteRegister
                  _SYSTEM_Initialize
 ---------------------------------------------------------------------------------
 (1) _SYSTEM_Initialize                                    0     0      0     588
                     _ADC_Initialize
                 _EUSART1_Initialize
                 _EXT_INT_Initialize
                    _I2C1_Initialize
               _INTERRUPT_Initialize
              _OSCILLATOR_Initialize
             _PIN_MANAGER_Initialize
                    _TMR0_Initialize
 ---------------------------------------------------------------------------------
 (2) _TMR0_Initialize                                      0     0      0       0
 ---------------------------------------------------------------------------------
 (2) _PIN_MANAGER_Initialize                               0     0      0       0
 ---------------------------------------------------------------------------------
 (2) _OSCILLATOR_Initialize                                0     0      0       0
 ---------------------------------------------------------------------------------
 (2) _INTERRUPT_Initialize                                 0     0      0       0
 ---------------------------------------------------------------------------------
 (2) _I2C1_Initialize                                      0     0      0       0
 ---------------------------------------------------------------------------------
 (2) _EXT_INT_Initialize                                   0     0      0     294
           _INT0_SetInterruptHandler
           _INT1_SetInterruptHandler
           _INT2_SetInterruptHandler
 ---------------------------------------------------------------------------------
 (3) _INT2_SetInterruptHandler                             2     0      2      98
                                              2 COMRAM     2     0      2
 ---------------------------------------------------------------------------------
 (3) _INT1_SetInterruptHandler                             2     0      2      98
                                              2 COMRAM     2     0      2
 ---------------------------------------------------------------------------------
 (3) _INT0_SetInterruptHandler                             2     0      2      98
                                              2 COMRAM     2     0      2
 ---------------------------------------------------------------------------------
 (2) _EUSART1_Initialize                                   0     0      0     294
            _EUSART1_SetErrorHandler
     _EUSART1_SetFramingErrorHandler
     _EUSART1_SetOverrunErrorHandler
 ---------------------------------------------------------------------------------
 (3) _EUSART1_SetOverrunErrorHandler                       2     0      2      98
                                              2 COMRAM     2     0      2
 ---------------------------------------------------------------------------------
 (3) _EUSART1_SetFramingErrorHandler                       2     0      2      98
                                              2 COMRAM     2     0      2
 ---------------------------------------------------------------------------------
 (3) _EUSART1_SetErrorHandler                              2     0      2      98
                                              2 COMRAM     2     0      2
 ---------------------------------------------------------------------------------
 (2) _ADC_Initialize                                       0     0      0       0
 ---------------------------------------------------------------------------------
 (1) _I2C1_Write1ByteRegister                              3     1      2   95254
                                             11 COMRAM     3     1      2
                         _I2C1_Close
                   _I2C1_MasterWrite
                          _I2C1_Open
        _I2C1_SetAddressNackCallback
                     _I2C1_SetBuffer
       _I2C1_SetDataCompleteCallback
 ---------------------------------------------------------------------------------
 (2) _I2C1_SetAddressNackCallback                          4     0      4    1870
                                              7 COMRAM     4     0      4
                   _I2C1_SetCallback
 ---------------------------------------------------------------------------------
 (2) _I2C1_Open                                            2     2      0      46
                                              2 COMRAM     2     2      0
                _I2C1_MasterClearIrq
                    _I2C1_MasterOpen
 ---------------------------------------------------------------------------------
 (3) _I2C1_MasterOpen                                      0     0      0       0
 ---------------------------------------------------------------------------------
 (2) _I2C1_MasterWrite                                     0     0      0   88599
               _I2C1_MasterOperation
 ---------------------------------------------------------------------------------
 (3) _I2C1_MasterOperation                                 2     2      0   88599
                                              5 COMRAM     2     2      0
                   _I2C1_MasterStart
                        _I2C1_Poller
 ---------------------------------------------------------------------------------
 (4) _I2C1_Poller                                          0     0      0   88553
                     _I2C1_MasterFsm
            _I2C1_MasterWaitForEvent
 ---------------------------------------------------------------------------------
 (5) _I2C1_MasterWaitForEvent                              0     0      0       0
 ---------------------------------------------------------------------------------
 (5) _I2C1_MasterFsm                                       0     0      0   88553
               _I2C1_DO_ADDRESS_NACK *
                       _I2C1_DO_IDLE *
                       _I2C1_DO_RCEN *
                      _I2C1_DO_RESET *
                         _I2C1_DO_RX *
                     _I2C1_DO_RX_ACK *
            _I2C1_DO_RX_NACK_RESTART *
               _I2C1_DO_RX_NACK_STOP *
              _I2C1_DO_SEND_ADR_READ *
             _I2C1_DO_SEND_ADR_WRITE *
               _I2C1_DO_SEND_RESTART *
          _I2C1_DO_SEND_RESTART_READ *
         _I2C1_DO_SEND_RESTART_WRITE *
                  _I2C1_DO_SEND_STOP *
                         _I2C1_DO_TX *
                   _I2C1_DO_TX_EMPTY *
                _I2C1_MasterClearIrq
                  _I2C1_MasterIsNack
 ---------------------------------------------------------------------------------
 (6) _I2C1_DO_TX_EMPTY                                     2     2      0   22127
                                              2 COMRAM     2     2      0
                   Absolute function *
           _I2C1_CallbackReturnReset *
            _I2C1_CallbackReturnStop *
               _I2C1_DO_SEND_RESTART
                  _I2C1_DO_SEND_STOP
                  _I2C1_MasterSetIrq
              _rd1RegCompleteHandler *
              _rd2RegCompleteHandler *
            _rdBlkRegCompleteHandler *
              _wr1RegCompleteHandler *
              _wr2RegCompleteHandler *
 ---------------------------------------------------------------------------------
 (7) _I2C1_MasterSetIrq                                    0     0      0       0
 ---------------------------------------------------------------------------------
 (6) _I2C1_DO_TX                                           2     2      0   22142
                                              3 COMRAM     2     2      0
                   Absolute function *
           _I2C1_CallbackReturnReset *
            _I2C1_CallbackReturnStop *
          _I2C1_DO_SEND_RESTART_READ
         _I2C1_DO_SEND_RESTART_WRITE
                  _I2C1_DO_SEND_STOP
                  _I2C1_MasterIsNack
              _I2C1_MasterSendTxData
              _rd1RegCompleteHandler *
              _rd2RegCompleteHandler *
            _rdBlkRegCompleteHandler *
              _wr1RegCompleteHandler *
              _wr2RegCompleteHandler *
 ---------------------------------------------------------------------------------
 (6) _I2C1_MasterIsNack                                    0     0      0       0
 ---------------------------------------------------------------------------------
 (7) _I2C1_DO_SEND_RESTART_WRITE                           0     0      0       0
           _I2C1_MasterEnableRestart
 ---------------------------------------------------------------------------------
 (7) _I2C1_DO_SEND_RESTART_READ                            0     0      0       0
           _I2C1_MasterEnableRestart
 ---------------------------------------------------------------------------------
 (6) _I2C1_DO_SEND_ADR_WRITE                               0     0      0      15
              _I2C1_MasterSendTxData
 ---------------------------------------------------------------------------------
 (6) _I2C1_DO_SEND_ADR_READ                                0     0      0      15
              _I2C1_MasterSendTxData
 ---------------------------------------------------------------------------------
 (7) _I2C1_MasterSendTxData                                1     1      0      15
                                              2 COMRAM     1     1      0
 ---------------------------------------------------------------------------------
 (6) _I2C1_DO_RX_ACK                                       0     0      0       0
                 _I2C1_MasterSendAck
 ---------------------------------------------------------------------------------
 (6) _I2C1_DO_RX                                           2     2      0   22127
                                              2 COMRAM     2     2      0
                   Absolute function *
           _I2C1_CallbackReturnReset *
            _I2C1_CallbackReturnStop *
            _I2C1_DO_RX_NACK_RESTART
               _I2C1_DO_RX_NACK_STOP
               _I2C1_MasterGetRxData
                 _I2C1_MasterSendAck
              _rd1RegCompleteHandler *
              _rd2RegCompleteHandler *
            _rdBlkRegCompleteHandler *
              _wr1RegCompleteHandler *
              _wr2RegCompleteHandler *
 ---------------------------------------------------------------------------------
 (7) _I2C1_MasterSendAck                                   0     0      0       0
 ---------------------------------------------------------------------------------
 (7) _I2C1_MasterGetRxData                                 0     0      0       0
 ---------------------------------------------------------------------------------
 (6) _I2C1_DO_RX_NACK_STOP                                 0     0      0       0
                _I2C1_MasterSendNack
 ---------------------------------------------------------------------------------
 (6) _I2C1_DO_RX_NACK_RESTART                              0     0      0       0
                _I2C1_MasterSendNack
 ---------------------------------------------------------------------------------
 (7) _I2C1_MasterSendNack                                  0     0      0       0
 ---------------------------------------------------------------------------------
 (6) _I2C1_DO_RESET                                        0     0      0       0
 ---------------------------------------------------------------------------------
 (6) _I2C1_DO_RCEN                                         0     0      0       0
                 _I2C1_MasterStartRx
 ---------------------------------------------------------------------------------
 (7) _I2C1_MasterStartRx                                   0     0      0       0
 ---------------------------------------------------------------------------------
 (6) _I2C1_DO_IDLE                                         0     0      0       0
 ---------------------------------------------------------------------------------
 (6) _I2C1_DO_ADDRESS_NACK                                 2     2      0   22127
                                              2 COMRAM     2     2      0
                   Absolute function *
           _I2C1_CallbackReturnReset *
            _I2C1_CallbackReturnStop *
               _I2C1_DO_SEND_RESTART
                  _I2C1_DO_SEND_STOP
              _rd1RegCompleteHandler *
              _rd2RegCompleteHandler *
            _rdBlkRegCompleteHandler *
              _wr1RegCompleteHandler *
              _wr2RegCompleteHandler *
 ---------------------------------------------------------------------------------
 (7) _wr2RegCompleteHandler                                2     0      2    4368
                                             11 COMRAM     2     0      2
                     _I2C1_SetBuffer
       _I2C1_SetDataCompleteCallback
 ---------------------------------------------------------------------------------
 (7) _wr1RegCompleteHandler                                2     0      2    4368
                                             11 COMRAM     2     0      2
                     _I2C1_SetBuffer
       _I2C1_SetDataCompleteCallback
 ---------------------------------------------------------------------------------
 (7) _rdBlkRegCompleteHandler                              2     0      2    4655
                                             11 COMRAM     2     0      2
                     _I2C1_SetBuffer
       _I2C1_SetDataCompleteCallback
 ---------------------------------------------------------------------------------
 (7) _rd2RegCompleteHandler                                2     0      2    4368
                                             11 COMRAM     2     0      2
                     _I2C1_SetBuffer
       _I2C1_SetDataCompleteCallback
 ---------------------------------------------------------------------------------
 (7) _rd1RegCompleteHandler                                2     0      2    4368
                                             11 COMRAM     2     0      2
                     _I2C1_SetBuffer
       _I2C1_SetDataCompleteCallback
 ---------------------------------------------------------------------------------
 (2) _I2C1_SetDataCompleteCallback                         4     0      4    2478
                                              7 COMRAM     4     0      4
                   _I2C1_SetCallback
 ---------------------------------------------------------------------------------
 (3) _I2C1_SetCallback                                     5     1      4     914
                                              2 COMRAM     5     1      4
 ---------------------------------------------------------------------------------
 (2) _I2C1_SetBuffer                                       4     0      4    1868
                                              2 COMRAM     4     0      4
 ---------------------------------------------------------------------------------
 (7) _I2C1_DO_SEND_STOP                                    0     0      0       0
                    _I2C1_MasterStop
 ---------------------------------------------------------------------------------
 (8) _I2C1_MasterStop                                      0     0      0       0
 ---------------------------------------------------------------------------------
 (7) _I2C1_DO_SEND_RESTART                                 0     0      0       0
           _I2C1_MasterEnableRestart
 ---------------------------------------------------------------------------------
 (8) _I2C1_MasterEnableRestart                             0     0      0       0
 ---------------------------------------------------------------------------------
 (7) _I2C1_CallbackReturnStop                              2     0      2       0
                                             11 COMRAM     2     0      2
 ---------------------------------------------------------------------------------
 (7) _I2C1_CallbackReturnReset                             2     0      2       0
                                             11 COMRAM     2     0      2
 ---------------------------------------------------------------------------------
 (13) Absolute function(Fake)                              0     0      0       0
 ---------------------------------------------------------------------------------
 (4) _I2C1_MasterStart                                     0     0      0       0
 ---------------------------------------------------------------------------------
 (2) _I2C1_Close                                           1     1      0      15
                                              2 COMRAM     1     1      0
                _I2C1_MasterClearIrq
                   _I2C1_MasterClose
              _I2C1_MasterDisableIrq
 ---------------------------------------------------------------------------------
 (3) _I2C1_MasterDisableIrq                                0     0      0       0
 ---------------------------------------------------------------------------------
 (3) _I2C1_MasterClose                                     0     0      0       0
 ---------------------------------------------------------------------------------
 (3) _I2C1_MasterClearIrq                                  0     0      0       0
 ---------------------------------------------------------------------------------
 Estimated maximum stack depth 13
 ---------------------------------------------------------------------------------
 (Depth) Function   	        Calls       Base Space   Used Autos Params    Refs
 ---------------------------------------------------------------------------------
 (10) _INTERRUPT_InterruptManager                          2     2      0       0
                                              0 COMRAM     2     2      0
                           _INT0_ISR
                           _INT1_ISR
                           _INT2_ISR
 ---------------------------------------------------------------------------------
 (11) _INT2_ISR                                            0     0      0       0
                      _INT2_CallBack
 ---------------------------------------------------------------------------------
 (12) _INT2_CallBack                                       0     0      0       0
                   Absolute function *
       _INT2_DefaultInterruptHandler *
 ---------------------------------------------------------------------------------
 (13) _INT2_DefaultInterruptHandler                        0     0      0       0
 ---------------------------------------------------------------------------------
 (11) _INT1_ISR                                            0     0      0       0
                      _INT1_CallBack
 ---------------------------------------------------------------------------------
 (12) _INT1_CallBack                                       0     0      0       0
                   Absolute function *
       _INT1_DefaultInterruptHandler *
 ---------------------------------------------------------------------------------
 (13) _INT1_DefaultInterruptHandler                        0     0      0       0
 ---------------------------------------------------------------------------------
 (11) _INT0_ISR                                            0     0      0       0
                      _INT0_CallBack
 ---------------------------------------------------------------------------------
 (12) _INT0_CallBack                                       0     0      0       0
                   Absolute function *
       _INT0_DefaultInterruptHandler *
 ---------------------------------------------------------------------------------
 (13) _INT0_DefaultInterruptHandler                        0     0      0       0
 ---------------------------------------------------------------------------------
 (13) Absolute function(Fake)                              0     0      0       0
 ---------------------------------------------------------------------------------
 Estimated maximum stack depth 13
 ---------------------------------------------------------------------------------

 Call Graph Graphs:

 _main (ROOT)
   _I2C1_Initialize
   _I2C1_Open
     _I2C1_MasterClearIrq
     _I2C1_MasterOpen
   _I2C1_Write1ByteRegister
     _I2C1_Close
       _I2C1_MasterClearIrq
       _I2C1_MasterClose
       _I2C1_MasterDisableIrq
     _I2C1_MasterWrite
       _I2C1_MasterOperation
         _I2C1_MasterStart
         _I2C1_Poller
           _I2C1_MasterFsm
             _I2C1_DO_ADDRESS_NACK *
               Absolute function(Fake) *
               _I2C1_CallbackReturnReset *
               _I2C1_CallbackReturnStop *
               _I2C1_DO_SEND_RESTART *
                 _I2C1_MasterEnableRestart
               _I2C1_DO_SEND_STOP *
                 _I2C1_MasterStop
               _rd1RegCompleteHandler *
                 _I2C1_SetBuffer
                 _I2C1_SetDataCompleteCallback
                   _I2C1_SetCallback
               _rd2RegCompleteHandler *
                 _I2C1_SetBuffer
                 _I2C1_SetDataCompleteCallback
               _rdBlkRegCompleteHandler *
                 _I2C1_SetBuffer
                 _I2C1_SetDataCompleteCallback
               _wr1RegCompleteHandler *
                 _I2C1_SetBuffer
                 _I2C1_SetDataCompleteCallback
               _wr2RegCompleteHandler *
                 _I2C1_SetBuffer
                 _I2C1_SetDataCompleteCallback
             _I2C1_DO_IDLE *
             _I2C1_DO_RCEN *
               _I2C1_MasterStartRx
             _I2C1_DO_RESET *
             _I2C1_DO_RX *
               Absolute function(Fake) *
               _I2C1_CallbackReturnReset *
               _I2C1_CallbackReturnStop *
               _I2C1_DO_RX_NACK_RESTART *
                 _I2C1_MasterSendNack
               _I2C1_DO_RX_NACK_STOP *
                 _I2C1_MasterSendNack
               _I2C1_MasterGetRxData *
               _I2C1_MasterSendAck *
               _rd1RegCompleteHandler *
               _rd2RegCompleteHandler *
               _rdBlkRegCompleteHandler *
               _wr1RegCompleteHandler *
               _wr2RegCompleteHandler *
             _I2C1_DO_RX_ACK *
               _I2C1_MasterSendAck
             _I2C1_DO_RX_NACK_RESTART *
             _I2C1_DO_RX_NACK_STOP *
             _I2C1_DO_SEND_ADR_READ *
               _I2C1_MasterSendTxData
             _I2C1_DO_SEND_ADR_WRITE *
               _I2C1_MasterSendTxData
             _I2C1_DO_SEND_RESTART *
             _I2C1_DO_SEND_RESTART_READ *
               _I2C1_MasterEnableRestart
             _I2C1_DO_SEND_RESTART_WRITE *
               _I2C1_MasterEnableRestart
             _I2C1_DO_SEND_STOP *
             _I2C1_DO_TX *
               Absolute function(Fake) *
               _I2C1_CallbackReturnReset *
               _I2C1_CallbackReturnStop *
               _I2C1_DO_SEND_RESTART_READ *
               _I2C1_DO_SEND_RESTART_WRITE *
               _I2C1_DO_SEND_STOP *
               _I2C1_MasterIsNack *
               _I2C1_MasterSendTxData *
               _rd1RegCompleteHandler *
               _rd2RegCompleteHandler *
               _rdBlkRegCompleteHandler *
               _wr1RegCompleteHandler *
               _wr2RegCompleteHandler *
             _I2C1_DO_TX_EMPTY *
               Absolute function(Fake) *
               _I2C1_CallbackReturnReset *
               _I2C1_CallbackReturnStop *
               _I2C1_DO_SEND_RESTART *
               _I2C1_DO_SEND_STOP *
               _I2C1_MasterSetIrq *
               _rd1RegCompleteHandler *
               _rd2RegCompleteHandler *
               _rdBlkRegCompleteHandler *
               _wr1RegCompleteHandler *
               _wr2RegCompleteHandler *
             _I2C1_MasterClearIrq *
             _I2C1_MasterIsNack *
           _I2C1_MasterWaitForEvent
     _I2C1_Open
     _I2C1_SetAddressNackCallback
       _I2C1_SetCallback
     _I2C1_SetBuffer
     _I2C1_SetDataCompleteCallback
   _SYSTEM_Initialize
     _ADC_Initialize
     _EUSART1_Initialize
       _EUSART1_SetErrorHandler
       _EUSART1_SetFramingErrorHandler
       _EUSART1_SetOverrunErrorHandler
     _EXT_INT_Initialize
       _INT0_SetInterruptHandler
       _INT1_SetInterruptHandler
       _INT2_SetInterruptHandler
     _I2C1_Initialize
     _INTERRUPT_Initialize
     _OSCILLATOR_Initialize
     _PIN_MANAGER_Initialize
     _TMR0_Initialize

 _INTERRUPT_InterruptManager (ROOT)
   _INT0_ISR
     _INT0_CallBack
       Absolute function(Fake) *
       _INT0_DefaultInterruptHandler *
   _INT1_ISR
     _INT1_CallBack
       Absolute function(Fake) *
       _INT1_DefaultInterruptHandler *
   _INT2_ISR
     _INT2_CallBack
       Absolute function(Fake) *
       _INT2_DefaultInterruptHandler *

 Address spaces:
Name               Size   Autos  Total    Cost      Usage
BIGRAM             EAF      0       0      55        0.0%
BITBANK13          100      0       0      30        0.0%
BANK13             100      0       0      31        0.0%
BITBANK12          100      0       0      28        0.0%
BANK12             100      0       0      29        0.0%
BITBANK11          100      0       0      26        0.0%
BANK11             100      0       0      27        0.0%
BITBANK10          100      0       0      24        0.0%
BANK10             100      0       0      25        0.0%
BITBANK9           100      0       0      22        0.0%
BANK9              100      0       0      23        0.0%
BITBANK8           100      0       0      20        0.0%
BANK8              100      0       0      21        0.0%
BITBANK7           100      0       0      18        0.0%
BANK7              100      0       0      19        0.0%
BITBANK6           100      0       0      16        0.0%
BANK6              100      0       0      17        0.0%
BITBANK5           100      0       0      14        0.0%
BANK5              100      0       0      15        0.0%
BITBANK4           100      0       0      12        0.0%
BANK4              100      0       0      13        0.0%
BITBANK3           100      0       0      10        0.0%
BANK3              100      0       0      11        0.0%
BITBANK2           100      0       0       8        0.0%
BANK2              100      0       0       9        0.0%
BITBANK1           100      0       0       6        0.0%
BANK1              100      0       0       7        0.0%
BITBANK14           B0      0       0      32        0.0%
BANK14              B0      0       0      33        0.0%
BITBANK0            A0      0       0       4        0.0%
BANK0               A0      0       0       5        0.0%
BITCOMRAM           5E      0       0       0        0.0%
COMRAM              5E      E      44       1       72.3%
BITBIGSFRlhllhl     5A      0       0      51        0.0%
BITBIGSFRlhhl       34      0       0      48        0.0%
BITBIGSFRlhlll      28      0       0      52        0.0%
BITBIGSFRhhhllh     18      0       0      35        0.0%
BITBIGSFRlhhhhh     10      0       0      39        0.0%
BITBIGSFRhhhh        D      0       0      34        0.0%
BITBIGSFRlhhhlh      A      0       0      40        0.0%
BITBIGSFRll          8      0       0      53        0.0%
BITBIGSFRhhlh        6      0       0      38        0.0%
BITBIGSFRlhhhll      6      0       0      43        0.0%
BITBIGSFRlhhhll      6      0       0      44        0.0%
BITBIGSFRlhlh        5      0       0      49        0.0%
BITBIGSFRlhhhll      4      0       0      46        0.0%
BITBIGSFRlhllhh      2      0       0      50        0.0%
BITBIGSFRhhhlll      2      0       0      37        0.0%
BITBIGSFRlhhhlh      2      0       0      41        0.0%
BITBIGSFRlhhhll      2      0       0      47        0.0%
BITBIGSFRlhhhll      1      0       0      45        0.0%
BITBIGSFRlhhhll      1      0       0      42        0.0%
BITBIGSFRhhhllh      1      0       0      36        0.0%
BIGSFR               0      0       0     200        0.0%
BITSFR_2             0      0       0     200        0.0%
SFR_2                0      0       0     200        0.0%
BITSFR_1             0      0       0     200        0.0%
SFR_1                0      0       0     200        0.0%
BITSFR               0      0       0     200        0.0%
SFR                  0      0       0     200        0.0%
STACK                0      0       0       2        0.0%
NULL                 0      0       0       0        0.0%
ABS                  0      0      44      54        0.0%
DATA                 0      0      44       3        0.0%
CODE                 0      0       0       0        0.0%


Microchip Technology PIC18 Macro Assembler V2.35 build 20211206165544 
Symbol Table                                                                                   Mon Mar 07 15:48:41 2022

                                            l21 16AA                                              l85 1450  
                                            u30 174A                                              u31 1744  
                                            u36 174C                                 _timer0ReloadVal 0044  
                                           l130 17C6                                             l210 1794  
                                           l124 17BC                                             l127 17B2  
                                           l216 14C2                                             l145 1854  
                                           l510 120C                                             l342 1382  
                                           l520 1340                                             l184 17A8  
                                           l249 148A                                             l345 1388  
                                           l602 17F4                                             l282 1724  
                                           l523 17E4                                             l611 12E4  
                                           l532 0FB0                                             l516 16C6  
                                           l605 17D0                                             l197 179E  
                                           l622 1864                                             l526 178A  
                                           l471 1626                                             l535 0FE4  
                                           l463 1738                                             l279 1648  
                                           l560 17DA                                             l632 166A  
                                           l641 182C                                             l529 177C  
                                           l297 175E                                             l490 168C  
                                           l650 1860                                             l635 187C  
                                           l619 1868                                             l483 17EC  
                                           l467 1116                                             l644 1870  
                                           l548 101A                                             l653 1874  
                                           l493 1710                                             l549 108A  
                                           l477 13D2                                             l638 185C  
                                           l662 184A                                             l566 1192  
                                           l590 1814                                             l680 1878  
                                           l656 186C                                             l584 1824  
                                           l744 127A                                             l665 1850  
                                           l593 180C                                             l683 1880  
                                           l659 174C                                             l587 181C  
                                           l499 16F8                                             l596 1804  
                                           l693 176E                                             l686 1858  
                                           l783 15D0                                             l599 17FC  
                                           l792 15FC                                             l689 1760  
                                           l786 15A4                                             l795 1412  
                                           l789 1578                                             u110 176E  
                                           u111 176A                                             u160 1658  
                                           u161 1654                                             u260 1610  
                                           u261 160C                                             u600 0FDC  
                                           u601 0FD8                                             u610 1010  
                                           u611 100C                                             u700 13BC  
                                           u701 13B8                                             u710 10A0  
                                           u711 109C                                             u560 11A8  
                                           u720 1226                                             u561 11A4  
                                           u721 1222                                             u570 167A  
                                           u650 12F8                                             u730 127A  
                                           u571 1676                                             u651 12F4  
                                           u731 1276                                             u580 0F36  
                                           u628 103E                                             u660 130C  
                                           u740 1382                                             u581 0F32  
                                           u629 1052                                             u661 1308  
                                           u741 137E                                             u638 1146  
                                           u639 115A                                             u648 12A8  
                                           u680 16C6                                             u649 12BC  
                                           u681 16C2                                             u690 13A6  
                                           u691 13A2                                             u598 0F64  
                                           u678 1326                                             u599 0F78  
                                           u679 133E                      ??_INT0_SetInterruptHandler 002E  
                         ?_I2C1_MasterOperation 002A                                             prod 000FF3  
                                           tosl 000FFD                                             wreg 000FE8  
                        ?_I2C1_MasterSendTxData 002A                                      _TXSTA1bits 000FAD  
                                 _INT0_CallBack 1520                            _I2C1_DO_RX_NACK_STOP 17F6  
                     ?_I2C1_MasterEnableRestart 002A                        fp__I2C1_DO_SEND_ADR_READ 0000  
                       fp__I2C1_DO_SEND_RESTART 0000                            I2C1_SetBuffer@buffer 002C  
                                 _INT1_CallBack 14F2                         ??_rd2RegCompleteHandler 0037  
                                          l1501 1822                                            l1511 1806  
                                          l1521 1846                                            l2401 0F4A  
                                          l1505 1816                                            l1513 180A  
                                          l2331 11A8                                            l1603 177E  
                                          l1611 1770                                            l2411 0FC4  
                                          l1507 181A                                            l1531 17FA  
                                          l1523 17EE                                            l2341 168A  
                                          l2333 11DC                                            l1517 185A  
                                          l1605 1780                                            l1613 1772  
                                          l2413 0FDC                                            l1525 17F2  
                                          l2501 12F8                                            l2335 166C  
                                          l2343 16FA                                            l2351 15BA  
                                          l1535 185E                                            l1543 1856  
                                          l1607 1788                                            l1615 177A  
                                          l2415 0FE2                                            l2407 0F52  
                                          l2431 1014                                            l2423 0FE6  
                                          l2503 130C                                            l2511 16B4  
                                          l2337 167A                                            l2329 1196  
                                          l2345 1866                                            l2353 15CE  
                                          l2361 15A2                                            l2409 0FB2  
                                          l2441 1028                                            l2425 0FF4  
                                          l1537 180E                                            l1529 17F6  
                                          l1721 17C8                                            l2505 1310  
                                          l2513 16B8                                            l2601 10D0  
                                          l2521 17A0                                            l2339 1682  
                                          l1491 184C                                            l2427 0FF8  
                                          l1539 1812                                            l1715 17FE  
                                          l1723 17CA                                            l2507 16AC  
                                          l2531 13A6                                            l2611 10F8  
                                          l2603 10D8                                            l2515 17B4  
                                          l2523 1796                                            l2373 15D2  
                                          l1549 1862                                            l2349 15A6  
                                          l2357 157A                                            l2365 154E  
                                          l2381 13D4                                            l1493 173A  
                                          l2461 112A                                            l2453 1118  
                                          l2437 1020                                            l2429 1010  
                                          l1717 1802                                            l1725 17CE  
                                          l2509 16B0                                            l2541 13C8  
                                          l2533 13A8                                            l2613 1100  
                                          l2605 10E0                                            l2621 1114  
                                          l2517 17AA                                            l2525 178C  
                                          l1487 186E                                            l2375 15E6  
                                          l2359 158E                                            l2367 1562  
                                          l2383 13FC                                            l2455 111E  
                                          l2471 1138                                            l2447 1030  
                                          l2543 13CC                                            l2535 13AC  
                                          l2527 1394                                            l2615 1108  
                                          l2607 10E8                                            l2519 17BE  
                                          l2551 1428                                            l2631 1628  
                                          l1593 187E                                            l1761 1872  
                                          l1489 186A                                            l2377 15FA  
                                          l2369 1576                                            l2385 1410  
                                          l1497 1828                                            l2465 1130  
                                          l2393 0F3A                                            l2481 1286  
                                          l2537 13BC                                            l2545 13D0  
                                          l2529 1398                                            l2625 17E6  
                                          l2617 110C                                            l2609 10F0  
                                          l1817 168E                                            l2553 1434  
                                          l2561 1490                                            l2641 163C  
                                          l2633 162C                                            l1931 1610  
                                          l2459 1126                                            l1595 17DC  
                                          l1683 17D2                                            l1499 181E  
                                          l2491 1296                                            l2539 13C4  
                                          l2619 1110                                            l2651 1226  
                                          l2555 1440                                            l2571 14B0  
                                          l2563 149C                                            l2643 1640  
                                          l2635 1630                                            l1933 1614  
                                          l1597 17DE                                            l2397 0F42  
                                          l2389 0F22                                            l1685 17D4  
                                          l2485 128E                                            l2477 127C  
                                          l2581 10A0                                            l2629 16E2  
                                          l2653 123A                                            l2557 144C  
                                          l2549 1414                                            l2573 14B2  
                                          l2565 149E                                            l1829 1852  
                                          l1861 1452                                            l2645 1644  
                                          l2637 1634                                            l1791 1876  
                                          l1935 1620                                            l1927 15FE  
                                          l1599 17E2                                            l1687 17D8  
                                          l2479 127E                                            l1783 164A  
                                          l2591 10AE                                            l2583 10A4  
                                          l2655 124E                                            l2647 1210  
                                          l2575 14C0                                            l2567 14A0  
                                          l2559 148C                                            l1871 1712  
                                          l1863 145E                                            l2639 1638  
                                          l2671 134A                                            l1793 187A  
                                          l1937 1624                                            l1929 1602  
                                          l2497 12E6                                            l1785 1658  
                                          l2593 10B6                                            l2585 10A6  
                                          l2577 108E                                            l2657 1262  
                                          l2649 1210                                            l2569 14AE  
                                          l1865 1472                                            l1873 174E  
                                          l2681 1372                                            l2673 134E  
                                          l2665 1342                                            l2499 12EA  
                                          l1787 1668                                            l2595 10B8  
                                          l2587 10A8                                            l2579 1092  
                                          l2659 1266                                            l1867 1726  
                                          l1875 175A                                            l2683 1374  
                                          l2675 1354                                            l2667 1346  
                                          l2597 10C0                                            l2589 10AA  
                                          l1869 1736                                            l1877 175C  
                                          l2677 1356                                            l2669 1348  
                                          l2599 10C8                                            l2679 1364  
                                          l2873 12CE                                            l2875 1064  
                                          l2877 0F8A                                            l2879 116C  
                                          _LATA 000F89                                            _LATB 000F8A  
                                          _LATC 000F8B                                   _INT2_CallBack 14C4  
                       ??_wr2RegCompleteHandler 0037                                ??_I2C1_MasterFsm 002F  
                     ??_I2C1_CallbackReturnStop 0037                                            _main 1342  
                                          fsr2h 000FDA                                            indf2 000FDF  
                                          fsr2l 000FD9                                            btemp 0045  
                     ?_INT2_SetInterruptHandler 002C                                            prodh 000FF4  
                                          prodl 000FF3                                            start 008A  
                              ??_I2C1_SetBuffer 0030                                    ___param_bank 000000  
                 I2C1_CallbackReturnStop@funPtr 0035                         __end_of_TMR0_Initialize 1760  
                              __end_of_INT0_ISR 1846                                __end_of_INT1_ISR 183E  
                              __end_of_INT2_ISR 1836                   __end_of_OSCILLATOR_Initialize 1726  
                             __end_of_I2C1_Open 1118                                           ?_main 002A  
                                         _T0CON 000FD5                                           i2l200 1884  
                                         i2l203 1834                                           i2l213 1882  
                                         i2l150 0036                                           i2l207 14F0  
                                         i2l152 005A                                           i2l153 007E  
                                         i2l156 007E                                           i2l181 154C  
                                         i2l190 183C                                           i2l177 1844  
                                         i2l194 151E                                           i2l187 1886  
                    __end_of_i2c1_fsmStateTable 0F21                                           _TMR0H 000FD7  
                                         _TMR0L 000FD6                                           _TRISA 000F92  
                                         _TRISB 000F93                                  ?_INT0_CallBack 002A  
                                         _TRISC 000F94                          ??_I2C1_MasterGetRxData 002C  
                         ?_I2C1_DO_RX_NACK_STOP 002A                      ??_I2C1_CallbackReturnReset 0037  
                             ??_I2C1_MasterOpen 002C                               ??_I2C1_MasterStop 002C  
                             ??_I2C1_Initialize 002C                                  ?_INT1_CallBack 002A  
                ??_INT1_DefaultInterruptHandler 002A                                  ?_INT2_CallBack 002A  
                      _INT1_SetInterruptHandler 1796                                           pclath 000FFA  
                                         pclatu 000FFB                                           tablat 000FF5  
                                         ttemp5 0046                                           ttemp6 0049  
                                         ttemp7 004D                                           status 000FD8  
                                         wtemp8 0046                                    ??_I2C1_DO_RX 002C  
                                  ??_I2C1_DO_TX 002D              _EUSART1_DefaultFramingErrorHandler 000000  
                        ??_I2C1_DO_ADDRESS_NACK 002C                                    ??_I2C1_Close 002C  
                      fp__rd1RegCompleteHandler 0000                                 __initialization 16C8  
                    __end_of_EUSART1_Initialize 1452                                    __end_of_main 1392  
                      fp__wr1RegCompleteHandler 0000                     ?_INTERRUPT_InterruptManager 002A  
                  fp__I2C1_DO_SEND_RESTART_READ 0000                          ??_I2C1_MasterOperation 002F  
                                        ??_main 0038                                   __activetblptr 000002  
                            __end_of_I2C1_DO_RX 108C                              __end_of_I2C1_DO_TX 0FE6  
                            __end_of_I2C1_Close 1628                                          _ADCON0 000FC2  
                                        _ADCON1 000FC1                                          _ADRESH 000FC4  
                                        _ADRESL 000FC3                                          _ANCON0 000F48  
                                        _ANCON1 000F49                                          _ODCON1 000F42  
                                        _ODCON2 000F41                                          _ODCON3 000F40  
                                        i2l2061 0020                                          i2l2071 0076  
                                        i2l2063 002E                                          i2l2065 0044  
                                        i2l2067 0052                                          i2l2059 0012  
                                        i2l2069 0068                                          i2l1831 1520  
                                        i2l1833 1532                                          i2l1841 14D6  
                                        i2l1835 14F2                                          i2l1837 1504  
                                        i2l1951 1836                                          i2l1839 14C4  
                                        i2l1953 1838                                          i2l1947 183E  
                                        i2l1955 182E                                          i2l1949 1840  
                                        i2l1957 1830                                          _RCREG1 000FAF  
                                        _RCSTA1 000FAC                                          _OSCCON 000FD3  
                                        _SPBRG1 000FB0                                          _RPINR1 000EE1  
                                        _RPINR2 000EE2                               ?_I2C1_MasterClose 002A  
                                        _TXREG1 000FAE                                          _TXSTA1 000FAD  
                       ??_I2C1_MasterDisableIrq 002C                               ?_I2C1_MasterStart 002A  
                             ?_I2C1_MasterWrite 002A                        ?_I2C1_MasterWaitForEvent 002A  
                            ??_I2C1_MasterClose 002C                                _I2C1_DO_TX_EMPTY 1118  
                            ??_I2C1_MasterStart 002C                              ??_I2C1_MasterWrite 0031  
                      ?_I2C1_Write1ByteRegister 0035                        ?_EUSART1_SetErrorHandler 002C  
                              ?_TMR0_Initialize 002A                                          clear_0 16CE  
                                        isa$std 000001                ??_EUSART1_SetOverrunErrorHandler 002E  
               ?_EUSART1_SetOverrunErrorHandler 002C                                 ??_INT0_CallBack 002A  
                      ??_I2C1_DO_SEND_ADR_WRITE 002D                               ?_I2C1_SetCallback 002C  
                        ??_I2C1_DO_RX_NACK_STOP 002C                           _I2C1_DO_SEND_ADR_READ 177E  
          __end_of_INT2_DefaultInterruptHandler 1884                    _INT2_DefaultInterruptHandler 1882  
                               ??_INT1_CallBack 002A                   ?_I2C1_SetDataCompleteCallback 0031  
                            ??_I2C1_SetCallback 0030                                    __mediumconst 0000  
                                        tblptrh 000FF7                                          tblptrl 000FF6  
                                        tblptru 000FF8                                 ??_INT2_CallBack 002A  
      INT2_SetInterruptHandler@InterruptHandler 002C        INT1_SetInterruptHandler@InterruptHandler 002C  
      INT0_SetInterruptHandler@InterruptHandler 002C                         _I2C1_DO_RX_NACK_RESTART 17EE  
                    fp__I2C1_DO_RX_NACK_RESTART 0000                               _SYSTEM_Initialize 1628  
                I2C1_SetDataCompleteCallback@cb 0031                                      __accesstop 0060  
                       __end_of__initialization 16D4                                       ?_INT0_ISR 002A  
                                     ?_INT1_ISR 002A                                       ?_INT2_ISR 002A  
               I2C1_MasterOperation@returnValue 0030                              ?_SYSTEM_Initialize 002A  
                                 ___rparam_used 000001                                   ??_I2C1_Poller 002F  
                       _rdBlkRegCompleteHandler 13D4                      fp__rdBlkRegCompleteHandler 0000  
                                __pcstackCOMRAM 002A                             ??_SYSTEM_Initialize 002E  
              __end_of_I2C1_MasterEnableRestart 1872                    ??_I2C1_DO_SEND_RESTART_WRITE 002C  
                       ??_I2C1_MasterSendTxData 002C                __end_of_INT2_SetInterruptHandler 1796  
                         __end_of_I2C1_DO_RESET 17D2                 fp__INT2_DefaultInterruptHandler 0000  
                 ?_INT2_DefaultInterruptHandler 002A                       __end_of_SYSTEM_Initialize 164A  
               __end_of_I2C1_MasterWaitForEvent 1770                   __end_of_rd2RegCompleteHandler 15A6  
                         _INT0_InterruptHandler 003C                            I2C1_Open@returnValue 002D  
                                    ??_INT0_ISR 002A                                      ??_INT1_ISR 002A  
                                    ??_INT2_ISR 002A                                      __pnvCOMRAM 0038  
                 __end_of_wr2RegCompleteHandler 15FE                 __end_of_I2C1_Write1ByteRegister 127C  
                         _rd1RegCompleteHandler 15A6                               _I2C1_DO_SEND_STOP 1806  
                         _wr1RegCompleteHandler 154E                 __end_of_EUSART1_SetErrorHandler 17C8  
                      rd1RegCompleteHandler@ptr 0035                                   fp__I2C1_DO_RX 0000  
                                 fp__I2C1_DO_TX 0000                                 fp__I2C1_DO_IDLE 0000  
                               fp__I2C1_DO_RCEN 0000                         fp__I2C1_DO_ADDRESS_NACK 0000  
                            ?_I2C1_DO_SEND_STOP 002A                                 _I2C1_MasterOpen 164A  
                               _I2C1_MasterStop 186A                                 _I2C1_Initialize 1726  
                           __end_of_I2C1_Poller 16C8                                         _ADCTRIG 000EB8  
                             fp__I2C1_DO_RX_ACK 0000                          ?_I2C1_DO_SEND_ADR_READ 002A  
                           ??_I2C1_DO_SEND_STOP 002C          __end_of_EUSART1_SetFramingErrorHandler 17BE  
                _EUSART1_SetFramingErrorHandler 17B4                      ??_INT1_SetInterruptHandler 002E  
                                       _REFOCON 000F3D                               _I2C1_MasterIsNack 173A  
                                       _OSCCON2 000F87                                       _I2C1_Open 108C  
                     ??_I2C1_DO_RX_NACK_RESTART 002C                                         i2u20_48 1538  
                                       i2u21_40 1504                                         i2u20_49 154C  
                                       i2u21_41 1500                                         i2u22_48 150A  
                                       i2u23_40 14D6                                         i2u22_49 151E  
                                       i2u23_41 14D2                                         i2u40_40 0076  
                                       i2u40_41 0072                                         i2u24_48 14DC  
                                       i2u24_49 14F0                                         i2u19_40 1532  
                                       i2u35_40 0020                                         i2u19_41 152E  
                                       i2u35_41 001C                                         i2u36_40 002E  
                                       i2u36_41 002A                                         i2u37_40 0044  
                                       i2u37_41 0040                                         i2u38_40 0052  
                                       i2u38_41 004E                                         _OSCTUNE 000F9B  
                                       i2u39_40 0068                                         i2u39_41 0064  
                                       _SPBRGH1 000F7F                               _I2C1_MasterSetIrq 1856  
                                       _SSP1ADD 000FC8                                         _SSP1BUF 000FC9  
                            ?_I2C1_MasterIsNack 002A                      ?_I2C1_DO_SEND_RESTART_READ 002A  
                ??_I2C1_SetDataCompleteCallback 0035                              ?_I2C1_MasterSetIrq 002A  
                            _i2c1_fsmStateTable 0F01                             ??_I2C1_MasterIsNack 002C  
                     __end_of_I2C1_DO_SEND_STOP 180E                       ??_rdBlkRegCompleteHandler 0037  
                            I2C1_SetCallback@cb 002C                       ?_INT0_SetInterruptHandler 002C  
                           ??_I2C1_MasterSetIrq 002C                            _ADC_InterruptHandler 0027  
                                       __Hparam 0000                                         __Lparam 0000  
                           fp__I2C1_DO_TX_EMPTY 0000                                    __psmallconst 0F00  
                                       __pcinit 16C8                                   ?_I2C1_DO_IDLE 002A  
                                 ?_I2C1_DO_RCEN 002A                                         __ramtop 0F00  
                                       __ptext0 1342                                         __ptext1 1628  
                                       __ptext2 174E                                         __ptext3 1452  
                                       __ptext4 1712                                         __ptext5 1852  
                                       __ptext6 1726                                         __ptext7 148C  
                                       __ptext8 178C                                         __ptext9 1796  
                      _I2C1_MasterEnableRestart 186E                                       _T0CONbits 000FD5  
                     __end_of_I2C1_MasterIsNack 174E                    ?_I2C1_SetAddressNackCallback 0031  
                         _OSCILLATOR_Initialize 1712                       __end_of_I2C1_MasterSetIrq 185A  
                      __end_of_I2C1_DO_TX_EMPTY 1194                              _EUSART1_Initialize 1414  
                      ??_PIN_MANAGER_Initialize 002C                        wr1RegCompleteHandler@ptr 0035  
                                    ?_I2C1_Open 002A                         fp__I2C1_DO_RX_NACK_STOP 0000  
                      ?_I2C1_CallbackReturnStop 0035               __end_of_I2C1_DO_SEND_RESTART_READ 1826  
                          end_of_initialization 16D4                      __end_of_I2C1_MasterSendAck 184C  
                      _INT2_SetInterruptHandler 178C                             _I2C1_MasterClearIrq 187E  
                           ?_EUSART1_Initialize 002A                  ??_INT2_DefaultInterruptHandler 002A  
                                 __Lmediumconst 0000                      __end_of_I2C1_MasterStartRx 1862  
                   _EUSART1_OverrunErrorHandler 0040                          ?_rd1RegCompleteHandler 0035  
                        _I2C1_DO_SEND_ADR_WRITE 1770                    __end_of_I2C1_DO_SEND_RESTART 1816  
                       __end_of_I2C1_MasterOpen 166C                          ?_wr1RegCompleteHandler 0035  
                       __end_of_I2C1_MasterStop 186E                         __end_of_I2C1_Initialize 173A  
                                   _I2C1_Poller 16AC                       ?_I2C1_CallbackReturnReset 0035  
                 __end_of_I2C1_MasterDisableIrq 187A                                     _I2C1_Status 0001  
                      fp__rd2RegCompleteHandler 0000                                         postdec2 000FDD  
                      fp__wr2RegCompleteHandler 0000                                         postinc0 000FEE  
                                       postinc2 000FDE                             _I2C1_MasterSendNack 184C  
           __end_of_I2C1_SetAddressNackCallback 16FA                     _I2C1_SetAddressNackCallback 16E2  
                          ?_I2C1_MasterClearIrq 002A                                  ??_I2C1_DO_IDLE 002C  
                          ??_EUSART1_Initialize 002E                                  ??_I2C1_DO_RCEN 002C  
            __end_of_I2C1_DO_SEND_RESTART_WRITE 181E                      _I2C1_DO_SEND_RESTART_WRITE 1816  
                         _INT1_InterruptHandler 003A                                       _PORTCbits 000F82  
               __end_of_rdBlkRegCompleteHandler 1414                   ??_I2C1_SetAddressNackCallback 0035  
               I2C1_SetDataCompleteCallback@ptr 0033                     I2C1_Write1ByteRegister@data 0036  
                I2C1_CallbackReturnReset@funPtr 0035                            ?_I2C1_MasterSendNack 002A  
                    rdBlkRegCompleteHandler@ptr 0035                    __end_of_INTERRUPT_Initialize 1856  
                         ??_I2C1_MasterClearIrq 002C            __end_of_INT0_DefaultInterruptHandler 1888  
                  _INT0_DefaultInterruptHandler 1886                                  _I2C1_DO_RX_ACK 17FE  
                                _ADC_Initialize 168E                          ?_OSCILLATOR_Initialize 002A  
               __end_of_I2C1_CallbackReturnStop 186A                           __end_of_INT0_CallBack 154E  
                 __end_of_I2C1_MasterSendTxData 182E                             start_initialization 16C8  
                                   ??_I2C1_Open 002C                           __end_of_INT1_CallBack 1520  
                         ??_I2C1_MasterSendNack 002C                           __end_of_INT2_CallBack 14F2  
                      I2C1_SetBuffer@bufferSize 002E                                ?_I2C1_MasterOpen 002A  
                              ?_I2C1_MasterStop 002A                  I2C1_Write1ByteRegister@address 0037  
                              ?_I2C1_Initialize 002A                          __end_of_I2C1_DO_RX_ACK 1806  
                       ??_I2C1_DO_SEND_ADR_READ 002C                          __end_of_ADC_Initialize 16AC  
                    __end_of_EXT_INT_Initialize 14C4                 fp__INT0_DefaultInterruptHandler 0000  
                 ?_INT0_DefaultInterruptHandler 002A                                I2C1_Open@address 002C  
                                   __pbssCOMRAM 0001                            _I2C1_DO_SEND_RESTART 180E  
              __end_of_INT0_SetInterruptHandler 17AA                     ??_I2C1_DO_SEND_RESTART_READ 002C  
                          __end_of_I2C1_DO_IDLE 17E6                ??_EUSART1_SetFramingErrorHandler 002E  
               ?_EUSART1_SetFramingErrorHandler 002C                            __end_of_I2C1_DO_RCEN 17DC  
                         _INT2_InterruptHandler 0038                   I2C1_SetAddressNackCallback@cb 0031  
                         _rd2RegCompleteHandler 157A                       fp__I2C1_DO_SEND_ADR_WRITE 0000  
                        _PIN_MANAGER_Initialize 1452                           _wr2RegCompleteHandler 15D2  
                    ??_I2C1_MasterEnableRestart 002C                        rd2RegCompleteHandler@ptr 0035  
                                     __pintcode 0008                                  _I2C1_MasterFsm 12E6  
                              fp__I2C1_DO_RESET 0000                                 ?_I2C1_DO_RX_ACK 002A  
                               ?_ADC_Initialize 002A                         _I2C1_MasterWaitForEvent 1760  
                              _I2C1_MasterClose 187A                                  _I2C1_SetBuffer 166C  
                  ??_INTERRUPT_InterruptManager 002A                                _I2C1_MasterStart 1872  
                              _I2C1_MasterWrite 17E6                                     __smallconst 0F00  
                       _I2C1_Write1ByteRegister 120E                      ??_INT2_SetInterruptHandler 002E  
                                      _BAUDCON1 000F7E              _EUSART1_DefaultOverrunErrorHandler 000000  
                         ?_I2C1_DO_SEND_RESTART 002A                            _EUSART1_ErrorHandler 003E  
                             ?_I2C1_DO_TX_EMPTY 002A                         _EUSART1_SetErrorHandler 17BE  
              __end_of_I2C1_CallbackReturnReset 1866                              ??_I2C1_DO_TX_EMPTY 002C  
                       ??_rd1RegCompleteHandler 0037                         ?_I2C1_DO_SEND_ADR_WRITE 002A  
                     I2C1_MasterSendTxData@data 002C                            _INTERRUPT_Initialize 1852  
                       ??_wr1RegCompleteHandler 0037                               ??_TMR0_Initialize 002C  
                              _I2C1_SetCallback 1194                                        _INT0_ISR 183E  
                                      _INT1_ISR 1836                                        _INT2_ISR 182E  
       EUSART1_SetErrorHandler@interruptHandler 002C                                        _LATCbits 000F8B  
                                    _I2C1_DO_RX 0FE6                                      _I2C1_DO_TX 0F22  
                     ?_INT1_SetInterruptHandler 002C                                        _PIE1bits 000F9D  
                                    _I2C1_Close 15FE                                    ?_I2C1_Poller 002A  
                        __end_of_I2C1_MasterFsm 1342                    __end_of_I2C1_MasterGetRxData 185E  
                                      _PIR1bits 000F9E                                        _PIR2bits 000FA1  
                                      _RCONbits 000FD0                              _I2C1_MasterSendAck 1846  
                     _I2C1_DO_SEND_RESTART_READ 181E                                        _SSP1CON1 000FC6  
                                      _SSP1CON2 000FC5                          __end_of_I2C1_SetBuffer 168E  
                                      _SSP1STAT 000FC7            __end_of_I2C1_SetDataCompleteCallback 1712  
                  _I2C1_SetDataCompleteCallback 16FA                              _I2C1_MasterStartRx 185E  
                   ?_I2C1_DO_SEND_RESTART_WRITE 002A                      I2C1_Write1ByteRegister@reg 0035  
                           ?_I2C1_MasterSendAck 002A                                      _ADCON0bits 000FC2  
                      ?_I2C1_DO_RX_NACK_RESTART 002A                            fp__I2C1_DO_SEND_STOP 0000  
                           ?_I2C1_MasterStartRx 002A                    __end_of_I2C1_DO_ADDRESS_NACK 12E6  
                ??_INT0_DefaultInterruptHandler 002A                        wr2RegCompleteHandler@ptr 0035  
                __end_of_I2C1_DO_SEND_ADR_WRITE 177E                                   _I2C1_DO_RESET 17C8  
                                   _INTCON2bits 000FF1                                     _INTCON3bits 000FF0  
                         ?_INTERRUPT_Initialize 002A                           I2C1_Close@returnValue 002C  
                      ?_rdBlkRegCompleteHandler 0035                        _INT0_SetInterruptHandler 17A0  
                           I2C1_SetCallback@idx 0030                             I2C1_SetCallback@ptr 002E  
                          ??_I2C1_MasterSendAck 002C                          ?_rd2RegCompleteHandler 0035  
                  __end_of_I2C1_MasterOperation 13D4                          ?_wr2RegCompleteHandler 0035  
                          ??_I2C1_MasterStartRx 002C                                        __Hrparam 0000  
                               ?_I2C1_MasterFsm 002A                                        __Lrparam 0000  
                     ??_I2C1_MasterWaitForEvent 002C                           _I2C1_MasterDisableIrq 1876  
                       ??_OSCILLATOR_Initialize 002C                                 ?_I2C1_SetBuffer 002C  
                     ??_I2C1_Write1ByteRegister 0037                          ??_I2C1_DO_SEND_RESTART 002C  
                     ??_EUSART1_SetErrorHandler 002E                     _EUSART1_DefaultErrorHandler 000000  
                                   _currentTime 0025                                  ?_I2C1_DO_RESET 002A  
                                      __ptext10 17A0                                        __ptext11 1414  
                                      __ptext20 17E6                                        __ptext12 17AA  
                                      __ptext21 1392                                        __ptext13 17B4  
                                      __ptext30 1806                                        __ptext22 16AC  
                                      __ptext14 17BE                                        __ptext31 180E  
                                      __ptext23 1760                                        __ptext15 168E  
                                      __ptext40 1118                                        __ptext32 1816  
                                      __ptext24 12E6                                        __ptext16 120E  
                                      __ptext41 1856                                        __ptext33 181E  
                                      __ptext25 127C                                        __ptext17 16E2  
                                      __ptext50 157A                                        __ptext42 173A  
                                      __ptext34 17D2                                        __ptext26 17C8  
                                      __ptext18 108C                                        __ptext51 15A6  
                                      __ptext43 1826                                        __ptext35 0FE6  
                                      __ptext27 17EE                                        __ptext19 164A  
                                      __ptext60 1872                                        __ptext52 1862  
                                      __ptext44 1846                                        __ptext36 0F22  
                                      __ptext28 17F6                                        __ptext61 15FE  
                                      __ptext53 1866                                        __ptext45 185A  
                                      __ptext37 1770                                        __ptext29 17FE  
                                      __ptext70 14F2                                        __ptext62 1876  
                                      __ptext54 15D2                                        __ptext46 184C  
                                      __ptext38 177E                                        __ptext71 1884  
                                      __ptext63 187A                                        __ptext55 16FA  
                                      __ptext47 185E                                        __ptext39 17DC  
                                      __ptext72 183E                                        __ptext64 187E  
                                      __ptext56 1194                                        __ptext48 13D4  
                                      __ptext73 1520                                        __ptext57 166C  
                                      __ptext49 154E                                        __ptext74 1886  
                                      __ptext66 182E                                        __ptext58 186A  
                                      __ptext75 0000                                        __ptext67 14C4  
                                      __ptext59 186E                                        __ptext68 1882  
                                      __ptext69 1836                                    _SSP1CON1bits 000FC6  
                                  _SSP1CON2bits 000FC5                        _I2C1_CallbackReturnReset 1862  
                   fp__I2C1_CallbackReturnReset 0000                                     ?_I2C1_DO_RX 002A  
                                   ?_I2C1_DO_TX 002A                     __end_of_I2C1_MasterClearIrq 1882  
                  __end_of_I2C1_DO_RX_NACK_STOP 17FE                                     ?_I2C1_Close 002A  
EUSART1_SetOverrunErrorHandler@interruptHandler 002C                                        isa$xinst 000000  
                                      int$flags 0045                 __end_of_I2C1_DO_RX_NACK_RESTART 17F6  
                      I2C1_MasterOperation@read 002F              __end_of_INTERRUPT_InterruptManager 008A  
                    _INTERRUPT_InterruptManager 0008                                    _SSP1STATbits 000FC7  
                 __end_of_I2C1_DO_SEND_ADR_READ 178C                     _EUSART1_FramingErrorHandler 0042  
                                  _I2C1_DO_IDLE 17DC            __end_of_INT1_DefaultInterruptHandler 1886  
                  _INT1_DefaultInterruptHandler 1884                                    _I2C1_DO_RCEN 17D2  
                   __end_of_I2C1_MasterSendNack 1852                                      _INTCONbits 000FF2  
                 fp__I2C1_DO_SEND_RESTART_WRITE 0000                  I2C1_SetAddressNackCallback@ptr 0033  
                          _I2C1_MasterGetRxData 185A                           _I2C1_MasterSendTxData 1826  
                        ??_INTERRUPT_Initialize 002C                              _EXT_INT_Initialize 148C  
                                      intlevel2 0000                        __end_of_I2C1_MasterClose 187E  
                       ?_PIN_MANAGER_Initialize 002A                        __end_of_I2C1_MasterStart 1876  
                      __end_of_I2C1_MasterWrite 17EE                             ?_EXT_INT_Initialize 002A  
        __end_of_EUSART1_SetOverrunErrorHandler 17B4                  _EUSART1_SetOverrunErrorHandler 17AA  
                                    _RCSTA1bits 000FAC                                ??_I2C1_DO_RX_ACK 002C  
                       _I2C1_CallbackReturnStop 1866                      fp__I2C1_CallbackReturnStop 0000  
                              ??_ADC_Initialize 002C                            _I2C1_DO_ADDRESS_NACK 127C  
                        ?_I2C1_MasterDisableIrq 002A  EUSART1_SetFramingErrorHandler@interruptHandler 002C  
                            _eusart1RxLastError 0029                        __end_of_I2C1_SetCallback 120E  
                          ??_EXT_INT_Initialize 002E                 fp__INT1_DefaultInterruptHandler 0000  
                 ?_INT1_DefaultInterruptHandler 002A                                 ??_I2C1_DO_RESET 002C  
                          _I2C1_MasterOperation 1392                                 _TMR0_Initialize 174E  
              __end_of_INT1_SetInterruptHandler 17A0                           ?_I2C1_MasterGetRxData 002A  
                __end_of_PIN_MANAGER_Initialize 148C                   __end_of_rd1RegCompleteHandler 15D2  
                 __end_of_wr1RegCompleteHandler 157A                           ?_I2C1_DO_ADDRESS_NACK 002A  
