

Microchip MPLAB XC8 Assembler V2.35 build 20211206165544 
                                                                                               Fri Apr 08 18:42:01 2022

Microchip MPLAB XC8 C Compiler v2.35 (Free license) build 20211206165544 Og1 
     1                           	processor	18F26J53
     2                           	fnconf	rparam,??,?,0
     3                           	pagewidth 120
     4                           	opt	flic
     5                           	psect	smallconst,global,reloc=2,class=SMALLCONST,delta=1,noexec
     6                           	psect	nvCOMRAM,global,class=COMRAM,space=1,delta=1,lowdata,noexec
     7                           	psect	nvBANK0,global,class=BANK0,space=1,delta=1,lowdata,noexec
     8                           	psect	cinit,global,reloc=2,class=CODE,delta=1
     9                           	psect	bssCOMRAM,global,class=COMRAM,space=1,delta=1,lowdata,noexec
    10                           	psect	bssBANK0,global,class=BANK0,space=1,delta=1,lowdata,noexec
    11                           	psect	cstackBANK0,global,class=BANK0,space=1,delta=1,lowdata,noexec
    12                           	psect	cstackCOMRAM,global,class=COMRAM,space=1,delta=1,lowdata,noexec
    13                           	psect	text0,global,reloc=2,class=CODE,delta=1
    14                           	psect	text1,global,reloc=2,class=CODE,delta=1,group=3
    15                           	psect	text2,global,reloc=2,class=CODE,delta=1,group=1
    16                           	psect	text3,global,reloc=2,class=CODE,delta=1,group=1
    17                           	psect	text4,global,reloc=2,class=CODE,delta=1,group=3
    18                           	psect	text5,global,reloc=2,class=CODE,delta=1
    19                           	psect	text6,global,reloc=2,class=CODE,delta=1
    20                           	psect	text7,global,reloc=2,class=CODE,delta=1
    21                           	psect	text8,global,reloc=2,class=CODE,delta=1
    22                           	psect	text9,global,reloc=2,class=CODE,delta=1
    23                           	psect	text10,global,reloc=2,class=CODE,delta=1
    24                           	psect	text11,global,reloc=2,class=CODE,delta=1
    25                           	psect	text12,global,reloc=2,class=CODE,delta=1
    26                           	psect	text13,global,reloc=2,class=CODE,delta=1
    27                           	psect	text14,global,reloc=2,class=CODE,delta=1
    28                           	psect	text15,global,reloc=2,class=CODE,delta=1
    29                           	psect	text16,global,reloc=2,class=CODE,delta=1
    30                           	psect	text17,global,reloc=2,class=CODE,delta=1
    31                           	psect	text18,global,reloc=2,class=CODE,delta=1
    32                           	psect	text19,global,reloc=2,class=CODE,delta=1
    33                           	psect	text20,global,reloc=2,class=CODE,delta=1
    34                           	psect	text21,global,reloc=2,class=CODE,delta=1
    35                           	psect	text22,global,reloc=2,class=CODE,delta=1
    36                           	psect	text23,global,reloc=2,class=CODE,delta=1
    37                           	psect	text24,global,reloc=2,class=CODE,delta=1
    38                           	psect	text25,global,reloc=2,class=CODE,delta=1
    39                           	psect	text26,global,reloc=2,class=CODE,delta=1
    40                           	psect	text27,global,reloc=2,class=CODE,delta=1
    41                           	psect	text28,global,reloc=2,class=CODE,delta=1,inline
    42                           	psect	text29,global,reloc=2,class=CODE,delta=1,inline
    43                           	psect	text30,global,reloc=2,class=CODE,delta=1
    44                           	psect	text31,global,reloc=2,class=CODE,delta=1
    45                           	psect	text32,global,reloc=2,class=CODE,delta=1,inline
    46                           	psect	text33,global,reloc=2,class=CODE,delta=1
    47                           	psect	text34,global,reloc=2,class=CODE,delta=1,inline
    48                           	psect	text35,global,reloc=2,class=CODE,delta=1,inline
    49                           	psect	text36,global,reloc=2,class=CODE,delta=1,inline
    50                           	psect	intcode,global,reloc=2,class=CODE,delta=1
    51                           	psect	text38,global,reloc=2,class=CODE,delta=1
    52                           	psect	text39,global,reloc=2,class=CODE,delta=1,inline
    53                           	psect	text40,global,reloc=2,class=CODE,delta=1,inline
    54                           	psect	text41,global,reloc=2,class=CODE,delta=1
    55                           	psect	text42,global,reloc=2,class=CODE,delta=1
    56                           	psect	text43,global,reloc=2,class=CODE,delta=1
    57                           	psect	text44,global,reloc=2,class=CODE,delta=1
    58                           	psect	text45,global,reloc=2,class=CODE,delta=1
    59                           	psect	text46,global,reloc=2,class=CODE,delta=1
    60                           	psect	text47,global,reloc=2,class=CODE,delta=1
    61                           	psect	text48,global,reloc=2,class=CODE,delta=1
    62                           	psect	text49,global,reloc=2,class=CODE,delta=1
    63                           	psect	text50,global,reloc=2,class=CODE,delta=1
    64                           	psect	text51,global,reloc=2,class=CODE,delta=1
    65                           	psect	text52,global,reloc=2,class=CODE,delta=1
    66                           	psect	text53,global,reloc=2,class=CODE,delta=1
    67                           	psect	text54,global,reloc=2,class=CODE,delta=1
    68                           	psect	text55,global,reloc=2,class=CODE,delta=1
    69                           	psect	text56,global,reloc=2,class=CODE,delta=1
    70                           	psect	text57,global,reloc=2,class=CODE,delta=1,inline
    71                           	psect	text58,global,reloc=2,class=CODE,delta=1,inline
    72                           	psect	text59,global,reloc=2,class=CODE,delta=1,inline
    73                           	psect	text60,global,reloc=2,class=CODE,delta=1,inline
    74                           	psect	text61,global,reloc=2,class=CODE,delta=1,inline
    75                           	psect	text62,global,reloc=2,class=CODE,delta=1,inline
    76                           	psect	text63,global,reloc=2,class=CODE,delta=1,inline
    77                           	psect	text64,global,reloc=2,class=CODE,delta=1
    78                           	psect	text65,global,reloc=2,class=CODE,delta=1
    79                           	psect	text66,global,reloc=2,class=CODE,delta=1
    80                           	psect	text67,global,reloc=2,class=CODE,delta=1
    81                           	psect	text68,global,reloc=2,class=CODE,delta=1
    82                           	psect	text69,global,reloc=2,class=CODE,delta=1
    83                           	psect	text70,global,reloc=2,class=CODE,delta=1
    84                           	psect	text71,global,reloc=2,class=CODE,delta=1
    85                           	psect	text72,global,reloc=2,class=CODE,delta=1
    86                           	psect	text73,global,reloc=2,class=CODE,delta=1
    87                           	psect	text74,global,reloc=2,class=CODE,delta=1,inline
    88                           	psect	text75,global,reloc=2,class=CODE,delta=1,inline
    89                           	psect	text76,global,reloc=2,class=CODE,delta=1
    90                           	psect	text77,global,reloc=2,class=CODE,delta=1
    91                           	psect	text78,global,reloc=2,class=CODE,delta=1
    92                           	psect	text79,global,reloc=2,class=CODE,delta=1
    93                           	psect	text80,global,reloc=2,class=CODE,delta=1
    94                           	psect	text81,global,reloc=2,class=CODE,delta=1
    95                           	psect	intsave_regs,global,class=BIGRAM,space=1,delta=1,noexec
    96                           	psect	text82,global,reloc=2,class=CODE,delta=1
    97                           	psect	rparam,global,class=COMRAM,space=1,delta=1,noexec
    98                           	psect	temp,global,ovrld,common,class=COMRAM,space=1,delta=1
    99                           	psect	config,global,abs,ovrld,class=CONFIG,space=4,delta=1,noexec
   100  0000                     
   101                           ; Version 2.40
   102                           ; Generated 17/11/2021 GMT
   103                           ; 
   104                           ; Copyright © 2021, Microchip Technology Inc. and its subsidiaries ("Microchip")
   105                           ; All rights reserved.
   106                           ; 
   107                           ; This software is developed by Microchip Technology Inc. and its subsidiaries ("Microch
      +                          ip").
   108                           ; 
   109                           ; Redistribution and use in source and binary forms, with or without modification, are
   110                           ; permitted provided that the following conditions are met:
   111                           ; 
   112                           ;     1. Redistributions of source code must retain the above copyright notice, this lis
      +                          t of
   113                           ;        conditions and the following disclaimer.
   114                           ; 
   115                           ;     2. Redistributions in binary form must reproduce the above copyright notice, this 
      +                          list
   116                           ;        of conditions and the following disclaimer in the documentation and/or other
   117                           ;        materials provided with the distribution. Publication is not required when
   118                           ;        this file is used in an embedded application.
   119                           ; 
   120                           ;     3. Microchip's name may not be used to endorse or promote products derived from th
      +                          is
   121                           ;        software without specific prior written permission.
   122                           ; 
   123                           ; THIS SOFTWARE IS PROVIDED BY MICROCHIP "AS IS" AND ANY EXPRESS OR IMPLIED WARRANTIES,
   124                           ; INCLUDING, BUT NOT LIMITED TO, THE IMPLIED WARRANTIES OF MERCHANTABILITY AND FITNESS F
      +                          OR
   125                           ; PURPOSE ARE DISCLAIMED.  IN NO EVENT SHALL MICROCHIP BE LIABLE FOR ANY DIRECT, INDIREC
      +                          T,
   126                           ; INCIDENTAL, SPECIAL, EXEMPLARY, OR CONSEQUENTIAL DAMAGES (INCLUDING BUT NOT LIMITED TO
   127                           ; PROCUREMENT OF SUBSTITUTE GOODS OR SERVICES; LOSS OF USE, DATA OR PROFITS; OR BUSINESS
   128                           ; INTERRUPTION) HOWSOEVER CAUSED AND ON ANY THEORY OF LIABILITY, WHETHER IN CONTRACT, ST
      +                          RICT
   129                           ; LIABILITY, OR TORT (INCLUDING NEGLIGENCE OR OTHERWISE) ARISING IN ANY WAY OUT OF THE U
      +                          SE OF
   130                           ; THIS SOFTWARE, EVEN IF ADVISED OF THE POSSIBILITY OF SUCH DAMAGE.
   131                           ; 
   132                           ; 
   133                           ; Code-generator required, PIC18F26J53 Definitions
   134                           ; 
   135                           ; SFR Addresses
   136  0000                     
   137                           	psect	smallconst
   138  000F00                     __psmallconst:
   139                           	callstack 0
   140  000F00  00                 	db	0
   141  000F01                     _i2c1_fsmStateTable:
   142                           	callstack 0
   143  000F01  FC                 	db	low _I2C1_DO_IDLE
   144  000F02  1E                 	db	high _I2C1_DO_IDLE
   145  000F03  D4                 	db	low _I2C1_DO_SEND_ADR_READ
   146  000F04  1E                 	db	high _I2C1_DO_SEND_ADR_READ
   147  000F05  C4                 	db	low _I2C1_DO_SEND_ADR_WRITE
   148  000F06  1E                 	db	high _I2C1_DO_SEND_ADR_WRITE
   149  000F07  CC                 	db	low _I2C1_DO_TX
   150  000F08  13                 	db	high _I2C1_DO_TX
   151  000F09  56                 	db	low _I2C1_DO_RX
   152  000F0A  15                 	db	high _I2C1_DO_RX
   153  000F0B  F0                 	db	low _I2C1_DO_RCEN
   154  000F0C  1E                 	db	high _I2C1_DO_RCEN
   155  000F0D  32                 	db	low _I2C1_DO_TX_EMPTY
   156  000F0E  17                 	db	high _I2C1_DO_TX_EMPTY
   157  000F0F  86                 	db	low _I2C1_DO_SEND_RESTART_READ
   158  000F10  1F                 	db	high _I2C1_DO_SEND_RESTART_READ
   159  000F11  7E                 	db	low _I2C1_DO_SEND_RESTART_WRITE
   160  000F12  1F                 	db	high _I2C1_DO_SEND_RESTART_WRITE
   161  000F13  76                 	db	low _I2C1_DO_SEND_RESTART
   162  000F14  1F                 	db	high _I2C1_DO_SEND_RESTART
   163  000F15  6E                 	db	low _I2C1_DO_SEND_STOP
   164  000F16  1F                 	db	high _I2C1_DO_SEND_STOP
   165  000F17  66                 	db	low _I2C1_DO_RX_ACK
   166  000F18  1F                 	db	high _I2C1_DO_RX_ACK
   167  000F19  5E                 	db	low _I2C1_DO_RX_NACK_STOP
   168  000F1A  1F                 	db	high _I2C1_DO_RX_NACK_STOP
   169  000F1B  56                 	db	low _I2C1_DO_RX_NACK_RESTART
   170  000F1C  1F                 	db	high _I2C1_DO_RX_NACK_RESTART
   171  000F1D  E4                 	db	low _I2C1_DO_RESET
   172  000F1E  1E                 	db	high _I2C1_DO_RESET
   173  000F1F  86                 	db	low _I2C1_DO_ADDRESS_NACK
   174  000F20  19                 	db	high _I2C1_DO_ADDRESS_NACK
   175  000F21                     __end_of_i2c1_fsmStateTable:
   176                           	callstack 0
   177  0000                     _ADCON0	set	4034
   178  0000                     _ADRESH	set	4036
   179  0000                     _ADRESL	set	4035
   180  0000                     _T1CON	set	4045
   181  0000                     _TMR1L	set	4046
   182  0000                     _TMR1H	set	4047
   183  0000                     _RCONbits	set	4048
   184  0000                     _T2CON	set	4042
   185  0000                     _TMR2	set	4044
   186  0000                     _PR2	set	4043
   187  0000                     _SSP1BUF	set	4041
   188  0000                     _SSP1ADD	set	4040
   189  0000                     _RCREG2	set	4010
   190  0000                     _TXREG2	set	4009
   191  0000                     _SPBRG2	set	4011
   192  000F21                     STR_1:
   193  000F21  54                 	db	84	;'T'
   194  000F22  65                 	db	101	;'e'
   195  000F23  73                 	db	115	;'s'
   196  000F24  74                 	db	116	;'t'
   197  000F25  69                 	db	105	;'i'
   198  000F26  6E                 	db	110	;'n'
   199  000F27  67                 	db	103	;'g'
   200  000F28  0D                 	db	13
   201  000F29  0A                 	db	10
   202  000F2A  00                 	db	0
   203  000F2B  00                 	db	0	; dummy byte at the end
   204  0000                     
   205                           	psect	nvCOMRAM
   206  000041                     __pnvCOMRAM:
   207                           	callstack 0
   208  000041                     _timer1ReloadVal:
   209                           	callstack 0
   210  000041                     	ds	2
   211  000043                     _EUSART2_RxDefaultInterruptHandler:
   212                           	callstack 0
   213  000043                     	ds	2
   214  000045                     _EUSART2_TxDefaultInterruptHandler:
   215                           	callstack 0
   216  000045                     	ds	2
   217  000047                     _eusart2TxBufferRemaining:
   218                           	callstack 0
   219  000047                     	ds	1
   220                           
   221                           	psect	nvBANK0
   222  0000CB                     __pnvBANK0:
   223                           	callstack 0
   224  0000CB                     _EUSART2_ErrorHandler:
   225                           	callstack 0
   226  0000CB                     	ds	2
   227  0000CD                     _EUSART2_OverrunErrorHandler:
   228                           	callstack 0
   229  0000CD                     	ds	2
   230  0000CF                     _EUSART2_FramingErrorHandler:
   231                           	callstack 0
   232  0000CF                     	ds	2
   233  0000                     _LATCbits	set	3979
   234  0000                     _LATAbits	set	3977
   235  0000                     _ADCON0bits	set	4034
   236  0000                     _T1GCONbits	set	3994
   237  0000                     _T1CONbits	set	4045
   238  0000                     _T2CONbits	set	4042
   239  0000                     _SSP1STATbits	set	4039
   240  0000                     _SSP1CON2bits	set	4037
   241  0000                     _SSP1CON1bits	set	4038
   242  0000                     _RCSTA2bits	set	3996
   243  0000                     _TXSTA2bits	set	4008
   244  0000                     _ADCTRIG	set	3768
   245  0000                     _RPOR17	set	3793
   246  0000                     _RPINR16	set	3831
   247  0000                     _REFOCON	set	3901
   248  0000                     _BAUDCON2	set	3964
   249  0000                     _PIE3bits	set	4003
   250  0000                     _PIR3bits	set	4004
   251  0000                     _TXSTA2	set	4008
   252  0000                     _OSCCON2	set	3975
   253  0000                     _OSCTUNE	set	3995
   254  0000                     _SPBRGH2	set	3965
   255  0000                     _RCSTA2	set	3996
   256  0000                     _PIE2bits	set	4000
   257  0000                     _PIR1bits	set	3998
   258  0000                     _PIE1bits	set	3997
   259  0000                     _PIR2bits	set	4001
   260  0000                     _ADCON1	set	4033
   261  0000                     _SSP1CON2	set	4037
   262  0000                     _SSP1CON1	set	4038
   263  0000                     _SSP1STAT	set	4039
   264  0000                     _OSCCON	set	4051
   265  0000                     _INTCON2bits	set	4081
   266  0000                     _ODCON3	set	3904
   267  0000                     _ODCON2	set	3905
   268  0000                     _ODCON1	set	3906
   269  0000                     _ANCON0	set	3912
   270  0000                     _LATA	set	3977
   271  0000                     _TRISA	set	3986
   272  0000                     _LATC	set	3979
   273  0000                     _LATB	set	3978
   274  0000                     _T1GCON	set	3994
   275  0000                     _TRISC	set	3988
   276  0000                     _TRISB	set	3987
   277  0000                     _ANCON1	set	3913
   278  0000                     _INTCONbits	set	4082
   279                           
   280                           ; #config settings
   281                           
   282                           	psect	cinit
   283  001D60                     __pcinit:
   284                           	callstack 0
   285  001D60                     start_initialization:
   286                           	callstack 0
   287  001D60                     __initialization:
   288                           	callstack 0
   289                           
   290                           ; Clear objects allocated to BANK0 (84 bytes)
   291  001D60  EE00  F060         	lfsr	0,__pbssBANK0
   292  001D64  0E54               	movlw	84
   293  001D66                     clear_0:
   294  001D66  6AEE               	clrf	postinc0,c
   295  001D68  06E8               	decf	wreg,f,c
   296  001D6A  E1FD               	bnz	clear_0
   297                           
   298                           ; Clear objects allocated to COMRAM (26 bytes)
   299  001D6C  EE00  F027         	lfsr	0,__pbssCOMRAM
   300  001D70  0E1A               	movlw	26
   301  001D72                     clear_1:
   302  001D72  6AEE               	clrf	postinc0,c
   303  001D74  06E8               	decf	wreg,f,c
   304  001D76  E1FD               	bnz	clear_1
   305  001D78                     end_of_initialization:
   306                           	callstack 0
   307  001D78                     __end_of__initialization:
   308                           	callstack 0
   309  001D78  9048               	bcf	int$flags,0,c	;clear compiler interrupt flag (level 1)
   310  001D7A  9248               	bcf	int$flags,1,c	;clear compiler interrupt flag (level 2)
   311  001D7C  0E00               	movlw	low (__Lmediumconst shr (0+16))
   312  001D7E  6EF8               	movwf	tblptru,c
   313  001D80  0100               	movlb	0
   314  001D82  EF96  F007         	goto	_main	;jump to C main() function
   315                           
   316                           	psect	bssCOMRAM
   317  000027                     __pbssCOMRAM:
   318                           	callstack 0
   319  000027                     _eusart2RxStatusBuffer:
   320                           	callstack 0
   321  000027                     	ds	8
   322  00002F                     _nout:
   323                           	callstack 0
   324  00002F                     	ds	2
   325  000031                     _width:
   326                           	callstack 0
   327  000031                     	ds	2
   328  000033                     _prec:
   329                           	callstack 0
   330  000033                     	ds	2
   331  000035                     _flags:
   332                           	callstack 0
   333  000035                     	ds	2
   334  000037                     _ADC_InterruptHandler:
   335                           	callstack 0
   336  000037                     	ds	2
   337  000039                     _MSSP1_InterruptHandler:
   338                           	callstack 0
   339  000039                     	ds	2
   340  00003B                     _eusart2RxLastError:
   341                           	callstack 0
   342  00003B                     	ds	1
   343  00003C                     _eusart2RxCount:
   344                           	callstack 0
   345  00003C                     	ds	1
   346  00003D                     _eusart2RxTail:
   347                           	callstack 0
   348  00003D                     	ds	1
   349  00003E                     _eusart2RxHead:
   350                           	callstack 0
   351  00003E                     	ds	1
   352  00003F                     _eusart2TxTail:
   353                           	callstack 0
   354  00003F                     	ds	1
   355  000040                     _eusart2TxHead:
   356                           	callstack 0
   357  000040                     	ds	1
   358                           
   359                           	psect	bssBANK0
   360  000060                     __pbssBANK0:
   361                           	callstack 0
   362  000060                     _I2C1_Status:
   363                           	callstack 0
   364  000060                     	ds	36
   365  000084                     	ds	32
   366  0000A4                     _eusart2RxBuffer:
   367                           	callstack 0
   368  0000A4                     	ds	8
   369  0000AC                     _eusart2TxBuffer:
   370                           	callstack 0
   371  0000AC                     	ds	8
   372                           
   373                           	psect	cstackBANK0
   374  0000B4                     __pcstackBANK0:
   375                           	callstack 0
   376  0000B4                     ?_vfpfcnvrt:
   377                           	callstack 0
   378  0000B4                     vfpfcnvrt@fp:
   379                           	callstack 0
   380                           
   381                           ; 2 bytes @ 0x0
   382  0000B4                     	ds	2
   383  0000B6                     vfpfcnvrt@fmt:
   384                           	callstack 0
   385                           
   386                           ; 2 bytes @ 0x2
   387  0000B6                     	ds	2
   388  0000B8                     vfpfcnvrt@ap:
   389                           	callstack 0
   390                           
   391                           ; 2 bytes @ 0x4
   392  0000B8                     	ds	2
   393  0000BA                     ?_vfprintf:
   394                           	callstack 0
   395  0000BA                     vfprintf@fp:
   396                           	callstack 0
   397                           
   398                           ; 2 bytes @ 0x6
   399  0000BA                     	ds	2
   400  0000BC                     vfprintf@fmt:
   401                           	callstack 0
   402                           
   403                           ; 2 bytes @ 0x8
   404  0000BC                     	ds	2
   405  0000BE                     vfprintf@ap:
   406                           	callstack 0
   407                           
   408                           ; 2 bytes @ 0xA
   409  0000BE                     	ds	2
   410  0000C0                     printf@ap:
   411                           	callstack 0
   412                           
   413                           ; 2 bytes @ 0xC
   414  0000C0                     	ds	2
   415  0000C2                     ??_main:
   416                           
   417                           ; 1 bytes @ 0xE
   418  0000C2                     	ds	2
   419  0000C4                     main@i_2229:
   420                           	callstack 0
   421                           
   422                           ; 1 bytes @ 0x10
   423  0000C4                     	ds	1
   424  0000C5                     main@i_2230:
   425                           	callstack 0
   426                           
   427                           ; 1 bytes @ 0x11
   428  0000C5                     	ds	1
   429  0000C6                     main@i_2231:
   430                           	callstack 0
   431                           
   432                           ; 1 bytes @ 0x12
   433  0000C6                     	ds	1
   434  0000C7                     main@i:
   435                           	callstack 0
   436                           
   437                           ; 1 bytes @ 0x13
   438  0000C7                     	ds	1
   439  0000C8                     main@i_2227:
   440                           	callstack 0
   441                           
   442                           ; 1 bytes @ 0x14
   443  0000C8                     	ds	1
   444  0000C9                     main@i_2228:
   445                           	callstack 0
   446                           
   447                           ; 1 bytes @ 0x15
   448  0000C9                     	ds	1
   449  0000CA                     main@j:
   450                           	callstack 0
   451                           
   452                           ; 1 bytes @ 0x16
   453  0000CA                     	ds	1
   454                           
   455                           	psect	cstackCOMRAM
   456  000001                     __pcstackCOMRAM:
   457                           	callstack 0
   458  000001                     I2C1_MasterSendTxData@data:
   459                           	callstack 0
   460  000001                     i2I2C1_SetBuffer@buffer:
   461                           	callstack 0
   462  000001                     i2I2C1_SetCallback@cb:
   463                           	callstack 0
   464                           
   465                           ; 2 bytes @ 0x0
   466  000001                     	ds	1
   467  000002                     
   468                           ; 1 bytes @ 0x1
   469  000002                     	ds	1
   470  000003                     i2I2C1_SetBuffer@bufferSize:
   471                           	callstack 0
   472  000003                     i2I2C1_SetCallback@ptr:
   473                           	callstack 0
   474                           
   475                           ; 2 bytes @ 0x2
   476  000003                     	ds	2
   477  000005                     i2I2C1_SetCallback@idx:
   478                           	callstack 0
   479                           
   480                           ; 1 bytes @ 0x4
   481  000005                     	ds	1
   482  000006                     i2I2C1_SetDataCompleteCallback@cb:
   483                           	callstack 0
   484                           
   485                           ; 2 bytes @ 0x5
   486  000006                     	ds	2
   487  000008                     i2I2C1_SetDataCompleteCallback@ptr:
   488                           	callstack 0
   489                           
   490                           ; 2 bytes @ 0x7
   491  000008                     	ds	2
   492  00000A                     rd1RegCompleteHandler@ptr:
   493                           	callstack 0
   494  00000A                     rd2RegCompleteHandler@ptr:
   495                           	callstack 0
   496  00000A                     wr1RegCompleteHandler@ptr:
   497                           	callstack 0
   498  00000A                     wr2RegCompleteHandler@ptr:
   499                           	callstack 0
   500  00000A                     rdBlkRegCompleteHandler@ptr:
   501                           	callstack 0
   502  00000A                     I2C1_CallbackReturnReset@funPtr:
   503                           	callstack 0
   504                           
   505                           ; 2 bytes @ 0x9
   506  00000A                     	ds	2
   507  00000C                     ??_I2C1_DO_TX:
   508  00000C                     ??_I2C1_DO_RX:
   509  00000C                     ??_I2C1_DO_TX_EMPTY:
   510  00000C                     ??_I2C1_DO_ADDRESS_NACK:
   511  00000C                     
   512                           ; 1 bytes @ 0xB
   513  00000C                     	ds	2
   514  00000E                     ??_INTERRUPT_InterruptManager:
   515                           
   516                           ; 1 bytes @ 0xD
   517  00000E                     	ds	10
   518  000018                     ??_TMR1_Initialize:
   519  000018                     EUSART2_Write@txData:
   520                           	callstack 0
   521  000018                     I2C1_Close@returnValue:
   522                           	callstack 0
   523  000018                     I2C1_MasterOperation@read:
   524                           	callstack 0
   525  000018                     EUSART2_SetFramingErrorHandler@interruptHandler:
   526                           	callstack 0
   527  000018                     EUSART2_SetOverrunErrorHandler@interruptHandler:
   528                           	callstack 0
   529  000018                     EUSART2_SetErrorHandler@interruptHandler:
   530                           	callstack 0
   531  000018                     EUSART2_SetTxInterruptHandler@interruptHandler:
   532                           	callstack 0
   533  000018                     EUSART2_SetRxInterruptHandler@interruptHandler:
   534                           	callstack 0
   535  000018                     I2C1_SetBuffer@buffer:
   536                           	callstack 0
   537  000018                     I2C1_SetInterruptHandler@InterruptHandler:
   538                           	callstack 0
   539  000018                     I2C1_SetCallback@cb:
   540                           	callstack 0
   541                           
   542                           ; 2 bytes @ 0x17
   543  000018                     	ds	1
   544  000019                     putch@txData:
   545                           	callstack 0
   546  000019                     I2C1_MasterOperation@returnValue:
   547                           	callstack 0
   548                           
   549                           ; 1 bytes @ 0x18
   550  000019                     	ds	1
   551  00001A                     I2C1_Open@address:
   552                           	callstack 0
   553  00001A                     I2C1_SetBuffer@bufferSize:
   554                           	callstack 0
   555  00001A                     I2C1_SetCallback@ptr:
   556                           	callstack 0
   557  00001A                     fputc@c:
   558                           	callstack 0
   559                           
   560                           ; 2 bytes @ 0x19
   561  00001A                     	ds	1
   562  00001B                     I2C1_Open@returnValue:
   563                           	callstack 0
   564                           
   565                           ; 1 bytes @ 0x1A
   566  00001B                     	ds	1
   567  00001C                     I2C1_SetCallback@idx:
   568                           	callstack 0
   569  00001C                     fputc@fp:
   570                           	callstack 0
   571                           
   572                           ; 2 bytes @ 0x1B
   573  00001C                     	ds	1
   574  00001D                     I2C1_SetDataCompleteCallback@cb:
   575                           	callstack 0
   576  00001D                     I2C1_SetAddressNackCallback@cb:
   577                           	callstack 0
   578                           
   579                           ; 2 bytes @ 0x1C
   580  00001D                     	ds	1
   581  00001E                     ??_fputc:
   582                           
   583                           ; 1 bytes @ 0x1D
   584  00001E                     	ds	1
   585  00001F                     I2C1_SetDataCompleteCallback@ptr:
   586                           	callstack 0
   587  00001F                     I2C1_SetAddressNackCallback@ptr:
   588                           	callstack 0
   589                           
   590                           ; 2 bytes @ 0x1E
   591  00001F                     	ds	2
   592  000021                     I2C1_Write1ByteRegister@reg:
   593                           	callstack 0
   594                           
   595                           ; 1 bytes @ 0x20
   596  000021                     	ds	1
   597  000022                     I2C1_Write1ByteRegister@data:
   598                           	callstack 0
   599                           
   600                           ; 1 bytes @ 0x21
   601  000022                     	ds	1
   602  000023                     I2C1_Write1ByteRegister@address:
   603                           	callstack 0
   604  000023                     vfprintf@cfmt:
   605                           	callstack 0
   606                           
   607                           ; 2 bytes @ 0x22
   608  000023                     	ds	2
   609  000025                     ?_printf:
   610                           	callstack 0
   611  000025                     printf@fmt:
   612                           	callstack 0
   613                           
   614                           ; 2 bytes @ 0x24
   615  000025                     	ds	2
   616  000027                     
   617                           ; 1 bytes @ 0x26
   618 ;;
   619 ;;Main: autosize = 0, tempsize = 2, incstack = 0, save=0
   620 ;;
   621 ;; *************** function _main *****************
   622 ;; Defined at:
   623 ;;		line 77 in file "main.c"
   624 ;; Parameters:    Size  Location     Type
   625 ;;		None
   626 ;; Auto vars:     Size  Location     Type
   627 ;;  i               1   21[BANK0 ] unsigned char 
   628 ;;  i               1   20[BANK0 ] unsigned char 
   629 ;;  i               1   19[BANK0 ] unsigned char 
   630 ;;  i               1   18[BANK0 ] unsigned char 
   631 ;;  i               1   17[BANK0 ] unsigned char 
   632 ;;  i               1   16[BANK0 ] unsigned char 
   633 ;;  j               1   22[BANK0 ] unsigned char 
   634 ;; Return value:  Size  Location     Type
   635 ;;                  1    wreg      void 
   636 ;; Registers used:
   637 ;;		wreg, fsr1l, fsr1h, fsr2l, fsr2h, status,2, status,0, tblptrl, tblptrh, tblptru, prodl, prodh, cstack
   638 ;; Tracked objects:
   639 ;;		On entry : 0/0
   640 ;;		On exit  : 0/0
   641 ;;		Unchanged: 0/0
   642 ;; Data sizes:     COMRAM   BANK0   BANK1   BANK2   BANK3   BANK4   BANK5   BANK6   BANK7   BANK8   BANK9  BANK10  BANK1
      +1  BANK12  BANK13  BANK14
   643 ;;      Params:         0       0       0       0       0       0       0       0       0       0       0       0       
      +0       0       0       0
   644 ;;      Locals:         0       7       0       0       0       0       0       0       0       0       0       0       
      +0       0       0       0
   645 ;;      Temps:          0       2       0       0       0       0       0       0       0       0       0       0       
      +0       0       0       0
   646 ;;      Totals:         0       9       0       0       0       0       0       0       0       0       0       0       
      +0       0       0       0
   647 ;;Total ram usage:        9 bytes
   648 ;; Hardware stack levels required when called: 13
   649 ;; This function calls:
   650 ;;		_I2C1_Write1ByteRegister
   651 ;;		_SYSTEM_Initialize
   652 ;;		_printf
   653 ;; This function is called by:
   654 ;;		Startup code after reset
   655 ;; This function uses a non-reentrant model
   656 ;;
   657                           
   658                           	psect	text0
   659  000F2C                     __ptext0:
   660                           	callstack 0
   661  000F2C                     _main:
   662                           	callstack 18
   663  000F2C                     
   664                           ;main.c: 80:     SYSTEM_Initialize();
   665  000F2C  ECE7  F00E         	call	_SYSTEM_Initialize	;wreg free
   666  000F30                     
   667                           ;main.c: 87:     (INTCONbits.GIE = 1);
   668  000F30  8EF2               	bsf	242,7,c	;volatile
   669  000F32                     
   670                           ;main.c: 93:     (INTCONbits.PEIE = 1);
   671  000F32  8CF2               	bsf	242,6,c	;volatile
   672  000F34  8E89               	bsf	137,7,c	;volatile
   673  000F36  8C89               	bsf	137,6,c	;volatile
   674  000F38  908B               	bcf	139,0,c	;volatile
   675  000F3A                     l4196:
   676  000F3A  9C89               	bcf	137,6,c	;volatile
   677  000F3C                     
   678                           ;main.c: 107:         _delay((unsigned long)((100)*(48000000/4000.0)));
   679  000F3C  0E07               	movlw	7
   680  000F3E  0100               	movlb	0	; () banked
   681  000F40  6FC3               	movwf	(??_main+1)& (0+255),b
   682  000F42  0E17               	movlw	23
   683  000F44  6FC2               	movwf	??_main& (0+255),b
   684  000F46  0E6A               	movlw	106
   685  000F48                     u2027:
   686  000F48  2EE8               	decfsz	wreg,f,c
   687  000F4A  D7FE               	bra	u2027
   688  000F4C  2FC2               	decfsz	??_main& (0+255),f,b
   689  000F4E  D7FC               	bra	u2027
   690  000F50  2FC3               	decfsz	(??_main+1)& (0+255),f,b
   691  000F52  D7FA               	bra	u2027
   692  000F54  F000               	nop	
   693  000F56  8C89               	bsf	137,6,c	;volatile
   694  000F58                     
   695                           ;main.c: 109:         _delay((unsigned long)((100)*(48000000/4000.0)));
   696  000F58  0E07               	movlw	7
   697  000F5A  0100               	movlb	0	; () banked
   698  000F5C  6FC3               	movwf	(??_main+1)& (0+255),b
   699  000F5E  0E17               	movlw	23
   700  000F60  6FC2               	movwf	??_main& (0+255),b
   701  000F62  0E6A               	movlw	106
   702  000F64                     u2037:
   703  000F64  2EE8               	decfsz	wreg,f,c
   704  000F66  D7FE               	bra	u2037
   705  000F68  2FC2               	decfsz	??_main& (0+255),f,b
   706  000F6A  D7FC               	bra	u2037
   707  000F6C  2FC3               	decfsz	(??_main+1)& (0+255),f,b
   708  000F6E  D7FA               	bra	u2037
   709  000F70  F000               	nop	
   710  000F72                     
   711                           ;main.c: 110:         printf("Testing\r\n");
   712  000F72  0E21               	movlw	low STR_1
   713  000F74  6E25               	movwf	printf@fmt^0,c
   714  000F76  0E0F               	movlw	high STR_1
   715  000F78  6E26               	movwf	(printf@fmt+1)^0,c
   716  000F7A  EC9C  F00E         	call	_printf	;wreg free
   717  000F7E                     
   718                           ;main.c: 114:         I2C1_Write1ByteRegister(0x66, 0x03, 0xFF);
   719  000F7E  0E03               	movlw	3
   720  000F80  6E21               	movwf	I2C1_Write1ByteRegister@reg^0,c
   721  000F82  0EFF               	movlw	255
   722  000F84  6E22               	movwf	I2C1_Write1ByteRegister@data^0,c
   723  000F86  0E66               	movlw	102
   724  000F88  EC8C  F00C         	call	_I2C1_Write1ByteRegister
   725  000F8C                     
   726                           ;main.c: 115:         I2C1_Write1ByteRegister(0x66, 0x02, 0x19);
   727  000F8C  0E02               	movlw	2
   728  000F8E  6E21               	movwf	I2C1_Write1ByteRegister@reg^0,c
   729  000F90  0E19               	movlw	25
   730  000F92  6E22               	movwf	I2C1_Write1ByteRegister@data^0,c
   731  000F94  0E66               	movlw	102
   732  000F96  EC8C  F00C         	call	_I2C1_Write1ByteRegister
   733  000F9A                     
   734                           ;main.c: 118:         for(uint8_t j = 0; j < 3; j++){
   735  000F9A  0E00               	movlw	0
   736  000F9C  0100               	movlb	0	; () banked
   737  000F9E  6FCA               	movwf	main@j& (0+255),b
   738  000FA0                     l4216:
   739                           
   740                           ; BSR set to: 0
   741                           ;main.c: 119:             if(j == 0){
   742  000FA0  51CA               	movf	main@j& (0+255),w,b
   743  000FA2  A4D8               	btfss	status,2,c
   744  000FA4  EFD6  F007         	goto	u1931
   745  000FA8  EFD8  F007         	goto	u1930
   746  000FAC                     u1931:
   747  000FAC  EF09  F008         	goto	l4236
   748  000FB0                     u1930:
   749  000FB0                     
   750                           ; BSR set to: 0
   751                           ;main.c: 120:                 I2C1_Write1ByteRegister(0x66, 0x03, 0x03);
   752  000FB0  0E03               	movlw	3
   753  000FB2  6E21               	movwf	I2C1_Write1ByteRegister@reg^0,c
   754  000FB4  0E03               	movlw	3
   755  000FB6  6E22               	movwf	I2C1_Write1ByteRegister@data^0,c
   756  000FB8  0E66               	movlw	102
   757  000FBA  EC8C  F00C         	call	_I2C1_Write1ByteRegister
   758  000FBE                     
   759                           ;main.c: 121:                 for(uint8_t i = 0x00; i < 0x0D; i++){
   760  000FBE  0E00               	movlw	0
   761  000FC0  0100               	movlb	0	; () banked
   762  000FC2  6FC7               	movwf	main@i& (0+255),b
   763  000FC4                     l4226:
   764                           
   765                           ; BSR set to: 0
   766                           ;main.c: 122:                     I2C1_Write1ByteRegister(0x66, 0x00, (uint8_t) i);
   767  000FC4  0E00               	movlw	0
   768  000FC6  6E21               	movwf	I2C1_Write1ByteRegister@reg^0,c
   769  000FC8  C0C7  F022         	movff	main@i,I2C1_Write1ByteRegister@data
   770  000FCC  0E66               	movlw	102
   771  000FCE  EC8C  F00C         	call	_I2C1_Write1ByteRegister
   772  000FD2                     
   773                           ;main.c: 123:                     _delay((unsigned long)((250)*(48000000/4000.0)));
   774  000FD2  0E10               	movlw	16
   775  000FD4  0100               	movlb	0	; () banked
   776  000FD6  6FC3               	movwf	(??_main+1)& (0+255),b
   777  000FD8  0E39               	movlw	57
   778  000FDA  6FC2               	movwf	??_main& (0+255),b
   779  000FDC  0E0D               	movlw	13
   780  000FDE                     u2047:
   781  000FDE  2EE8               	decfsz	wreg,f,c
   782  000FE0  D7FE               	bra	u2047
   783  000FE2  2FC2               	decfsz	??_main& (0+255),f,b
   784  000FE4  D7FC               	bra	u2047
   785  000FE6  2FC3               	decfsz	(??_main+1)& (0+255),f,b
   786  000FE8  D7FA               	bra	u2047
   787  000FEA  D000               	nop2	
   788  000FEC                     
   789                           ;main.c: 124:                 }
   790  000FEC  0100               	movlb	0	; () banked
   791  000FEE  2BC7               	incf	main@i& (0+255),f,b
   792  000FF0                     
   793                           ; BSR set to: 0
   794  000FF0  0E0C               	movlw	12
   795  000FF2  65C7               	cpfsgt	main@i& (0+255),b
   796  000FF4  EFFE  F007         	goto	u1941
   797  000FF8  EF00  F008         	goto	u1940
   798  000FFC                     u1941:
   799  000FFC  EFE2  F007         	goto	l4226
   800  001000                     u1940:
   801  001000                     
   802                           ; BSR set to: 0
   803                           ;main.c: 125:                 I2C1_Write1ByteRegister(0x66, 0x03, 0x00);
   804  001000  0E03               	movlw	3
   805  001002  6E21               	movwf	I2C1_Write1ByteRegister@reg^0,c
   806  001004  0E00               	movlw	0
   807  001006  6E22               	movwf	I2C1_Write1ByteRegister@data^0,c
   808  001008  0E66               	movlw	102
   809  00100A  EC8C  F00C         	call	_I2C1_Write1ByteRegister
   810                           
   811                           ;main.c: 126:             } else if(j == 1){
   812  00100E  EF71  F008         	goto	l4274
   813  001012                     l4236:
   814                           
   815                           ; BSR set to: 0
   816  001012  05CA               	decf	main@j& (0+255),w,b
   817  001014  A4D8               	btfss	status,2,c
   818  001016  EF0F  F008         	goto	u1951
   819  00101A  EF11  F008         	goto	u1950
   820  00101E                     u1951:
   821  00101E  EF42  F008         	goto	l4256
   822  001022                     u1950:
   823  001022                     
   824                           ; BSR set to: 0
   825                           ;main.c: 127:                 I2C1_Write1ByteRegister(0x66, 0x03, 0x0C);
   826  001022  0E03               	movlw	3
   827  001024  6E21               	movwf	I2C1_Write1ByteRegister@reg^0,c
   828  001026  0E0C               	movlw	12
   829  001028  6E22               	movwf	I2C1_Write1ByteRegister@data^0,c
   830  00102A  0E66               	movlw	102
   831  00102C  EC8C  F00C         	call	_I2C1_Write1ByteRegister
   832  001030                     
   833                           ;main.c: 128:                 for(uint8_t i = 0x00; i < 0x0D; i++){
   834  001030  0E00               	movlw	0
   835  001032  0100               	movlb	0	; () banked
   836  001034  6FC8               	movwf	main@i_2227& (0+255),b
   837  001036                     l4246:
   838                           
   839                           ; BSR set to: 0
   840                           ;main.c: 129:                     I2C1_Write1ByteRegister(0x66, 0x01, (uint8_t) i);
   841  001036  0E01               	movlw	1
   842  001038  6E21               	movwf	I2C1_Write1ByteRegister@reg^0,c
   843  00103A  C0C8  F022         	movff	main@i_2227,I2C1_Write1ByteRegister@data
   844  00103E  0E66               	movlw	102
   845  001040  EC8C  F00C         	call	_I2C1_Write1ByteRegister
   846  001044                     
   847                           ;main.c: 130:                     _delay((unsigned long)((250)*(48000000/4000.0)));
   848  001044  0E10               	movlw	16
   849  001046  0100               	movlb	0	; () banked
   850  001048  6FC3               	movwf	(??_main+1)& (0+255),b
   851  00104A  0E39               	movlw	57
   852  00104C  6FC2               	movwf	??_main& (0+255),b
   853  00104E  0E0D               	movlw	13
   854  001050                     u2057:
   855  001050  2EE8               	decfsz	wreg,f,c
   856  001052  D7FE               	bra	u2057
   857  001054  2FC2               	decfsz	??_main& (0+255),f,b
   858  001056  D7FC               	bra	u2057
   859  001058  2FC3               	decfsz	(??_main+1)& (0+255),f,b
   860  00105A  D7FA               	bra	u2057
   861  00105C  D000               	nop2	
   862  00105E                     
   863                           ;main.c: 131:                 }
   864  00105E  0100               	movlb	0	; () banked
   865  001060  2BC8               	incf	main@i_2227& (0+255),f,b
   866  001062                     
   867                           ; BSR set to: 0
   868  001062  0E0C               	movlw	12
   869  001064  65C8               	cpfsgt	main@i_2227& (0+255),b
   870  001066  EF37  F008         	goto	u1961
   871  00106A  EF39  F008         	goto	u1960
   872  00106E                     u1961:
   873  00106E  EF1B  F008         	goto	l4246
   874  001072                     u1960:
   875  001072                     
   876                           ; BSR set to: 0
   877                           ;main.c: 132:                 I2C1_Write1ByteRegister(0x66, 0x03, 0x00);
   878  001072  0E03               	movlw	3
   879  001074  6E21               	movwf	I2C1_Write1ByteRegister@reg^0,c
   880  001076  0E00               	movlw	0
   881  001078  6E22               	movwf	I2C1_Write1ByteRegister@data^0,c
   882  00107A  0E66               	movlw	102
   883  00107C  EC8C  F00C         	call	_I2C1_Write1ByteRegister
   884                           
   885                           ;main.c: 133:             } else {
   886  001080  EF71  F008         	goto	l4274
   887  001084                     l4256:
   888                           
   889                           ; BSR set to: 0
   890                           ;main.c: 134:                 I2C1_Write1ByteRegister(0x66, 0x03, 0x30);
   891  001084  0E03               	movlw	3
   892  001086  6E21               	movwf	I2C1_Write1ByteRegister@reg^0,c
   893  001088  0E30               	movlw	48
   894  00108A  6E22               	movwf	I2C1_Write1ByteRegister@data^0,c
   895  00108C  0E66               	movlw	102
   896  00108E  EC8C  F00C         	call	_I2C1_Write1ByteRegister
   897  001092                     
   898                           ;main.c: 135:                 for(uint8_t i = 0x00; i < 0x0D; i++){
   899  001092  0E00               	movlw	0
   900  001094  0100               	movlb	0	; () banked
   901  001096  6FC9               	movwf	main@i_2228& (0+255),b
   902  001098                     l4264:
   903                           
   904                           ; BSR set to: 0
   905                           ;main.c: 136:                     I2C1_Write1ByteRegister(0x66, 0x02, (uint8_t) i);
   906  001098  0E02               	movlw	2
   907  00109A  6E21               	movwf	I2C1_Write1ByteRegister@reg^0,c
   908  00109C  C0C9  F022         	movff	main@i_2228,I2C1_Write1ByteRegister@data
   909  0010A0  0E66               	movlw	102
   910  0010A2  EC8C  F00C         	call	_I2C1_Write1ByteRegister
   911  0010A6                     
   912                           ;main.c: 137:                     _delay((unsigned long)((250)*(48000000/4000.0)));
   913  0010A6  0E10               	movlw	16
   914  0010A8  0100               	movlb	0	; () banked
   915  0010AA  6FC3               	movwf	(??_main+1)& (0+255),b
   916  0010AC  0E39               	movlw	57
   917  0010AE  6FC2               	movwf	??_main& (0+255),b
   918  0010B0  0E0D               	movlw	13
   919  0010B2                     u2067:
   920  0010B2  2EE8               	decfsz	wreg,f,c
   921  0010B4  D7FE               	bra	u2067
   922  0010B6  2FC2               	decfsz	??_main& (0+255),f,b
   923  0010B8  D7FC               	bra	u2067
   924  0010BA  2FC3               	decfsz	(??_main+1)& (0+255),f,b
   925  0010BC  D7FA               	bra	u2067
   926  0010BE  D000               	nop2	
   927  0010C0                     
   928                           ;main.c: 138:                 }
   929  0010C0  0100               	movlb	0	; () banked
   930  0010C2  2BC9               	incf	main@i_2228& (0+255),f,b
   931  0010C4                     
   932                           ; BSR set to: 0
   933  0010C4  0E0C               	movlw	12
   934  0010C6  65C9               	cpfsgt	main@i_2228& (0+255),b
   935  0010C8  EF68  F008         	goto	u1971
   936  0010CC  EF6A  F008         	goto	u1970
   937  0010D0                     u1971:
   938  0010D0  EF4C  F008         	goto	l4264
   939  0010D4                     u1970:
   940  0010D4                     
   941                           ; BSR set to: 0
   942                           ;main.c: 139:                 I2C1_Write1ByteRegister(0x66, 0x03, 0x00);
   943  0010D4  0E03               	movlw	3
   944  0010D6  6E21               	movwf	I2C1_Write1ByteRegister@reg^0,c
   945  0010D8  0E00               	movlw	0
   946  0010DA  6E22               	movwf	I2C1_Write1ByteRegister@data^0,c
   947  0010DC  0E66               	movlw	102
   948  0010DE  EC8C  F00C         	call	_I2C1_Write1ByteRegister
   949  0010E2                     l4274:
   950                           
   951                           ;main.c: 141:         }
   952  0010E2  0100               	movlb	0	; () banked
   953  0010E4  2BCA               	incf	main@j& (0+255),f,b
   954  0010E6                     
   955                           ; BSR set to: 0
   956  0010E6  0E02               	movlw	2
   957  0010E8  65CA               	cpfsgt	main@j& (0+255),b
   958  0010EA  EF79  F008         	goto	u1981
   959  0010EE  EF7B  F008         	goto	u1980
   960  0010F2                     u1981:
   961  0010F2  EFD0  F007         	goto	l4216
   962  0010F6                     u1980:
   963  0010F6                     
   964                           ; BSR set to: 0
   965                           ;main.c: 143:         I2C1_Write1ByteRegister(0x66, 0x00, 0x00);
   966  0010F6  0E00               	movlw	0
   967  0010F8  6E21               	movwf	I2C1_Write1ByteRegister@reg^0,c
   968  0010FA  0E00               	movlw	0
   969  0010FC  6E22               	movwf	I2C1_Write1ByteRegister@data^0,c
   970  0010FE  0E66               	movlw	102
   971  001100  EC8C  F00C         	call	_I2C1_Write1ByteRegister
   972                           
   973                           ;main.c: 144:         I2C1_Write1ByteRegister(0x66, 0x01, 0x00);
   974  001104  0E01               	movlw	1
   975  001106  6E21               	movwf	I2C1_Write1ByteRegister@reg^0,c
   976  001108  0E00               	movlw	0
   977  00110A  6E22               	movwf	I2C1_Write1ByteRegister@data^0,c
   978  00110C  0E66               	movlw	102
   979  00110E  EC8C  F00C         	call	_I2C1_Write1ByteRegister
   980                           
   981                           ;main.c: 145:         I2C1_Write1ByteRegister(0x66, 0x02, 0x00);
   982  001112  0E02               	movlw	2
   983  001114  6E21               	movwf	I2C1_Write1ByteRegister@reg^0,c
   984  001116  0E00               	movlw	0
   985  001118  6E22               	movwf	I2C1_Write1ByteRegister@data^0,c
   986  00111A  0E66               	movlw	102
   987  00111C  EC8C  F00C         	call	_I2C1_Write1ByteRegister
   988  001120                     
   989                           ;main.c: 147:         for(uint8_t i = 0; i < 10; i++){
   990  001120  0E00               	movlw	0
   991  001122  0100               	movlb	0	; () banked
   992  001124  6FC4               	movwf	main@i_2229& (0+255),b
   993  001126                     l4286:
   994                           
   995                           ; BSR set to: 0
   996                           ;main.c: 148:             I2C1_Write1ByteRegister(0x66, 0x00, 0x0D);
   997  001126  0E00               	movlw	0
   998  001128  6E21               	movwf	I2C1_Write1ByteRegister@reg^0,c
   999  00112A  0E0D               	movlw	13
  1000  00112C  6E22               	movwf	I2C1_Write1ByteRegister@data^0,c
  1001  00112E  0E66               	movlw	102
  1002  001130  EC8C  F00C         	call	_I2C1_Write1ByteRegister
  1003                           
  1004                           ;main.c: 149:             I2C1_Write1ByteRegister(0x66, 0x03, 0x03);
  1005  001134  0E03               	movlw	3
  1006  001136  6E21               	movwf	I2C1_Write1ByteRegister@reg^0,c
  1007  001138  0E03               	movlw	3
  1008  00113A  6E22               	movwf	I2C1_Write1ByteRegister@data^0,c
  1009  00113C  0E66               	movlw	102
  1010  00113E  EC8C  F00C         	call	_I2C1_Write1ByteRegister
  1011  001142                     
  1012                           ;main.c: 150:             _delay((unsigned long)((250)*(48000000/4000.0)));
  1013  001142  0E10               	movlw	16
  1014  001144  0100               	movlb	0	; () banked
  1015  001146  6FC3               	movwf	(??_main+1)& (0+255),b
  1016  001148  0E39               	movlw	57
  1017  00114A  6FC2               	movwf	??_main& (0+255),b
  1018  00114C  0E0D               	movlw	13
  1019  00114E                     u2077:
  1020  00114E  2EE8               	decfsz	wreg,f,c
  1021  001150  D7FE               	bra	u2077
  1022  001152  2FC2               	decfsz	??_main& (0+255),f,b
  1023  001154  D7FC               	bra	u2077
  1024  001156  2FC3               	decfsz	(??_main+1)& (0+255),f,b
  1025  001158  D7FA               	bra	u2077
  1026  00115A  D000               	nop2	
  1027  00115C                     
  1028                           ;main.c: 151:             I2C1_Write1ByteRegister(0x66, 0x00, 0x00);
  1029  00115C  0E00               	movlw	0
  1030  00115E  6E21               	movwf	I2C1_Write1ByteRegister@reg^0,c
  1031  001160  0E00               	movlw	0
  1032  001162  6E22               	movwf	I2C1_Write1ByteRegister@data^0,c
  1033  001164  0E66               	movlw	102
  1034  001166  EC8C  F00C         	call	_I2C1_Write1ByteRegister
  1035  00116A                     
  1036                           ;main.c: 152:             I2C1_Write1ByteRegister(0x66, 0x03, 0x00);
  1037  00116A  0E03               	movlw	3
  1038  00116C  6E21               	movwf	I2C1_Write1ByteRegister@reg^0,c
  1039  00116E  0E00               	movlw	0
  1040  001170  6E22               	movwf	I2C1_Write1ByteRegister@data^0,c
  1041  001172  0E66               	movlw	102
  1042  001174  EC8C  F00C         	call	_I2C1_Write1ByteRegister
  1043  001178                     
  1044                           ;main.c: 153:             _delay((unsigned long)((250)*(48000000/4000.0)));
  1045  001178  0E10               	movlw	16
  1046  00117A  0100               	movlb	0	; () banked
  1047  00117C  6FC3               	movwf	(??_main+1)& (0+255),b
  1048  00117E  0E39               	movlw	57
  1049  001180  6FC2               	movwf	??_main& (0+255),b
  1050  001182  0E0D               	movlw	13
  1051  001184                     u2087:
  1052  001184  2EE8               	decfsz	wreg,f,c
  1053  001186  D7FE               	bra	u2087
  1054  001188  2FC2               	decfsz	??_main& (0+255),f,b
  1055  00118A  D7FC               	bra	u2087
  1056  00118C  2FC3               	decfsz	(??_main+1)& (0+255),f,b
  1057  00118E  D7FA               	bra	u2087
  1058  001190  D000               	nop2	
  1059  001192                     
  1060                           ;main.c: 154:         }
  1061  001192  0100               	movlb	0	; () banked
  1062  001194  2BC4               	incf	main@i_2229& (0+255),f,b
  1063  001196                     
  1064                           ; BSR set to: 0
  1065  001196  0E09               	movlw	9
  1066  001198  65C4               	cpfsgt	main@i_2229& (0+255),b
  1067  00119A  EFD1  F008         	goto	u1991
  1068  00119E  EFD3  F008         	goto	u1990
  1069  0011A2                     u1991:
  1070  0011A2  EF93  F008         	goto	l4286
  1071  0011A6                     u1990:
  1072  0011A6                     
  1073                           ; BSR set to: 0
  1074                           ;main.c: 156:         for(uint8_t i = 0; i < 10; i++){
  1075  0011A6  0E00               	movlw	0
  1076  0011A8  6FC5               	movwf	main@i_2230& (0+255),b
  1077  0011AA                     l4306:
  1078                           
  1079                           ; BSR set to: 0
  1080                           ;main.c: 157:             I2C1_Write1ByteRegister(0x66, 0x01, 0x0D);
  1081  0011AA  0E01               	movlw	1
  1082  0011AC  6E21               	movwf	I2C1_Write1ByteRegister@reg^0,c
  1083  0011AE  0E0D               	movlw	13
  1084  0011B0  6E22               	movwf	I2C1_Write1ByteRegister@data^0,c
  1085  0011B2  0E66               	movlw	102
  1086  0011B4  EC8C  F00C         	call	_I2C1_Write1ByteRegister
  1087                           
  1088                           ;main.c: 158:             I2C1_Write1ByteRegister(0x66, 0x03, 0x0C);
  1089  0011B8  0E03               	movlw	3
  1090  0011BA  6E21               	movwf	I2C1_Write1ByteRegister@reg^0,c
  1091  0011BC  0E0C               	movlw	12
  1092  0011BE  6E22               	movwf	I2C1_Write1ByteRegister@data^0,c
  1093  0011C0  0E66               	movlw	102
  1094  0011C2  EC8C  F00C         	call	_I2C1_Write1ByteRegister
  1095  0011C6                     
  1096                           ;main.c: 159:             _delay((unsigned long)((250)*(48000000/4000.0)));
  1097  0011C6  0E10               	movlw	16
  1098  0011C8  0100               	movlb	0	; () banked
  1099  0011CA  6FC3               	movwf	(??_main+1)& (0+255),b
  1100  0011CC  0E39               	movlw	57
  1101  0011CE  6FC2               	movwf	??_main& (0+255),b
  1102  0011D0  0E0D               	movlw	13
  1103  0011D2                     u2097:
  1104  0011D2  2EE8               	decfsz	wreg,f,c
  1105  0011D4  D7FE               	bra	u2097
  1106  0011D6  2FC2               	decfsz	??_main& (0+255),f,b
  1107  0011D8  D7FC               	bra	u2097
  1108  0011DA  2FC3               	decfsz	(??_main+1)& (0+255),f,b
  1109  0011DC  D7FA               	bra	u2097
  1110  0011DE  D000               	nop2	
  1111  0011E0                     
  1112                           ;main.c: 160:             I2C1_Write1ByteRegister(0x66, 0x01, 0x00);
  1113  0011E0  0E01               	movlw	1
  1114  0011E2  6E21               	movwf	I2C1_Write1ByteRegister@reg^0,c
  1115  0011E4  0E00               	movlw	0
  1116  0011E6  6E22               	movwf	I2C1_Write1ByteRegister@data^0,c
  1117  0011E8  0E66               	movlw	102
  1118  0011EA  EC8C  F00C         	call	_I2C1_Write1ByteRegister
  1119  0011EE                     
  1120                           ;main.c: 161:             I2C1_Write1ByteRegister(0x66, 0x03, 0x00);
  1121  0011EE  0E03               	movlw	3
  1122  0011F0  6E21               	movwf	I2C1_Write1ByteRegister@reg^0,c
  1123  0011F2  0E00               	movlw	0
  1124  0011F4  6E22               	movwf	I2C1_Write1ByteRegister@data^0,c
  1125  0011F6  0E66               	movlw	102
  1126  0011F8  EC8C  F00C         	call	_I2C1_Write1ByteRegister
  1127  0011FC                     
  1128                           ;main.c: 162:             _delay((unsigned long)((250)*(48000000/4000.0)));
  1129  0011FC  0E10               	movlw	16
  1130  0011FE  0100               	movlb	0	; () banked
  1131  001200  6FC3               	movwf	(??_main+1)& (0+255),b
  1132  001202  0E39               	movlw	57
  1133  001204  6FC2               	movwf	??_main& (0+255),b
  1134  001206  0E0D               	movlw	13
  1135  001208                     u2107:
  1136  001208  2EE8               	decfsz	wreg,f,c
  1137  00120A  D7FE               	bra	u2107
  1138  00120C  2FC2               	decfsz	??_main& (0+255),f,b
  1139  00120E  D7FC               	bra	u2107
  1140  001210  2FC3               	decfsz	(??_main+1)& (0+255),f,b
  1141  001212  D7FA               	bra	u2107
  1142  001214  D000               	nop2	
  1143  001216                     
  1144                           ;main.c: 163:         }
  1145  001216  0100               	movlb	0	; () banked
  1146  001218  2BC5               	incf	main@i_2230& (0+255),f,b
  1147  00121A                     
  1148                           ; BSR set to: 0
  1149  00121A  0E09               	movlw	9
  1150  00121C  65C5               	cpfsgt	main@i_2230& (0+255),b
  1151  00121E  EF13  F009         	goto	u2001
  1152  001222  EF15  F009         	goto	u2000
  1153  001226                     u2001:
  1154  001226  EFD5  F008         	goto	l4306
  1155  00122A                     u2000:
  1156  00122A                     
  1157                           ; BSR set to: 0
  1158                           ;main.c: 165:         for(uint8_t i = 0; i < 10; i++){
  1159  00122A  0E00               	movlw	0
  1160  00122C  6FC6               	movwf	main@i_2231& (0+255),b
  1161  00122E                     l4326:
  1162                           
  1163                           ; BSR set to: 0
  1164                           ;main.c: 166:             I2C1_Write1ByteRegister(0x66, 0x02, 0x0D);
  1165  00122E  0E02               	movlw	2
  1166  001230  6E21               	movwf	I2C1_Write1ByteRegister@reg^0,c
  1167  001232  0E0D               	movlw	13
  1168  001234  6E22               	movwf	I2C1_Write1ByteRegister@data^0,c
  1169  001236  0E66               	movlw	102
  1170  001238  EC8C  F00C         	call	_I2C1_Write1ByteRegister
  1171                           
  1172                           ;main.c: 167:             I2C1_Write1ByteRegister(0x66, 0x03, 0x30);
  1173  00123C  0E03               	movlw	3
  1174  00123E  6E21               	movwf	I2C1_Write1ByteRegister@reg^0,c
  1175  001240  0E30               	movlw	48
  1176  001242  6E22               	movwf	I2C1_Write1ByteRegister@data^0,c
  1177  001244  0E66               	movlw	102
  1178  001246  EC8C  F00C         	call	_I2C1_Write1ByteRegister
  1179  00124A                     
  1180                           ;main.c: 168:             _delay((unsigned long)((250)*(48000000/4000.0)));
  1181  00124A  0E10               	movlw	16
  1182  00124C  0100               	movlb	0	; () banked
  1183  00124E  6FC3               	movwf	(??_main+1)& (0+255),b
  1184  001250  0E39               	movlw	57
  1185  001252  6FC2               	movwf	??_main& (0+255),b
  1186  001254  0E0D               	movlw	13
  1187  001256                     u2117:
  1188  001256  2EE8               	decfsz	wreg,f,c
  1189  001258  D7FE               	bra	u2117
  1190  00125A  2FC2               	decfsz	??_main& (0+255),f,b
  1191  00125C  D7FC               	bra	u2117
  1192  00125E  2FC3               	decfsz	(??_main+1)& (0+255),f,b
  1193  001260  D7FA               	bra	u2117
  1194  001262  D000               	nop2	
  1195  001264                     
  1196                           ;main.c: 169:             I2C1_Write1ByteRegister(0x66, 0x02, 0x00);
  1197  001264  0E02               	movlw	2
  1198  001266  6E21               	movwf	I2C1_Write1ByteRegister@reg^0,c
  1199  001268  0E00               	movlw	0
  1200  00126A  6E22               	movwf	I2C1_Write1ByteRegister@data^0,c
  1201  00126C  0E66               	movlw	102
  1202  00126E  EC8C  F00C         	call	_I2C1_Write1ByteRegister
  1203  001272                     
  1204                           ;main.c: 170:             I2C1_Write1ByteRegister(0x66, 0x03, 0x00);
  1205  001272  0E03               	movlw	3
  1206  001274  6E21               	movwf	I2C1_Write1ByteRegister@reg^0,c
  1207  001276  0E00               	movlw	0
  1208  001278  6E22               	movwf	I2C1_Write1ByteRegister@data^0,c
  1209  00127A  0E66               	movlw	102
  1210  00127C  EC8C  F00C         	call	_I2C1_Write1ByteRegister
  1211  001280                     
  1212                           ;main.c: 171:             _delay((unsigned long)((250)*(48000000/4000.0)));
  1213  001280  0E10               	movlw	16
  1214  001282  0100               	movlb	0	; () banked
  1215  001284  6FC3               	movwf	(??_main+1)& (0+255),b
  1216  001286  0E39               	movlw	57
  1217  001288  6FC2               	movwf	??_main& (0+255),b
  1218  00128A  0E0D               	movlw	13
  1219  00128C                     u2127:
  1220  00128C  2EE8               	decfsz	wreg,f,c
  1221  00128E  D7FE               	bra	u2127
  1222  001290  2FC2               	decfsz	??_main& (0+255),f,b
  1223  001292  D7FC               	bra	u2127
  1224  001294  2FC3               	decfsz	(??_main+1)& (0+255),f,b
  1225  001296  D7FA               	bra	u2127
  1226  001298  D000               	nop2	
  1227  00129A                     
  1228                           ;main.c: 172:         }
  1229  00129A  0100               	movlb	0	; () banked
  1230  00129C  2BC6               	incf	main@i_2231& (0+255),f,b
  1231  00129E                     
  1232                           ; BSR set to: 0
  1233  00129E  0E09               	movlw	9
  1234  0012A0  65C6               	cpfsgt	main@i_2231& (0+255),b
  1235  0012A2  EF55  F009         	goto	u2011
  1236  0012A6  EF57  F009         	goto	u2010
  1237  0012AA                     u2011:
  1238  0012AA  EF17  F009         	goto	l4326
  1239  0012AE                     u2010:
  1240  0012AE                     
  1241                           ; BSR set to: 0
  1242                           ;main.c: 174:         I2C1_Write1ByteRegister(0x66, 0x03, 0x00);
  1243  0012AE  0E03               	movlw	3
  1244  0012B0  6E21               	movwf	I2C1_Write1ByteRegister@reg^0,c
  1245  0012B2  0E00               	movlw	0
  1246  0012B4  6E22               	movwf	I2C1_Write1ByteRegister@data^0,c
  1247  0012B6  0E66               	movlw	102
  1248  0012B8  EC8C  F00C         	call	_I2C1_Write1ByteRegister
  1249  0012BC                     
  1250                           ;main.c: 175:         _delay((unsigned long)((1000)*(48000000/4000.0)));
  1251  0012BC  0E3D               	movlw	61
  1252  0012BE  0100               	movlb	0	; () banked
  1253  0012C0  6FC3               	movwf	(??_main+1)& (0+255),b
  1254  0012C2  0EE1               	movlw	225
  1255  0012C4  6FC2               	movwf	??_main& (0+255),b
  1256  0012C6  0E3F               	movlw	63
  1257  0012C8                     u2137:
  1258  0012C8  2EE8               	decfsz	wreg,f,c
  1259  0012CA  D7FE               	bra	u2137
  1260  0012CC  2FC2               	decfsz	??_main& (0+255),f,b
  1261  0012CE  D7FC               	bra	u2137
  1262  0012D0  2FC3               	decfsz	(??_main+1)& (0+255),f,b
  1263  0012D2  D7FA               	bra	u2137
  1264  0012D4  D000               	nop2	
  1265  0012D6  EF9D  F007         	goto	l4196
  1266  0012DA  EF9D  F000         	goto	start
  1267  0012DE                     __end_of_main:
  1268                           	callstack 0
  1269                           
  1270 ;; *************** function _printf *****************
  1271 ;; Defined at:
  1272 ;;		line 5 in file "C:\Program Files\Microchip\xc8\v2.35\pic\sources\c99\common\printf.c"
  1273 ;; Parameters:    Size  Location     Type
  1274 ;;  fmt             2   36[COMRAM] PTR const unsigned char 
  1275 ;;		 -> STR_1(10), 
  1276 ;; Auto vars:     Size  Location     Type
  1277 ;;  ap              2   12[BANK0 ] PTR void [1]
  1278 ;;		 -> ?_printf(2), 
  1279 ;;  ret             2    0        int 
  1280 ;; Return value:  Size  Location     Type
  1281 ;;                  2   36[COMRAM] int 
  1282 ;; Registers used:
  1283 ;;		wreg, fsr1l, fsr1h, fsr2l, fsr2h, status,2, status,0, tblptrl, tblptrh, tblptru, cstack
  1284 ;; Tracked objects:
  1285 ;;		On entry : 0/0
  1286 ;;		On exit  : 0/0
  1287 ;;		Unchanged: 0/0
  1288 ;; Data sizes:     COMRAM   BANK0   BANK1   BANK2   BANK3   BANK4   BANK5   BANK6   BANK7   BANK8   BANK9  BANK10  BANK1
      +1  BANK12  BANK13  BANK14
  1289 ;;      Params:         2       0       0       0       0       0       0       0       0       0       0       0       
      +0       0       0       0
  1290 ;;      Locals:         0       2       0       0       0       0       0       0       0       0       0       0       
      +0       0       0       0
  1291 ;;      Temps:          0       0       0       0       0       0       0       0       0       0       0       0       
      +0       0       0       0
  1292 ;;      Totals:         2       2       0       0       0       0       0       0       0       0       0       0       
      +0       0       0       0
  1293 ;;Total ram usage:        4 bytes
  1294 ;; Hardware stack levels used: 1
  1295 ;; Hardware stack levels required when called: 12
  1296 ;; This function calls:
  1297 ;;		_vfprintf
  1298 ;; This function is called by:
  1299 ;;		_main
  1300 ;; This function uses a non-reentrant model
  1301 ;;
  1302                           
  1303                           	psect	text1
  1304  001D38                     __ptext1:
  1305                           	callstack 0
  1306  001D38                     _printf:
  1307                           	callstack 18
  1308  001D38  0E27               	movlw	low (?_printf+2)
  1309  001D3A  0100               	movlb	0	; () banked
  1310  001D3C  6FC0               	movwf	printf@ap& (0+255),b
  1311  001D3E  0E00               	movlw	high (?_printf+2)
  1312  001D40  6FC1               	movwf	(printf@ap+1)& (0+255),b
  1313  001D42                     
  1314                           ; BSR set to: 0
  1315  001D42  0E00               	movlw	0
  1316  001D44  6FBA               	movwf	vfprintf@fp& (0+255),b
  1317  001D46  0E00               	movlw	0
  1318  001D48  6FBB               	movwf	(vfprintf@fp+1)& (0+255),b
  1319  001D4A  C025  F0BC         	movff	printf@fmt,vfprintf@fmt
  1320  001D4E  C026  F0BD         	movff	printf@fmt+1,vfprintf@fmt+1
  1321  001D52  0EC0               	movlw	low printf@ap
  1322  001D54  6FBE               	movwf	vfprintf@ap& (0+255),b
  1323  001D56  0E00               	movlw	high printf@ap
  1324  001D58  6FBF               	movwf	(vfprintf@ap+1)& (0+255),b
  1325  001D5A  EC2B  F00D         	call	_vfprintf	;wreg free
  1326  001D5E  0012               	return		;funcret
  1327  001D60                     __end_of_printf:
  1328                           	callstack 0
  1329                           
  1330 ;; *************** function _vfprintf *****************
  1331 ;; Defined at:
  1332 ;;		line 1390 in file "C:\Program Files\Microchip\xc8\v2.35\pic\sources\c99\common\doprnt.c"
  1333 ;; Parameters:    Size  Location     Type
  1334 ;;  fp              2    6[BANK0 ] PTR struct _IO_FILE
  1335 ;;		 -> NULL(0), 
  1336 ;;  fmt             2    8[BANK0 ] PTR const unsigned char 
  1337 ;;		 -> STR_1(10), 
  1338 ;;  ap              2   10[BANK0 ] PTR PTR void 
  1339 ;;		 -> printf@ap(2), 
  1340 ;; Auto vars:     Size  Location     Type
  1341 ;;  cfmt            2   34[COMRAM] PTR unsigned char 
  1342 ;;		 -> STR_1(10), 
  1343 ;; Return value:  Size  Location     Type
  1344 ;;                  2    6[BANK0 ] int 
  1345 ;; Registers used:
  1346 ;;		wreg, fsr1l, fsr1h, fsr2l, fsr2h, status,2, status,0, tblptrl, tblptrh, tblptru, cstack
  1347 ;; Tracked objects:
  1348 ;;		On entry : 0/0
  1349 ;;		On exit  : 0/0
  1350 ;;		Unchanged: 0/0
  1351 ;; Data sizes:     COMRAM   BANK0   BANK1   BANK2   BANK3   BANK4   BANK5   BANK6   BANK7   BANK8   BANK9  BANK10  BANK1
      +1  BANK12  BANK13  BANK14
  1352 ;;      Params:         0       6       0       0       0       0       0       0       0       0       0       0       
      +0       0       0       0
  1353 ;;      Locals:         2       0       0       0       0       0       0       0       0       0       0       0       
      +0       0       0       0
  1354 ;;      Temps:          0       0       0       0       0       0       0       0       0       0       0       0       
      +0       0       0       0
  1355 ;;      Totals:         2       6       0       0       0       0       0       0       0       0       0       0       
      +0       0       0       0
  1356 ;;Total ram usage:        8 bytes
  1357 ;; Hardware stack levels used: 1
  1358 ;; Hardware stack levels required when called: 11
  1359 ;; This function calls:
  1360 ;;		_vfpfcnvrt
  1361 ;; This function is called by:
  1362 ;;		_printf
  1363 ;; This function uses a non-reentrant model
  1364 ;;
  1365                           
  1366                           	psect	text2
  1367  001A56                     __ptext2:
  1368                           	callstack 0
  1369  001A56                     _vfprintf:
  1370                           	callstack 18
  1371  001A56                     
  1372                           ;C:\Program Files\Microchip\xc8\v2.35\pic\sources\c99\common\doprnt.c: 1390: int vfprint
      +                          f(FILE *fp, const char *fmt, va_list ap);C:\Program Files\Microchip\xc8\v2.35\pic\source
      +                          s\c99\common\doprnt.c: 1391: {;C:\Program Files\Microchip\xc8\v2.35\pic\sources\c99\comm
      +                          on\doprnt.c: 1393:     char *cfmt;;C:\Program Files\Microchip\xc8\v2.35\pic\sources\c99\
      +                          common\doprnt.c: 1395:     cfmt = (char *)fmt;
  1373  001A56  C0BC  F023         	movff	vfprintf@fmt,vfprintf@cfmt
  1374  001A5A  C0BD  F024         	movff	vfprintf@fmt+1,vfprintf@cfmt+1
  1375  001A5E                     
  1376                           ;C:\Program Files\Microchip\xc8\v2.35\pic\sources\c99\common\doprnt.c: 1396:     nout = 
      +                          0;
  1377  001A5E  0E00               	movlw	0
  1378  001A60  6E30               	movwf	(_nout+1)^0,c
  1379  001A62  0E00               	movlw	0
  1380  001A64  6E2F               	movwf	_nout^0,c
  1381                           
  1382                           ;C:\Program Files\Microchip\xc8\v2.35\pic\sources\c99\common\doprnt.c: 1397:     while (
      +                          *cfmt) {
  1383  001A66  EF49  F00D         	goto	l4052
  1384  001A6A                     l4050:
  1385                           
  1386                           ;C:\Program Files\Microchip\xc8\v2.35\pic\sources\c99\common\doprnt.c: 1398:         nou
      +                          t += vfpfcnvrt(fp, &cfmt, ap);
  1387  001A6A  C0BA  F0B4         	movff	vfprintf@fp,vfpfcnvrt@fp
  1388  001A6E  C0BB  F0B5         	movff	vfprintf@fp+1,vfpfcnvrt@fp+1
  1389  001A72  0E23               	movlw	low vfprintf@cfmt
  1390  001A74  0100               	movlb	0	; () banked
  1391  001A76  6FB6               	movwf	vfpfcnvrt@fmt& (0+255),b
  1392  001A78  0E00               	movlw	high vfprintf@cfmt
  1393  001A7A  6FB7               	movwf	(vfpfcnvrt@fmt+1)& (0+255),b
  1394  001A7C  C0BE  F0B8         	movff	vfprintf@ap,vfpfcnvrt@ap
  1395  001A80  C0BF  F0B9         	movff	vfprintf@ap+1,vfpfcnvrt@ap+1
  1396  001A84  EC6F  F009         	call	_vfpfcnvrt	;wreg free
  1397  001A88  0100               	movlb	0	; () banked
  1398  001A8A  51B4               	movf	?_vfpfcnvrt& (0+255),w,b
  1399  001A8C  262F               	addwf	_nout^0,f,c
  1400  001A8E  51B5               	movf	(?_vfpfcnvrt+1)& (0+255),w,b
  1401  001A90  2230               	addwfc	(_nout+1)^0,f,c
  1402  001A92                     l4052:
  1403                           
  1404                           ;C:\Program Files\Microchip\xc8\v2.35\pic\sources\c99\common\doprnt.c: 1397:     while (
      +                          *cfmt) {
  1405  001A92  C023  FFF6         	movff	vfprintf@cfmt,tblptrl
  1406  001A96  C024  FFF7         	movff	vfprintf@cfmt+1,tblptrh
  1407  001A9A                     	if	0	;tblptru may be non-zero
  1408  001A9A                     	endif
  1409  001A9A                     	if	0	;tblptru may be non-zero
  1410  001A9A                     	endif
  1411  001A9A  0008               	tblrd		*
  1412  001A9C  50F5               	movf	tablat,w,c
  1413  001A9E  0900               	iorlw	0
  1414  001AA0  A4D8               	btfss	status,2,c
  1415  001AA2  EF55  F00D         	goto	u1781
  1416  001AA6  EF57  F00D         	goto	u1780
  1417  001AAA                     u1781:
  1418  001AAA  EF35  F00D         	goto	l4050
  1419  001AAE                     u1780:
  1420  001AAE                     
  1421                           ;C:\Program Files\Microchip\xc8\v2.35\pic\sources\c99\common\doprnt.c: 1400:     return 
      +                          nout;
  1422  001AAE  C02F  F0BA         	movff	_nout,?_vfprintf
  1423  001AB2  C030  F0BB         	movff	_nout+1,?_vfprintf+1
  1424  001AB6  0012               	return		;funcret
  1425  001AB8                     __end_of_vfprintf:
  1426                           	callstack 0
  1427                           
  1428 ;; *************** function _vfpfcnvrt *****************
  1429 ;; Defined at:
  1430 ;;		line 692 in file "C:\Program Files\Microchip\xc8\v2.35\pic\sources\c99\common\doprnt.c"
  1431 ;; Parameters:    Size  Location     Type
  1432 ;;  fp              2    0[BANK0 ] PTR struct _IO_FILE
  1433 ;;		 -> NULL(0), 
  1434 ;;  fmt             2    2[BANK0 ] PTR PTR unsigned char 
  1435 ;;		 -> vfprintf@cfmt(2), 
  1436 ;;  ap              2    4[BANK0 ] PTR PTR void 
  1437 ;;		 -> printf@ap(2), 
  1438 ;; Auto vars:     Size  Location     Type
  1439 ;;  llu             8    0        unsigned long long 
  1440 ;;  ll              8    0        long long 
  1441 ;;  f               4    0        long long 
  1442 ;;  vp              3    0        PTR void 
  1443 ;;  ct              3    0        unsigned char [3]
  1444 ;;  cp              3    0        PTR unsigned char 
  1445 ;;  i               2    0        int 
  1446 ;;  done            2    0        int 
  1447 ;;  c               1    0        unsigned char 
  1448 ;; Return value:  Size  Location     Type
  1449 ;;                  2    0[BANK0 ] int 
  1450 ;; Registers used:
  1451 ;;		wreg, fsr1l, fsr1h, fsr2l, fsr2h, status,2, status,0, tblptrl, tblptrh, tblptru, cstack
  1452 ;; Tracked objects:
  1453 ;;		On entry : 0/0
  1454 ;;		On exit  : 0/0
  1455 ;;		Unchanged: 0/0
  1456 ;; Data sizes:     COMRAM   BANK0   BANK1   BANK2   BANK3   BANK4   BANK5   BANK6   BANK7   BANK8   BANK9  BANK10  BANK1
      +1  BANK12  BANK13  BANK14
  1457 ;;      Params:         0       6       0       0       0       0       0       0       0       0       0       0       
      +0       0       0       0
  1458 ;;      Locals:         0       0       0       0       0       0       0       0       0       0       0       0       
      +0       0       0       0
  1459 ;;      Temps:          0       0       0       0       0       0       0       0       0       0       0       0       
      +0       0       0       0
  1460 ;;      Totals:         0       6       0       0       0       0       0       0       0       0       0       0       
      +0       0       0       0
  1461 ;;Total ram usage:        6 bytes
  1462 ;; Hardware stack levels used: 1
  1463 ;; Hardware stack levels required when called: 10
  1464 ;; This function calls:
  1465 ;;		_fputc
  1466 ;; This function is called by:
  1467 ;;		_vfprintf
  1468 ;; This function uses a non-reentrant model
  1469 ;;
  1470                           
  1471                           	psect	text3
  1472  0012DE                     __ptext3:
  1473                           	callstack 0
  1474  0012DE                     _vfpfcnvrt:
  1475                           	callstack 18
  1476  0012DE                     
  1477                           ;C:\Program Files\Microchip\xc8\v2.35\pic\sources\c99\common\doprnt.c: 692: static int v
      +                          fpfcnvrt(FILE *fp, char *fmt[], va_list ap);C:\Program Files\Microchip\xc8\v2.35\pic\sou
      +                          rces\c99\common\doprnt.c: 693: {;C:\Program Files\Microchip\xc8\v2.35\pic\sources\c99\co
      +                          mmon\doprnt.c: 694:     char c, *cp, ct[3];;C:\Program Files\Microchip\xc8\v2.35\pic\sou
      +                          rces\c99\common\doprnt.c: 695:     int done, i;;C:\Program Files\Microchip\xc8\v2.35\pic
      +                          \sources\c99\common\doprnt.c: 696:     long long ll;;C:\Program Files\Microchip\xc8\v2.3
      +                          5\pic\sources\c99\common\doprnt.c: 697:     unsigned long long llu;
  1478  0012DE  C0B6  FFD9         	movff	vfpfcnvrt@fmt,fsr2l
  1479  0012E2  C0B7  FFDA         	movff	vfpfcnvrt@fmt+1,fsr2h
  1480  0012E6  CFDE FFF6          	movff	postinc2,tblptrl
  1481  0012EA  CFDD FFF7          	movff	postdec2,tblptrh
  1482  0012EE                     	if	0	;tblptru may be non-zero
  1483  0012EE                     	endif
  1484  0012EE                     	if	0	;tblptru may be non-zero
  1485  0012EE                     	endif
  1486  0012EE  0008               	tblrd		*
  1487  0012F0  50F5               	movf	tablat,w,c
  1488  0012F2  0A25               	xorlw	37
  1489  0012F4  A4D8               	btfss	status,2,c
  1490  0012F6  EF7F  F009         	goto	u1731
  1491  0012FA  EF81  F009         	goto	u1730
  1492  0012FE                     u1731:
  1493  0012FE  EFCA  F009         	goto	l3904
  1494  001302                     u1730:
  1495  001302                     
  1496                           ;C:\Program Files\Microchip\xc8\v2.35\pic\sources\c99\common\doprnt.c: 703:         ++*f
      +                          mt;
  1497  001302  C0B6  FFD9         	movff	vfpfcnvrt@fmt,fsr2l
  1498  001306  C0B7  FFDA         	movff	vfpfcnvrt@fmt+1,fsr2h
  1499  00130A  2ADE               	incf	postinc2,f,c
  1500  00130C  0E00               	movlw	0
  1501  00130E  22DD               	addwfc	postdec2,f,c
  1502  001310                     
  1503                           ;C:\Program Files\Microchip\xc8\v2.35\pic\sources\c99\common\doprnt.c: 705:         flag
      +                          s = width = 0;
  1504  001310  0E00               	movlw	0
  1505  001312  6E32               	movwf	(_width+1)^0,c
  1506  001314  0E00               	movlw	0
  1507  001316  6E31               	movwf	_width^0,c
  1508  001318  C031  F035         	movff	_width,_flags
  1509  00131C  C032  F036         	movff	_width+1,_flags+1
  1510  001320                     
  1511                           ;C:\Program Files\Microchip\xc8\v2.35\pic\sources\c99\common\doprnt.c: 706:         prec
      +                           = -1;
  1512  001320  6833               	setf	_prec^0,c
  1513  001322  6834               	setf	(_prec+1)^0,c
  1514  001324                     
  1515                           ;C:\Program Files\Microchip\xc8\v2.35\pic\sources\c99\common\doprnt.c: 1372:         if 
      +                          ((*fmt)[0] == '%') {
  1516  001324  C0B6  FFD9         	movff	vfpfcnvrt@fmt,fsr2l
  1517  001328  C0B7  FFDA         	movff	vfpfcnvrt@fmt+1,fsr2h
  1518  00132C  CFDE FFF6          	movff	postinc2,tblptrl
  1519  001330  CFDD FFF7          	movff	postdec2,tblptrh
  1520  001334                     	if	0	;tblptru may be non-zero
  1521  001334                     	endif
  1522  001334                     	if	0	;tblptru may be non-zero
  1523  001334                     	endif
  1524  001334  0008               	tblrd		*
  1525  001336  50F5               	movf	tablat,w,c
  1526  001338  0A25               	xorlw	37
  1527  00133A  A4D8               	btfss	status,2,c
  1528  00133C  EFA2  F009         	goto	u1741
  1529  001340  EFA4  F009         	goto	u1740
  1530  001344                     u1741:
  1531  001344  EFBC  F009         	goto	l3898
  1532  001348                     u1740:
  1533  001348                     
  1534                           ;C:\Program Files\Microchip\xc8\v2.35\pic\sources\c99\common\doprnt.c: 1373:            
      +                           ++*fmt;
  1535  001348  C0B6  FFD9         	movff	vfpfcnvrt@fmt,fsr2l
  1536  00134C  C0B7  FFDA         	movff	vfpfcnvrt@fmt+1,fsr2h
  1537  001350  2ADE               	incf	postinc2,f,c
  1538  001352  0E00               	movlw	0
  1539  001354  22DD               	addwfc	postdec2,f,c
  1540  001356                     
  1541                           ;C:\Program Files\Microchip\xc8\v2.35\pic\sources\c99\common\doprnt.c: 1374:            
      +                           fputc((int)'%', fp);
  1542  001356  0E00               	movlw	0
  1543  001358  6E1B               	movwf	(fputc@c+1)^0,c
  1544  00135A  0E25               	movlw	37
  1545  00135C  6E1A               	movwf	fputc@c^0,c
  1546  00135E  C0B4  F01C         	movff	vfpfcnvrt@fp,fputc@fp
  1547  001362  C0B5  F01D         	movff	vfpfcnvrt@fp+1,fputc@fp+1
  1548  001366  EC4E  F00B         	call	_fputc	;wreg free
  1549  00136A                     l3894:
  1550                           
  1551                           ;C:\Program Files\Microchip\xc8\v2.35\pic\sources\c99\common\doprnt.c: 1375:            
      +                           return 1;
  1552  00136A  0E00               	movlw	0
  1553  00136C  0100               	movlb	0	; () banked
  1554  00136E  6FB5               	movwf	(?_vfpfcnvrt+1)& (0+255),b
  1555  001370  0E01               	movlw	1
  1556  001372  6FB4               	movwf	?_vfpfcnvrt& (0+255),b
  1557  001374  EFE5  F009         	goto	l1586
  1558  001378                     l3898:
  1559                           
  1560                           ;C:\Program Files\Microchip\xc8\v2.35\pic\sources\c99\common\doprnt.c: 1379:         ++*
      +                          fmt;
  1561  001378  C0B6  FFD9         	movff	vfpfcnvrt@fmt,fsr2l
  1562  00137C  C0B7  FFDA         	movff	vfpfcnvrt@fmt+1,fsr2h
  1563  001380  2ADE               	incf	postinc2,f,c
  1564  001382  0E00               	movlw	0
  1565  001384  22DD               	addwfc	postdec2,f,c
  1566  001386                     
  1567                           ;C:\Program Files\Microchip\xc8\v2.35\pic\sources\c99\common\doprnt.c: 1380:         ret
      +                          urn 0;
  1568  001386  0E00               	movlw	0
  1569  001388  0100               	movlb	0	; () banked
  1570  00138A  6FB5               	movwf	(?_vfpfcnvrt+1)& (0+255),b
  1571  00138C  0E00               	movlw	0
  1572  00138E  6FB4               	movwf	?_vfpfcnvrt& (0+255),b
  1573  001390  EFE5  F009         	goto	l1586
  1574  001394                     l3904:
  1575                           
  1576                           ;C:\Program Files\Microchip\xc8\v2.35\pic\sources\c99\common\doprnt.c: 1384:     fputc((
      +                          int)(*fmt)[0], fp);
  1577  001394  C0B6  FFD9         	movff	vfpfcnvrt@fmt,fsr2l
  1578  001398  C0B7  FFDA         	movff	vfpfcnvrt@fmt+1,fsr2h
  1579  00139C  CFDE FFF6          	movff	postinc2,tblptrl
  1580  0013A0  CFDD FFF7          	movff	postdec2,tblptrh
  1581  0013A4                     	if	0	;tblptru may be non-zero
  1582  0013A4                     	endif
  1583  0013A4                     	if	0	;tblptru may be non-zero
  1584  0013A4                     	endif
  1585  0013A4  0008               	tblrd		*
  1586  0013A6  50F5               	movf	tablat,w,c
  1587  0013A8  6E1A               	movwf	fputc@c^0,c
  1588  0013AA  6A1B               	clrf	(fputc@c+1)^0,c
  1589  0013AC  C0B4  F01C         	movff	vfpfcnvrt@fp,fputc@fp
  1590  0013B0  C0B5  F01D         	movff	vfpfcnvrt@fp+1,fputc@fp+1
  1591  0013B4  EC4E  F00B         	call	_fputc	;wreg free
  1592  0013B8                     
  1593                           ;C:\Program Files\Microchip\xc8\v2.35\pic\sources\c99\common\doprnt.c: 1385:     ++*fmt;
  1594  0013B8  C0B6  FFD9         	movff	vfpfcnvrt@fmt,fsr2l
  1595  0013BC  C0B7  FFDA         	movff	vfpfcnvrt@fmt+1,fsr2h
  1596  0013C0  2ADE               	incf	postinc2,f,c
  1597  0013C2  0E00               	movlw	0
  1598  0013C4  22DD               	addwfc	postdec2,f,c
  1599  0013C6  EFB5  F009         	goto	l3894
  1600  0013CA                     l1586:
  1601                           
  1602                           ; BSR set to: 0
  1603  0013CA  0012               	return		;funcret
  1604  0013CC                     __end_of_vfpfcnvrt:
  1605                           	callstack 0
  1606                           
  1607 ;; *************** function _fputc *****************
  1608 ;; Defined at:
  1609 ;;		line 8 in file "C:\Program Files\Microchip\xc8\v2.35\pic\sources\c99\common\nf_fputc.c"
  1610 ;; Parameters:    Size  Location     Type
  1611 ;;  c               2   25[COMRAM] int 
  1612 ;;  fp              2   27[COMRAM] PTR struct _IO_FILE
  1613 ;;		 -> NULL(0), 
  1614 ;; Auto vars:     Size  Location     Type
  1615 ;;		None
  1616 ;; Return value:  Size  Location     Type
  1617 ;;                  2   25[COMRAM] int 
  1618 ;; Registers used:
  1619 ;;		wreg, fsr1l, fsr1h, fsr2l, fsr2h, status,2, status,0, cstack
  1620 ;; Tracked objects:
  1621 ;;		On entry : 0/0
  1622 ;;		On exit  : 0/0
  1623 ;;		Unchanged: 0/0
  1624 ;; Data sizes:     COMRAM   BANK0   BANK1   BANK2   BANK3   BANK4   BANK5   BANK6   BANK7   BANK8   BANK9  BANK10  BANK1
      +1  BANK12  BANK13  BANK14
  1625 ;;      Params:         4       0       0       0       0       0       0       0       0       0       0       0       
      +0       0       0       0
  1626 ;;      Locals:         0       0       0       0       0       0       0       0       0       0       0       0       
      +0       0       0       0
  1627 ;;      Temps:          5       0       0       0       0       0       0       0       0       0       0       0       
      +0       0       0       0
  1628 ;;      Totals:         9       0       0       0       0       0       0       0       0       0       0       0       
      +0       0       0       0
  1629 ;;Total ram usage:        9 bytes
  1630 ;; Hardware stack levels used: 1
  1631 ;; Hardware stack levels required when called: 9
  1632 ;; This function calls:
  1633 ;;		_putch
  1634 ;; This function is called by:
  1635 ;;		_vfpfcnvrt
  1636 ;; This function uses a non-reentrant model
  1637 ;;
  1638                           
  1639                           	psect	text4
  1640  00169C                     __ptext4:
  1641                           	callstack 0
  1642  00169C                     _fputc:
  1643                           	callstack 18
  1644  00169C  501C               	movf	fputc@fp^0,w,c
  1645  00169E  101D               	iorwf	(fputc@fp+1)^0,w,c
  1646  0016A0  B4D8               	btfsc	status,2,c
  1647  0016A2  EF55  F00B         	goto	u1651
  1648  0016A6  EF57  F00B         	goto	u1650
  1649  0016AA                     u1651:
  1650  0016AA  EF60  F00B         	goto	l3816
  1651  0016AE                     u1650:
  1652  0016AE  501C               	movf	fputc@fp^0,w,c
  1653  0016B0  101D               	iorwf	(fputc@fp+1)^0,w,c
  1654  0016B2  A4D8               	btfss	status,2,c
  1655  0016B4  EF5E  F00B         	goto	u1661
  1656  0016B8  EF60  F00B         	goto	u1660
  1657  0016BC                     u1661:
  1658  0016BC  EF65  F00B         	goto	l3818
  1659  0016C0                     u1660:
  1660  0016C0                     l3816:
  1661  0016C0  501A               	movf	fputc@c^0,w,c
  1662  0016C2  EC84  F00F         	call	_putch
  1663  0016C6  EF98  F00B         	goto	l1604
  1664  0016CA                     l3818:
  1665  0016CA  EE20 F009          	lfsr	2,9
  1666  0016CE  501C               	movf	fputc@fp^0,w,c
  1667  0016D0  26D9               	addwf	fsr2l,f,c
  1668  0016D2  501D               	movf	(fputc@fp+1)^0,w,c
  1669  0016D4  22DA               	addwfc	fsr2h,f,c
  1670  0016D6  50DE               	movf	postinc2,w,c
  1671  0016D8  10DE               	iorwf	postinc2,w,c
  1672  0016DA  B4D8               	btfsc	status,2,c
  1673  0016DC  EF72  F00B         	goto	u1671
  1674  0016E0  EF74  F00B         	goto	u1670
  1675  0016E4                     u1671:
  1676  0016E4  EF8F  F00B         	goto	l3822
  1677  0016E8                     u1670:
  1678  0016E8  EE20 F009          	lfsr	2,9
  1679  0016EC  501C               	movf	fputc@fp^0,w,c
  1680  0016EE  26D9               	addwf	fsr2l,f,c
  1681  0016F0  501D               	movf	(fputc@fp+1)^0,w,c
  1682  0016F2  22DA               	addwfc	fsr2h,f,c
  1683  0016F4  EE10 F003          	lfsr	1,3
  1684  0016F8  501C               	movf	fputc@fp^0,w,c
  1685  0016FA  26E1               	addwf	fsr1l,f,c
  1686  0016FC  501D               	movf	(fputc@fp+1)^0,w,c
  1687  0016FE  22E2               	addwfc	fsr1h,f,c
  1688  001700  50DE               	movf	postinc2,w,c
  1689  001702  5CE6               	subwf	postinc1,w,c
  1690  001704  50E6               	movf	postinc1,w,c
  1691  001706  0A80               	xorlw	128
  1692  001708  6E22               	movwf	(??_fputc+4)^0,c
  1693  00170A  50DE               	movf	postinc2,w,c
  1694  00170C  0A80               	xorlw	128
  1695  00170E  5822               	subwfb	(??_fputc+4)^0,w,c
  1696  001710  B0D8               	btfsc	status,0,c
  1697  001712  EF8D  F00B         	goto	u1681
  1698  001716  EF8F  F00B         	goto	u1680
  1699  00171A                     u1681:
  1700  00171A  EF98  F00B         	goto	l1604
  1701  00171E                     u1680:
  1702  00171E                     l3822:
  1703  00171E  EE20 F003          	lfsr	2,3
  1704  001722  501C               	movf	fputc@fp^0,w,c
  1705  001724  26D9               	addwf	fsr2l,f,c
  1706  001726  501D               	movf	(fputc@fp+1)^0,w,c
  1707  001728  22DA               	addwfc	fsr2h,f,c
  1708  00172A  2ADE               	incf	postinc2,f,c
  1709  00172C  0E00               	movlw	0
  1710  00172E  22DD               	addwfc	postdec2,f,c
  1711  001730                     l1604:
  1712  001730  0012               	return		;funcret
  1713  001732                     __end_of_fputc:
  1714                           	callstack 0
  1715                           
  1716 ;; *************** function _putch *****************
  1717 ;; Defined at:
  1718 ;;		line 201 in file "mcc_generated_files/eusart2.c"
  1719 ;; Parameters:    Size  Location     Type
  1720 ;;  txData          1    wreg     unsigned char 
  1721 ;; Auto vars:     Size  Location     Type
  1722 ;;  txData          1   24[COMRAM] unsigned char 
  1723 ;; Return value:  Size  Location     Type
  1724 ;;                  1    wreg      void 
  1725 ;; Registers used:
  1726 ;;		wreg, fsr2l, fsr2h, status,2, status,0, cstack
  1727 ;; Tracked objects:
  1728 ;;		On entry : 0/0
  1729 ;;		On exit  : 0/0
  1730 ;;		Unchanged: 0/0
  1731 ;; Data sizes:     COMRAM   BANK0   BANK1   BANK2   BANK3   BANK4   BANK5   BANK6   BANK7   BANK8   BANK9  BANK10  BANK1
      +1  BANK12  BANK13  BANK14
  1732 ;;      Params:         0       0       0       0       0       0       0       0       0       0       0       0       
      +0       0       0       0
  1733 ;;      Locals:         1       0       0       0       0       0       0       0       0       0       0       0       
      +0       0       0       0
  1734 ;;      Temps:          0       0       0       0       0       0       0       0       0       0       0       0       
      +0       0       0       0
  1735 ;;      Totals:         1       0       0       0       0       0       0       0       0       0       0       0       
      +0       0       0       0
  1736 ;;Total ram usage:        1 bytes
  1737 ;; Hardware stack levels used: 1
  1738 ;; Hardware stack levels required when called: 8
  1739 ;; This function calls:
  1740 ;;		_EUSART2_Write
  1741 ;; This function is called by:
  1742 ;;		_fputc
  1743 ;; This function uses a non-reentrant model
  1744 ;;
  1745                           
  1746                           	psect	text5
  1747  001F08                     __ptext5:
  1748                           	callstack 0
  1749  001F08                     _putch:
  1750                           	callstack 18
  1751                           
  1752                           ;incstack = 0
  1753                           ;putch@txData stored from wreg
  1754  001F08  6E19               	movwf	putch@txData^0,c
  1755  001F0A                     
  1756                           ;mcc_generated_files/eusart2.c: 201: void putch(char txData);mcc_generated_files/eusart2
      +                          .c: 202: {;mcc_generated_files/eusart2.c: 203:     EUSART2_Write(txData);
  1757  001F0A  5019               	movf	putch@txData^0,w,c
  1758  001F0C  EC5C  F00D         	call	_EUSART2_Write
  1759  001F10  0012               	return		;funcret
  1760  001F12                     __end_of_putch:
  1761                           	callstack 0
  1762                           
  1763 ;; *************** function _EUSART2_Write *****************
  1764 ;; Defined at:
  1765 ;;		line 173 in file "mcc_generated_files/eusart2.c"
  1766 ;; Parameters:    Size  Location     Type
  1767 ;;  txData          1    wreg     unsigned char 
  1768 ;; Auto vars:     Size  Location     Type
  1769 ;;  txData          1   23[COMRAM] unsigned char 
  1770 ;; Return value:  Size  Location     Type
  1771 ;;                  1    wreg      void 
  1772 ;; Registers used:
  1773 ;;		wreg, fsr2l, fsr2h, status,2, status,0
  1774 ;; Tracked objects:
  1775 ;;		On entry : 0/0
  1776 ;;		On exit  : 0/0
  1777 ;;		Unchanged: 0/0
  1778 ;; Data sizes:     COMRAM   BANK0   BANK1   BANK2   BANK3   BANK4   BANK5   BANK6   BANK7   BANK8   BANK9  BANK10  BANK1
      +1  BANK12  BANK13  BANK14
  1779 ;;      Params:         0       0       0       0       0       0       0       0       0       0       0       0       
      +0       0       0       0
  1780 ;;      Locals:         1       0       0       0       0       0       0       0       0       0       0       0       
      +0       0       0       0
  1781 ;;      Temps:          0       0       0       0       0       0       0       0       0       0       0       0       
      +0       0       0       0
  1782 ;;      Totals:         1       0       0       0       0       0       0       0       0       0       0       0       
      +0       0       0       0
  1783 ;;Total ram usage:        1 bytes
  1784 ;; Hardware stack levels used: 1
  1785 ;; Hardware stack levels required when called: 7
  1786 ;; This function calls:
  1787 ;;		Nothing
  1788 ;; This function is called by:
  1789 ;;		_putch
  1790 ;; This function uses a non-reentrant model
  1791 ;;
  1792                           
  1793                           	psect	text6
  1794  001AB8                     __ptext6:
  1795                           	callstack 0
  1796  001AB8                     _EUSART2_Write:
  1797                           	callstack 18
  1798                           
  1799                           ;incstack = 0
  1800                           ;EUSART2_Write@txData stored from wreg
  1801  001AB8  6E18               	movwf	EUSART2_Write@txData^0,c
  1802  001ABA                     l3792:
  1803                           
  1804                           ;mcc_generated_files/eusart2.c: 175:     while(0 == eusart2TxBufferRemaining)
  1805  001ABA  5047               	movf	_eusart2TxBufferRemaining^0,w,c	;volatile
  1806  001ABC  B4D8               	btfsc	status,2,c
  1807  001ABE  EF63  F00D         	goto	u1621
  1808  001AC2  EF65  F00D         	goto	u1620
  1809  001AC6                     u1621:
  1810  001AC6  EF5D  F00D         	goto	l3792
  1811  001ACA                     u1620:
  1812  001ACA                     
  1813                           ;mcc_generated_files/eusart2.c: 179:     if(0 == PIE3bits.TX2IE)
  1814  001ACA  B8A3               	btfsc	163,4,c	;volatile
  1815  001ACC  EF6A  F00D         	goto	u1631
  1816  001AD0  EF6C  F00D         	goto	u1630
  1817  001AD4                     u1631:
  1818  001AD4  EF70  F00D         	goto	l204
  1819  001AD8                     u1630:
  1820  001AD8                     
  1821                           ;mcc_generated_files/eusart2.c: 180:     {;mcc_generated_files/eusart2.c: 181:         T
      +                          XREG2 = txData;
  1822  001AD8  C018  FFA9         	movff	EUSART2_Write@txData,4009	;volatile
  1823                           
  1824                           ;mcc_generated_files/eusart2.c: 182:     }
  1825  001ADC  EF85  F00D         	goto	l3806
  1826  001AE0                     l204:
  1827                           
  1828                           ;mcc_generated_files/eusart2.c: 184:     {;mcc_generated_files/eusart2.c: 185:         P
      +                          IE3bits.TX2IE = 0;
  1829  001AE0  98A3               	bcf	163,4,c	;volatile
  1830  001AE2                     
  1831                           ;mcc_generated_files/eusart2.c: 186:         eusart2TxBuffer[eusart2TxHead++] = txData;
  1832  001AE2  0EAC               	movlw	low _eusart2TxBuffer
  1833  001AE4  2440               	addwf	_eusart2TxHead^0,w,c	;volatile
  1834  001AE6  6ED9               	movwf	fsr2l,c
  1835  001AE8  6ADA               	clrf	fsr2h,c
  1836  001AEA  0E00               	movlw	high _eusart2TxBuffer
  1837  001AEC  22DA               	addwfc	fsr2h,f,c
  1838  001AEE  C018  FFDF         	movff	EUSART2_Write@txData,indf2
  1839  001AF2  2A40               	incf	_eusart2TxHead^0,f,c	;volatile
  1840  001AF4                     
  1841                           ;mcc_generated_files/eusart2.c: 187:         if(sizeof(eusart2TxBuffer) <= eusart2TxHead
      +                          )
  1842  001AF4  0E07               	movlw	7
  1843  001AF6  6440               	cpfsgt	_eusart2TxHead^0,c	;volatile
  1844  001AF8  EF80  F00D         	goto	u1641
  1845  001AFC  EF82  F00D         	goto	u1640
  1846  001B00                     u1641:
  1847  001B00  EF84  F00D         	goto	l3804
  1848  001B04                     u1640:
  1849  001B04                     
  1850                           ;mcc_generated_files/eusart2.c: 188:         {;mcc_generated_files/eusart2.c: 189:      
      +                                 eusart2TxHead = 0;
  1851  001B04  0E00               	movlw	0
  1852  001B06  6E40               	movwf	_eusart2TxHead^0,c	;volatile
  1853  001B08                     l3804:
  1854                           
  1855                           ;mcc_generated_files/eusart2.c: 191:         eusart2TxBufferRemaining--;
  1856  001B08  0647               	decf	_eusart2TxBufferRemaining^0,f,c	;volatile
  1857  001B0A                     l3806:
  1858                           
  1859                           ;mcc_generated_files/eusart2.c: 193:     PIE3bits.TX2IE = 1;
  1860  001B0A  88A3               	bsf	163,4,c	;volatile
  1861  001B0C  0012               	return		;funcret
  1862  001B0E                     __end_of_EUSART2_Write:
  1863                           	callstack 0
  1864                           
  1865 ;; *************** function _SYSTEM_Initialize *****************
  1866 ;; Defined at:
  1867 ;;		line 50 in file "mcc_generated_files/mcc.c"
  1868 ;; Parameters:    Size  Location     Type
  1869 ;;		None
  1870 ;; Auto vars:     Size  Location     Type
  1871 ;;		None
  1872 ;; Return value:  Size  Location     Type
  1873 ;;                  1    wreg      void 
  1874 ;; Registers used:
  1875 ;;		wreg, status,2, status,0, cstack
  1876 ;; Tracked objects:
  1877 ;;		On entry : 0/0
  1878 ;;		On exit  : 0/0
  1879 ;;		Unchanged: 0/0
  1880 ;; Data sizes:     COMRAM   BANK0   BANK1   BANK2   BANK3   BANK4   BANK5   BANK6   BANK7   BANK8   BANK9  BANK10  BANK1
      +1  BANK12  BANK13  BANK14
  1881 ;;      Params:         0       0       0       0       0       0       0       0       0       0       0       0       
      +0       0       0       0
  1882 ;;      Locals:         0       0       0       0       0       0       0       0       0       0       0       0       
      +0       0       0       0
  1883 ;;      Temps:          0       0       0       0       0       0       0       0       0       0       0       0       
      +0       0       0       0
  1884 ;;      Totals:         0       0       0       0       0       0       0       0       0       0       0       0       
      +0       0       0       0
  1885 ;;Total ram usage:        0 bytes
  1886 ;; Hardware stack levels used: 1
  1887 ;; Hardware stack levels required when called: 9
  1888 ;; This function calls:
  1889 ;;		_ADC_Initialize
  1890 ;;		_EUSART2_Initialize
  1891 ;;		_I2C1_Initialize
  1892 ;;		_INTERRUPT_Initialize
  1893 ;;		_OSCILLATOR_Initialize
  1894 ;;		_PIN_MANAGER_Initialize
  1895 ;;		_TMR1_Initialize
  1896 ;;		_TMR2_Initialize
  1897 ;; This function is called by:
  1898 ;;		_main
  1899 ;; This function uses a non-reentrant model
  1900 ;;
  1901                           
  1902                           	psect	text7
  1903  001DCE                     __ptext7:
  1904                           	callstack 0
  1905  001DCE                     _SYSTEM_Initialize:
  1906                           	callstack 21
  1907  001DCE                     
  1908                           ;mcc_generated_files/mcc.c: 53:     INTERRUPT_Initialize();
  1909  001DCE  ECDA  F00F         	call	_INTERRUPT_Initialize	;wreg free
  1910  001DD2                     
  1911                           ;mcc_generated_files/mcc.c: 54:     I2C1_Initialize();
  1912  001DD2  EC46  F00F         	call	_I2C1_Initialize	;wreg free
  1913  001DD6                     
  1914                           ;mcc_generated_files/mcc.c: 55:     PIN_MANAGER_Initialize();
  1915  001DD6  ECE7  F00D         	call	_PIN_MANAGER_Initialize	;wreg free
  1916  001DDA                     
  1917                           ;mcc_generated_files/mcc.c: 56:     OSCILLATOR_Initialize();
  1918  001DDA  EC3C  F00F         	call	_OSCILLATOR_Initialize	;wreg free
  1919  001DDE                     
  1920                           ;mcc_generated_files/mcc.c: 57:     ADC_Initialize();
  1921  001DDE  EC09  F00F         	call	_ADC_Initialize	;wreg free
  1922  001DE2                     
  1923                           ;mcc_generated_files/mcc.c: 58:     TMR2_Initialize();
  1924  001DE2  EC5A  F00F         	call	_TMR2_Initialize	;wreg free
  1925  001DE6                     
  1926                           ;mcc_generated_files/mcc.c: 59:     TMR1_Initialize();
  1927  001DE6  EC72  F00E         	call	_TMR1_Initialize	;wreg free
  1928  001DEA                     
  1929                           ;mcc_generated_files/mcc.c: 60:     EUSART2_Initialize();
  1930  001DEA  EC52  F00C         	call	_EUSART2_Initialize	;wreg free
  1931  001DEE  0012               	return		;funcret
  1932  001DF0                     __end_of_SYSTEM_Initialize:
  1933                           	callstack 0
  1934                           
  1935 ;; *************** function _TMR2_Initialize *****************
  1936 ;; Defined at:
  1937 ;;		line 62 in file "mcc_generated_files/tmr2.c"
  1938 ;; Parameters:    Size  Location     Type
  1939 ;;		None
  1940 ;; Auto vars:     Size  Location     Type
  1941 ;;		None
  1942 ;; Return value:  Size  Location     Type
  1943 ;;                  1    wreg      void 
  1944 ;; Registers used:
  1945 ;;		wreg, status,2
  1946 ;; Tracked objects:
  1947 ;;		On entry : 0/0
  1948 ;;		On exit  : 0/0
  1949 ;;		Unchanged: 0/0
  1950 ;; Data sizes:     COMRAM   BANK0   BANK1   BANK2   BANK3   BANK4   BANK5   BANK6   BANK7   BANK8   BANK9  BANK10  BANK1
      +1  BANK12  BANK13  BANK14
  1951 ;;      Params:         0       0       0       0       0       0       0       0       0       0       0       0       
      +0       0       0       0
  1952 ;;      Locals:         0       0       0       0       0       0       0       0       0       0       0       0       
      +0       0       0       0
  1953 ;;      Temps:          0       0       0       0       0       0       0       0       0       0       0       0       
      +0       0       0       0
  1954 ;;      Totals:         0       0       0       0       0       0       0       0       0       0       0       0       
      +0       0       0       0
  1955 ;;Total ram usage:        0 bytes
  1956 ;; Hardware stack levels used: 1
  1957 ;; Hardware stack levels required when called: 7
  1958 ;; This function calls:
  1959 ;;		Nothing
  1960 ;; This function is called by:
  1961 ;;		_SYSTEM_Initialize
  1962 ;; This function uses a non-reentrant model
  1963 ;;
  1964                           
  1965                           	psect	text8
  1966  001EB4                     __ptext8:
  1967                           	callstack 0
  1968  001EB4                     _TMR2_Initialize:
  1969                           	callstack 22
  1970  001EB4                     
  1971                           ;mcc_generated_files/tmr2.c: 67:     PR2 = 0xF9;
  1972  001EB4  0EF9               	movlw	249
  1973  001EB6  6ECB               	movwf	203,c	;volatile
  1974                           
  1975                           ;mcc_generated_files/tmr2.c: 70:     TMR2 = 0x00;
  1976  001EB8  0E00               	movlw	0
  1977  001EBA  6ECC               	movwf	204,c	;volatile
  1978  001EBC                     
  1979                           ;mcc_generated_files/tmr2.c: 73:     PIR1bits.TMR2IF = 0;
  1980  001EBC  929E               	bcf	158,1,c	;volatile
  1981                           
  1982                           ;mcc_generated_files/tmr2.c: 76:     T2CON = 0x5D;
  1983  001EBE  0E5D               	movlw	93
  1984  001EC0  6ECA               	movwf	202,c	;volatile
  1985  001EC2  0012               	return		;funcret
  1986  001EC4                     __end_of_TMR2_Initialize:
  1987                           	callstack 0
  1988                           
  1989 ;; *************** function _TMR1_Initialize *****************
  1990 ;; Defined at:
  1991 ;;		line 63 in file "mcc_generated_files/tmr1.c"
  1992 ;; Parameters:    Size  Location     Type
  1993 ;;		None
  1994 ;; Auto vars:     Size  Location     Type
  1995 ;;		None
  1996 ;; Return value:  Size  Location     Type
  1997 ;;                  1    wreg      void 
  1998 ;; Registers used:
  1999 ;;		wreg, status,2, status,0
  2000 ;; Tracked objects:
  2001 ;;		On entry : 0/0
  2002 ;;		On exit  : 0/0
  2003 ;;		Unchanged: 0/0
  2004 ;; Data sizes:     COMRAM   BANK0   BANK1   BANK2   BANK3   BANK4   BANK5   BANK6   BANK7   BANK8   BANK9  BANK10  BANK1
      +1  BANK12  BANK13  BANK14
  2005 ;;      Params:         0       0       0       0       0       0       0       0       0       0       0       0       
      +0       0       0       0
  2006 ;;      Locals:         0       0       0       0       0       0       0       0       0       0       0       0       
      +0       0       0       0
  2007 ;;      Temps:          2       0       0       0       0       0       0       0       0       0       0       0       
      +0       0       0       0
  2008 ;;      Totals:         2       0       0       0       0       0       0       0       0       0       0       0       
      +0       0       0       0
  2009 ;;Total ram usage:        2 bytes
  2010 ;; Hardware stack levels used: 1
  2011 ;; Hardware stack levels required when called: 7
  2012 ;; This function calls:
  2013 ;;		Nothing
  2014 ;; This function is called by:
  2015 ;;		_SYSTEM_Initialize
  2016 ;; This function uses a non-reentrant model
  2017 ;;
  2018                           
  2019                           	psect	text9
  2020  001CE4                     __ptext9:
  2021                           	callstack 0
  2022  001CE4                     _TMR1_Initialize:
  2023                           	callstack 22
  2024  001CE4                     
  2025                           ;mcc_generated_files/tmr1.c: 68:     T1GCON = 0x00;
  2026  001CE4  0E00               	movlw	0
  2027  001CE6  6E9A               	movwf	154,c	;volatile
  2028                           
  2029                           ;mcc_generated_files/tmr1.c: 71:     TMR1H = 0xD1;
  2030  001CE8  0ED1               	movlw	209
  2031  001CEA  6ECF               	movwf	207,c	;volatile
  2032                           
  2033                           ;mcc_generated_files/tmr1.c: 74:     TMR1L = 0x20;
  2034  001CEC  0E20               	movlw	32
  2035  001CEE  6ECE               	movwf	206,c	;volatile
  2036  001CF0                     
  2037                           ;mcc_generated_files/tmr1.c: 77:     PIR1bits.TMR1IF = 0;
  2038  001CF0  909E               	bcf	158,0,c	;volatile
  2039  001CF2                     
  2040                           ;mcc_generated_files/tmr1.c: 80:     timer1ReloadVal=(uint16_t)((TMR1H << 8) | TMR1L);
  2041  001CF2  50CE               	movf	206,w,c	;volatile
  2042  001CF4  CFCF F018          	movff	4047,??_TMR1_Initialize	;volatile
  2043  001CF8  6A19               	clrf	(??_TMR1_Initialize+1)^0,c
  2044  001CFA  C018  F019         	movff	??_TMR1_Initialize,??_TMR1_Initialize+1
  2045  001CFE  6A18               	clrf	??_TMR1_Initialize^0,c
  2046  001D00  1018               	iorwf	??_TMR1_Initialize^0,w,c
  2047  001D02  6E41               	movwf	_timer1ReloadVal^0,c	;volatile
  2048  001D04  5019               	movf	(??_TMR1_Initialize+1)^0,w,c
  2049  001D06  6E42               	movwf	(_timer1ReloadVal+1)^0,c	;volatile
  2050  001D08                     
  2051                           ;mcc_generated_files/tmr1.c: 83:     T1CON = 0x01;
  2052  001D08  0E01               	movlw	1
  2053  001D0A  6ECD               	movwf	205,c	;volatile
  2054  001D0C  0012               	return		;funcret
  2055  001D0E                     __end_of_TMR1_Initialize:
  2056                           	callstack 0
  2057                           
  2058 ;; *************** function _PIN_MANAGER_Initialize *****************
  2059 ;; Defined at:
  2060 ;;		line 52 in file "mcc_generated_files/pin_manager.c"
  2061 ;; Parameters:    Size  Location     Type
  2062 ;;		None
  2063 ;; Auto vars:     Size  Location     Type
  2064 ;;		None
  2065 ;; Return value:  Size  Location     Type
  2066 ;;                  1    wreg      void 
  2067 ;; Registers used:
  2068 ;;		wreg, status,2
  2069 ;; Tracked objects:
  2070 ;;		On entry : 0/0
  2071 ;;		On exit  : 0/0
  2072 ;;		Unchanged: 0/0
  2073 ;; Data sizes:     COMRAM   BANK0   BANK1   BANK2   BANK3   BANK4   BANK5   BANK6   BANK7   BANK8   BANK9  BANK10  BANK1
      +1  BANK12  BANK13  BANK14
  2074 ;;      Params:         0       0       0       0       0       0       0       0       0       0       0       0       
      +0       0       0       0
  2075 ;;      Locals:         0       0       0       0       0       0       0       0       0       0       0       0       
      +0       0       0       0
  2076 ;;      Temps:          0       0       0       0       0       0       0       0       0       0       0       0       
      +0       0       0       0
  2077 ;;      Totals:         0       0       0       0       0       0       0       0       0       0       0       0       
      +0       0       0       0
  2078 ;;Total ram usage:        0 bytes
  2079 ;; Hardware stack levels used: 1
  2080 ;; Hardware stack levels required when called: 7
  2081 ;; This function calls:
  2082 ;;		Nothing
  2083 ;; This function is called by:
  2084 ;;		_SYSTEM_Initialize
  2085 ;; This function uses a non-reentrant model
  2086 ;;
  2087                           
  2088                           	psect	text10
  2089  001BCE                     __ptext10:
  2090                           	callstack 0
  2091  001BCE                     _PIN_MANAGER_Initialize:
  2092                           	callstack 22
  2093  001BCE                     
  2094                           ;mcc_generated_files/pin_manager.c: 57:     LATA = 0x00;
  2095  001BCE  0E00               	movlw	0
  2096  001BD0  6E89               	movwf	137,c	;volatile
  2097                           
  2098                           ;mcc_generated_files/pin_manager.c: 58:     LATB = 0x00;
  2099  001BD2  0E00               	movlw	0
  2100  001BD4  6E8A               	movwf	138,c	;volatile
  2101                           
  2102                           ;mcc_generated_files/pin_manager.c: 59:     LATC = 0x00;
  2103  001BD6  0E00               	movlw	0
  2104  001BD8  6E8B               	movwf	139,c	;volatile
  2105                           
  2106                           ;mcc_generated_files/pin_manager.c: 64:     TRISA = 0x2F;
  2107  001BDA  0E2F               	movlw	47
  2108  001BDC  6E92               	movwf	146,c	;volatile
  2109  001BDE                     
  2110                           ;mcc_generated_files/pin_manager.c: 65:     TRISB = 0xFF;
  2111  001BDE  6893               	setf	147,c	;volatile
  2112                           
  2113                           ;mcc_generated_files/pin_manager.c: 66:     TRISC = 0x84;
  2114  001BE0  0E84               	movlw	132
  2115  001BE2  6E94               	movwf	148,c	;volatile
  2116                           
  2117                           ;mcc_generated_files/pin_manager.c: 71:     ANCON0 = 0x00;
  2118  001BE4  0E00               	movlw	0
  2119  001BE6  010F               	movlb	15	; () banked
  2120  001BE8  6F48               	movwf	72,b	;volatile
  2121                           
  2122                           ;mcc_generated_files/pin_manager.c: 72:     ANCON1 = 0x0E;
  2123  001BEA  0E0E               	movlw	14
  2124  001BEC  6F49               	movwf	73,b	;volatile
  2125  001BEE                     
  2126                           ; BSR set to: 15
  2127                           ;mcc_generated_files/pin_manager.c: 77:     INTCON2bits.nRBPU = 1;
  2128  001BEE  8EF1               	bsf	241,7,c	;volatile
  2129                           
  2130                           ;mcc_generated_files/pin_manager.c: 82:     ODCON1 = 0x00;
  2131  001BF0  0E00               	movlw	0
  2132  001BF2  6F42               	movwf	66,b	;volatile
  2133                           
  2134                           ;mcc_generated_files/pin_manager.c: 83:     ODCON2 = 0x00;
  2135  001BF4  0E00               	movlw	0
  2136  001BF6  6F41               	movwf	65,b	;volatile
  2137                           
  2138                           ;mcc_generated_files/pin_manager.c: 84:     ODCON3 = 0x00;
  2139  001BF8  0E00               	movlw	0
  2140  001BFA  6F40               	movwf	64,b	;volatile
  2141                           
  2142                           ;mcc_generated_files/pin_manager.c: 90:     RPINR16 = 0x12;
  2143  001BFC  0E12               	movlw	18
  2144  001BFE  010E               	movlb	14	; () banked
  2145  001C00  6FF7               	movwf	247,b	;volatile
  2146                           
  2147                           ;mcc_generated_files/pin_manager.c: 91:     RPOR17 = 0x06;
  2148  001C02  0E06               	movlw	6
  2149  001C04  6FD1               	movwf	209,b	;volatile
  2150  001C06                     
  2151                           ; BSR set to: 14
  2152  001C06  0012               	return		;funcret
  2153  001C08                     __end_of_PIN_MANAGER_Initialize:
  2154                           	callstack 0
  2155                           
  2156 ;; *************** function _OSCILLATOR_Initialize *****************
  2157 ;; Defined at:
  2158 ;;		line 63 in file "mcc_generated_files/mcc.c"
  2159 ;; Parameters:    Size  Location     Type
  2160 ;;		None
  2161 ;; Auto vars:     Size  Location     Type
  2162 ;;		None
  2163 ;; Return value:  Size  Location     Type
  2164 ;;                  1    wreg      void 
  2165 ;; Registers used:
  2166 ;;		wreg, status,2
  2167 ;; Tracked objects:
  2168 ;;		On entry : 0/0
  2169 ;;		On exit  : 0/0
  2170 ;;		Unchanged: 0/0
  2171 ;; Data sizes:     COMRAM   BANK0   BANK1   BANK2   BANK3   BANK4   BANK5   BANK6   BANK7   BANK8   BANK9  BANK10  BANK1
      +1  BANK12  BANK13  BANK14
  2172 ;;      Params:         0       0       0       0       0       0       0       0       0       0       0       0       
      +0       0       0       0
  2173 ;;      Locals:         0       0       0       0       0       0       0       0       0       0       0       0       
      +0       0       0       0
  2174 ;;      Temps:          0       0       0       0       0       0       0       0       0       0       0       0       
      +0       0       0       0
  2175 ;;      Totals:         0       0       0       0       0       0       0       0       0       0       0       0       
      +0       0       0       0
  2176 ;;Total ram usage:        0 bytes
  2177 ;; Hardware stack levels used: 1
  2178 ;; Hardware stack levels required when called: 7
  2179 ;; This function calls:
  2180 ;;		Nothing
  2181 ;; This function is called by:
  2182 ;;		_SYSTEM_Initialize
  2183 ;; This function uses a non-reentrant model
  2184 ;;
  2185                           
  2186                           	psect	text11
  2187  001E78                     __ptext11:
  2188                           	callstack 0
  2189  001E78                     _OSCILLATOR_Initialize:
  2190                           	callstack 22
  2191  001E78                     
  2192                           ;mcc_generated_files/mcc.c: 66:     OSCCON = 0x60;
  2193  001E78  0E60               	movlw	96
  2194  001E7A  6ED3               	movwf	211,c	;volatile
  2195                           
  2196                           ;mcc_generated_files/mcc.c: 68:     OSCTUNE = 0x00;
  2197  001E7C  0E00               	movlw	0
  2198  001E7E  6E9B               	movwf	155,c	;volatile
  2199                           
  2200                           ;mcc_generated_files/mcc.c: 70:     REFOCON = 0x00;
  2201  001E80  0E00               	movlw	0
  2202  001E82  010F               	movlb	15	; () banked
  2203  001E84  6F3D               	movwf	61,b	;volatile
  2204                           
  2205                           ;mcc_generated_files/mcc.c: 72:     OSCCON2 = 0x14;
  2206  001E86  0E14               	movlw	20
  2207  001E88  6E87               	movwf	135,c	;volatile
  2208  001E8A                     
  2209                           ; BSR set to: 15
  2210  001E8A  0012               	return		;funcret
  2211  001E8C                     __end_of_OSCILLATOR_Initialize:
  2212                           	callstack 0
  2213                           
  2214 ;; *************** function _INTERRUPT_Initialize *****************
  2215 ;; Defined at:
  2216 ;;		line 52 in file "mcc_generated_files/interrupt_manager.c"
  2217 ;; Parameters:    Size  Location     Type
  2218 ;;		None
  2219 ;; Auto vars:     Size  Location     Type
  2220 ;;		None
  2221 ;; Return value:  Size  Location     Type
  2222 ;;                  1    wreg      void 
  2223 ;; Registers used:
  2224 ;;		None
  2225 ;; Tracked objects:
  2226 ;;		On entry : 0/0
  2227 ;;		On exit  : 0/0
  2228 ;;		Unchanged: 0/0
  2229 ;; Data sizes:     COMRAM   BANK0   BANK1   BANK2   BANK3   BANK4   BANK5   BANK6   BANK7   BANK8   BANK9  BANK10  BANK1
      +1  BANK12  BANK13  BANK14
  2230 ;;      Params:         0       0       0       0       0       0       0       0       0       0       0       0       
      +0       0       0       0
  2231 ;;      Locals:         0       0       0       0       0       0       0       0       0       0       0       0       
      +0       0       0       0
  2232 ;;      Temps:          0       0       0       0       0       0       0       0       0       0       0       0       
      +0       0       0       0
  2233 ;;      Totals:         0       0       0       0       0       0       0       0       0       0       0       0       
      +0       0       0       0
  2234 ;;Total ram usage:        0 bytes
  2235 ;; Hardware stack levels used: 1
  2236 ;; Hardware stack levels required when called: 7
  2237 ;; This function calls:
  2238 ;;		Nothing
  2239 ;; This function is called by:
  2240 ;;		_SYSTEM_Initialize
  2241 ;; This function uses a non-reentrant model
  2242 ;;
  2243                           
  2244                           	psect	text12
  2245  001FB4                     __ptext12:
  2246                           	callstack 0
  2247  001FB4                     _INTERRUPT_Initialize:
  2248                           	callstack 22
  2249  001FB4                     
  2250                           ;mcc_generated_files/interrupt_manager.c: 55:     RCONbits.IPEN = 0;
  2251  001FB4  9ED0               	bcf	208,7,c	;volatile
  2252  001FB6  0012               	return		;funcret
  2253  001FB8                     __end_of_INTERRUPT_Initialize:
  2254                           	callstack 0
  2255                           
  2256 ;; *************** function _I2C1_Initialize *****************
  2257 ;; Defined at:
  2258 ;;		line 167 in file "mcc_generated_files/i2c1_master.c"
  2259 ;; Parameters:    Size  Location     Type
  2260 ;;		None
  2261 ;; Auto vars:     Size  Location     Type
  2262 ;;		None
  2263 ;; Return value:  Size  Location     Type
  2264 ;;                  1    wreg      void 
  2265 ;; Registers used:
  2266 ;;		wreg, status,2
  2267 ;; Tracked objects:
  2268 ;;		On entry : 0/0
  2269 ;;		On exit  : 0/0
  2270 ;;		Unchanged: 0/0
  2271 ;; Data sizes:     COMRAM   BANK0   BANK1   BANK2   BANK3   BANK4   BANK5   BANK6   BANK7   BANK8   BANK9  BANK10  BANK1
      +1  BANK12  BANK13  BANK14
  2272 ;;      Params:         0       0       0       0       0       0       0       0       0       0       0       0       
      +0       0       0       0
  2273 ;;      Locals:         0       0       0       0       0       0       0       0       0       0       0       0       
      +0       0       0       0
  2274 ;;      Temps:          0       0       0       0       0       0       0       0       0       0       0       0       
      +0       0       0       0
  2275 ;;      Totals:         0       0       0       0       0       0       0       0       0       0       0       0       
      +0       0       0       0
  2276 ;;Total ram usage:        0 bytes
  2277 ;; Hardware stack levels used: 1
  2278 ;; Hardware stack levels required when called: 7
  2279 ;; This function calls:
  2280 ;;		Nothing
  2281 ;; This function is called by:
  2282 ;;		_SYSTEM_Initialize
  2283 ;; This function uses a non-reentrant model
  2284 ;;
  2285                           
  2286                           	psect	text13
  2287  001E8C                     __ptext13:
  2288                           	callstack 0
  2289  001E8C                     _I2C1_Initialize:
  2290                           	callstack 22
  2291  001E8C                     
  2292                           ;mcc_generated_files/i2c1_master.c: 169:     SSP1STAT = 0x80;
  2293  001E8C  0E80               	movlw	128
  2294  001E8E  6EC7               	movwf	199,c	;volatile
  2295                           
  2296                           ;mcc_generated_files/i2c1_master.c: 170:     SSP1CON1 = 0x08;
  2297  001E90  0E08               	movlw	8
  2298  001E92  6EC6               	movwf	198,c	;volatile
  2299                           
  2300                           ;mcc_generated_files/i2c1_master.c: 171:     SSP1CON2 = 0x00;
  2301  001E94  0E00               	movlw	0
  2302  001E96  6EC5               	movwf	197,c	;volatile
  2303                           
  2304                           ;mcc_generated_files/i2c1_master.c: 172:     SSP1ADD = 0xEF;
  2305  001E98  0EEF               	movlw	239
  2306  001E9A  6EC8               	movwf	200,c	;volatile
  2307  001E9C                     
  2308                           ;mcc_generated_files/i2c1_master.c: 173:     SSP1CON1bits.SSPEN = 0;
  2309  001E9C  9AC6               	bcf	198,5,c	;volatile
  2310  001E9E  0012               	return		;funcret
  2311  001EA0                     __end_of_I2C1_Initialize:
  2312                           	callstack 0
  2313                           
  2314 ;; *************** function _EUSART2_Initialize *****************
  2315 ;; Defined at:
  2316 ;;		line 88 in file "mcc_generated_files/eusart2.c"
  2317 ;; Parameters:    Size  Location     Type
  2318 ;;		None
  2319 ;; Auto vars:     Size  Location     Type
  2320 ;;		None
  2321 ;; Return value:  Size  Location     Type
  2322 ;;                  1    wreg      void 
  2323 ;; Registers used:
  2324 ;;		wreg, status,2, status,0, cstack
  2325 ;; Tracked objects:
  2326 ;;		On entry : 0/0
  2327 ;;		On exit  : 0/0
  2328 ;;		Unchanged: 0/0
  2329 ;; Data sizes:     COMRAM   BANK0   BANK1   BANK2   BANK3   BANK4   BANK5   BANK6   BANK7   BANK8   BANK9  BANK10  BANK1
      +1  BANK12  BANK13  BANK14
  2330 ;;      Params:         0       0       0       0       0       0       0       0       0       0       0       0       
      +0       0       0       0
  2331 ;;      Locals:         0       0       0       0       0       0       0       0       0       0       0       0       
      +0       0       0       0
  2332 ;;      Temps:          0       0       0       0       0       0       0       0       0       0       0       0       
      +0       0       0       0
  2333 ;;      Totals:         0       0       0       0       0       0       0       0       0       0       0       0       
      +0       0       0       0
  2334 ;;Total ram usage:        0 bytes
  2335 ;; Hardware stack levels used: 1
  2336 ;; Hardware stack levels required when called: 8
  2337 ;; This function calls:
  2338 ;;		_EUSART2_SetErrorHandler
  2339 ;;		_EUSART2_SetFramingErrorHandler
  2340 ;;		_EUSART2_SetOverrunErrorHandler
  2341 ;;		_EUSART2_SetRxInterruptHandler
  2342 ;;		_EUSART2_SetTxInterruptHandler
  2343 ;; This function is called by:
  2344 ;;		_SYSTEM_Initialize
  2345 ;; This function uses a non-reentrant model
  2346 ;;
  2347                           
  2348                           	psect	text14
  2349  0018A4                     __ptext14:
  2350                           	callstack 0
  2351  0018A4                     _EUSART2_Initialize:
  2352                           	callstack 21
  2353  0018A4                     
  2354                           ;mcc_generated_files/eusart2.c: 91:     PIE3bits.RC2IE = 0;
  2355  0018A4  9AA3               	bcf	163,5,c	;volatile
  2356  0018A6                     
  2357                           ;mcc_generated_files/eusart2.c: 92:     EUSART2_SetRxInterruptHandler(EUSART2_Receive_IS
      +                          R);
  2358  0018A6  0E94               	movlw	low _EUSART2_Receive_ISR
  2359  0018A8  6E18               	movwf	EUSART2_SetRxInterruptHandler@interruptHandler^0,c
  2360  0018AA  0E14               	movlw	high _EUSART2_Receive_ISR
  2361  0018AC  6E19               	movwf	(EUSART2_SetRxInterruptHandler@interruptHandler+1)^0,c
  2362  0018AE  EC8E  F00F         	call	_EUSART2_SetRxInterruptHandler	;wreg free
  2363  0018B2                     
  2364                           ;mcc_generated_files/eusart2.c: 93:     PIE3bits.TX2IE = 0;
  2365  0018B2  98A3               	bcf	163,4,c	;volatile
  2366                           
  2367                           ;mcc_generated_files/eusart2.c: 94:     EUSART2_SetTxInterruptHandler(EUSART2_Transmit_I
      +                          SR);
  2368  0018B4  0E8E               	movlw	low _EUSART2_Transmit_ISR
  2369  0018B6  6E18               	movwf	EUSART2_SetTxInterruptHandler@interruptHandler^0,c
  2370  0018B8  0E1B               	movlw	high _EUSART2_Transmit_ISR
  2371  0018BA  6E19               	movwf	(EUSART2_SetTxInterruptHandler@interruptHandler+1)^0,c
  2372  0018BC  EC89  F00F         	call	_EUSART2_SetTxInterruptHandler	;wreg free
  2373  0018C0                     
  2374                           ;mcc_generated_files/eusart2.c: 98:     BAUDCON2 = 0x08;
  2375  0018C0  0E08               	movlw	8
  2376  0018C2  6E7C               	movwf	124,c	;volatile
  2377  0018C4                     
  2378                           ;mcc_generated_files/eusart2.c: 101:     RCSTA2 = 0x90;
  2379  0018C4  0E90               	movlw	144
  2380  0018C6  6E9C               	movwf	156,c	;volatile
  2381  0018C8                     
  2382                           ;mcc_generated_files/eusart2.c: 104:     TXSTA2 = 0x24;
  2383  0018C8  0E24               	movlw	36
  2384  0018CA  6EA8               	movwf	168,c	;volatile
  2385  0018CC                     
  2386                           ;mcc_generated_files/eusart2.c: 107:     SPBRG2 = 0x0F;
  2387  0018CC  0E0F               	movlw	15
  2388  0018CE  6EAB               	movwf	171,c	;volatile
  2389  0018D0                     
  2390                           ;mcc_generated_files/eusart2.c: 110:     SPBRGH2 = 0x27;
  2391  0018D0  0E27               	movlw	39
  2392  0018D2  6E7D               	movwf	125,c	;volatile
  2393  0018D4                     
  2394                           ;mcc_generated_files/eusart2.c: 113:     EUSART2_SetFramingErrorHandler(EUSART2_DefaultF
      +                          ramingErrorHandler);
  2395  0018D4  0EEC               	movlw	low _EUSART2_DefaultFramingErrorHandler
  2396  0018D6  6E18               	movwf	EUSART2_SetFramingErrorHandler@interruptHandler^0,c
  2397  0018D8  0E1F               	movlw	high _EUSART2_DefaultFramingErrorHandler
  2398  0018DA  6E19               	movwf	(EUSART2_SetFramingErrorHandler@interruptHandler+1)^0,c
  2399  0018DC  EC98  F00F         	call	_EUSART2_SetFramingErrorHandler	;wreg free
  2400  0018E0                     
  2401                           ;mcc_generated_files/eusart2.c: 114:     EUSART2_SetOverrunErrorHandler(EUSART2_DefaultO
      +                          verrunErrorHandler);
  2402  0018E0  0EA8               	movlw	low _EUSART2_DefaultOverrunErrorHandler
  2403  0018E2  6E18               	movwf	EUSART2_SetOverrunErrorHandler@interruptHandler^0,c
  2404  0018E4  0E1F               	movlw	high _EUSART2_DefaultOverrunErrorHandler
  2405  0018E6  6E19               	movwf	(EUSART2_SetOverrunErrorHandler@interruptHandler+1)^0,c
  2406  0018E8  EC93  F00F         	call	_EUSART2_SetOverrunErrorHandler	;wreg free
  2407  0018EC                     
  2408                           ;mcc_generated_files/eusart2.c: 115:     EUSART2_SetErrorHandler(EUSART2_DefaultErrorHan
      +                          dler);
  2409  0018EC  0EAE               	movlw	low _EUSART2_DefaultErrorHandler
  2410  0018EE  6E18               	movwf	EUSART2_SetErrorHandler@interruptHandler^0,c
  2411  0018F0  0E1F               	movlw	high _EUSART2_DefaultErrorHandler
  2412  0018F2  6E19               	movwf	(EUSART2_SetErrorHandler@interruptHandler+1)^0,c
  2413  0018F4  EC9D  F00F         	call	_EUSART2_SetErrorHandler	;wreg free
  2414                           
  2415                           ;mcc_generated_files/eusart2.c: 117:     eusart2RxLastError.status = 0;
  2416  0018F8  0E00               	movlw	0
  2417  0018FA  6E3B               	movwf	_eusart2RxLastError^0,c	;volatile
  2418                           
  2419                           ;mcc_generated_files/eusart2.c: 120:     eusart2TxHead = 0;
  2420  0018FC  0E00               	movlw	0
  2421  0018FE  6E40               	movwf	_eusart2TxHead^0,c	;volatile
  2422                           
  2423                           ;mcc_generated_files/eusart2.c: 121:     eusart2TxTail = 0;
  2424  001900  0E00               	movlw	0
  2425  001902  6E3F               	movwf	_eusart2TxTail^0,c	;volatile
  2426                           
  2427                           ;mcc_generated_files/eusart2.c: 122:     eusart2TxBufferRemaining = sizeof(eusart2TxBuff
      +                          er);
  2428  001904  0E08               	movlw	8
  2429  001906  6E47               	movwf	_eusart2TxBufferRemaining^0,c	;volatile
  2430                           
  2431                           ;mcc_generated_files/eusart2.c: 124:     eusart2RxHead = 0;
  2432  001908  0E00               	movlw	0
  2433  00190A  6E3E               	movwf	_eusart2RxHead^0,c	;volatile
  2434                           
  2435                           ;mcc_generated_files/eusart2.c: 125:     eusart2RxTail = 0;
  2436  00190C  0E00               	movlw	0
  2437  00190E  6E3D               	movwf	_eusart2RxTail^0,c	;volatile
  2438                           
  2439                           ;mcc_generated_files/eusart2.c: 126:     eusart2RxCount = 0;
  2440  001910  0E00               	movlw	0
  2441  001912  6E3C               	movwf	_eusart2RxCount^0,c	;volatile
  2442  001914                     
  2443                           ;mcc_generated_files/eusart2.c: 129:     PIE3bits.RC2IE = 1;
  2444  001914  8AA3               	bsf	163,5,c	;volatile
  2445  001916  0012               	return		;funcret
  2446  001918                     __end_of_EUSART2_Initialize:
  2447                           	callstack 0
  2448                           
  2449 ;; *************** function _EUSART2_SetTxInterruptHandler *****************
  2450 ;; Defined at:
  2451 ;;		line 285 in file "mcc_generated_files/eusart2.c"
  2452 ;; Parameters:    Size  Location     Type
  2453 ;;  interruptHan    2   23[COMRAM] PTR FTN()void 
  2454 ;;		 -> EUSART2_Transmit_ISR(1), 
  2455 ;; Auto vars:     Size  Location     Type
  2456 ;;		None
  2457 ;; Return value:  Size  Location     Type
  2458 ;;                  1    wreg      void 
  2459 ;; Registers used:
  2460 ;;		wreg, status,2, status,0
  2461 ;; Tracked objects:
  2462 ;;		On entry : 0/0
  2463 ;;		On exit  : 0/0
  2464 ;;		Unchanged: 0/0
  2465 ;; Data sizes:     COMRAM   BANK0   BANK1   BANK2   BANK3   BANK4   BANK5   BANK6   BANK7   BANK8   BANK9  BANK10  BANK1
      +1  BANK12  BANK13  BANK14
  2466 ;;      Params:         2       0       0       0       0       0       0       0       0       0       0       0       
      +0       0       0       0
  2467 ;;      Locals:         0       0       0       0       0       0       0       0       0       0       0       0       
      +0       0       0       0
  2468 ;;      Temps:          0       0       0       0       0       0       0       0       0       0       0       0       
      +0       0       0       0
  2469 ;;      Totals:         2       0       0       0       0       0       0       0       0       0       0       0       
      +0       0       0       0
  2470 ;;Total ram usage:        2 bytes
  2471 ;; Hardware stack levels used: 1
  2472 ;; Hardware stack levels required when called: 7
  2473 ;; This function calls:
  2474 ;;		Nothing
  2475 ;; This function is called by:
  2476 ;;		_EUSART2_Initialize
  2477 ;; This function uses a non-reentrant model
  2478 ;;
  2479                           
  2480                           	psect	text15
  2481  001F12                     __ptext15:
  2482                           	callstack 0
  2483  001F12                     _EUSART2_SetTxInterruptHandler:
  2484                           	callstack 21
  2485  001F12                     
  2486                           ;mcc_generated_files/eusart2.c: 286:     EUSART2_TxDefaultInterruptHandler = interruptHa
      +                          ndler;
  2487  001F12  C018  F045         	movff	EUSART2_SetTxInterruptHandler@interruptHandler,_EUSART2_TxDefaultInterruptHandler
  2488  001F16  C019  F046         	movff	EUSART2_SetTxInterruptHandler@interruptHandler+1,_EUSART2_TxDefaultInterruptHandl
      +                          er+1
  2489  001F1A  0012               	return		;funcret
  2490  001F1C                     __end_of_EUSART2_SetTxInterruptHandler:
  2491                           	callstack 0
  2492                           
  2493 ;; *************** function _EUSART2_SetRxInterruptHandler *****************
  2494 ;; Defined at:
  2495 ;;		line 289 in file "mcc_generated_files/eusart2.c"
  2496 ;; Parameters:    Size  Location     Type
  2497 ;;  interruptHan    2   23[COMRAM] PTR FTN()void 
  2498 ;;		 -> EUSART2_Receive_ISR(1), 
  2499 ;; Auto vars:     Size  Location     Type
  2500 ;;		None
  2501 ;; Return value:  Size  Location     Type
  2502 ;;                  1    wreg      void 
  2503 ;; Registers used:
  2504 ;;		wreg, status,2, status,0
  2505 ;; Tracked objects:
  2506 ;;		On entry : 0/0
  2507 ;;		On exit  : 0/0
  2508 ;;		Unchanged: 0/0
  2509 ;; Data sizes:     COMRAM   BANK0   BANK1   BANK2   BANK3   BANK4   BANK5   BANK6   BANK7   BANK8   BANK9  BANK10  BANK1
      +1  BANK12  BANK13  BANK14
  2510 ;;      Params:         2       0       0       0       0       0       0       0       0       0       0       0       
      +0       0       0       0
  2511 ;;      Locals:         0       0       0       0       0       0       0       0       0       0       0       0       
      +0       0       0       0
  2512 ;;      Temps:          0       0       0       0       0       0       0       0       0       0       0       0       
      +0       0       0       0
  2513 ;;      Totals:         2       0       0       0       0       0       0       0       0       0       0       0       
      +0       0       0       0
  2514 ;;Total ram usage:        2 bytes
  2515 ;; Hardware stack levels used: 1
  2516 ;; Hardware stack levels required when called: 7
  2517 ;; This function calls:
  2518 ;;		Nothing
  2519 ;; This function is called by:
  2520 ;;		_EUSART2_Initialize
  2521 ;; This function uses a non-reentrant model
  2522 ;;
  2523                           
  2524                           	psect	text16
  2525  001F1C                     __ptext16:
  2526                           	callstack 0
  2527  001F1C                     _EUSART2_SetRxInterruptHandler:
  2528                           	callstack 21
  2529  001F1C                     
  2530                           ;mcc_generated_files/eusart2.c: 290:     EUSART2_RxDefaultInterruptHandler = interruptHa
      +                          ndler;
  2531  001F1C  C018  F043         	movff	EUSART2_SetRxInterruptHandler@interruptHandler,_EUSART2_RxDefaultInterruptHandler
  2532  001F20  C019  F044         	movff	EUSART2_SetRxInterruptHandler@interruptHandler+1,_EUSART2_RxDefaultInterruptHandl
      +                          er+1
  2533  001F24  0012               	return		;funcret
  2534  001F26                     __end_of_EUSART2_SetRxInterruptHandler:
  2535                           	callstack 0
  2536                           
  2537 ;; *************** function _EUSART2_SetOverrunErrorHandler *****************
  2538 ;; Defined at:
  2539 ;;		line 277 in file "mcc_generated_files/eusart2.c"
  2540 ;; Parameters:    Size  Location     Type
  2541 ;;  interruptHan    2   23[COMRAM] PTR FTN()void 
  2542 ;;		 -> EUSART2_DefaultOverrunErrorHandler(1), 
  2543 ;; Auto vars:     Size  Location     Type
  2544 ;;		None
  2545 ;; Return value:  Size  Location     Type
  2546 ;;                  1    wreg      void 
  2547 ;; Registers used:
  2548 ;;		wreg, status,2, status,0
  2549 ;; Tracked objects:
  2550 ;;		On entry : 0/0
  2551 ;;		On exit  : 0/0
  2552 ;;		Unchanged: 0/0
  2553 ;; Data sizes:     COMRAM   BANK0   BANK1   BANK2   BANK3   BANK4   BANK5   BANK6   BANK7   BANK8   BANK9  BANK10  BANK1
      +1  BANK12  BANK13  BANK14
  2554 ;;      Params:         2       0       0       0       0       0       0       0       0       0       0       0       
      +0       0       0       0
  2555 ;;      Locals:         0       0       0       0       0       0       0       0       0       0       0       0       
      +0       0       0       0
  2556 ;;      Temps:          0       0       0       0       0       0       0       0       0       0       0       0       
      +0       0       0       0
  2557 ;;      Totals:         2       0       0       0       0       0       0       0       0       0       0       0       
      +0       0       0       0
  2558 ;;Total ram usage:        2 bytes
  2559 ;; Hardware stack levels used: 1
  2560 ;; Hardware stack levels required when called: 7
  2561 ;; This function calls:
  2562 ;;		Nothing
  2563 ;; This function is called by:
  2564 ;;		_EUSART2_Initialize
  2565 ;; This function uses a non-reentrant model
  2566 ;;
  2567                           
  2568                           	psect	text17
  2569  001F26                     __ptext17:
  2570                           	callstack 0
  2571  001F26                     _EUSART2_SetOverrunErrorHandler:
  2572                           	callstack 21
  2573  001F26                     
  2574                           ;mcc_generated_files/eusart2.c: 278:     EUSART2_OverrunErrorHandler = interruptHandler;
  2575  001F26  C018  F0CD         	movff	EUSART2_SetOverrunErrorHandler@interruptHandler,_EUSART2_OverrunErrorHandler
  2576  001F2A  C019  F0CE         	movff	EUSART2_SetOverrunErrorHandler@interruptHandler+1,_EUSART2_OverrunErrorHandler+1
  2577  001F2E  0012               	return		;funcret
  2578  001F30                     __end_of_EUSART2_SetOverrunErrorHandler:
  2579                           	callstack 0
  2580                           
  2581 ;; *************** function _EUSART2_SetFramingErrorHandler *****************
  2582 ;; Defined at:
  2583 ;;		line 273 in file "mcc_generated_files/eusart2.c"
  2584 ;; Parameters:    Size  Location     Type
  2585 ;;  interruptHan    2   23[COMRAM] PTR FTN()void 
  2586 ;;		 -> EUSART2_DefaultFramingErrorHandler(1), 
  2587 ;; Auto vars:     Size  Location     Type
  2588 ;;		None
  2589 ;; Return value:  Size  Location     Type
  2590 ;;                  1    wreg      void 
  2591 ;; Registers used:
  2592 ;;		wreg, status,2, status,0
  2593 ;; Tracked objects:
  2594 ;;		On entry : 0/0
  2595 ;;		On exit  : 0/0
  2596 ;;		Unchanged: 0/0
  2597 ;; Data sizes:     COMRAM   BANK0   BANK1   BANK2   BANK3   BANK4   BANK5   BANK6   BANK7   BANK8   BANK9  BANK10  BANK1
      +1  BANK12  BANK13  BANK14
  2598 ;;      Params:         2       0       0       0       0       0       0       0       0       0       0       0       
      +0       0       0       0
  2599 ;;      Locals:         0       0       0       0       0       0       0       0       0       0       0       0       
      +0       0       0       0
  2600 ;;      Temps:          0       0       0       0       0       0       0       0       0       0       0       0       
      +0       0       0       0
  2601 ;;      Totals:         2       0       0       0       0       0       0       0       0       0       0       0       
      +0       0       0       0
  2602 ;;Total ram usage:        2 bytes
  2603 ;; Hardware stack levels used: 1
  2604 ;; Hardware stack levels required when called: 7
  2605 ;; This function calls:
  2606 ;;		Nothing
  2607 ;; This function is called by:
  2608 ;;		_EUSART2_Initialize
  2609 ;; This function uses a non-reentrant model
  2610 ;;
  2611                           
  2612                           	psect	text18
  2613  001F30                     __ptext18:
  2614                           	callstack 0
  2615  001F30                     _EUSART2_SetFramingErrorHandler:
  2616                           	callstack 21
  2617  001F30                     
  2618                           ;mcc_generated_files/eusart2.c: 274:     EUSART2_FramingErrorHandler = interruptHandler;
  2619  001F30  C018  F0CF         	movff	EUSART2_SetFramingErrorHandler@interruptHandler,_EUSART2_FramingErrorHandler
  2620  001F34  C019  F0D0         	movff	EUSART2_SetFramingErrorHandler@interruptHandler+1,_EUSART2_FramingErrorHandler+1
  2621  001F38  0012               	return		;funcret
  2622  001F3A                     __end_of_EUSART2_SetFramingErrorHandler:
  2623                           	callstack 0
  2624                           
  2625 ;; *************** function _EUSART2_SetErrorHandler *****************
  2626 ;; Defined at:
  2627 ;;		line 281 in file "mcc_generated_files/eusart2.c"
  2628 ;; Parameters:    Size  Location     Type
  2629 ;;  interruptHan    2   23[COMRAM] PTR FTN()void 
  2630 ;;		 -> EUSART2_DefaultErrorHandler(1), 
  2631 ;; Auto vars:     Size  Location     Type
  2632 ;;		None
  2633 ;; Return value:  Size  Location     Type
  2634 ;;                  1    wreg      void 
  2635 ;; Registers used:
  2636 ;;		wreg, status,2, status,0
  2637 ;; Tracked objects:
  2638 ;;		On entry : 0/0
  2639 ;;		On exit  : 0/0
  2640 ;;		Unchanged: 0/0
  2641 ;; Data sizes:     COMRAM   BANK0   BANK1   BANK2   BANK3   BANK4   BANK5   BANK6   BANK7   BANK8   BANK9  BANK10  BANK1
      +1  BANK12  BANK13  BANK14
  2642 ;;      Params:         2       0       0       0       0       0       0       0       0       0       0       0       
      +0       0       0       0
  2643 ;;      Locals:         0       0       0       0       0       0       0       0       0       0       0       0       
      +0       0       0       0
  2644 ;;      Temps:          0       0       0       0       0       0       0       0       0       0       0       0       
      +0       0       0       0
  2645 ;;      Totals:         2       0       0       0       0       0       0       0       0       0       0       0       
      +0       0       0       0
  2646 ;;Total ram usage:        2 bytes
  2647 ;; Hardware stack levels used: 1
  2648 ;; Hardware stack levels required when called: 7
  2649 ;; This function calls:
  2650 ;;		Nothing
  2651 ;; This function is called by:
  2652 ;;		_EUSART2_Initialize
  2653 ;; This function uses a non-reentrant model
  2654 ;;
  2655                           
  2656                           	psect	text19
  2657  001F3A                     __ptext19:
  2658                           	callstack 0
  2659  001F3A                     _EUSART2_SetErrorHandler:
  2660                           	callstack 21
  2661  001F3A                     
  2662                           ;mcc_generated_files/eusart2.c: 282:     EUSART2_ErrorHandler = interruptHandler;
  2663  001F3A  C018  F0CB         	movff	EUSART2_SetErrorHandler@interruptHandler,_EUSART2_ErrorHandler
  2664  001F3E  C019  F0CC         	movff	EUSART2_SetErrorHandler@interruptHandler+1,_EUSART2_ErrorHandler+1
  2665  001F42  0012               	return		;funcret
  2666  001F44                     __end_of_EUSART2_SetErrorHandler:
  2667                           	callstack 0
  2668                           
  2669 ;; *************** function _ADC_Initialize *****************
  2670 ;; Defined at:
  2671 ;;		line 61 in file "mcc_generated_files/adc.c"
  2672 ;; Parameters:    Size  Location     Type
  2673 ;;		None
  2674 ;; Auto vars:     Size  Location     Type
  2675 ;;		None
  2676 ;; Return value:  Size  Location     Type
  2677 ;;                  1    wreg      void 
  2678 ;; Registers used:
  2679 ;;		wreg, status,2
  2680 ;; Tracked objects:
  2681 ;;		On entry : 0/0
  2682 ;;		On exit  : 0/0
  2683 ;;		Unchanged: 0/0
  2684 ;; Data sizes:     COMRAM   BANK0   BANK1   BANK2   BANK3   BANK4   BANK5   BANK6   BANK7   BANK8   BANK9  BANK10  BANK1
      +1  BANK12  BANK13  BANK14
  2685 ;;      Params:         0       0       0       0       0       0       0       0       0       0       0       0       
      +0       0       0       0
  2686 ;;      Locals:         0       0       0       0       0       0       0       0       0       0       0       0       
      +0       0       0       0
  2687 ;;      Temps:          0       0       0       0       0       0       0       0       0       0       0       0       
      +0       0       0       0
  2688 ;;      Totals:         0       0       0       0       0       0       0       0       0       0       0       0       
      +0       0       0       0
  2689 ;;Total ram usage:        0 bytes
  2690 ;; Hardware stack levels used: 1
  2691 ;; Hardware stack levels required when called: 7
  2692 ;; This function calls:
  2693 ;;		Nothing
  2694 ;; This function is called by:
  2695 ;;		_SYSTEM_Initialize
  2696 ;; This function uses a non-reentrant model
  2697 ;;
  2698                           
  2699                           	psect	text20
  2700  001E12                     __ptext20:
  2701                           	callstack 0
  2702  001E12                     _ADC_Initialize:
  2703                           	callstack 22
  2704  001E12                     
  2705                           ;mcc_generated_files/adc.c: 66:     ADCON1 = 0x01;
  2706  001E12  0E01               	movlw	1
  2707  001E14  6EC1               	movwf	193,c	;volatile
  2708                           
  2709                           ;mcc_generated_files/adc.c: 69:     ADCTRIG = 0x02;
  2710  001E16  0E02               	movlw	2
  2711  001E18  010E               	movlb	14	; () banked
  2712  001E1A  6FB8               	movwf	184,b	;volatile
  2713                           
  2714                           ;mcc_generated_files/adc.c: 72:     ANCON1 = 0x00;
  2715  001E1C  0E00               	movlw	0
  2716  001E1E  010F               	movlb	15	; () banked
  2717  001E20  6F49               	movwf	73,b	;volatile
  2718                           
  2719                           ;mcc_generated_files/adc.c: 75:     ADRESL = 0x00;
  2720  001E22  0E00               	movlw	0
  2721  001E24  6EC3               	movwf	195,c	;volatile
  2722                           
  2723                           ;mcc_generated_files/adc.c: 78:     ADRESH = 0x00;
  2724  001E26  0E00               	movlw	0
  2725  001E28  6EC4               	movwf	196,c	;volatile
  2726                           
  2727                           ;mcc_generated_files/adc.c: 81:     ADCON0 = 0x01;
  2728  001E2A  0E01               	movlw	1
  2729  001E2C  6EC2               	movwf	194,c	;volatile
  2730  001E2E                     
  2731                           ; BSR set to: 15
  2732  001E2E  0012               	return		;funcret
  2733  001E30                     __end_of_ADC_Initialize:
  2734                           	callstack 0
  2735                           
  2736 ;; *************** function _I2C1_Write1ByteRegister *****************
  2737 ;; Defined at:
  2738 ;;		line 91 in file "mcc_generated_files/examples/i2c1_master_example.c"
  2739 ;; Parameters:    Size  Location     Type
  2740 ;;  address         1    wreg     unsigned char 
  2741 ;;  reg             1   32[COMRAM] unsigned char 
  2742 ;;  data            1   33[COMRAM] unsigned char 
  2743 ;; Auto vars:     Size  Location     Type
  2744 ;;  address         1   34[COMRAM] unsigned char 
  2745 ;; Return value:  Size  Location     Type
  2746 ;;                  1    wreg      void 
  2747 ;; Registers used:
  2748 ;;		wreg, fsr2l, fsr2h, status,2, status,0, prodl, prodh, cstack
  2749 ;; Tracked objects:
  2750 ;;		On entry : 0/0
  2751 ;;		On exit  : 0/0
  2752 ;;		Unchanged: 0/0
  2753 ;; Data sizes:     COMRAM   BANK0   BANK1   BANK2   BANK3   BANK4   BANK5   BANK6   BANK7   BANK8   BANK9  BANK10  BANK1
      +1  BANK12  BANK13  BANK14
  2754 ;;      Params:         2       0       0       0       0       0       0       0       0       0       0       0       
      +0       0       0       0
  2755 ;;      Locals:         1       0       0       0       0       0       0       0       0       0       0       0       
      +0       0       0       0
  2756 ;;      Temps:          0       0       0       0       0       0       0       0       0       0       0       0       
      +0       0       0       0
  2757 ;;      Totals:         3       0       0       0       0       0       0       0       0       0       0       0       
      +0       0       0       0
  2758 ;;Total ram usage:        3 bytes
  2759 ;; Hardware stack levels used: 1
  2760 ;; Hardware stack levels required when called: 10
  2761 ;; This function calls:
  2762 ;;		_I2C1_Close
  2763 ;;		_I2C1_MasterWrite
  2764 ;;		_I2C1_Open
  2765 ;;		_I2C1_SetAddressNackCallback
  2766 ;;		_I2C1_SetBuffer
  2767 ;;		_I2C1_SetDataCompleteCallback
  2768 ;; This function is called by:
  2769 ;;		_main
  2770 ;; This function uses a non-reentrant model
  2771 ;;
  2772                           
  2773                           	psect	text21
  2774  001918                     __ptext21:
  2775                           	callstack 0
  2776  001918                     _I2C1_Write1ByteRegister:
  2777                           	callstack 20
  2778                           
  2779                           ; BSR set to: 15
  2780                           ;incstack = 0
  2781                           ;I2C1_Write1ByteRegister@address stored from wreg
  2782  001918  6E23               	movwf	I2C1_Write1ByteRegister@address^0,c
  2783  00191A                     l4056:
  2784  00191A  5023               	movf	I2C1_Write1ByteRegister@address^0,w,c
  2785  00191C  ECFF  F00A         	call	_I2C1_Open
  2786  001920  0900               	iorlw	0
  2787  001922  B4D8               	btfsc	status,2,c
  2788  001924  EF96  F00C         	goto	u1791
  2789  001928  EF98  F00C         	goto	u1790
  2790  00192C                     u1791:
  2791  00192C  EF8D  F00C         	goto	l4056
  2792  001930                     u1790:
  2793  001930                     
  2794                           ;mcc_generated_files/examples/i2c1_master_example.c: 94:     I2C1_SetDataCompleteCallbac
      +                          k(wr1RegCompleteHandler,&data);
  2795  001930  0E34               	movlw	low _wr1RegCompleteHandler
  2796  001932  6E1D               	movwf	I2C1_SetDataCompleteCallback@cb^0,c
  2797  001934  0E1C               	movlw	high _wr1RegCompleteHandler
  2798  001936  6E1E               	movwf	(I2C1_SetDataCompleteCallback@cb+1)^0,c
  2799  001938  0E22               	movlw	low I2C1_Write1ByteRegister@data
  2800  00193A  6E1F               	movwf	I2C1_SetDataCompleteCallback@ptr^0,c
  2801  00193C  0E00               	movlw	high I2C1_Write1ByteRegister@data
  2802  00193E  6E20               	movwf	(I2C1_SetDataCompleteCallback@ptr+1)^0,c
  2803  001940  EC18  F00F         	call	_I2C1_SetDataCompleteCallback	;wreg free
  2804  001944                     
  2805                           ;mcc_generated_files/examples/i2c1_master_example.c: 95:     I2C1_SetBuffer(&reg,1);
  2806  001944  0E21               	movlw	low I2C1_Write1ByteRegister@reg
  2807  001946  6E18               	movwf	I2C1_SetBuffer@buffer^0,c
  2808  001948  0E00               	movlw	high I2C1_Write1ByteRegister@reg
  2809  00194A  6E19               	movwf	(I2C1_SetBuffer@buffer+1)^0,c
  2810  00194C  0E00               	movlw	0
  2811  00194E  6E1B               	movwf	(I2C1_SetBuffer@bufferSize+1)^0,c
  2812  001950  0E01               	movlw	1
  2813  001952  6E1A               	movwf	I2C1_SetBuffer@bufferSize^0,c
  2814  001954  ECC3  F00E         	call	_I2C1_SetBuffer	;wreg free
  2815  001958                     
  2816                           ;mcc_generated_files/examples/i2c1_master_example.c: 96:     I2C1_SetAddressNackCallback
      +                          (((void*)0),((void*)0));
  2817  001958  0E00               	movlw	0
  2818  00195A  6E1D               	movwf	I2C1_SetAddressNackCallback@cb^0,c
  2819  00195C  0E00               	movlw	0
  2820  00195E  6E1E               	movwf	(I2C1_SetAddressNackCallback@cb+1)^0,c
  2821  001960  0E00               	movlw	0
  2822  001962  6E1F               	movwf	I2C1_SetAddressNackCallback@ptr^0,c
  2823  001964  0E00               	movlw	0
  2824  001966  6E20               	movwf	(I2C1_SetAddressNackCallback@ptr+1)^0,c
  2825  001968  EC24  F00F         	call	_I2C1_SetAddressNackCallback	;wreg free
  2826  00196C                     
  2827                           ;mcc_generated_files/examples/i2c1_master_example.c: 97:     I2C1_MasterWrite();
  2828  00196C  ECA7  F00F         	call	_I2C1_MasterWrite	;wreg free
  2829  001970                     l4066:
  2830  001970  EC04  F00E         	call	_I2C1_Close	;wreg free
  2831  001974  06E8               	decf	wreg,f,c
  2832  001976  B4D8               	btfsc	status,2,c
  2833  001978  EFC0  F00C         	goto	u1801
  2834  00197C  EFC2  F00C         	goto	u1800
  2835  001980                     u1801:
  2836  001980  EFB8  F00C         	goto	l4066
  2837  001984                     u1800:
  2838  001984  0012               	return		;funcret
  2839  001986                     __end_of_I2C1_Write1ByteRegister:
  2840                           	callstack 0
  2841                           
  2842 ;; *************** function _I2C1_SetDataCompleteCallback *****************
  2843 ;; Defined at:
  2844 ;;		line 274 in file "mcc_generated_files/i2c1_master.c"
  2845 ;; Parameters:    Size  Location     Type
  2846 ;;  cb              2   28[COMRAM] PTR FTN(PTR void ,)enum 
  2847 ;;		 -> Absolute function(1), rdBlkRegCompleteHandler(1), wr2RegCompleteHandler(1), wr1RegCompleteHandler(1), 
  2848 ;;		 -> rd2RegCompleteHandler(1), rd1RegCompleteHandler(1), 
  2849 ;;  ptr             2   30[COMRAM] PTR void 
  2850 ;;		 -> I2C1_ReadDataBlock@bufferBlock(4), I2C1_Write2ByteRegister@data(2), I2C1_Write1ByteRegister@data(1), I2C1_Read2B
      +yteRegister@returnValue(2), 
  2851 ;;		 -> NULL(0), I2C1_Read1ByteRegister@returnValue(1), 
  2852 ;; Auto vars:     Size  Location     Type
  2853 ;;		None
  2854 ;; Return value:  Size  Location     Type
  2855 ;;                  1    wreg      void 
  2856 ;; Registers used:
  2857 ;;		wreg, fsr2l, fsr2h, status,2, status,0, prodl, prodh, cstack
  2858 ;; Tracked objects:
  2859 ;;		On entry : 0/0
  2860 ;;		On exit  : 0/0
  2861 ;;		Unchanged: 0/0
  2862 ;; Data sizes:     COMRAM   BANK0   BANK1   BANK2   BANK3   BANK4   BANK5   BANK6   BANK7   BANK8   BANK9  BANK10  BANK1
      +1  BANK12  BANK13  BANK14
  2863 ;;      Params:         4       0       0       0       0       0       0       0       0       0       0       0       
      +0       0       0       0
  2864 ;;      Locals:         0       0       0       0       0       0       0       0       0       0       0       0       
      +0       0       0       0
  2865 ;;      Temps:          0       0       0       0       0       0       0       0       0       0       0       0       
      +0       0       0       0
  2866 ;;      Totals:         4       0       0       0       0       0       0       0       0       0       0       0       
      +0       0       0       0
  2867 ;;Total ram usage:        4 bytes
  2868 ;; Hardware stack levels used: 1
  2869 ;; Hardware stack levels required when called: 8
  2870 ;; This function calls:
  2871 ;;		_I2C1_SetCallback
  2872 ;; This function is called by:
  2873 ;;		_I2C1_Write1ByteRegister
  2874 ;;		_I2C1_Read1ByteRegister
  2875 ;;		_I2C1_Read2ByteRegister
  2876 ;;		_I2C1_Write2ByteRegister
  2877 ;;		_I2C1_ReadDataBlock
  2878 ;; This function uses a non-reentrant model
  2879 ;;
  2880                           
  2881                           	psect	text22
  2882  001E30                     __ptext22:
  2883                           	callstack 0
  2884  001E30                     _I2C1_SetDataCompleteCallback:
  2885                           	callstack 21
  2886  001E30                     
  2887                           ;mcc_generated_files/i2c1_master.c: 274: void I2C1_SetDataCompleteCallback(i2c1_callback
      +                          _t cb, void *ptr);mcc_generated_files/i2c1_master.c: 275: {;mcc_generated_files/i2c1_mas
      +                          ter.c: 276:     I2C1_SetCallback(I2C1_DATA_COMPLETE, cb, ptr);
  2888  001E30  C01D  F018         	movff	I2C1_SetDataCompleteCallback@cb,I2C1_SetCallback@cb
  2889  001E34  C01E  F019         	movff	I2C1_SetDataCompleteCallback@cb+1,I2C1_SetCallback@cb+1
  2890  001E38  C01F  F01A         	movff	I2C1_SetDataCompleteCallback@ptr,I2C1_SetCallback@ptr
  2891  001E3C  C020  F01B         	movff	I2C1_SetDataCompleteCallback@ptr+1,I2C1_SetCallback@ptr+1
  2892  001E40  0E00               	movlw	0
  2893  001E42  ECD8  F00B         	call	_I2C1_SetCallback
  2894  001E46  0012               	return		;funcret
  2895  001E48                     __end_of_I2C1_SetDataCompleteCallback:
  2896                           	callstack 0
  2897                           
  2898 ;; *************** function _I2C1_SetBuffer *****************
  2899 ;; Defined at:
  2900 ;;		line 264 in file "mcc_generated_files/i2c1_master.c"
  2901 ;; Parameters:    Size  Location     Type
  2902 ;;  buffer          2   23[COMRAM] PTR void 
  2903 ;;		 -> I2C1_ReadDataBlock@reg(1), I2C1_ReadDataBlock@bufferBlock(4), I2C1_Write2ByteRegister@reg(1), I2C1_Write2ByteReg
      +ister@data(2), 
  2904 ;;		 -> I2C1_Write1ByteRegister@reg(1), I2C1_Write1ByteRegister@data(1), I2C1_Read2ByteRegister@reg(1), I2C1_Read2ByteRe
      +gister@returnValue(2), 
  2905 ;;		 -> NULL(0), I2C1_Read1ByteRegister@reg(1), I2C1_Read1ByteRegister@returnValue(1), 
  2906 ;;  bufferSize      2   25[COMRAM] unsigned int 
  2907 ;; Auto vars:     Size  Location     Type
  2908 ;;		None
  2909 ;; Return value:  Size  Location     Type
  2910 ;;                  1    wreg      void 
  2911 ;; Registers used:
  2912 ;;		wreg, status,2, status,0
  2913 ;; Tracked objects:
  2914 ;;		On entry : 0/0
  2915 ;;		On exit  : 0/0
  2916 ;;		Unchanged: 0/0
  2917 ;; Data sizes:     COMRAM   BANK0   BANK1   BANK2   BANK3   BANK4   BANK5   BANK6   BANK7   BANK8   BANK9  BANK10  BANK1
      +1  BANK12  BANK13  BANK14
  2918 ;;      Params:         4       0       0       0       0       0       0       0       0       0       0       0       
      +0       0       0       0
  2919 ;;      Locals:         0       0       0       0       0       0       0       0       0       0       0       0       
      +0       0       0       0
  2920 ;;      Temps:          0       0       0       0       0       0       0       0       0       0       0       0       
      +0       0       0       0
  2921 ;;      Totals:         4       0       0       0       0       0       0       0       0       0       0       0       
      +0       0       0       0
  2922 ;;Total ram usage:        4 bytes
  2923 ;; Hardware stack levels used: 1
  2924 ;; Hardware stack levels required when called: 7
  2925 ;; This function calls:
  2926 ;;		Nothing
  2927 ;; This function is called by:
  2928 ;;		_I2C1_Write1ByteRegister
  2929 ;;		_I2C1_Read1ByteRegister
  2930 ;;		_I2C1_Read2ByteRegister
  2931 ;;		_I2C1_Write2ByteRegister
  2932 ;;		_I2C1_WriteNBytes
  2933 ;;		_I2C1_ReadNBytes
  2934 ;;		_I2C1_ReadDataBlock
  2935 ;; This function uses a non-reentrant model
  2936 ;;
  2937                           
  2938                           	psect	text23
  2939  001D86                     __ptext23:
  2940                           	callstack 0
  2941  001D86                     _I2C1_SetBuffer:
  2942                           	callstack 22
  2943  001D86                     
  2944                           ;mcc_generated_files/i2c1_master.c: 264: void I2C1_SetBuffer(void *buffer, size_t buffer
      +                          Size);mcc_generated_files/i2c1_master.c: 265: {;mcc_generated_files/i2c1_master.c: 266: 
      +                              if(I2C1_Status.bufferFree)
  2945  001D86  0100               	movlb	0	; () banked
  2946  001D88  A783               	btfss	(_I2C1_Status+35)& (0+255),3,b
  2947  001D8A  EFC9  F00E         	goto	u1761
  2948  001D8E  EFCB  F00E         	goto	u1760
  2949  001D92                     u1761:
  2950  001D92  EFD4  F00E         	goto	l422
  2951  001D96                     u1760:
  2952  001D96                     
  2953                           ; BSR set to: 0
  2954                           ;mcc_generated_files/i2c1_master.c: 267:     {;mcc_generated_files/i2c1_master.c: 268:  
      +                                 I2C1_Status.data_ptr = buffer;
  2955  001D96  C018  F07D         	movff	I2C1_SetBuffer@buffer,_I2C1_Status+29
  2956  001D9A  C019  F07E         	movff	I2C1_SetBuffer@buffer+1,_I2C1_Status+30
  2957  001D9E                     
  2958                           ; BSR set to: 0
  2959                           ;mcc_generated_files/i2c1_master.c: 269:         I2C1_Status.data_length = bufferSize;
  2960  001D9E  C01A  F07F         	movff	I2C1_SetBuffer@bufferSize,_I2C1_Status+31
  2961  001DA2  C01B  F080         	movff	I2C1_SetBuffer@bufferSize+1,_I2C1_Status+32
  2962  001DA6                     
  2963                           ; BSR set to: 0
  2964                           ;mcc_generated_files/i2c1_master.c: 270:         I2C1_Status.bufferFree = 0;
  2965  001DA6  9783               	bcf	(_I2C1_Status+35)& (0+255),3,b
  2966  001DA8                     l422:
  2967                           
  2968                           ; BSR set to: 0
  2969  001DA8  0012               	return		;funcret
  2970  001DAA                     __end_of_I2C1_SetBuffer:
  2971                           	callstack 0
  2972                           
  2973 ;; *************** function _I2C1_SetAddressNackCallback *****************
  2974 ;; Defined at:
  2975 ;;		line 284 in file "mcc_generated_files/i2c1_master.c"
  2976 ;; Parameters:    Size  Location     Type
  2977 ;;  cb              2   28[COMRAM] PTR FTN(PTR void ,)enum 
  2978 ;;		 -> Absolute function(1), 
  2979 ;;  ptr             2   30[COMRAM] PTR void 
  2980 ;;		 -> NULL(0), 
  2981 ;; Auto vars:     Size  Location     Type
  2982 ;;		None
  2983 ;; Return value:  Size  Location     Type
  2984 ;;                  1    wreg      void 
  2985 ;; Registers used:
  2986 ;;		wreg, fsr2l, fsr2h, status,2, status,0, prodl, prodh, cstack
  2987 ;; Tracked objects:
  2988 ;;		On entry : 0/0
  2989 ;;		On exit  : 0/0
  2990 ;;		Unchanged: 0/0
  2991 ;; Data sizes:     COMRAM   BANK0   BANK1   BANK2   BANK3   BANK4   BANK5   BANK6   BANK7   BANK8   BANK9  BANK10  BANK1
      +1  BANK12  BANK13  BANK14
  2992 ;;      Params:         4       0       0       0       0       0       0       0       0       0       0       0       
      +0       0       0       0
  2993 ;;      Locals:         0       0       0       0       0       0       0       0       0       0       0       0       
      +0       0       0       0
  2994 ;;      Temps:          0       0       0       0       0       0       0       0       0       0       0       0       
      +0       0       0       0
  2995 ;;      Totals:         4       0       0       0       0       0       0       0       0       0       0       0       
      +0       0       0       0
  2996 ;;Total ram usage:        4 bytes
  2997 ;; Hardware stack levels used: 1
  2998 ;; Hardware stack levels required when called: 8
  2999 ;; This function calls:
  3000 ;;		_I2C1_SetCallback
  3001 ;; This function is called by:
  3002 ;;		_I2C1_Write1ByteRegister
  3003 ;;		_I2C1_Read1ByteRegister
  3004 ;;		_I2C1_Read2ByteRegister
  3005 ;;		_I2C1_Write2ByteRegister
  3006 ;;		_I2C1_WriteNBytes
  3007 ;;		_I2C1_ReadDataBlock
  3008 ;; This function uses a non-reentrant model
  3009 ;;
  3010                           
  3011                           	psect	text24
  3012  001E48                     __ptext24:
  3013                           	callstack 0
  3014  001E48                     _I2C1_SetAddressNackCallback:
  3015                           	callstack 21
  3016  001E48                     
  3017                           ;mcc_generated_files/i2c1_master.c: 284: void I2C1_SetAddressNackCallback(i2c1_callback_
      +                          t cb, void *ptr);mcc_generated_files/i2c1_master.c: 285: {;mcc_generated_files/i2c1_mast
      +                          er.c: 286:     I2C1_SetCallback(I2C1_ADDR_NACK, cb, ptr);
  3018  001E48  C01D  F018         	movff	I2C1_SetAddressNackCallback@cb,I2C1_SetCallback@cb
  3019  001E4C  C01E  F019         	movff	I2C1_SetAddressNackCallback@cb+1,I2C1_SetCallback@cb+1
  3020  001E50  C01F  F01A         	movff	I2C1_SetAddressNackCallback@ptr,I2C1_SetCallback@ptr
  3021  001E54  C020  F01B         	movff	I2C1_SetAddressNackCallback@ptr+1,I2C1_SetCallback@ptr+1
  3022  001E58  0E02               	movlw	2
  3023  001E5A  ECD8  F00B         	call	_I2C1_SetCallback
  3024  001E5E  0012               	return		;funcret
  3025  001E60                     __end_of_I2C1_SetAddressNackCallback:
  3026                           	callstack 0
  3027                           
  3028 ;; *************** function _I2C1_SetCallback *****************
  3029 ;; Defined at:
  3030 ;;		line 304 in file "mcc_generated_files/i2c1_master.c"
  3031 ;; Parameters:    Size  Location     Type
  3032 ;;  idx             1    wreg     enum E6673
  3033 ;;  cb              2   23[COMRAM] PTR FTN(PTR void ,)enum 
  3034 ;;		 -> Absolute function(1), rdBlkRegCompleteHandler(1), wr2RegCompleteHandler(1), wr1RegCompleteHandler(1), 
  3035 ;;		 -> rd2RegCompleteHandler(1), rd1RegCompleteHandler(1), 
  3036 ;;  ptr             2   25[COMRAM] PTR void 
  3037 ;;		 -> I2C1_ReadDataBlock@bufferBlock(4), I2C1_Write2ByteRegister@data(2), I2C1_Write1ByteRegister@data(1), I2C1_Read2B
      +yteRegister@returnValue(2), 
  3038 ;;		 -> NULL(0), I2C1_Read1ByteRegister@returnValue(1), 
  3039 ;; Auto vars:     Size  Location     Type
  3040 ;;  idx             1   27[COMRAM] enum E6673
  3041 ;; Return value:  Size  Location     Type
  3042 ;;                  1    wreg      void 
  3043 ;; Registers used:
  3044 ;;		wreg, fsr2l, fsr2h, status,2, status,0, prodl, prodh
  3045 ;; Tracked objects:
  3046 ;;		On entry : 0/0
  3047 ;;		On exit  : 0/0
  3048 ;;		Unchanged: 0/0
  3049 ;; Data sizes:     COMRAM   BANK0   BANK1   BANK2   BANK3   BANK4   BANK5   BANK6   BANK7   BANK8   BANK9  BANK10  BANK1
      +1  BANK12  BANK13  BANK14
  3050 ;;      Params:         4       0       0       0       0       0       0       0       0       0       0       0       
      +0       0       0       0
  3051 ;;      Locals:         1       0       0       0       0       0       0       0       0       0       0       0       
      +0       0       0       0
  3052 ;;      Temps:          0       0       0       0       0       0       0       0       0       0       0       0       
      +0       0       0       0
  3053 ;;      Totals:         5       0       0       0       0       0       0       0       0       0       0       0       
      +0       0       0       0
  3054 ;;Total ram usage:        5 bytes
  3055 ;; Hardware stack levels used: 1
  3056 ;; Hardware stack levels required when called: 7
  3057 ;; This function calls:
  3058 ;;		Nothing
  3059 ;; This function is called by:
  3060 ;;		_I2C1_SetDataCompleteCallback
  3061 ;;		_I2C1_SetAddressNackCallback
  3062 ;;		_I2C1_SetWriteCollisionCallback
  3063 ;;		_I2C1_SetDataNackCallback
  3064 ;;		_I2C1_SetTimeoutCallback
  3065 ;; This function uses a non-reentrant model
  3066 ;;
  3067                           
  3068                           	psect	text25
  3069  0017B0                     __ptext25:
  3070                           	callstack 0
  3071  0017B0                     _I2C1_SetCallback:
  3072                           	callstack 21
  3073                           
  3074                           ;incstack = 0
  3075                           ;I2C1_SetCallback@idx stored from wreg
  3076  0017B0  6E1C               	movwf	I2C1_SetCallback@idx^0,c
  3077  0017B2                     
  3078                           ;mcc_generated_files/i2c1_master.c: 304: static void I2C1_SetCallback(i2c1_callbackIndex
      +                          _t idx, i2c1_callback_t cb, void *ptr);mcc_generated_files/i2c1_master.c: 305: {;mcc_gen
      +                          erated_files/i2c1_master.c: 306:     if(cb)
  3079  0017B2  5018               	movf	I2C1_SetCallback@cb^0,w,c
  3080  0017B4  1019               	iorwf	(I2C1_SetCallback@cb+1)^0,w,c
  3081  0017B6  B4D8               	btfsc	status,2,c
  3082  0017B8  EFE0  F00B         	goto	u1721
  3083  0017BC  EFE2  F00B         	goto	u1720
  3084  0017C0                     u1721:
  3085  0017C0  EFFC  F00B         	goto	l3878
  3086  0017C4                     u1720:
  3087  0017C4                     
  3088                           ;mcc_generated_files/i2c1_master.c: 307:     {;mcc_generated_files/i2c1_master.c: 308:  
      +                                 I2C1_Status.callbackTable[idx] = cb;
  3089  0017C4  501C               	movf	I2C1_SetCallback@idx^0,w,c
  3090  0017C6  0D02               	mullw	2
  3091  0017C8  0E60               	movlw	low _I2C1_Status
  3092  0017CA  24F3               	addwf	243,w,c
  3093  0017CC  6ED9               	movwf	fsr2l,c
  3094  0017CE  0E00               	movlw	high _I2C1_Status
  3095  0017D0  20F4               	addwfc	prodh,w,c
  3096  0017D2  6EDA               	movwf	fsr2h,c
  3097  0017D4  C018  FFDE         	movff	I2C1_SetCallback@cb,postinc2
  3098  0017D8  C019  FFDD         	movff	I2C1_SetCallback@cb+1,postdec2
  3099                           
  3100                           ;mcc_generated_files/i2c1_master.c: 309:         I2C1_Status.callbackPayload[idx] = ptr;
  3101  0017DC  501C               	movf	I2C1_SetCallback@idx^0,w,c
  3102  0017DE  0D02               	mullw	2
  3103  0017E0  0E6C               	movlw	low (_I2C1_Status+12)
  3104  0017E2  24F3               	addwf	243,w,c
  3105  0017E4  6ED9               	movwf	fsr2l,c
  3106  0017E6  0E00               	movlw	high (_I2C1_Status+12)
  3107  0017E8  20F4               	addwfc	prodh,w,c
  3108  0017EA  6EDA               	movwf	fsr2h,c
  3109  0017EC  C01A  FFDE         	movff	I2C1_SetCallback@ptr,postinc2
  3110  0017F0  C01B  FFDD         	movff	I2C1_SetCallback@ptr+1,postdec2
  3111                           
  3112                           ;mcc_generated_files/i2c1_master.c: 310:     }
  3113  0017F4  EF14  F00C         	goto	l445
  3114  0017F8                     l3878:
  3115                           
  3116                           ;mcc_generated_files/i2c1_master.c: 312:     {;mcc_generated_files/i2c1_master.c: 313:  
      +                                 I2C1_Status.callbackTable[idx] = I2C1_CallbackReturnStop;
  3117  0017F8  501C               	movf	I2C1_SetCallback@idx^0,w,c
  3118  0017FA  0D02               	mullw	2
  3119  0017FC  0E60               	movlw	low _I2C1_Status
  3120  0017FE  24F3               	addwf	243,w,c
  3121  001800  6ED9               	movwf	fsr2l,c
  3122  001802  0E00               	movlw	high _I2C1_Status
  3123  001804  20F4               	addwfc	prodh,w,c
  3124  001806  6EDA               	movwf	fsr2h,c
  3125  001808  0EE0               	movlw	low _I2C1_CallbackReturnStop
  3126  00180A  6EDE               	movwf	postinc2,c
  3127  00180C  0E1F               	movlw	high _I2C1_CallbackReturnStop
  3128  00180E  6EDD               	movwf	postdec2,c
  3129                           
  3130                           ;mcc_generated_files/i2c1_master.c: 314:         I2C1_Status.callbackPayload[idx] = ((vo
      +                          id*)0);
  3131  001810  501C               	movf	I2C1_SetCallback@idx^0,w,c
  3132  001812  0D02               	mullw	2
  3133  001814  0E6C               	movlw	low (_I2C1_Status+12)
  3134  001816  24F3               	addwf	243,w,c
  3135  001818  6ED9               	movwf	fsr2l,c
  3136  00181A  0E00               	movlw	high (_I2C1_Status+12)
  3137  00181C  20F4               	addwfc	prodh,w,c
  3138  00181E  6EDA               	movwf	fsr2h,c
  3139  001820  0E00               	movlw	0
  3140  001822  6EDE               	movwf	postinc2,c
  3141  001824  0E00               	movlw	0
  3142  001826  6EDD               	movwf	postdec2,c
  3143  001828                     l445:
  3144  001828  0012               	return		;funcret
  3145  00182A                     __end_of_I2C1_SetCallback:
  3146                           	callstack 0
  3147                           
  3148 ;; *************** function _I2C1_Open *****************
  3149 ;; Defined at:
  3150 ;;		line 176 in file "mcc_generated_files/i2c1_master.c"
  3151 ;; Parameters:    Size  Location     Type
  3152 ;;  address         1    wreg     unsigned char 
  3153 ;; Auto vars:     Size  Location     Type
  3154 ;;  address         1   25[COMRAM] unsigned char 
  3155 ;;  returnValue     1   26[COMRAM] enum E355
  3156 ;; Return value:  Size  Location     Type
  3157 ;;                  1    wreg      enum E355
  3158 ;; Registers used:
  3159 ;;		wreg, status,2, status,0, cstack
  3160 ;; Tracked objects:
  3161 ;;		On entry : 0/0
  3162 ;;		On exit  : 0/0
  3163 ;;		Unchanged: 0/0
  3164 ;; Data sizes:     COMRAM   BANK0   BANK1   BANK2   BANK3   BANK4   BANK5   BANK6   BANK7   BANK8   BANK9  BANK10  BANK1
      +1  BANK12  BANK13  BANK14
  3165 ;;      Params:         0       0       0       0       0       0       0       0       0       0       0       0       
      +0       0       0       0
  3166 ;;      Locals:         2       0       0       0       0       0       0       0       0       0       0       0       
      +0       0       0       0
  3167 ;;      Temps:          0       0       0       0       0       0       0       0       0       0       0       0       
      +0       0       0       0
  3168 ;;      Totals:         2       0       0       0       0       0       0       0       0       0       0       0       
      +0       0       0       0
  3169 ;;Total ram usage:        2 bytes
  3170 ;; Hardware stack levels used: 1
  3171 ;; Hardware stack levels required when called: 8
  3172 ;; This function calls:
  3173 ;;		_I2C1_MasterClearIrq
  3174 ;;		_I2C1_MasterEnableIrq
  3175 ;;		_I2C1_MasterOpen
  3176 ;;		_I2C1_SetInterruptHandler
  3177 ;; This function is called by:
  3178 ;;		_I2C1_Write1ByteRegister
  3179 ;;		_I2C1_Read1ByteRegister
  3180 ;;		_I2C1_Read2ByteRegister
  3181 ;;		_I2C1_Write2ByteRegister
  3182 ;;		_I2C1_WriteNBytes
  3183 ;;		_I2C1_ReadNBytes
  3184 ;;		_I2C1_ReadDataBlock
  3185 ;; This function uses a non-reentrant model
  3186 ;;
  3187                           
  3188                           	psect	text26
  3189  0015FE                     __ptext26:
  3190                           	callstack 0
  3191  0015FE                     _I2C1_Open:
  3192                           	callstack 21
  3193                           
  3194                           ;incstack = 0
  3195                           ;I2C1_Open@address stored from wreg
  3196  0015FE  6E1A               	movwf	I2C1_Open@address^0,c
  3197  001600                     
  3198                           ;mcc_generated_files/i2c1_master.c: 176: i2c1_error_t I2C1_Open(i2c1_address_t address);
      +                          mcc_generated_files/i2c1_master.c: 177: {;mcc_generated_files/i2c1_master.c: 178:     i2
      +                          c1_error_t returnValue = I2C1_BUSY;
  3199  001600  0E01               	movlw	1
  3200  001602  6E1B               	movwf	I2C1_Open@returnValue^0,c
  3201  001604                     
  3202                           ;mcc_generated_files/i2c1_master.c: 180:     if(!I2C1_Status.inUse)
  3203  001604  0100               	movlb	0	; () banked
  3204  001606  B583               	btfsc	(_I2C1_Status+35)& (0+255),2,b
  3205  001608  EF08  F00B         	goto	u1751
  3206  00160C  EF0A  F00B         	goto	u1750
  3207  001610                     u1751:
  3208  001610  EF4C  F00B         	goto	l3960
  3209  001614                     u1750:
  3210  001614                     
  3211                           ; BSR set to: 0
  3212                           ;mcc_generated_files/i2c1_master.c: 181:     {;mcc_generated_files/i2c1_master.c: 182:  
      +                                 I2C1_Status.address = address;
  3213  001614  C01A  F07C         	movff	I2C1_Open@address,_I2C1_Status+28
  3214  001618                     
  3215                           ; BSR set to: 0
  3216                           ;mcc_generated_files/i2c1_master.c: 183:         I2C1_Status.busy = 0;
  3217  001618  9383               	bcf	(_I2C1_Status+35)& (0+255),1,b
  3218  00161A                     
  3219                           ; BSR set to: 0
  3220                           ;mcc_generated_files/i2c1_master.c: 184:         I2C1_Status.inUse = 1;
  3221  00161A  8583               	bsf	(_I2C1_Status+35)& (0+255),2,b
  3222  00161C                     
  3223                           ; BSR set to: 0
  3224                           ;mcc_generated_files/i2c1_master.c: 185:         I2C1_Status.addressNackCheck = 0;
  3225  00161C  9183               	bcf	(_I2C1_Status+35)& (0+255),0,b
  3226  00161E                     
  3227                           ; BSR set to: 0
  3228                           ;mcc_generated_files/i2c1_master.c: 186:         I2C1_Status.state = I2C1_RESET;
  3229  00161E  0E0E               	movlw	14
  3230  001620  6F81               	movwf	(_I2C1_Status+33)& (0+255),b
  3231  001622                     
  3232                           ; BSR set to: 0
  3233                           ;mcc_generated_files/i2c1_master.c: 187:         I2C1_Status.time_out_value = 500;
  3234  001622  0E01               	movlw	1
  3235  001624  6F7B               	movwf	(_I2C1_Status+27)& (0+255),b
  3236  001626  0EF4               	movlw	244
  3237  001628  6F7A               	movwf	(_I2C1_Status+26)& (0+255),b
  3238  00162A                     
  3239                           ; BSR set to: 0
  3240                           ;mcc_generated_files/i2c1_master.c: 188:         I2C1_Status.bufferFree = 1;
  3241  00162A  8783               	bsf	(_I2C1_Status+35)& (0+255),3,b
  3242  00162C                     
  3243                           ; BSR set to: 0
  3244                           ;mcc_generated_files/i2c1_master.c: 191:         I2C1_Status.callbackTable[I2C1_DATA_COM
      +                          PLETE]=I2C1_CallbackReturnStop;
  3245  00162C  0EE0               	movlw	low _I2C1_CallbackReturnStop
  3246  00162E  6F60               	movwf	_I2C1_Status& (0+255),b
  3247  001630  0E1F               	movlw	high _I2C1_CallbackReturnStop
  3248  001632  6F61               	movwf	(_I2C1_Status+1)& (0+255),b
  3249  001634                     
  3250                           ; BSR set to: 0
  3251                           ;mcc_generated_files/i2c1_master.c: 192:         I2C1_Status.callbackPayload[I2C1_DATA_C
      +                          OMPLETE] = ((void*)0);
  3252  001634  0E00               	movlw	0
  3253  001636  6F6C               	movwf	(_I2C1_Status+12)& (0+255),b
  3254  001638  0E00               	movlw	0
  3255  00163A  6F6D               	movwf	(_I2C1_Status+13)& (0+255),b
  3256  00163C                     
  3257                           ; BSR set to: 0
  3258                           ;mcc_generated_files/i2c1_master.c: 193:         I2C1_Status.callbackTable[I2C1_WRITE_CO
      +                          LLISION]=I2C1_CallbackReturnStop;
  3259  00163C  0EE0               	movlw	low _I2C1_CallbackReturnStop
  3260  00163E  6F62               	movwf	(_I2C1_Status+2)& (0+255),b
  3261  001640  0E1F               	movlw	high _I2C1_CallbackReturnStop
  3262  001642  6F63               	movwf	(_I2C1_Status+3)& (0+255),b
  3263  001644                     
  3264                           ; BSR set to: 0
  3265                           ;mcc_generated_files/i2c1_master.c: 194:         I2C1_Status.callbackPayload[I2C1_WRITE_
      +                          COLLISION] = ((void*)0);
  3266  001644  0E00               	movlw	0
  3267  001646  6F6E               	movwf	(_I2C1_Status+14)& (0+255),b
  3268  001648  0E00               	movlw	0
  3269  00164A  6F6F               	movwf	(_I2C1_Status+15)& (0+255),b
  3270  00164C                     
  3271                           ; BSR set to: 0
  3272                           ;mcc_generated_files/i2c1_master.c: 195:         I2C1_Status.callbackTable[I2C1_ADDR_NAC
      +                          K]=I2C1_CallbackReturnStop;
  3273  00164C  0EE0               	movlw	low _I2C1_CallbackReturnStop
  3274  00164E  6F64               	movwf	(_I2C1_Status+4)& (0+255),b
  3275  001650  0E1F               	movlw	high _I2C1_CallbackReturnStop
  3276  001652  6F65               	movwf	(_I2C1_Status+5)& (0+255),b
  3277  001654                     
  3278                           ; BSR set to: 0
  3279                           ;mcc_generated_files/i2c1_master.c: 196:         I2C1_Status.callbackPayload[I2C1_ADDR_N
      +                          ACK] = ((void*)0);
  3280  001654  0E00               	movlw	0
  3281  001656  6F70               	movwf	(_I2C1_Status+16)& (0+255),b
  3282  001658  0E00               	movlw	0
  3283  00165A  6F71               	movwf	(_I2C1_Status+17)& (0+255),b
  3284  00165C                     
  3285                           ; BSR set to: 0
  3286                           ;mcc_generated_files/i2c1_master.c: 197:         I2C1_Status.callbackTable[I2C1_DATA_NAC
      +                          K]=I2C1_CallbackReturnStop;
  3287  00165C  0EE0               	movlw	low _I2C1_CallbackReturnStop
  3288  00165E  6F66               	movwf	(_I2C1_Status+6)& (0+255),b
  3289  001660  0E1F               	movlw	high _I2C1_CallbackReturnStop
  3290  001662  6F67               	movwf	(_I2C1_Status+7)& (0+255),b
  3291  001664                     
  3292                           ; BSR set to: 0
  3293                           ;mcc_generated_files/i2c1_master.c: 198:         I2C1_Status.callbackPayload[I2C1_DATA_N
      +                          ACK] = ((void*)0);
  3294  001664  0E00               	movlw	0
  3295  001666  6F72               	movwf	(_I2C1_Status+18)& (0+255),b
  3296  001668  0E00               	movlw	0
  3297  00166A  6F73               	movwf	(_I2C1_Status+19)& (0+255),b
  3298  00166C                     
  3299                           ; BSR set to: 0
  3300                           ;mcc_generated_files/i2c1_master.c: 199:         I2C1_Status.callbackTable[I2C1_TIMEOUT]
      +                          =I2C1_CallbackReturnReset;
  3301  00166C  0EDC               	movlw	low _I2C1_CallbackReturnReset
  3302  00166E  6F68               	movwf	(_I2C1_Status+8)& (0+255),b
  3303  001670  0E1F               	movlw	high _I2C1_CallbackReturnReset
  3304  001672  6F69               	movwf	(_I2C1_Status+9)& (0+255),b
  3305  001674                     
  3306                           ; BSR set to: 0
  3307                           ;mcc_generated_files/i2c1_master.c: 200:         I2C1_Status.callbackPayload[I2C1_TIMEOU
      +                          T] = ((void*)0);
  3308  001674  0E00               	movlw	0
  3309  001676  6F74               	movwf	(_I2C1_Status+20)& (0+255),b
  3310  001678  0E00               	movlw	0
  3311  00167A  6F75               	movwf	(_I2C1_Status+21)& (0+255),b
  3312  00167C                     
  3313                           ; BSR set to: 0
  3314                           ;mcc_generated_files/i2c1_master.c: 202:         I2C1_SetInterruptHandler(I2C1_MasterIsr
      +                          );
  3315  00167C  0E96               	movlw	low _I2C1_MasterIsr
  3316  00167E  6E18               	movwf	I2C1_SetInterruptHandler@InterruptHandler^0,c
  3317  001680  0E1F               	movlw	high _I2C1_MasterIsr
  3318  001682  6E19               	movwf	(I2C1_SetInterruptHandler@InterruptHandler+1)^0,c
  3319  001684  ECA2  F00F         	call	_I2C1_SetInterruptHandler	;wreg free
  3320  001688                     
  3321                           ;mcc_generated_files/i2c1_master.c: 203:         I2C1_MasterClearIrq();
  3322  001688  ECE4  F00F         	call	_I2C1_MasterClearIrq	;wreg free
  3323  00168C                     
  3324                           ;mcc_generated_files/i2c1_master.c: 204:         I2C1_MasterOpen();
  3325  00168C  ECF8  F00E         	call	_I2C1_MasterOpen	;wreg free
  3326  001690                     
  3327                           ;mcc_generated_files/i2c1_master.c: 205:         I2C1_MasterEnableIrq();
  3328  001690  ECDC  F00F         	call	_I2C1_MasterEnableIrq	;wreg free
  3329  001694                     
  3330                           ;mcc_generated_files/i2c1_master.c: 206:         returnValue = I2C1_NOERR;
  3331  001694  0E00               	movlw	0
  3332  001696  6E1B               	movwf	I2C1_Open@returnValue^0,c
  3333  001698                     l3960:
  3334                           
  3335                           ;mcc_generated_files/i2c1_master.c: 208:     return returnValue;
  3336  001698  501B               	movf	I2C1_Open@returnValue^0,w,c
  3337  00169A  0012               	return		;funcret
  3338  00169C                     __end_of_I2C1_Open:
  3339                           	callstack 0
  3340                           
  3341 ;; *************** function _I2C1_SetInterruptHandler *****************
  3342 ;; Defined at:
  3343 ;;		line 299 in file "mcc_generated_files/i2c1_master.c"
  3344 ;; Parameters:    Size  Location     Type
  3345 ;;  InterruptHan    2   23[COMRAM] PTR FTN()void 
  3346 ;;		 -> I2C1_MasterIsr(1), 
  3347 ;; Auto vars:     Size  Location     Type
  3348 ;;		None
  3349 ;; Return value:  Size  Location     Type
  3350 ;;                  1    wreg      void 
  3351 ;; Registers used:
  3352 ;;		wreg, status,2, status,0
  3353 ;; Tracked objects:
  3354 ;;		On entry : 0/0
  3355 ;;		On exit  : 0/0
  3356 ;;		Unchanged: 0/0
  3357 ;; Data sizes:     COMRAM   BANK0   BANK1   BANK2   BANK3   BANK4   BANK5   BANK6   BANK7   BANK8   BANK9  BANK10  BANK1
      +1  BANK12  BANK13  BANK14
  3358 ;;      Params:         2       0       0       0       0       0       0       0       0       0       0       0       
      +0       0       0       0
  3359 ;;      Locals:         0       0       0       0       0       0       0       0       0       0       0       0       
      +0       0       0       0
  3360 ;;      Temps:          0       0       0       0       0       0       0       0       0       0       0       0       
      +0       0       0       0
  3361 ;;      Totals:         2       0       0       0       0       0       0       0       0       0       0       0       
      +0       0       0       0
  3362 ;;Total ram usage:        2 bytes
  3363 ;; Hardware stack levels used: 1
  3364 ;; Hardware stack levels required when called: 7
  3365 ;; This function calls:
  3366 ;;		Nothing
  3367 ;; This function is called by:
  3368 ;;		_I2C1_Open
  3369 ;; This function uses a non-reentrant model
  3370 ;;
  3371                           
  3372                           	psect	text27
  3373  001F44                     __ptext27:
  3374                           	callstack 0
  3375  001F44                     _I2C1_SetInterruptHandler:
  3376                           	callstack 21
  3377  001F44                     
  3378                           ;mcc_generated_files/i2c1_master.c: 299: void I2C1_SetInterruptHandler(void (* Interrupt
      +                          Handler)(void));mcc_generated_files/i2c1_master.c: 300: {;mcc_generated_files/i2c1_maste
      +                          r.c: 301:     MSSP1_InterruptHandler = InterruptHandler;
  3379  001F44  C018  F039         	movff	I2C1_SetInterruptHandler@InterruptHandler,_MSSP1_InterruptHandler
  3380  001F48  C019  F03A         	movff	I2C1_SetInterruptHandler@InterruptHandler+1,_MSSP1_InterruptHandler+1
  3381  001F4C  0012               	return		;funcret
  3382  001F4E                     __end_of_I2C1_SetInterruptHandler:
  3383                           	callstack 0
  3384                           
  3385 ;; *************** function _I2C1_MasterOpen *****************
  3386 ;; Defined at:
  3387 ;;		line 544 in file "mcc_generated_files/i2c1_master.c"
  3388 ;; Parameters:    Size  Location     Type
  3389 ;;		None
  3390 ;; Auto vars:     Size  Location     Type
  3391 ;;		None
  3392 ;; Return value:  Size  Location     Type
  3393 ;;                  1    wreg      _Bool 
  3394 ;; Registers used:
  3395 ;;		wreg, status,2
  3396 ;; Tracked objects:
  3397 ;;		On entry : 0/0
  3398 ;;		On exit  : 0/0
  3399 ;;		Unchanged: 0/0
  3400 ;; Data sizes:     COMRAM   BANK0   BANK1   BANK2   BANK3   BANK4   BANK5   BANK6   BANK7   BANK8   BANK9  BANK10  BANK1
      +1  BANK12  BANK13  BANK14
  3401 ;;      Params:         0       0       0       0       0       0       0       0       0       0       0       0       
      +0       0       0       0
  3402 ;;      Locals:         0       0       0       0       0       0       0       0       0       0       0       0       
      +0       0       0       0
  3403 ;;      Temps:          0       0       0       0       0       0       0       0       0       0       0       0       
      +0       0       0       0
  3404 ;;      Totals:         0       0       0       0       0       0       0       0       0       0       0       0       
      +0       0       0       0
  3405 ;;Total ram usage:        0 bytes
  3406 ;; Hardware stack levels used: 1
  3407 ;; Hardware stack levels required when called: 7
  3408 ;; This function calls:
  3409 ;;		Nothing
  3410 ;; This function is called by:
  3411 ;;		_I2C1_Open
  3412 ;; This function uses a non-reentrant model
  3413 ;;
  3414                           
  3415                           	psect	text28
  3416  001DF0                     __ptext28:
  3417                           	callstack 0
  3418  001DF0                     _I2C1_MasterOpen:
  3419                           	callstack 21
  3420  001DF0                     
  3421                           ;mcc_generated_files/i2c1_master.c: 546:     if(!SSP1CON1bits.SSPEN)
  3422  001DF0  BAC6               	btfsc	198,5,c	;volatile
  3423  001DF2  EFFD  F00E         	goto	u1691
  3424  001DF6  EFFF  F00E         	goto	u1690
  3425  001DFA                     u1691:
  3426  001DFA  EF08  F00F         	goto	l564
  3427  001DFE                     u1690:
  3428  001DFE                     
  3429                           ;mcc_generated_files/i2c1_master.c: 547:     {;mcc_generated_files/i2c1_master.c: 548:  
      +                                 SSP1STAT = 0x80;
  3430  001DFE  0E80               	movlw	128
  3431  001E00  6EC7               	movwf	199,c	;volatile
  3432                           
  3433                           ;mcc_generated_files/i2c1_master.c: 549:         SSP1CON1 = 0x08;
  3434  001E02  0E08               	movlw	8
  3435  001E04  6EC6               	movwf	198,c	;volatile
  3436                           
  3437                           ;mcc_generated_files/i2c1_master.c: 550:         SSP1CON2 = 0x00;
  3438  001E06  0E00               	movlw	0
  3439  001E08  6EC5               	movwf	197,c	;volatile
  3440                           
  3441                           ;mcc_generated_files/i2c1_master.c: 551:         SSP1ADD = 0xEF;
  3442  001E0A  0EEF               	movlw	239
  3443  001E0C  6EC8               	movwf	200,c	;volatile
  3444  001E0E                     
  3445                           ;mcc_generated_files/i2c1_master.c: 552:         SSP1CON1bits.SSPEN = 1;
  3446  001E0E  8AC6               	bsf	198,5,c	;volatile
  3447  001E10                     l564:
  3448  001E10  0012               	return		;funcret
  3449  001E12                     __end_of_I2C1_MasterOpen:
  3450                           	callstack 0
  3451                           
  3452 ;; *************** function _I2C1_MasterEnableIrq *****************
  3453 ;; Defined at:
  3454 ;;		line 627 in file "mcc_generated_files/i2c1_master.c"
  3455 ;; Parameters:    Size  Location     Type
  3456 ;;		None
  3457 ;; Auto vars:     Size  Location     Type
  3458 ;;		None
  3459 ;; Return value:  Size  Location     Type
  3460 ;;                  1    wreg      void 
  3461 ;; Registers used:
  3462 ;;		None
  3463 ;; Tracked objects:
  3464 ;;		On entry : 0/0
  3465 ;;		On exit  : 0/0
  3466 ;;		Unchanged: 0/0
  3467 ;; Data sizes:     COMRAM   BANK0   BANK1   BANK2   BANK3   BANK4   BANK5   BANK6   BANK7   BANK8   BANK9  BANK10  BANK1
      +1  BANK12  BANK13  BANK14
  3468 ;;      Params:         0       0       0       0       0       0       0       0       0       0       0       0       
      +0       0       0       0
  3469 ;;      Locals:         0       0       0       0       0       0       0       0       0       0       0       0       
      +0       0       0       0
  3470 ;;      Temps:          0       0       0       0       0       0       0       0       0       0       0       0       
      +0       0       0       0
  3471 ;;      Totals:         0       0       0       0       0       0       0       0       0       0       0       0       
      +0       0       0       0
  3472 ;;Total ram usage:        0 bytes
  3473 ;; Hardware stack levels used: 1
  3474 ;; Hardware stack levels required when called: 7
  3475 ;; This function calls:
  3476 ;;		Nothing
  3477 ;; This function is called by:
  3478 ;;		_I2C1_Open
  3479 ;;		_I2C1_SetTimeOut
  3480 ;; This function uses a non-reentrant model
  3481 ;;
  3482                           
  3483                           	psect	text29
  3484  001FB8                     __ptext29:
  3485                           	callstack 0
  3486  001FB8                     _I2C1_MasterEnableIrq:
  3487                           	callstack 21
  3488  001FB8                     
  3489                           ;mcc_generated_files/i2c1_master.c: 629:     PIE1bits.SSP1IE = 1;
  3490  001FB8  869D               	bsf	157,3,c	;volatile
  3491  001FBA  0012               	return		;funcret
  3492  001FBC                     __end_of_I2C1_MasterEnableIrq:
  3493                           	callstack 0
  3494                           
  3495 ;; *************** function _I2C1_MasterWrite *****************
  3496 ;; Defined at:
  3497 ;;		line 252 in file "mcc_generated_files/i2c1_master.c"
  3498 ;; Parameters:    Size  Location     Type
  3499 ;;		None
  3500 ;; Auto vars:     Size  Location     Type
  3501 ;;		None
  3502 ;; Return value:  Size  Location     Type
  3503 ;;                  1    wreg      enum E355
  3504 ;; Registers used:
  3505 ;;		wreg, status,2, cstack
  3506 ;; Tracked objects:
  3507 ;;		On entry : 0/0
  3508 ;;		On exit  : 0/0
  3509 ;;		Unchanged: 0/0
  3510 ;; Data sizes:     COMRAM   BANK0   BANK1   BANK2   BANK3   BANK4   BANK5   BANK6   BANK7   BANK8   BANK9  BANK10  BANK1
      +1  BANK12  BANK13  BANK14
  3511 ;;      Params:         0       0       0       0       0       0       0       0       0       0       0       0       
      +0       0       0       0
  3512 ;;      Locals:         0       0       0       0       0       0       0       0       0       0       0       0       
      +0       0       0       0
  3513 ;;      Temps:          0       0       0       0       0       0       0       0       0       0       0       0       
      +0       0       0       0
  3514 ;;      Totals:         0       0       0       0       0       0       0       0       0       0       0       0       
      +0       0       0       0
  3515 ;;Total ram usage:        0 bytes
  3516 ;; Hardware stack levels used: 1
  3517 ;; Hardware stack levels required when called: 9
  3518 ;; This function calls:
  3519 ;;		_I2C1_MasterOperation
  3520 ;; This function is called by:
  3521 ;;		_I2C1_Write1ByteRegister
  3522 ;;		_I2C1_Read1ByteRegister
  3523 ;;		_I2C1_Read2ByteRegister
  3524 ;;		_I2C1_Write2ByteRegister
  3525 ;;		_I2C1_WriteNBytes
  3526 ;;		_I2C1_ReadDataBlock
  3527 ;; This function uses a non-reentrant model
  3528 ;;
  3529                           
  3530                           	psect	text30
  3531  001F4E                     __ptext30:
  3532                           	callstack 0
  3533  001F4E                     _I2C1_MasterWrite:
  3534                           	callstack 20
  3535  001F4E                     
  3536                           ;mcc_generated_files/i2c1_master.c: 254:     return I2C1_MasterOperation(0);;	Return val
      +                          ue of _I2C1_MasterWrite is never used
  3537  001F4E  0E00               	movlw	0
  3538  001F50  EC87  F00D         	call	_I2C1_MasterOperation
  3539  001F54  0012               	return		;funcret
  3540  001F56                     __end_of_I2C1_MasterWrite:
  3541                           	callstack 0
  3542                           
  3543 ;; *************** function _I2C1_MasterOperation *****************
  3544 ;; Defined at:
  3545 ;;		line 226 in file "mcc_generated_files/i2c1_master.c"
  3546 ;; Parameters:    Size  Location     Type
  3547 ;;  read            1    wreg     _Bool 
  3548 ;; Auto vars:     Size  Location     Type
  3549 ;;  read            1   23[COMRAM] _Bool 
  3550 ;;  returnValue     1   24[COMRAM] enum E355
  3551 ;; Return value:  Size  Location     Type
  3552 ;;                  1    wreg      enum E355
  3553 ;; Registers used:
  3554 ;;		wreg, status,2, cstack
  3555 ;; Tracked objects:
  3556 ;;		On entry : 0/0
  3557 ;;		On exit  : 0/0
  3558 ;;		Unchanged: 0/0
  3559 ;; Data sizes:     COMRAM   BANK0   BANK1   BANK2   BANK3   BANK4   BANK5   BANK6   BANK7   BANK8   BANK9  BANK10  BANK1
      +1  BANK12  BANK13  BANK14
  3560 ;;      Params:         0       0       0       0       0       0       0       0       0       0       0       0       
      +0       0       0       0
  3561 ;;      Locals:         2       0       0       0       0       0       0       0       0       0       0       0       
      +0       0       0       0
  3562 ;;      Temps:          0       0       0       0       0       0       0       0       0       0       0       0       
      +0       0       0       0
  3563 ;;      Totals:         2       0       0       0       0       0       0       0       0       0       0       0       
      +0       0       0       0
  3564 ;;Total ram usage:        2 bytes
  3565 ;; Hardware stack levels used: 1
  3566 ;; Hardware stack levels required when called: 8
  3567 ;; This function calls:
  3568 ;;		_I2C1_MasterStart
  3569 ;; This function is called by:
  3570 ;;		_I2C1_MasterWrite
  3571 ;;		_I2C1_MasterRead
  3572 ;; This function uses a non-reentrant model
  3573 ;;
  3574                           
  3575                           	psect	text31
  3576  001B0E                     __ptext31:
  3577                           	callstack 0
  3578  001B0E                     _I2C1_MasterOperation:
  3579                           	callstack 20
  3580                           
  3581                           ;incstack = 0
  3582                           ;I2C1_MasterOperation@read stored from wreg
  3583  001B0E  6E18               	movwf	I2C1_MasterOperation@read^0,c
  3584  001B10                     
  3585                           ;mcc_generated_files/i2c1_master.c: 226: i2c1_error_t I2C1_MasterOperation(_Bool read);m
      +                          cc_generated_files/i2c1_master.c: 227: {;mcc_generated_files/i2c1_master.c: 228:     i2c
      +                          1_error_t returnValue = I2C1_BUSY;
  3586  001B10  0E01               	movlw	1
  3587  001B12  6E19               	movwf	I2C1_MasterOperation@returnValue^0,c
  3588  001B14                     
  3589                           ;mcc_generated_files/i2c1_master.c: 229:     if(!I2C1_Status.busy)
  3590  001B14  0100               	movlb	0	; () banked
  3591  001B16  B383               	btfsc	(_I2C1_Status+35)& (0+255),1,b
  3592  001B18  EF90  F00D         	goto	u1701
  3593  001B1C  EF92  F00D         	goto	u1700
  3594  001B20                     u1701:
  3595  001B20  EFA5  F00D         	goto	l3870
  3596  001B24                     u1700:
  3597  001B24                     
  3598                           ; BSR set to: 0
  3599                           ;mcc_generated_files/i2c1_master.c: 230:     {;mcc_generated_files/i2c1_master.c: 231:  
      +                                 I2C1_Status.busy = 1;
  3600  001B24  8383               	bsf	(_I2C1_Status+35)& (0+255),1,b
  3601  001B26                     
  3602                           ; BSR set to: 0
  3603                           ;mcc_generated_files/i2c1_master.c: 232:         returnValue = I2C1_NOERR;
  3604  001B26  0E00               	movlw	0
  3605  001B28  6E19               	movwf	I2C1_MasterOperation@returnValue^0,c
  3606  001B2A                     
  3607                           ; BSR set to: 0
  3608                           ;mcc_generated_files/i2c1_master.c: 234:         if(read)
  3609  001B2A  5018               	movf	I2C1_MasterOperation@read^0,w,c
  3610  001B2C  B4D8               	btfsc	status,2,c
  3611  001B2E  EF9B  F00D         	goto	u1711
  3612  001B32  EF9D  F00D         	goto	u1710
  3613  001B36                     u1711:
  3614  001B36  EFA1  F00D         	goto	l3866
  3615  001B3A                     u1710:
  3616  001B3A                     
  3617                           ; BSR set to: 0
  3618                           ;mcc_generated_files/i2c1_master.c: 235:         {;mcc_generated_files/i2c1_master.c: 23
      +                          6:             I2C1_Status.state = I2C1_SEND_ADR_READ;
  3619  001B3A  0E01               	movlw	1
  3620  001B3C  6F81               	movwf	(_I2C1_Status+33)& (0+255),b
  3621                           
  3622                           ;mcc_generated_files/i2c1_master.c: 237:         }
  3623  001B3E  EFA3  F00D         	goto	l3868
  3624  001B42                     l3866:
  3625                           
  3626                           ; BSR set to: 0
  3627                           ;mcc_generated_files/i2c1_master.c: 239:         {;mcc_generated_files/i2c1_master.c: 24
      +                          0:             I2C1_Status.state = I2C1_SEND_ADR_WRITE;
  3628  001B42  0E02               	movlw	2
  3629  001B44  6F81               	movwf	(_I2C1_Status+33)& (0+255),b
  3630  001B46                     l3868:
  3631                           
  3632                           ; BSR set to: 0
  3633                           ;mcc_generated_files/i2c1_master.c: 242:         I2C1_MasterStart();
  3634  001B46  ECDE  F00F         	call	_I2C1_MasterStart	;wreg free
  3635  001B4A                     l3870:
  3636                           
  3637                           ;mcc_generated_files/i2c1_master.c: 244:     return returnValue;
  3638  001B4A  5019               	movf	I2C1_MasterOperation@returnValue^0,w,c
  3639  001B4C  0012               	return		;funcret
  3640  001B4E                     __end_of_I2C1_MasterOperation:
  3641                           	callstack 0
  3642                           
  3643 ;; *************** function _I2C1_MasterStart *****************
  3644 ;; Defined at:
  3645 ;;		line 589 in file "mcc_generated_files/i2c1_master.c"
  3646 ;; Parameters:    Size  Location     Type
  3647 ;;		None
  3648 ;; Auto vars:     Size  Location     Type
  3649 ;;		None
  3650 ;; Return value:  Size  Location     Type
  3651 ;;                  1    wreg      void 
  3652 ;; Registers used:
  3653 ;;		None
  3654 ;; Tracked objects:
  3655 ;;		On entry : 0/0
  3656 ;;		On exit  : 0/0
  3657 ;;		Unchanged: 0/0
  3658 ;; Data sizes:     COMRAM   BANK0   BANK1   BANK2   BANK3   BANK4   BANK5   BANK6   BANK7   BANK8   BANK9  BANK10  BANK1
      +1  BANK12  BANK13  BANK14
  3659 ;;      Params:         0       0       0       0       0       0       0       0       0       0       0       0       
      +0       0       0       0
  3660 ;;      Locals:         0       0       0       0       0       0       0       0       0       0       0       0       
      +0       0       0       0
  3661 ;;      Temps:          0       0       0       0       0       0       0       0       0       0       0       0       
      +0       0       0       0
  3662 ;;      Totals:         0       0       0       0       0       0       0       0       0       0       0       0       
      +0       0       0       0
  3663 ;;Total ram usage:        0 bytes
  3664 ;; Hardware stack levels used: 1
  3665 ;; Hardware stack levels required when called: 7
  3666 ;; This function calls:
  3667 ;;		Nothing
  3668 ;; This function is called by:
  3669 ;;		_I2C1_MasterOperation
  3670 ;; This function uses a non-reentrant model
  3671 ;;
  3672                           
  3673                           	psect	text32
  3674  001FBC                     __ptext32:
  3675                           	callstack 0
  3676  001FBC                     _I2C1_MasterStart:
  3677                           	callstack 20
  3678  001FBC                     
  3679                           ;mcc_generated_files/i2c1_master.c: 591:     SSP1CON2bits.SEN = 1;
  3680  001FBC  80C5               	bsf	197,0,c	;volatile
  3681  001FBE  0012               	return		;funcret
  3682  001FC0                     __end_of_I2C1_MasterStart:
  3683                           	callstack 0
  3684                           
  3685 ;; *************** function _I2C1_Close *****************
  3686 ;; Defined at:
  3687 ;;		line 211 in file "mcc_generated_files/i2c1_master.c"
  3688 ;; Parameters:    Size  Location     Type
  3689 ;;		None
  3690 ;; Auto vars:     Size  Location     Type
  3691 ;;  returnValue     1   23[COMRAM] enum E355
  3692 ;; Return value:  Size  Location     Type
  3693 ;;                  1    wreg      enum E355
  3694 ;; Registers used:
  3695 ;;		wreg, status,2, cstack
  3696 ;; Tracked objects:
  3697 ;;		On entry : 0/0
  3698 ;;		On exit  : 0/0
  3699 ;;		Unchanged: 0/0
  3700 ;; Data sizes:     COMRAM   BANK0   BANK1   BANK2   BANK3   BANK4   BANK5   BANK6   BANK7   BANK8   BANK9  BANK10  BANK1
      +1  BANK12  BANK13  BANK14
  3701 ;;      Params:         0       0       0       0       0       0       0       0       0       0       0       0       
      +0       0       0       0
  3702 ;;      Locals:         1       0       0       0       0       0       0       0       0       0       0       0       
      +0       0       0       0
  3703 ;;      Temps:          0       0       0       0       0       0       0       0       0       0       0       0       
      +0       0       0       0
  3704 ;;      Totals:         1       0       0       0       0       0       0       0       0       0       0       0       
      +0       0       0       0
  3705 ;;Total ram usage:        1 bytes
  3706 ;; Hardware stack levels used: 1
  3707 ;; Hardware stack levels required when called: 8
  3708 ;; This function calls:
  3709 ;;		_I2C1_MasterClearIrq
  3710 ;;		_I2C1_MasterClose
  3711 ;;		_I2C1_MasterDisableIrq
  3712 ;; This function is called by:
  3713 ;;		_I2C1_Write1ByteRegister
  3714 ;;		_I2C1_Read1ByteRegister
  3715 ;;		_I2C1_Read2ByteRegister
  3716 ;;		_I2C1_Write2ByteRegister
  3717 ;;		_I2C1_WriteNBytes
  3718 ;;		_I2C1_ReadNBytes
  3719 ;;		_I2C1_ReadDataBlock
  3720 ;; This function uses a non-reentrant model
  3721 ;;
  3722                           
  3723                           	psect	text33
  3724  001C08                     __ptext33:
  3725                           	callstack 0
  3726  001C08                     _I2C1_Close:
  3727                           	callstack 21
  3728  001C08                     
  3729                           ;mcc_generated_files/i2c1_master.c: 213:     i2c1_error_t returnValue = I2C1_BUSY;
  3730  001C08  0E01               	movlw	1
  3731  001C0A  6E18               	movwf	I2C1_Close@returnValue^0,c
  3732  001C0C                     
  3733                           ;mcc_generated_files/i2c1_master.c: 214:     if(!I2C1_Status.busy)
  3734  001C0C  0100               	movlb	0	; () banked
  3735  001C0E  B383               	btfsc	(_I2C1_Status+35)& (0+255),1,b
  3736  001C10  EF0C  F00E         	goto	u1771
  3737  001C14  EF0E  F00E         	goto	u1770
  3738  001C18                     u1771:
  3739  001C18  EF18  F00E         	goto	l3990
  3740  001C1C                     u1770:
  3741  001C1C                     
  3742                           ; BSR set to: 0
  3743                           ;mcc_generated_files/i2c1_master.c: 215:     {;mcc_generated_files/i2c1_master.c: 216:  
      +                                 I2C1_Status.inUse = 0;
  3744  001C1C  9583               	bcf	(_I2C1_Status+35)& (0+255),2,b
  3745                           
  3746                           ;mcc_generated_files/i2c1_master.c: 217:         I2C1_Status.address = 0xff;
  3747  001C1E  697C               	setf	(_I2C1_Status+28)& (0+255),b
  3748  001C20                     
  3749                           ; BSR set to: 0
  3750                           ;mcc_generated_files/i2c1_master.c: 218:         I2C1_MasterClearIrq();
  3751  001C20  ECE4  F00F         	call	_I2C1_MasterClearIrq	;wreg free
  3752                           
  3753                           ;mcc_generated_files/i2c1_master.c: 219:         I2C1_MasterDisableIrq();
  3754  001C24  ECE0  F00F         	call	_I2C1_MasterDisableIrq	;wreg free
  3755                           
  3756                           ;mcc_generated_files/i2c1_master.c: 220:         I2C1_MasterClose();
  3757  001C28  ECE2  F00F         	call	_I2C1_MasterClose	;wreg free
  3758  001C2C                     
  3759                           ;mcc_generated_files/i2c1_master.c: 221:         returnValue = I2C1_Status.error;
  3760  001C2C  C082  F018         	movff	_I2C1_Status+34,I2C1_Close@returnValue
  3761  001C30                     l3990:
  3762                           
  3763                           ;mcc_generated_files/i2c1_master.c: 223:     return returnValue;
  3764  001C30  5018               	movf	I2C1_Close@returnValue^0,w,c
  3765  001C32  0012               	return		;funcret
  3766  001C34                     __end_of_I2C1_Close:
  3767                           	callstack 0
  3768                           
  3769 ;; *************** function _I2C1_MasterDisableIrq *****************
  3770 ;; Defined at:
  3771 ;;		line 637 in file "mcc_generated_files/i2c1_master.c"
  3772 ;; Parameters:    Size  Location     Type
  3773 ;;		None
  3774 ;; Auto vars:     Size  Location     Type
  3775 ;;		None
  3776 ;; Return value:  Size  Location     Type
  3777 ;;                  1    wreg      void 
  3778 ;; Registers used:
  3779 ;;		None
  3780 ;; Tracked objects:
  3781 ;;		On entry : 0/0
  3782 ;;		On exit  : 0/0
  3783 ;;		Unchanged: 0/0
  3784 ;; Data sizes:     COMRAM   BANK0   BANK1   BANK2   BANK3   BANK4   BANK5   BANK6   BANK7   BANK8   BANK9  BANK10  BANK1
      +1  BANK12  BANK13  BANK14
  3785 ;;      Params:         0       0       0       0       0       0       0       0       0       0       0       0       
      +0       0       0       0
  3786 ;;      Locals:         0       0       0       0       0       0       0       0       0       0       0       0       
      +0       0       0       0
  3787 ;;      Temps:          0       0       0       0       0       0       0       0       0       0       0       0       
      +0       0       0       0
  3788 ;;      Totals:         0       0       0       0       0       0       0       0       0       0       0       0       
      +0       0       0       0
  3789 ;;Total ram usage:        0 bytes
  3790 ;; Hardware stack levels used: 1
  3791 ;; Hardware stack levels required when called: 7
  3792 ;; This function calls:
  3793 ;;		Nothing
  3794 ;; This function is called by:
  3795 ;;		_I2C1_Close
  3796 ;;		_I2C1_SetTimeOut
  3797 ;; This function uses a non-reentrant model
  3798 ;;
  3799                           
  3800                           	psect	text34
  3801  001FC0                     __ptext34:
  3802                           	callstack 0
  3803  001FC0                     _I2C1_MasterDisableIrq:
  3804                           	callstack 21
  3805  001FC0                     
  3806                           ;mcc_generated_files/i2c1_master.c: 639:     PIE1bits.SSP1IE = 0;
  3807  001FC0  969D               	bcf	157,3,c	;volatile
  3808  001FC2  0012               	return		;funcret
  3809  001FC4                     __end_of_I2C1_MasterDisableIrq:
  3810                           	callstack 0
  3811                           
  3812 ;; *************** function _I2C1_MasterClose *****************
  3813 ;; Defined at:
  3814 ;;		line 558 in file "mcc_generated_files/i2c1_master.c"
  3815 ;; Parameters:    Size  Location     Type
  3816 ;;		None
  3817 ;; Auto vars:     Size  Location     Type
  3818 ;;		None
  3819 ;; Return value:  Size  Location     Type
  3820 ;;                  1    wreg      void 
  3821 ;; Registers used:
  3822 ;;		None
  3823 ;; Tracked objects:
  3824 ;;		On entry : 0/0
  3825 ;;		On exit  : 0/0
  3826 ;;		Unchanged: 0/0
  3827 ;; Data sizes:     COMRAM   BANK0   BANK1   BANK2   BANK3   BANK4   BANK5   BANK6   BANK7   BANK8   BANK9  BANK10  BANK1
      +1  BANK12  BANK13  BANK14
  3828 ;;      Params:         0       0       0       0       0       0       0       0       0       0       0       0       
      +0       0       0       0
  3829 ;;      Locals:         0       0       0       0       0       0       0       0       0       0       0       0       
      +0       0       0       0
  3830 ;;      Temps:          0       0       0       0       0       0       0       0       0       0       0       0       
      +0       0       0       0
  3831 ;;      Totals:         0       0       0       0       0       0       0       0       0       0       0       0       
      +0       0       0       0
  3832 ;;Total ram usage:        0 bytes
  3833 ;; Hardware stack levels used: 1
  3834 ;; Hardware stack levels required when called: 7
  3835 ;; This function calls:
  3836 ;;		Nothing
  3837 ;; This function is called by:
  3838 ;;		_I2C1_Close
  3839 ;; This function uses a non-reentrant model
  3840 ;;
  3841                           
  3842                           	psect	text35
  3843  001FC4                     __ptext35:
  3844                           	callstack 0
  3845  001FC4                     _I2C1_MasterClose:
  3846                           	callstack 21
  3847  001FC4                     
  3848                           ;mcc_generated_files/i2c1_master.c: 561:     SSP1CON1bits.SSPEN = 0;
  3849  001FC4  9AC6               	bcf	198,5,c	;volatile
  3850  001FC6  0012               	return		;funcret
  3851  001FC8                     __end_of_I2C1_MasterClose:
  3852                           	callstack 0
  3853                           
  3854 ;; *************** function _I2C1_MasterClearIrq *****************
  3855 ;; Defined at:
  3856 ;;		line 642 in file "mcc_generated_files/i2c1_master.c"
  3857 ;; Parameters:    Size  Location     Type
  3858 ;;		None
  3859 ;; Auto vars:     Size  Location     Type
  3860 ;;		None
  3861 ;; Return value:  Size  Location     Type
  3862 ;;                  1    wreg      void 
  3863 ;; Registers used:
  3864 ;;		None
  3865 ;; Tracked objects:
  3866 ;;		On entry : 0/0
  3867 ;;		On exit  : 0/0
  3868 ;;		Unchanged: 0/0
  3869 ;; Data sizes:     COMRAM   BANK0   BANK1   BANK2   BANK3   BANK4   BANK5   BANK6   BANK7   BANK8   BANK9  BANK10  BANK1
      +1  BANK12  BANK13  BANK14
  3870 ;;      Params:         0       0       0       0       0       0       0       0       0       0       0       0       
      +0       0       0       0
  3871 ;;      Locals:         0       0       0       0       0       0       0       0       0       0       0       0       
      +0       0       0       0
  3872 ;;      Temps:          0       0       0       0       0       0       0       0       0       0       0       0       
      +0       0       0       0
  3873 ;;      Totals:         0       0       0       0       0       0       0       0       0       0       0       0       
      +0       0       0       0
  3874 ;;Total ram usage:        0 bytes
  3875 ;; Hardware stack levels used: 1
  3876 ;; Hardware stack levels required when called: 7
  3877 ;; This function calls:
  3878 ;;		Nothing
  3879 ;; This function is called by:
  3880 ;;		_I2C1_Open
  3881 ;;		_I2C1_Close
  3882 ;; This function uses a non-reentrant model
  3883 ;;
  3884                           
  3885                           	psect	text36
  3886  001FC8                     __ptext36:
  3887                           	callstack 0
  3888  001FC8                     _I2C1_MasterClearIrq:
  3889                           	callstack 21
  3890  001FC8                     
  3891                           ;mcc_generated_files/i2c1_master.c: 644:     PIR1bits.SSP1IF = 0;
  3892  001FC8  969E               	bcf	158,3,c	;volatile
  3893  001FCA  0012               	return		;funcret
  3894  001FCC                     __end_of_I2C1_MasterClearIrq:
  3895                           	callstack 0
  3896                           
  3897 ;; *************** function _INTERRUPT_InterruptManager *****************
  3898 ;; Defined at:
  3899 ;;		line 58 in file "mcc_generated_files/interrupt_manager.c"
  3900 ;; Parameters:    Size  Location     Type
  3901 ;;		None
  3902 ;; Auto vars:     Size  Location     Type
  3903 ;;		None
  3904 ;; Return value:  Size  Location     Type
  3905 ;;                  1    wreg      void 
  3906 ;; Registers used:
  3907 ;;		wreg, fsr2l, fsr2h, status,2, status,0, pcl, pclath, pclatu, tosl, tblptrl, tblptrh, tblptru, prodl, prodh, cstack
  3908 ;; Tracked objects:
  3909 ;;		On entry : 0/0
  3910 ;;		On exit  : 0/0
  3911 ;;		Unchanged: 0/0
  3912 ;; Data sizes:     COMRAM   BANK0   BANK1   BANK2   BANK3   BANK4   BANK5   BANK6   BANK7   BANK8   BANK9  BANK10  BANK1
      +1  BANK12  BANK13  BANK14
  3913 ;;      Params:         0       0       0       0       0       0       0       0       0       0       0       0       
      +0       0       0       0
  3914 ;;      Locals:         0       0       0       0       0       0       0       0       0       0       0       0       
      +0       0       0       0
  3915 ;;      Temps:         10       0       0       0       0       0       0       0       0       0       0       0       
      +0       0       0       0
  3916 ;;      Totals:        10       0       0       0       0       0       0       0       0       0       0       0       
      +0       0       0       0
  3917 ;;Total ram usage:       10 bytes
  3918 ;; Hardware stack levels used: 1
  3919 ;; Hardware stack levels required when called: 6
  3920 ;; This function calls:
  3921 ;;		Absolute function
  3922 ;;		_EUSART2_Receive_ISR
  3923 ;;		_EUSART2_Transmit_ISR
  3924 ;;		_I2C1_MasterIsr
  3925 ;; This function is called by:
  3926 ;;		Interrupt level 2
  3927 ;; This function uses a non-reentrant model
  3928 ;;
  3929                           
  3930                           	psect	intcode
  3931  000008                     __pintcode:
  3932                           	callstack 0
  3933  000008                     _INTERRUPT_InterruptManager:
  3934                           	callstack 18
  3935                           
  3936                           ;incstack = 0
  3937  000008  8248               	bsf	int$flags,1,c	;set compiler interrupt flag (level 2)
  3938  00000A  CFFA F00E          	movff	pclath,??_INTERRUPT_InterruptManager
  3939  00000E  CFFB F00F          	movff	pclatu,??_INTERRUPT_InterruptManager+1
  3940  000012  CFD9 F010          	movff	fsr2l,??_INTERRUPT_InterruptManager+2
  3941  000016  CFDA F011          	movff	fsr2h,??_INTERRUPT_InterruptManager+3
  3942  00001A  CFF3 F012          	movff	prodl,??_INTERRUPT_InterruptManager+4
  3943  00001E  CFF4 F013          	movff	prodh,??_INTERRUPT_InterruptManager+5
  3944  000022  CFF6 F014          	movff	tblptrl,??_INTERRUPT_InterruptManager+6
  3945  000026  CFF7 F015          	movff	tblptrh,??_INTERRUPT_InterruptManager+7
  3946  00002A  CFF8 F016          	movff	tblptru,??_INTERRUPT_InterruptManager+8
  3947  00002E  CFF5 F017          	movff	tablat,??_INTERRUPT_InterruptManager+9
  3948  000032                     
  3949                           ;mcc_generated_files/interrupt_manager.c: 61:     if(INTCONbits.PEIE == 1)
  3950  000032  ACF2               	btfss	242,6,c	;volatile
  3951  000034  EF1E  F000         	goto	i2u141_41
  3952  000038  EF20  F000         	goto	i2u141_40
  3953  00003C                     i2u141_41:
  3954  00003C  EF87  F000         	goto	i2l733
  3955  000040                     i2u141_40:
  3956  000040                     
  3957                           ;mcc_generated_files/interrupt_manager.c: 62:     {;mcc_generated_files/interrupt_manage
      +                          r.c: 63:         if(PIE3bits.TX2IE == 1 && PIR3bits.TX2IF == 1)
  3958  000040  A8A3               	btfss	163,4,c	;volatile
  3959  000042  EF25  F000         	goto	i2u142_41
  3960  000046  EF27  F000         	goto	i2u142_40
  3961  00004A                     i2u142_41:
  3962  00004A  EF3D  F000         	goto	i2l724
  3963  00004E                     i2u142_40:
  3964  00004E  A8A4               	btfss	164,4,c	;volatile
  3965  000050  EF2C  F000         	goto	i2u143_41
  3966  000054  EF2E  F000         	goto	i2u143_40
  3967  000058                     i2u143_41:
  3968  000058  EF3D  F000         	goto	i2l724
  3969  00005C                     i2u143_40:
  3970  00005C                     
  3971                           ;mcc_generated_files/interrupt_manager.c: 64:         {;mcc_generated_files/interrupt_ma
      +                          nager.c: 65:             EUSART2_TxDefaultInterruptHandler();
  3972  00005C  D802               	call	i2u144_48
  3973  00005E  EF3B  F000         	goto	i2u144_49
  3974  000062                     i2u144_48:
  3975  000062  0005               	push	
  3976  000064  6EFA               	movwf	pclath,c
  3977  000066  5045               	movf	_EUSART2_TxDefaultInterruptHandler^0,w,c
  3978  000068  6EFD               	movwf	tosl,c
  3979  00006A  5046               	movf	(_EUSART2_TxDefaultInterruptHandler+1)^0,w,c
  3980  00006C  6EFE               	movwf	tosh,c
  3981  00006E  50F8               	movf	tblptru,w,c
  3982  000070  6EFF               	movwf	tosu,c
  3983  000072  50FA               	movf	pclath,w,c
  3984  000074  0012               	return		;indir
  3985  000076                     i2u144_49:
  3986                           
  3987                           ;mcc_generated_files/interrupt_manager.c: 66:         }
  3988  000076  EF87  F000         	goto	i2l733
  3989  00007A                     i2l724:
  3990  00007A  AAA3               	btfss	163,5,c	;volatile
  3991  00007C  EF42  F000         	goto	i2u145_41
  3992  000080  EF44  F000         	goto	i2u145_40
  3993  000084                     i2u145_41:
  3994  000084  EF5A  F000         	goto	i2l726
  3995  000088                     i2u145_40:
  3996  000088  AAA4               	btfss	164,5,c	;volatile
  3997  00008A  EF49  F000         	goto	i2u146_41
  3998  00008E  EF4B  F000         	goto	i2u146_40
  3999  000092                     i2u146_41:
  4000  000092  EF5A  F000         	goto	i2l726
  4001  000096                     i2u146_40:
  4002  000096                     
  4003                           ;mcc_generated_files/interrupt_manager.c: 68:         {;mcc_generated_files/interrupt_ma
      +                          nager.c: 69:             EUSART2_RxDefaultInterruptHandler();
  4004  000096  D802               	call	i2u147_48
  4005  000098  EF58  F000         	goto	i2u147_49
  4006  00009C                     i2u147_48:
  4007  00009C  0005               	push	
  4008  00009E  6EFA               	movwf	pclath,c
  4009  0000A0  5043               	movf	_EUSART2_RxDefaultInterruptHandler^0,w,c
  4010  0000A2  6EFD               	movwf	tosl,c
  4011  0000A4  5044               	movf	(_EUSART2_RxDefaultInterruptHandler+1)^0,w,c
  4012  0000A6  6EFE               	movwf	tosh,c
  4013  0000A8  50F8               	movf	tblptru,w,c
  4014  0000AA  6EFF               	movwf	tosu,c
  4015  0000AC  50FA               	movf	pclath,w,c
  4016  0000AE  0012               	return		;indir
  4017  0000B0                     i2u147_49:
  4018                           
  4019                           ;mcc_generated_files/interrupt_manager.c: 70:         }
  4020  0000B0  EF87  F000         	goto	i2l733
  4021  0000B4                     i2l726:
  4022  0000B4  A6A0               	btfss	160,3,c	;volatile
  4023  0000B6  EF5F  F000         	goto	i2u148_41
  4024  0000BA  EF61  F000         	goto	i2u148_40
  4025  0000BE                     i2u148_41:
  4026  0000BE  EF77  F000         	goto	i2l728
  4027  0000C2                     i2u148_40:
  4028  0000C2  A6A1               	btfss	161,3,c	;volatile
  4029  0000C4  EF66  F000         	goto	i2u149_41
  4030  0000C8  EF68  F000         	goto	i2u149_40
  4031  0000CC                     i2u149_41:
  4032  0000CC  EF77  F000         	goto	i2l728
  4033  0000D0                     i2u149_40:
  4034  0000D0                     i2l3544:
  4035                           
  4036                           ;mcc_generated_files/interrupt_manager.c: 72:         {;mcc_generated_files/interrupt_ma
      +                          nager.c: 73:             MSSP1_InterruptHandler();
  4037  0000D0  D802               	call	i2u150_48
  4038  0000D2  EF75  F000         	goto	i2u150_49
  4039  0000D6                     i2u150_48:
  4040  0000D6  0005               	push	
  4041  0000D8  6EFA               	movwf	pclath,c
  4042  0000DA  5039               	movf	_MSSP1_InterruptHandler^0,w,c
  4043  0000DC  6EFD               	movwf	tosl,c
  4044  0000DE  503A               	movf	(_MSSP1_InterruptHandler+1)^0,w,c
  4045  0000E0  6EFE               	movwf	tosh,c
  4046  0000E2  50F8               	movf	tblptru,w,c
  4047  0000E4  6EFF               	movwf	tosu,c
  4048  0000E6  50FA               	movf	pclath,w,c
  4049  0000E8  0012               	return		;indir
  4050  0000EA                     i2u150_49:
  4051                           
  4052                           ;mcc_generated_files/interrupt_manager.c: 74:         }
  4053  0000EA  EF87  F000         	goto	i2l733
  4054  0000EE                     i2l728:
  4055  0000EE  A69D               	btfss	157,3,c	;volatile
  4056  0000F0  EF7C  F000         	goto	i2u151_41
  4057  0000F4  EF7E  F000         	goto	i2u151_40
  4058  0000F8                     i2u151_41:
  4059  0000F8  EF87  F000         	goto	i2l727
  4060  0000FC                     i2u151_40:
  4061  0000FC  A69E               	btfss	158,3,c	;volatile
  4062  0000FE  EF83  F000         	goto	i2u152_41
  4063  000102  EF85  F000         	goto	i2u152_40
  4064  000106                     i2u152_41:
  4065  000106  EF87  F000         	goto	i2l727
  4066  00010A                     i2u152_40:
  4067  00010A  EF68  F000         	goto	i2l3544
  4068  00010E                     i2l727:
  4069  00010E                     i2l733:
  4070  00010E  C017  FFF5         	movff	??_INTERRUPT_InterruptManager+9,tablat
  4071  000112  C016  FFF8         	movff	??_INTERRUPT_InterruptManager+8,tblptru
  4072  000116  C015  FFF7         	movff	??_INTERRUPT_InterruptManager+7,tblptrh
  4073  00011A  C014  FFF6         	movff	??_INTERRUPT_InterruptManager+6,tblptrl
  4074  00011E  C013  FFF4         	movff	??_INTERRUPT_InterruptManager+5,prodh
  4075  000122  C012  FFF3         	movff	??_INTERRUPT_InterruptManager+4,prodl
  4076  000126  C011  FFDA         	movff	??_INTERRUPT_InterruptManager+3,fsr2h
  4077  00012A  C010  FFD9         	movff	??_INTERRUPT_InterruptManager+2,fsr2l
  4078  00012E  C00F  FFFB         	movff	??_INTERRUPT_InterruptManager+1,pclatu
  4079  000132  C00E  FFFA         	movff	??_INTERRUPT_InterruptManager,pclath
  4080  000136  9248               	bcf	int$flags,1,c	;clear compiler interrupt flag (level 2)
  4081  000138  0011               	retfie		f
  4082  00013A                     __end_of_INTERRUPT_InterruptManager:
  4083                           	callstack 0
  4084                           
  4085 ;; *************** function _I2C1_MasterIsr *****************
  4086 ;; Defined at:
  4087 ;;		line 318 in file "mcc_generated_files/i2c1_master.c"
  4088 ;; Parameters:    Size  Location     Type
  4089 ;;		None
  4090 ;; Auto vars:     Size  Location     Type
  4091 ;;		None
  4092 ;; Return value:  Size  Location     Type
  4093 ;;                  1    wreg      void 
  4094 ;; Registers used:
  4095 ;;		wreg, fsr2l, fsr2h, status,2, status,0, pcl, pclath, pclatu, tosl, tblptrl, tblptrh, tblptru, prodl, prodh, cstack
  4096 ;; Tracked objects:
  4097 ;;		On entry : 0/0
  4098 ;;		On exit  : 0/0
  4099 ;;		Unchanged: 0/0
  4100 ;; Data sizes:     COMRAM   BANK0   BANK1   BANK2   BANK3   BANK4   BANK5   BANK6   BANK7   BANK8   BANK9  BANK10  BANK1
      +1  BANK12  BANK13  BANK14
  4101 ;;      Params:         0       0       0       0       0       0       0       0       0       0       0       0       
      +0       0       0       0
  4102 ;;      Locals:         0       0       0       0       0       0       0       0       0       0       0       0       
      +0       0       0       0
  4103 ;;      Temps:          0       0       0       0       0       0       0       0       0       0       0       0       
      +0       0       0       0
  4104 ;;      Totals:         0       0       0       0       0       0       0       0       0       0       0       0       
      +0       0       0       0
  4105 ;;Total ram usage:        0 bytes
  4106 ;; Hardware stack levels used: 1
  4107 ;; Hardware stack levels required when called: 5
  4108 ;; This function calls:
  4109 ;;		_I2C1_MasterFsm
  4110 ;; This function is called by:
  4111 ;;		_I2C1_Open
  4112 ;;		_INTERRUPT_InterruptManager
  4113 ;; This function uses a non-reentrant model
  4114 ;;
  4115                           
  4116                           	psect	text38
  4117  001F96                     __ptext38:
  4118                           	callstack 0
  4119  001F96                     _I2C1_MasterIsr:
  4120                           	callstack 18
  4121  001F96                     
  4122                           ;mcc_generated_files/i2c1_master.c: 320:     I2C1_MasterFsm();
  4123  001F96  ECF9  F00C         	call	_I2C1_MasterFsm	;wreg free
  4124  001F9A  0012               	return		;funcret
  4125  001F9C                     __end_of_I2C1_MasterIsr:
  4126                           	callstack 0
  4127                           
  4128 ;; *************** function _I2C1_MasterFsm *****************
  4129 ;; Defined at:
  4130 ;;		line 323 in file "mcc_generated_files/i2c1_master.c"
  4131 ;; Parameters:    Size  Location     Type
  4132 ;;		None
  4133 ;; Auto vars:     Size  Location     Type
  4134 ;;		None
  4135 ;; Return value:  Size  Location     Type
  4136 ;;                  1    wreg      void 
  4137 ;; Registers used:
  4138 ;;		wreg, fsr2l, fsr2h, status,2, status,0, pcl, pclath, pclatu, tosl, tblptrl, tblptrh, tblptru, prodl, prodh, cstack
  4139 ;; Tracked objects:
  4140 ;;		On entry : 0/0
  4141 ;;		On exit  : 0/0
  4142 ;;		Unchanged: 0/0
  4143 ;; Data sizes:     COMRAM   BANK0   BANK1   BANK2   BANK3   BANK4   BANK5   BANK6   BANK7   BANK8   BANK9  BANK10  BANK1
      +1  BANK12  BANK13  BANK14
  4144 ;;      Params:         0       0       0       0       0       0       0       0       0       0       0       0       
      +0       0       0       0
  4145 ;;      Locals:         0       0       0       0       0       0       0       0       0       0       0       0       
      +0       0       0       0
  4146 ;;      Temps:          0       0       0       0       0       0       0       0       0       0       0       0       
      +0       0       0       0
  4147 ;;      Totals:         0       0       0       0       0       0       0       0       0       0       0       0       
      +0       0       0       0
  4148 ;;Total ram usage:        0 bytes
  4149 ;; Hardware stack levels used: 1
  4150 ;; Hardware stack levels required when called: 4
  4151 ;; This function calls:
  4152 ;;		_I2C1_DO_ADDRESS_NACK
  4153 ;;		_I2C1_DO_IDLE
  4154 ;;		_I2C1_DO_RCEN
  4155 ;;		_I2C1_DO_RESET
  4156 ;;		_I2C1_DO_RX
  4157 ;;		_I2C1_DO_RX_ACK
  4158 ;;		_I2C1_DO_RX_NACK_RESTART
  4159 ;;		_I2C1_DO_RX_NACK_STOP
  4160 ;;		_I2C1_DO_SEND_ADR_READ
  4161 ;;		_I2C1_DO_SEND_ADR_WRITE
  4162 ;;		_I2C1_DO_SEND_RESTART
  4163 ;;		_I2C1_DO_SEND_RESTART_READ
  4164 ;;		_I2C1_DO_SEND_RESTART_WRITE
  4165 ;;		_I2C1_DO_SEND_STOP
  4166 ;;		_I2C1_DO_TX
  4167 ;;		_I2C1_DO_TX_EMPTY
  4168 ;;		_I2C1_MasterIsNack
  4169 ;;		i2_I2C1_MasterClearIrq
  4170 ;; This function is called by:
  4171 ;;		_I2C1_MasterIsr
  4172 ;; This function uses a non-reentrant model
  4173 ;;
  4174                           
  4175                           	psect	text39
  4176  0019F2                     __ptext39:
  4177                           	callstack 0
  4178  0019F2                     _I2C1_MasterFsm:
  4179                           	callstack 18
  4180  0019F2                     
  4181                           ;mcc_generated_files/i2c1_master.c: 325:     I2C1_MasterClearIrq();
  4182  0019F2  ECE6  F00F         	call	i2_I2C1_MasterClearIrq	;wreg free
  4183  0019F6                     
  4184                           ;mcc_generated_files/i2c1_master.c: 327:     if(I2C1_Status.addressNackCheck && I2C1_Mas
      +                          terIsNack())
  4185  0019F6  0100               	movlb	0	; () banked
  4186  0019F8  A183               	btfss	(_I2C1_Status+35)& (0+255),0,b
  4187  0019FA  EF01  F00D         	goto	i2u111_41
  4188  0019FE  EF03  F00D         	goto	i2u111_40
  4189  001A02                     i2u111_41:
  4190  001A02  EF10  F00D         	goto	i2l3298
  4191  001A06                     i2u111_40:
  4192  001A06                     
  4193                           ; BSR set to: 0
  4194  001A06  EC50  F00F         	call	_I2C1_MasterIsNack	;wreg free
  4195  001A0A  0900               	iorlw	0
  4196  001A0C  B4D8               	btfsc	status,2,c
  4197  001A0E  EF0B  F00D         	goto	i2u112_41
  4198  001A12  EF0D  F00D         	goto	i2u112_40
  4199  001A16                     i2u112_41:
  4200  001A16  EF10  F00D         	goto	i2l3298
  4201  001A1A                     i2u112_40:
  4202  001A1A                     
  4203                           ;mcc_generated_files/i2c1_master.c: 328:     {;mcc_generated_files/i2c1_master.c: 329:  
      +                                 I2C1_Status.state = I2C1_ADDRESS_NACK;
  4204  001A1A  0E0F               	movlw	15
  4205  001A1C  0100               	movlb	0	; () banked
  4206  001A1E  6F81               	movwf	(_I2C1_Status+33)& (0+255),b
  4207  001A20                     i2l3298:
  4208                           
  4209                           ;mcc_generated_files/i2c1_master.c: 331:     I2C1_Status.state = i2c1_fsmStateTable[I2C1
      +                          _Status.state]();
  4210  001A20  0100               	movlb	0	; () banked
  4211  001A22  5181               	movf	(_I2C1_Status+33)& (0+255),w,b
  4212  001A24  0D02               	mullw	2
  4213  001A26  0E01               	movlw	low _i2c1_fsmStateTable
  4214  001A28  24F3               	addwf	243,w,c
  4215  001A2A  6EF6               	movwf	tblptrl,c
  4216  001A2C  0E0F               	movlw	high _i2c1_fsmStateTable
  4217  001A2E  20F4               	addwfc	244,w,c
  4218  001A30  6EF7               	movwf	tblptrh,c
  4219  001A32                     	if	0	;There are less than 3 active tblptr bytes
  4220  001A32                     	endif
  4221  001A32  D802               	call	i2u113_48
  4222  001A34  EF28  F00D         	goto	i2u113_49
  4223  001A38                     i2u113_48:
  4224  001A38  0005               	push	
  4225  001A3A  6EFA               	movwf	pclath,c
  4226  001A3C  0009               	tblrd		*+
  4227  001A3E  50F5               	movf	tablat,w,c
  4228  001A40  6EFD               	movwf	tosl,c
  4229  001A42  0009               	tblrd		*+
  4230  001A44  50F5               	movf	tablat,w,c
  4231  001A46  6EFE               	movwf	tosh,c
  4232  001A48  50F8               	movf	tblptru,w,c
  4233  001A4A  6EFF               	movwf	tosu,c
  4234  001A4C  50FA               	movf	pclath,w,c
  4235  001A4E  0012               	return		;indir
  4236  001A50                     i2u113_49:
  4237  001A50  0100               	movlb	0	; () banked
  4238  001A52  6F81               	movwf	(_I2C1_Status+33)& (0+255),b
  4239  001A54                     
  4240                           ; BSR set to: 0
  4241  001A54  0012               	return		;funcret
  4242  001A56                     __end_of_I2C1_MasterFsm:
  4243                           	callstack 0
  4244                           
  4245 ;; *************** function i2_I2C1_MasterClearIrq *****************
  4246 ;; Defined at:
  4247 ;;		line 642 in file "mcc_generated_files/i2c1_master.c"
  4248 ;; Parameters:    Size  Location     Type
  4249 ;;		None
  4250 ;; Auto vars:     Size  Location     Type
  4251 ;;		None
  4252 ;; Return value:  Size  Location     Type
  4253 ;;                  1    wreg      void 
  4254 ;; Registers used:
  4255 ;;		None
  4256 ;; Tracked objects:
  4257 ;;		On entry : 0/0
  4258 ;;		On exit  : 0/0
  4259 ;;		Unchanged: 0/0
  4260 ;; Data sizes:     COMRAM   BANK0   BANK1   BANK2   BANK3   BANK4   BANK5   BANK6   BANK7   BANK8   BANK9  BANK10  BANK1
      +1  BANK12  BANK13  BANK14
  4261 ;;      Params:         0       0       0       0       0       0       0       0       0       0       0       0       
      +0       0       0       0
  4262 ;;      Locals:         0       0       0       0       0       0       0       0       0       0       0       0       
      +0       0       0       0
  4263 ;;      Temps:          0       0       0       0       0       0       0       0       0       0       0       0       
      +0       0       0       0
  4264 ;;      Totals:         0       0       0       0       0       0       0       0       0       0       0       0       
      +0       0       0       0
  4265 ;;Total ram usage:        0 bytes
  4266 ;; Hardware stack levels used: 1
  4267 ;; This function calls:
  4268 ;;		Nothing
  4269 ;; This function is called by:
  4270 ;;		_I2C1_MasterFsm
  4271 ;; This function uses a non-reentrant model
  4272 ;;
  4273                           
  4274                           	psect	text40
  4275  001FCC                     __ptext40:
  4276                           	callstack 0
  4277  001FCC                     i2_I2C1_MasterClearIrq:
  4278                           	callstack 21
  4279  001FCC                     
  4280                           ;mcc_generated_files/i2c1_master.c: 644:     PIR1bits.SSP1IF = 0;
  4281  001FCC  969E               	bcf	158,3,c	;volatile
  4282  001FCE  0012               	return		;funcret
  4283  001FD0                     __end_ofi2_I2C1_MasterClearIrq:
  4284                           	callstack 0
  4285                           
  4286 ;; *************** function _I2C1_DO_ADDRESS_NACK *****************
  4287 ;; Defined at:
  4288 ;;		line 501 in file "mcc_generated_files/i2c1_master.c"
  4289 ;; Parameters:    Size  Location     Type
  4290 ;;		None
  4291 ;; Auto vars:     Size  Location     Type
  4292 ;;		None
  4293 ;; Return value:  Size  Location     Type
  4294 ;;                  1    wreg      enum E6655
  4295 ;; Registers used:
  4296 ;;		wreg, fsr2l, fsr2h, status,2, status,0, pcl, pclath, pclatu, tosl, prodl, prodh, cstack
  4297 ;; Tracked objects:
  4298 ;;		On entry : 0/0
  4299 ;;		On exit  : 0/0
  4300 ;;		Unchanged: 0/0
  4301 ;; Data sizes:     COMRAM   BANK0   BANK1   BANK2   BANK3   BANK4   BANK5   BANK6   BANK7   BANK8   BANK9  BANK10  BANK1
      +1  BANK12  BANK13  BANK14
  4302 ;;      Params:         0       0       0       0       0       0       0       0       0       0       0       0       
      +0       0       0       0
  4303 ;;      Locals:         0       0       0       0       0       0       0       0       0       0       0       0       
      +0       0       0       0
  4304 ;;      Temps:          2       0       0       0       0       0       0       0       0       0       0       0       
      +0       0       0       0
  4305 ;;      Totals:         2       0       0       0       0       0       0       0       0       0       0       0       
      +0       0       0       0
  4306 ;;Total ram usage:        2 bytes
  4307 ;; Hardware stack levels used: 1
  4308 ;; Hardware stack levels required when called: 3
  4309 ;; This function calls:
  4310 ;;		Absolute function
  4311 ;;		_I2C1_CallbackReturnReset
  4312 ;;		_I2C1_CallbackReturnStop
  4313 ;;		_I2C1_DO_SEND_RESTART
  4314 ;;		_I2C1_DO_SEND_STOP
  4315 ;;		_rd1RegCompleteHandler
  4316 ;;		_rd2RegCompleteHandler
  4317 ;;		_rdBlkRegCompleteHandler
  4318 ;;		_wr1RegCompleteHandler
  4319 ;;		_wr2RegCompleteHandler
  4320 ;; This function is called by:
  4321 ;;		_I2C1_MasterFsm
  4322 ;; This function uses a non-reentrant model
  4323 ;;
  4324                           
  4325                           	psect	text41
  4326  001986                     __ptext41:
  4327                           	callstack 0
  4328  001986                     _I2C1_DO_ADDRESS_NACK:
  4329                           	callstack 18
  4330  001986                     
  4331                           ;mcc_generated_files/i2c1_master.c: 503:     I2C1_Status.addressNackCheck = 0;
  4332  001986  0100               	movlb	0	; () banked
  4333  001988  9183               	bcf	(_I2C1_Status+35)& (0+255),0,b
  4334  00198A                     
  4335                           ; BSR set to: 0
  4336                           ;mcc_generated_files/i2c1_master.c: 504:     I2C1_Status.error = I2C1_FAIL;
  4337  00198A  0E02               	movlw	2
  4338  00198C  6F82               	movwf	(_I2C1_Status+34)& (0+255),b
  4339                           
  4340                           ;mcc_generated_files/i2c1_master.c: 505:     switch(I2C1_Status.callbackTable[I2C1_ADDR_
      +                          NACK](I2C1_Status.callbackPayload[I2C1_ADDR_NACK]))
  4341  00198E  EFD1  F00C         	goto	i2l3140
  4342  001992                     i2l3130:
  4343                           
  4344                           ;mcc_generated_files/i2c1_master.c: 509:             return I2C1_DO_SEND_RESTART();
  4345  001992  ECBB  F00F         	call	_I2C1_DO_SEND_RESTART	;wreg free
  4346  001996  EFF8  F00C         	goto	i2l543
  4347  00199A                     i2l3134:
  4348                           
  4349                           ;mcc_generated_files/i2c1_master.c: 511:             return I2C1_DO_SEND_STOP();
  4350  00199A  ECB7  F00F         	call	_I2C1_DO_SEND_STOP	;wreg free
  4351  00199E  EFF8  F00C         	goto	i2l543
  4352  0019A2                     i2l3140:
  4353                           
  4354                           ; BSR set to: 0
  4355  0019A2  C070  F00A         	movff	_I2C1_Status+16,I2C1_CallbackReturnReset@funPtr
  4356  0019A6  C071  F00B         	movff	_I2C1_Status+17,I2C1_CallbackReturnReset@funPtr+1
  4357  0019AA  EE20  F064         	lfsr	2,_I2C1_Status+4
  4358  0019AE  D802               	call	i2u105_48
  4359  0019B0  EFE4  F00C         	goto	i2u105_49
  4360  0019B4                     i2u105_48:
  4361  0019B4  0005               	push	
  4362  0019B6  6EFA               	movwf	pclath,c
  4363  0019B8  50DE               	movf	postinc2,w,c
  4364  0019BA  6EFD               	movwf	tosl,c
  4365  0019BC  50DE               	movf	postinc2,w,c
  4366  0019BE  6EFE               	movwf	tosh,c
  4367  0019C0  50F8               	movf	tblptru,w,c
  4368  0019C2  6EFF               	movwf	tosu,c
  4369  0019C4  50FA               	movf	pclath,w,c
  4370  0019C6  0012               	return		;indir
  4371  0019C8                     i2u105_49:
  4372  0019C8  6E0C               	movwf	??_I2C1_DO_ADDRESS_NACK^0,c
  4373  0019CA  6A0D               	clrf	(??_I2C1_DO_ADDRESS_NACK+1)^0,c
  4374                           
  4375                           ; Switch on 2 bytes has been partitioned into a top level switch of size 1, and 1 sub-sw
      +                          itches
  4376                           ; Switch size 1, requested type "simple"
  4377                           ; Number of cases is 1, Range of values is 0 to 0
  4378                           ; switch strategies available:
  4379                           ; Name         Instructions Cycles
  4380                           ; simple_byte            4     3 (average)
  4381                           ;	Chosen strategy is simple_byte
  4382  0019CC  500D               	movf	(??_I2C1_DO_ADDRESS_NACK+1)^0,w,c
  4383  0019CE  0A00               	xorlw	0	; case 0
  4384  0019D0  B4D8               	btfsc	status,2,c
  4385  0019D2  EFED  F00C         	goto	i2l4424
  4386  0019D6  EFCD  F00C         	goto	i2l3134
  4387  0019DA                     i2l4424:
  4388                           
  4389                           ; Switch size 1, requested type "simple"
  4390                           ; Number of cases is 2, Range of values is 2 to 3
  4391                           ; switch strategies available:
  4392                           ; Name         Instructions Cycles
  4393                           ; simple_byte            7     4 (average)
  4394                           ;	Chosen strategy is simple_byte
  4395  0019DA  500C               	movf	??_I2C1_DO_ADDRESS_NACK^0,w,c
  4396  0019DC  0A02               	xorlw	2	; case 2
  4397  0019DE  B4D8               	btfsc	status,2,c
  4398  0019E0  EFC9  F00C         	goto	i2l3130
  4399  0019E4  0A01               	xorlw	1	; case 3
  4400  0019E6  B4D8               	btfsc	status,2,c
  4401  0019E8  EFC9  F00C         	goto	i2l3130
  4402  0019EC  EFCD  F00C         	goto	i2l3134
  4403  0019F0                     i2l543:
  4404  0019F0  0012               	return		;funcret
  4405  0019F2                     __end_of_I2C1_DO_ADDRESS_NACK:
  4406                           	callstack 0
  4407                           
  4408 ;; *************** function _I2C1_DO_RESET *****************
  4409 ;; Defined at:
  4410 ;;		line 495 in file "mcc_generated_files/i2c1_master.c"
  4411 ;; Parameters:    Size  Location     Type
  4412 ;;		None
  4413 ;; Auto vars:     Size  Location     Type
  4414 ;;		None
  4415 ;; Return value:  Size  Location     Type
  4416 ;;                  1    wreg      enum E6655
  4417 ;; Registers used:
  4418 ;;		wreg, status,2
  4419 ;; Tracked objects:
  4420 ;;		On entry : 0/0
  4421 ;;		On exit  : 0/0
  4422 ;;		Unchanged: 0/0
  4423 ;; Data sizes:     COMRAM   BANK0   BANK1   BANK2   BANK3   BANK4   BANK5   BANK6   BANK7   BANK8   BANK9  BANK10  BANK1
      +1  BANK12  BANK13  BANK14
  4424 ;;      Params:         0       0       0       0       0       0       0       0       0       0       0       0       
      +0       0       0       0
  4425 ;;      Locals:         0       0       0       0       0       0       0       0       0       0       0       0       
      +0       0       0       0
  4426 ;;      Temps:          0       0       0       0       0       0       0       0       0       0       0       0       
      +0       0       0       0
  4427 ;;      Totals:         0       0       0       0       0       0       0       0       0       0       0       0       
      +0       0       0       0
  4428 ;;Total ram usage:        0 bytes
  4429 ;; Hardware stack levels used: 1
  4430 ;; This function calls:
  4431 ;;		Nothing
  4432 ;; This function is called by:
  4433 ;;		_I2C1_MasterFsm
  4434 ;; This function uses a non-reentrant model
  4435 ;;
  4436                           
  4437                           	psect	text42
  4438  001EE4                     __ptext42:
  4439                           	callstack 0
  4440  001EE4                     _I2C1_DO_RESET:
  4441                           	callstack 21
  4442  001EE4                     
  4443                           ;mcc_generated_files/i2c1_master.c: 497:     I2C1_Status.busy = 0;
  4444  001EE4  0100               	movlb	0	; () banked
  4445  001EE6  9383               	bcf	(_I2C1_Status+35)& (0+255),1,b
  4446  001EE8                     
  4447                           ; BSR set to: 0
  4448                           ;mcc_generated_files/i2c1_master.c: 498:     I2C1_Status.error = I2C1_NOERR;
  4449  001EE8  0E00               	movlw	0
  4450  001EEA  6F82               	movwf	(_I2C1_Status+34)& (0+255),b
  4451  001EEC                     
  4452                           ; BSR set to: 0
  4453                           ;mcc_generated_files/i2c1_master.c: 499:     return I2C1_RESET;
  4454  001EEC  0E0E               	movlw	14
  4455  001EEE                     
  4456                           ; BSR set to: 0
  4457  001EEE  0012               	return		;funcret
  4458  001EF0                     __end_of_I2C1_DO_RESET:
  4459                           	callstack 0
  4460                           
  4461 ;; *************** function _I2C1_DO_RX_NACK_RESTART *****************
  4462 ;; Defined at:
  4463 ;;		line 489 in file "mcc_generated_files/i2c1_master.c"
  4464 ;; Parameters:    Size  Location     Type
  4465 ;;		None
  4466 ;; Auto vars:     Size  Location     Type
  4467 ;;		None
  4468 ;; Return value:  Size  Location     Type
  4469 ;;                  1    wreg      enum E6655
  4470 ;; Registers used:
  4471 ;;		wreg, cstack
  4472 ;; Tracked objects:
  4473 ;;		On entry : 0/0
  4474 ;;		On exit  : 0/0
  4475 ;;		Unchanged: 0/0
  4476 ;; Data sizes:     COMRAM   BANK0   BANK1   BANK2   BANK3   BANK4   BANK5   BANK6   BANK7   BANK8   BANK9  BANK10  BANK1
      +1  BANK12  BANK13  BANK14
  4477 ;;      Params:         0       0       0       0       0       0       0       0       0       0       0       0       
      +0       0       0       0
  4478 ;;      Locals:         0       0       0       0       0       0       0       0       0       0       0       0       
      +0       0       0       0
  4479 ;;      Temps:          0       0       0       0       0       0       0       0       0       0       0       0       
      +0       0       0       0
  4480 ;;      Totals:         0       0       0       0       0       0       0       0       0       0       0       0       
      +0       0       0       0
  4481 ;;Total ram usage:        0 bytes
  4482 ;; Hardware stack levels used: 1
  4483 ;; Hardware stack levels required when called: 1
  4484 ;; This function calls:
  4485 ;;		_I2C1_MasterSendNack
  4486 ;; This function is called by:
  4487 ;;		_I2C1_DO_RX
  4488 ;;		_I2C1_MasterFsm
  4489 ;; This function uses a non-reentrant model
  4490 ;;
  4491                           
  4492                           	psect	text43
  4493  001F56                     __ptext43:
  4494                           	callstack 0
  4495  001F56                     _I2C1_DO_RX_NACK_RESTART:
  4496                           	callstack 20
  4497  001F56                     
  4498                           ;mcc_generated_files/i2c1_master.c: 491:     I2C1_MasterSendNack();
  4499  001F56  ECD1  F00F         	call	_I2C1_MasterSendNack	;wreg free
  4500  001F5A                     
  4501                           ;mcc_generated_files/i2c1_master.c: 492:     return I2C1_SEND_RESTART;
  4502  001F5A  0E09               	movlw	9
  4503  001F5C  0012               	return		;funcret
  4504  001F5E                     __end_of_I2C1_DO_RX_NACK_RESTART:
  4505                           	callstack 0
  4506                           
  4507 ;; *************** function _I2C1_DO_RX_NACK_STOP *****************
  4508 ;; Defined at:
  4509 ;;		line 483 in file "mcc_generated_files/i2c1_master.c"
  4510 ;; Parameters:    Size  Location     Type
  4511 ;;		None
  4512 ;; Auto vars:     Size  Location     Type
  4513 ;;		None
  4514 ;; Return value:  Size  Location     Type
  4515 ;;                  1    wreg      enum E6655
  4516 ;; Registers used:
  4517 ;;		wreg, cstack
  4518 ;; Tracked objects:
  4519 ;;		On entry : 0/0
  4520 ;;		On exit  : 0/0
  4521 ;;		Unchanged: 0/0
  4522 ;; Data sizes:     COMRAM   BANK0   BANK1   BANK2   BANK3   BANK4   BANK5   BANK6   BANK7   BANK8   BANK9  BANK10  BANK1
      +1  BANK12  BANK13  BANK14
  4523 ;;      Params:         0       0       0       0       0       0       0       0       0       0       0       0       
      +0       0       0       0
  4524 ;;      Locals:         0       0       0       0       0       0       0       0       0       0       0       0       
      +0       0       0       0
  4525 ;;      Temps:          0       0       0       0       0       0       0       0       0       0       0       0       
      +0       0       0       0
  4526 ;;      Totals:         0       0       0       0       0       0       0       0       0       0       0       0       
      +0       0       0       0
  4527 ;;Total ram usage:        0 bytes
  4528 ;; Hardware stack levels used: 1
  4529 ;; Hardware stack levels required when called: 1
  4530 ;; This function calls:
  4531 ;;		_I2C1_MasterSendNack
  4532 ;; This function is called by:
  4533 ;;		_I2C1_DO_RX
  4534 ;;		_I2C1_MasterFsm
  4535 ;; This function uses a non-reentrant model
  4536 ;;
  4537                           
  4538                           	psect	text44
  4539  001F5E                     __ptext44:
  4540                           	callstack 0
  4541  001F5E                     _I2C1_DO_RX_NACK_STOP:
  4542                           	callstack 20
  4543  001F5E                     
  4544                           ;mcc_generated_files/i2c1_master.c: 485:     I2C1_MasterSendNack();
  4545  001F5E  ECD1  F00F         	call	_I2C1_MasterSendNack	;wreg free
  4546  001F62                     
  4547                           ;mcc_generated_files/i2c1_master.c: 486:     return I2C1_SEND_STOP;
  4548  001F62  0E0A               	movlw	10
  4549  001F64  0012               	return		;funcret
  4550  001F66                     __end_of_I2C1_DO_RX_NACK_STOP:
  4551                           	callstack 0
  4552                           
  4553 ;; *************** function _I2C1_DO_RX_ACK *****************
  4554 ;; Defined at:
  4555 ;;		line 476 in file "mcc_generated_files/i2c1_master.c"
  4556 ;; Parameters:    Size  Location     Type
  4557 ;;		None
  4558 ;; Auto vars:     Size  Location     Type
  4559 ;;		None
  4560 ;; Return value:  Size  Location     Type
  4561 ;;                  1    wreg      enum E6655
  4562 ;; Registers used:
  4563 ;;		wreg, cstack
  4564 ;; Tracked objects:
  4565 ;;		On entry : 0/0
  4566 ;;		On exit  : 0/0
  4567 ;;		Unchanged: 0/0
  4568 ;; Data sizes:     COMRAM   BANK0   BANK1   BANK2   BANK3   BANK4   BANK5   BANK6   BANK7   BANK8   BANK9  BANK10  BANK1
      +1  BANK12  BANK13  BANK14
  4569 ;;      Params:         0       0       0       0       0       0       0       0       0       0       0       0       
      +0       0       0       0
  4570 ;;      Locals:         0       0       0       0       0       0       0       0       0       0       0       0       
      +0       0       0       0
  4571 ;;      Temps:          0       0       0       0       0       0       0       0       0       0       0       0       
      +0       0       0       0
  4572 ;;      Totals:         0       0       0       0       0       0       0       0       0       0       0       0       
      +0       0       0       0
  4573 ;;Total ram usage:        0 bytes
  4574 ;; Hardware stack levels used: 1
  4575 ;; Hardware stack levels required when called: 1
  4576 ;; This function calls:
  4577 ;;		_I2C1_MasterSendAck
  4578 ;; This function is called by:
  4579 ;;		_I2C1_MasterFsm
  4580 ;; This function uses a non-reentrant model
  4581 ;;
  4582                           
  4583                           	psect	text45
  4584  001F66                     __ptext45:
  4585                           	callstack 0
  4586  001F66                     _I2C1_DO_RX_ACK:
  4587                           	callstack 20
  4588  001F66                     
  4589                           ;mcc_generated_files/i2c1_master.c: 478:     I2C1_MasterSendAck();
  4590  001F66  ECCE  F00F         	call	_I2C1_MasterSendAck	;wreg free
  4591  001F6A                     
  4592                           ;mcc_generated_files/i2c1_master.c: 479:     return I2C1_RCEN;
  4593  001F6A  0E05               	movlw	5
  4594  001F6C  0012               	return		;funcret
  4595  001F6E                     __end_of_I2C1_DO_RX_ACK:
  4596                           	callstack 0
  4597                           
  4598 ;; *************** function _I2C1_DO_SEND_STOP *****************
  4599 ;; Defined at:
  4600 ;;		line 470 in file "mcc_generated_files/i2c1_master.c"
  4601 ;; Parameters:    Size  Location     Type
  4602 ;;		None
  4603 ;; Auto vars:     Size  Location     Type
  4604 ;;		None
  4605 ;; Return value:  Size  Location     Type
  4606 ;;                  1    wreg      enum E6655
  4607 ;; Registers used:
  4608 ;;		wreg, cstack
  4609 ;; Tracked objects:
  4610 ;;		On entry : 0/0
  4611 ;;		On exit  : 0/0
  4612 ;;		Unchanged: 0/0
  4613 ;; Data sizes:     COMRAM   BANK0   BANK1   BANK2   BANK3   BANK4   BANK5   BANK6   BANK7   BANK8   BANK9  BANK10  BANK1
      +1  BANK12  BANK13  BANK14
  4614 ;;      Params:         0       0       0       0       0       0       0       0       0       0       0       0       
      +0       0       0       0
  4615 ;;      Locals:         0       0       0       0       0       0       0       0       0       0       0       0       
      +0       0       0       0
  4616 ;;      Temps:          0       0       0       0       0       0       0       0       0       0       0       0       
      +0       0       0       0
  4617 ;;      Totals:         0       0       0       0       0       0       0       0       0       0       0       0       
      +0       0       0       0
  4618 ;;Total ram usage:        0 bytes
  4619 ;; Hardware stack levels used: 1
  4620 ;; Hardware stack levels required when called: 1
  4621 ;; This function calls:
  4622 ;;		_I2C1_MasterStop
  4623 ;; This function is called by:
  4624 ;;		_I2C1_DO_TX
  4625 ;;		_I2C1_DO_TX_EMPTY
  4626 ;;		_I2C1_DO_ADDRESS_NACK
  4627 ;;		_I2C1_MasterFsm
  4628 ;; This function uses a non-reentrant model
  4629 ;;
  4630                           
  4631                           	psect	text46
  4632  001F6E                     __ptext46:
  4633                           	callstack 0
  4634  001F6E                     _I2C1_DO_SEND_STOP:
  4635                           	callstack 19
  4636  001F6E                     
  4637                           ;mcc_generated_files/i2c1_master.c: 472:     I2C1_MasterStop();
  4638  001F6E  ECF2  F00F         	call	_I2C1_MasterStop	;wreg free
  4639  001F72                     
  4640                           ;mcc_generated_files/i2c1_master.c: 473:     return I2C1_IDLE;
  4641  001F72  0E00               	movlw	0
  4642  001F74  0012               	return		;funcret
  4643  001F76                     __end_of_I2C1_DO_SEND_STOP:
  4644                           	callstack 0
  4645                           
  4646 ;; *************** function _I2C1_DO_SEND_RESTART *****************
  4647 ;; Defined at:
  4648 ;;		line 464 in file "mcc_generated_files/i2c1_master.c"
  4649 ;; Parameters:    Size  Location     Type
  4650 ;;		None
  4651 ;; Auto vars:     Size  Location     Type
  4652 ;;		None
  4653 ;; Return value:  Size  Location     Type
  4654 ;;                  1    wreg      enum E6655
  4655 ;; Registers used:
  4656 ;;		wreg, cstack
  4657 ;; Tracked objects:
  4658 ;;		On entry : 0/0
  4659 ;;		On exit  : 0/0
  4660 ;;		Unchanged: 0/0
  4661 ;; Data sizes:     COMRAM   BANK0   BANK1   BANK2   BANK3   BANK4   BANK5   BANK6   BANK7   BANK8   BANK9  BANK10  BANK1
      +1  BANK12  BANK13  BANK14
  4662 ;;      Params:         0       0       0       0       0       0       0       0       0       0       0       0       
      +0       0       0       0
  4663 ;;      Locals:         0       0       0       0       0       0       0       0       0       0       0       0       
      +0       0       0       0
  4664 ;;      Temps:          0       0       0       0       0       0       0       0       0       0       0       0       
      +0       0       0       0
  4665 ;;      Totals:         0       0       0       0       0       0       0       0       0       0       0       0       
      +0       0       0       0
  4666 ;;Total ram usage:        0 bytes
  4667 ;; Hardware stack levels used: 1
  4668 ;; Hardware stack levels required when called: 1
  4669 ;; This function calls:
  4670 ;;		_I2C1_MasterEnableRestart
  4671 ;; This function is called by:
  4672 ;;		_I2C1_DO_TX_EMPTY
  4673 ;;		_I2C1_DO_ADDRESS_NACK
  4674 ;;		_I2C1_MasterFsm
  4675 ;; This function uses a non-reentrant model
  4676 ;;
  4677                           
  4678                           	psect	text47
  4679  001F76                     __ptext47:
  4680                           	callstack 0
  4681  001F76                     _I2C1_DO_SEND_RESTART:
  4682                           	callstack 19
  4683  001F76                     
  4684                           ;mcc_generated_files/i2c1_master.c: 466:     I2C1_MasterEnableRestart();
  4685  001F76  ECF4  F00F         	call	_I2C1_MasterEnableRestart	;wreg free
  4686  001F7A                     
  4687                           ;mcc_generated_files/i2c1_master.c: 467:     return I2C1_SEND_ADR_READ;
  4688  001F7A  0E01               	movlw	1
  4689  001F7C  0012               	return		;funcret
  4690  001F7E                     __end_of_I2C1_DO_SEND_RESTART:
  4691                           	callstack 0
  4692                           
  4693 ;; *************** function _I2C1_DO_SEND_RESTART_WRITE *****************
  4694 ;; Defined at:
  4695 ;;		line 457 in file "mcc_generated_files/i2c1_master.c"
  4696 ;; Parameters:    Size  Location     Type
  4697 ;;		None
  4698 ;; Auto vars:     Size  Location     Type
  4699 ;;		None
  4700 ;; Return value:  Size  Location     Type
  4701 ;;                  1    wreg      enum E6655
  4702 ;; Registers used:
  4703 ;;		wreg, cstack
  4704 ;; Tracked objects:
  4705 ;;		On entry : 0/0
  4706 ;;		On exit  : 0/0
  4707 ;;		Unchanged: 0/0
  4708 ;; Data sizes:     COMRAM   BANK0   BANK1   BANK2   BANK3   BANK4   BANK5   BANK6   BANK7   BANK8   BANK9  BANK10  BANK1
      +1  BANK12  BANK13  BANK14
  4709 ;;      Params:         0       0       0       0       0       0       0       0       0       0       0       0       
      +0       0       0       0
  4710 ;;      Locals:         0       0       0       0       0       0       0       0       0       0       0       0       
      +0       0       0       0
  4711 ;;      Temps:          0       0       0       0       0       0       0       0       0       0       0       0       
      +0       0       0       0
  4712 ;;      Totals:         0       0       0       0       0       0       0       0       0       0       0       0       
      +0       0       0       0
  4713 ;;Total ram usage:        0 bytes
  4714 ;; Hardware stack levels used: 1
  4715 ;; Hardware stack levels required when called: 1
  4716 ;; This function calls:
  4717 ;;		_I2C1_MasterEnableRestart
  4718 ;; This function is called by:
  4719 ;;		_I2C1_DO_TX
  4720 ;;		_I2C1_MasterFsm
  4721 ;; This function uses a non-reentrant model
  4722 ;;
  4723                           
  4724                           	psect	text48
  4725  001F7E                     __ptext48:
  4726                           	callstack 0
  4727  001F7E                     _I2C1_DO_SEND_RESTART_WRITE:
  4728                           	callstack 19
  4729  001F7E                     
  4730                           ;mcc_generated_files/i2c1_master.c: 459:     I2C1_MasterEnableRestart();
  4731  001F7E  ECF4  F00F         	call	_I2C1_MasterEnableRestart	;wreg free
  4732  001F82                     
  4733                           ;mcc_generated_files/i2c1_master.c: 460:     return I2C1_SEND_ADR_WRITE;
  4734  001F82  0E02               	movlw	2
  4735  001F84  0012               	return		;funcret
  4736  001F86                     __end_of_I2C1_DO_SEND_RESTART_WRITE:
  4737                           	callstack 0
  4738                           
  4739 ;; *************** function _I2C1_DO_SEND_RESTART_READ *****************
  4740 ;; Defined at:
  4741 ;;		line 451 in file "mcc_generated_files/i2c1_master.c"
  4742 ;; Parameters:    Size  Location     Type
  4743 ;;		None
  4744 ;; Auto vars:     Size  Location     Type
  4745 ;;		None
  4746 ;; Return value:  Size  Location     Type
  4747 ;;                  1    wreg      enum E6655
  4748 ;; Registers used:
  4749 ;;		wreg, cstack
  4750 ;; Tracked objects:
  4751 ;;		On entry : 0/0
  4752 ;;		On exit  : 0/0
  4753 ;;		Unchanged: 0/0
  4754 ;; Data sizes:     COMRAM   BANK0   BANK1   BANK2   BANK3   BANK4   BANK5   BANK6   BANK7   BANK8   BANK9  BANK10  BANK1
      +1  BANK12  BANK13  BANK14
  4755 ;;      Params:         0       0       0       0       0       0       0       0       0       0       0       0       
      +0       0       0       0
  4756 ;;      Locals:         0       0       0       0       0       0       0       0       0       0       0       0       
      +0       0       0       0
  4757 ;;      Temps:          0       0       0       0       0       0       0       0       0       0       0       0       
      +0       0       0       0
  4758 ;;      Totals:         0       0       0       0       0       0       0       0       0       0       0       0       
      +0       0       0       0
  4759 ;;Total ram usage:        0 bytes
  4760 ;; Hardware stack levels used: 1
  4761 ;; Hardware stack levels required when called: 1
  4762 ;; This function calls:
  4763 ;;		_I2C1_MasterEnableRestart
  4764 ;; This function is called by:
  4765 ;;		_I2C1_DO_TX
  4766 ;;		_I2C1_MasterFsm
  4767 ;; This function uses a non-reentrant model
  4768 ;;
  4769                           
  4770                           	psect	text49
  4771  001F86                     __ptext49:
  4772                           	callstack 0
  4773  001F86                     _I2C1_DO_SEND_RESTART_READ:
  4774                           	callstack 19
  4775  001F86                     
  4776                           ;mcc_generated_files/i2c1_master.c: 453:     I2C1_MasterEnableRestart();
  4777  001F86  ECF4  F00F         	call	_I2C1_MasterEnableRestart	;wreg free
  4778  001F8A                     
  4779                           ;mcc_generated_files/i2c1_master.c: 454:     return I2C1_SEND_ADR_READ;
  4780  001F8A  0E01               	movlw	1
  4781  001F8C  0012               	return		;funcret
  4782  001F8E                     __end_of_I2C1_DO_SEND_RESTART_READ:
  4783                           	callstack 0
  4784                           
  4785 ;; *************** function _I2C1_DO_RCEN *****************
  4786 ;; Defined at:
  4787 ;;		line 404 in file "mcc_generated_files/i2c1_master.c"
  4788 ;; Parameters:    Size  Location     Type
  4789 ;;		None
  4790 ;; Auto vars:     Size  Location     Type
  4791 ;;		None
  4792 ;; Return value:  Size  Location     Type
  4793 ;;                  1    wreg      enum E6655
  4794 ;; Registers used:
  4795 ;;		wreg, cstack
  4796 ;; Tracked objects:
  4797 ;;		On entry : 0/0
  4798 ;;		On exit  : 0/0
  4799 ;;		Unchanged: 0/0
  4800 ;; Data sizes:     COMRAM   BANK0   BANK1   BANK2   BANK3   BANK4   BANK5   BANK6   BANK7   BANK8   BANK9  BANK10  BANK1
      +1  BANK12  BANK13  BANK14
  4801 ;;      Params:         0       0       0       0       0       0       0       0       0       0       0       0       
      +0       0       0       0
  4802 ;;      Locals:         0       0       0       0       0       0       0       0       0       0       0       0       
      +0       0       0       0
  4803 ;;      Temps:          0       0       0       0       0       0       0       0       0       0       0       0       
      +0       0       0       0
  4804 ;;      Totals:         0       0       0       0       0       0       0       0       0       0       0       0       
      +0       0       0       0
  4805 ;;Total ram usage:        0 bytes
  4806 ;; Hardware stack levels used: 1
  4807 ;; Hardware stack levels required when called: 1
  4808 ;; This function calls:
  4809 ;;		_I2C1_MasterStartRx
  4810 ;; This function is called by:
  4811 ;;		_I2C1_MasterFsm
  4812 ;; This function uses a non-reentrant model
  4813 ;;
  4814                           
  4815                           	psect	text50
  4816  001EF0                     __ptext50:
  4817                           	callstack 0
  4818  001EF0                     _I2C1_DO_RCEN:
  4819                           	callstack 20
  4820  001EF0                     
  4821                           ;mcc_generated_files/i2c1_master.c: 406:     I2C1_Status.addressNackCheck = 0;
  4822  001EF0  0100               	movlb	0	; () banked
  4823  001EF2  9183               	bcf	(_I2C1_Status+35)& (0+255),0,b
  4824  001EF4                     
  4825                           ; BSR set to: 0
  4826                           ;mcc_generated_files/i2c1_master.c: 407:     I2C1_MasterStartRx();
  4827  001EF4  ECEC  F00F         	call	_I2C1_MasterStartRx	;wreg free
  4828  001EF8                     
  4829                           ;mcc_generated_files/i2c1_master.c: 408:     return I2C1_RX;
  4830  001EF8  0E04               	movlw	4
  4831  001EFA  0012               	return		;funcret
  4832  001EFC                     __end_of_I2C1_DO_RCEN:
  4833                           	callstack 0
  4834                           
  4835 ;; *************** function _I2C1_DO_RX *****************
  4836 ;; Defined at:
  4837 ;;		line 380 in file "mcc_generated_files/i2c1_master.c"
  4838 ;; Parameters:    Size  Location     Type
  4839 ;;		None
  4840 ;; Auto vars:     Size  Location     Type
  4841 ;;		None
  4842 ;; Return value:  Size  Location     Type
  4843 ;;                  1    wreg      enum E6655
  4844 ;; Registers used:
  4845 ;;		wreg, fsr2l, fsr2h, status,2, status,0, pcl, pclath, pclatu, tosl, prodl, prodh, cstack
  4846 ;; Tracked objects:
  4847 ;;		On entry : 0/0
  4848 ;;		On exit  : 0/0
  4849 ;;		Unchanged: 0/0
  4850 ;; Data sizes:     COMRAM   BANK0   BANK1   BANK2   BANK3   BANK4   BANK5   BANK6   BANK7   BANK8   BANK9  BANK10  BANK1
      +1  BANK12  BANK13  BANK14
  4851 ;;      Params:         0       0       0       0       0       0       0       0       0       0       0       0       
      +0       0       0       0
  4852 ;;      Locals:         0       0       0       0       0       0       0       0       0       0       0       0       
      +0       0       0       0
  4853 ;;      Temps:          2       0       0       0       0       0       0       0       0       0       0       0       
      +0       0       0       0
  4854 ;;      Totals:         2       0       0       0       0       0       0       0       0       0       0       0       
      +0       0       0       0
  4855 ;;Total ram usage:        2 bytes
  4856 ;; Hardware stack levels used: 1
  4857 ;; Hardware stack levels required when called: 3
  4858 ;; This function calls:
  4859 ;;		Absolute function
  4860 ;;		_I2C1_CallbackReturnReset
  4861 ;;		_I2C1_CallbackReturnStop
  4862 ;;		_I2C1_DO_RX_NACK_RESTART
  4863 ;;		_I2C1_DO_RX_NACK_STOP
  4864 ;;		_I2C1_MasterGetRxData
  4865 ;;		_I2C1_MasterSendAck
  4866 ;;		_rd1RegCompleteHandler
  4867 ;;		_rd2RegCompleteHandler
  4868 ;;		_rdBlkRegCompleteHandler
  4869 ;;		_wr1RegCompleteHandler
  4870 ;;		_wr2RegCompleteHandler
  4871 ;; This function is called by:
  4872 ;;		_I2C1_MasterFsm
  4873 ;; This function uses a non-reentrant model
  4874 ;;
  4875                           
  4876                           	psect	text51
  4877  001556                     __ptext51:
  4878                           	callstack 0
  4879  001556                     _I2C1_DO_RX:
  4880                           	callstack 18
  4881  001556                     
  4882                           ;mcc_generated_files/i2c1_master.c: 382:     *I2C1_Status.data_ptr++ = I2C1_MasterGetRxD
      +                          ata();
  4883  001556  ECEA  F00F         	call	_I2C1_MasterGetRxData	;wreg free
  4884  00155A  C07D  FFD9         	movff	_I2C1_Status+29,fsr2l
  4885  00155E  C07E  FFDA         	movff	_I2C1_Status+30,fsr2h
  4886  001562  6EDF               	movwf	indf2,c
  4887  001564  0100               	movlb	0	; () banked
  4888  001566  4B7D               	infsnz	(_I2C1_Status+29)& (0+255),f,b
  4889  001568  2B7E               	incf	(_I2C1_Status+30)& (0+255),f,b
  4890  00156A                     
  4891                           ; BSR set to: 0
  4892                           ;mcc_generated_files/i2c1_master.c: 383:     if(--I2C1_Status.data_length)
  4893  00156A  077F               	decf	(_I2C1_Status+31)& (0+255),f,b
  4894  00156C  A0D8               	btfss	status,0,c
  4895  00156E  0780               	decf	(_I2C1_Status+32)& (0+255),f,b
  4896  001570  517F               	movf	(_I2C1_Status+31)& (0+255),w,b
  4897  001572  1180               	iorwf	(_I2C1_Status+32)& (0+255),w,b
  4898  001574  B4D8               	btfsc	status,2,c
  4899  001576  EFBF  F00A         	goto	i2u102_41
  4900  00157A  EFC1  F00A         	goto	i2u102_40
  4901  00157E                     i2u102_41:
  4902  00157E  EFC6  F00A         	goto	i2l480
  4903  001582                     i2u102_40:
  4904  001582                     
  4905                           ; BSR set to: 0
  4906                           ;mcc_generated_files/i2c1_master.c: 384:     {;mcc_generated_files/i2c1_master.c: 385:  
      +                                 I2C1_MasterSendAck();
  4907  001582  ECCE  F00F         	call	_I2C1_MasterSendAck	;wreg free
  4908  001586                     
  4909                           ;mcc_generated_files/i2c1_master.c: 386:         return I2C1_RCEN;
  4910  001586  0E05               	movlw	5
  4911  001588  EFFE  F00A         	goto	i2l481
  4912  00158C                     i2l480:
  4913                           
  4914                           ; BSR set to: 0
  4915                           ;mcc_generated_files/i2c1_master.c: 389:     {;mcc_generated_files/i2c1_master.c: 390:  
      +                                 I2C1_Status.bufferFree = 1;
  4916  00158C  8783               	bsf	(_I2C1_Status+35)& (0+255),3,b
  4917                           
  4918                           ;mcc_generated_files/i2c1_master.c: 391:         switch(I2C1_Status.callbackTable[I2C1_D
      +                          ATA_COMPLETE](I2C1_Status.callbackPayload[I2C1_DATA_COMPLETE]))
  4919  00158E  EFD1  F00A         	goto	i2l3074
  4920  001592                     i2l3064:
  4921                           
  4922                           ;mcc_generated_files/i2c1_master.c: 395:                 return I2C1_DO_RX_NACK_RESTART(
      +                          );
  4923  001592  ECAB  F00F         	call	_I2C1_DO_RX_NACK_RESTART	;wreg free
  4924  001596  EFFE  F00A         	goto	i2l481
  4925  00159A                     i2l3068:
  4926                           
  4927                           ;mcc_generated_files/i2c1_master.c: 399:                 return I2C1_DO_RX_NACK_STOP();
  4928  00159A  ECAF  F00F         	call	_I2C1_DO_RX_NACK_STOP	;wreg free
  4929  00159E  EFFE  F00A         	goto	i2l481
  4930  0015A2                     i2l3074:
  4931                           
  4932                           ; BSR set to: 0
  4933  0015A2  C06C  F00A         	movff	_I2C1_Status+12,I2C1_CallbackReturnReset@funPtr
  4934  0015A6  C06D  F00B         	movff	_I2C1_Status+13,I2C1_CallbackReturnReset@funPtr+1
  4935  0015AA  D802               	call	i2u103_48
  4936  0015AC  EFE2  F00A         	goto	i2u103_49
  4937  0015B0                     i2u103_48:
  4938  0015B0  0005               	push	
  4939  0015B2  6EFA               	movwf	pclath,c
  4940  0015B4  5160               	movf	_I2C1_Status& (0+255),w,b
  4941  0015B6  6EFD               	movwf	tosl,c
  4942  0015B8  5161               	movf	(_I2C1_Status+1)& (0+255),w,b
  4943  0015BA  6EFE               	movwf	tosh,c
  4944  0015BC  50F8               	movf	tblptru,w,c
  4945  0015BE  6EFF               	movwf	tosu,c
  4946  0015C0  50FA               	movf	pclath,w,c
  4947  0015C2  0012               	return		;indir
  4948  0015C4                     i2u103_49:
  4949  0015C4  6E0C               	movwf	??_I2C1_DO_RX^0,c
  4950  0015C6  6A0D               	clrf	(??_I2C1_DO_RX+1)^0,c
  4951                           
  4952                           ; Switch on 2 bytes has been partitioned into a top level switch of size 1, and 1 sub-sw
      +                          itches
  4953                           ; Switch size 1, requested type "simple"
  4954                           ; Number of cases is 1, Range of values is 0 to 0
  4955                           ; switch strategies available:
  4956                           ; Name         Instructions Cycles
  4957                           ; simple_byte            4     3 (average)
  4958                           ;	Chosen strategy is simple_byte
  4959  0015C8  500D               	movf	(??_I2C1_DO_RX+1)^0,w,c
  4960  0015CA  0A00               	xorlw	0	; case 0
  4961  0015CC  B4D8               	btfsc	status,2,c
  4962  0015CE  EFEB  F00A         	goto	i2l4426
  4963  0015D2  EFCD  F00A         	goto	i2l3068
  4964  0015D6                     i2l4426:
  4965                           
  4966                           ; Switch size 1, requested type "simple"
  4967                           ; Number of cases is 4, Range of values is 1 to 4
  4968                           ; switch strategies available:
  4969                           ; Name         Instructions Cycles
  4970                           ; simple_byte           13     7 (average)
  4971                           ;	Chosen strategy is simple_byte
  4972  0015D6  500C               	movf	??_I2C1_DO_RX^0,w,c
  4973  0015D8  0A01               	xorlw	1	; case 1
  4974  0015DA  B4D8               	btfsc	status,2,c
  4975  0015DC  EFCD  F00A         	goto	i2l3068
  4976  0015E0  0A03               	xorlw	3	; case 2
  4977  0015E2  B4D8               	btfsc	status,2,c
  4978  0015E4  EFC9  F00A         	goto	i2l3064
  4979  0015E8  0A01               	xorlw	1	; case 3
  4980  0015EA  B4D8               	btfsc	status,2,c
  4981  0015EC  EFC9  F00A         	goto	i2l3064
  4982  0015F0  0A07               	xorlw	7	; case 4
  4983  0015F2  B4D8               	btfsc	status,2,c
  4984  0015F4  EFCD  F00A         	goto	i2l3068
  4985  0015F8  EFCD  F00A         	goto	i2l3068
  4986  0015FC                     i2l481:
  4987  0015FC  0012               	return		;funcret
  4988  0015FE                     __end_of_I2C1_DO_RX:
  4989                           	callstack 0
  4990                           
  4991 ;; *************** function _I2C1_DO_TX *****************
  4992 ;; Defined at:
  4993 ;;		line 356 in file "mcc_generated_files/i2c1_master.c"
  4994 ;; Parameters:    Size  Location     Type
  4995 ;;		None
  4996 ;; Auto vars:     Size  Location     Type
  4997 ;;		None
  4998 ;; Return value:  Size  Location     Type
  4999 ;;                  1    wreg      enum E6655
  5000 ;; Registers used:
  5001 ;;		wreg, fsr2l, fsr2h, status,2, status,0, pcl, pclath, pclatu, tosl, prodl, prodh, cstack
  5002 ;; Tracked objects:
  5003 ;;		On entry : 0/0
  5004 ;;		On exit  : 0/0
  5005 ;;		Unchanged: 0/0
  5006 ;; Data sizes:     COMRAM   BANK0   BANK1   BANK2   BANK3   BANK4   BANK5   BANK6   BANK7   BANK8   BANK9  BANK10  BANK1
      +1  BANK12  BANK13  BANK14
  5007 ;;      Params:         0       0       0       0       0       0       0       0       0       0       0       0       
      +0       0       0       0
  5008 ;;      Locals:         0       0       0       0       0       0       0       0       0       0       0       0       
      +0       0       0       0
  5009 ;;      Temps:          2       0       0       0       0       0       0       0       0       0       0       0       
      +0       0       0       0
  5010 ;;      Totals:         2       0       0       0       0       0       0       0       0       0       0       0       
      +0       0       0       0
  5011 ;;Total ram usage:        2 bytes
  5012 ;; Hardware stack levels used: 1
  5013 ;; Hardware stack levels required when called: 3
  5014 ;; This function calls:
  5015 ;;		Absolute function
  5016 ;;		_I2C1_CallbackReturnReset
  5017 ;;		_I2C1_CallbackReturnStop
  5018 ;;		_I2C1_DO_SEND_RESTART_READ
  5019 ;;		_I2C1_DO_SEND_RESTART_WRITE
  5020 ;;		_I2C1_DO_SEND_STOP
  5021 ;;		_I2C1_MasterIsNack
  5022 ;;		_I2C1_MasterSendTxData
  5023 ;;		_rd1RegCompleteHandler
  5024 ;;		_rd2RegCompleteHandler
  5025 ;;		_rdBlkRegCompleteHandler
  5026 ;;		_wr1RegCompleteHandler
  5027 ;;		_wr2RegCompleteHandler
  5028 ;; This function is called by:
  5029 ;;		_I2C1_MasterFsm
  5030 ;; This function uses a non-reentrant model
  5031 ;;
  5032                           
  5033                           	psect	text52
  5034  0013CC                     __ptext52:
  5035                           	callstack 0
  5036  0013CC                     _I2C1_DO_TX:
  5037                           	callstack 18
  5038  0013CC                     
  5039                           ;mcc_generated_files/i2c1_master.c: 358:     if(I2C1_MasterIsNack())
  5040  0013CC  EC50  F00F         	call	_I2C1_MasterIsNack	;wreg free
  5041  0013D0  0900               	iorlw	0
  5042  0013D2  B4D8               	btfsc	status,2,c
  5043  0013D4  EFEE  F009         	goto	i2u99_41
  5044  0013D8  EFF0  F009         	goto	i2u99_40
  5045  0013DC                     i2u99_41:
  5046  0013DC  EF2D  F00A         	goto	i2l464
  5047  0013E0                     i2u99_40:
  5048  0013E0  EFFE  F009         	goto	i2l3034
  5049  0013E4                     i2l3020:
  5050                           
  5051                           ;mcc_generated_files/i2c1_master.c: 363:                 return I2C1_DO_SEND_RESTART_REA
      +                          D();
  5052  0013E4  ECC3  F00F         	call	_I2C1_DO_SEND_RESTART_READ	;wreg free
  5053  0013E8  EF49  F00A         	goto	i2l467
  5054  0013EC                     i2l3024:
  5055                           
  5056                           ;mcc_generated_files/i2c1_master.c: 365:                   return I2C1_DO_SEND_RESTART_W
      +                          RITE();
  5057  0013EC  ECBF  F00F         	call	_I2C1_DO_SEND_RESTART_WRITE	;wreg free
  5058  0013F0  EF49  F00A         	goto	i2l467
  5059  0013F4                     i2l3028:
  5060                           
  5061                           ;mcc_generated_files/i2c1_master.c: 369:                 return I2C1_DO_SEND_STOP();
  5062  0013F4  ECB7  F00F         	call	_I2C1_DO_SEND_STOP	;wreg free
  5063  0013F8  EF49  F00A         	goto	i2l467
  5064  0013FC                     i2l3034:
  5065  0013FC  C072  F00A         	movff	_I2C1_Status+18,I2C1_CallbackReturnReset@funPtr
  5066  001400  C073  F00B         	movff	_I2C1_Status+19,I2C1_CallbackReturnReset@funPtr+1
  5067  001404  EE20  F066         	lfsr	2,_I2C1_Status+6
  5068  001408  D802               	call	i2u100_48
  5069  00140A  EF11  F00A         	goto	i2u100_49
  5070  00140E                     i2u100_48:
  5071  00140E  0005               	push	
  5072  001410  6EFA               	movwf	pclath,c
  5073  001412  50DE               	movf	postinc2,w,c
  5074  001414  6EFD               	movwf	tosl,c
  5075  001416  50DE               	movf	postinc2,w,c
  5076  001418  6EFE               	movwf	tosh,c
  5077  00141A  50F8               	movf	tblptru,w,c
  5078  00141C  6EFF               	movwf	tosu,c
  5079  00141E  50FA               	movf	pclath,w,c
  5080  001420  0012               	return		;indir
  5081  001422                     i2u100_49:
  5082  001422  6E0C               	movwf	??_I2C1_DO_TX^0,c
  5083  001424  6A0D               	clrf	(??_I2C1_DO_TX+1)^0,c
  5084                           
  5085                           ; Switch on 2 bytes has been partitioned into a top level switch of size 1, and 1 sub-sw
      +                          itches
  5086                           ; Switch size 1, requested type "simple"
  5087                           ; Number of cases is 1, Range of values is 0 to 0
  5088                           ; switch strategies available:
  5089                           ; Name         Instructions Cycles
  5090                           ; simple_byte            4     3 (average)
  5091                           ;	Chosen strategy is simple_byte
  5092  001426  500D               	movf	(??_I2C1_DO_TX+1)^0,w,c
  5093  001428  0A00               	xorlw	0	; case 0
  5094  00142A  B4D8               	btfsc	status,2,c
  5095  00142C  EF1A  F00A         	goto	i2l4428
  5096  001430  EFFA  F009         	goto	i2l3028
  5097  001434                     i2l4428:
  5098                           
  5099                           ; Switch size 1, requested type "simple"
  5100                           ; Number of cases is 4, Range of values is 1 to 4
  5101                           ; switch strategies available:
  5102                           ; Name         Instructions Cycles
  5103                           ; simple_byte           13     7 (average)
  5104                           ;	Chosen strategy is simple_byte
  5105  001434  500C               	movf	??_I2C1_DO_TX^0,w,c
  5106  001436  0A01               	xorlw	1	; case 1
  5107  001438  B4D8               	btfsc	status,2,c
  5108  00143A  EFFA  F009         	goto	i2l3028
  5109  00143E  0A03               	xorlw	3	; case 2
  5110  001440  B4D8               	btfsc	status,2,c
  5111  001442  EFF2  F009         	goto	i2l3020
  5112  001446  0A01               	xorlw	1	; case 3
  5113  001448  B4D8               	btfsc	status,2,c
  5114  00144A  EFF6  F009         	goto	i2l3024
  5115  00144E  0A07               	xorlw	7	; case 4
  5116  001450  B4D8               	btfsc	status,2,c
  5117  001452  EFFA  F009         	goto	i2l3028
  5118  001456  EFFA  F009         	goto	i2l3028
  5119  00145A                     i2l464:
  5120                           
  5121                           ;mcc_generated_files/i2c1_master.c: 373:     {;mcc_generated_files/i2c1_master.c: 374:  
      +                                 I2C1_Status.addressNackCheck = 0;
  5122  00145A  0100               	movlb	0	; () banked
  5123  00145C  9183               	bcf	(_I2C1_Status+35)& (0+255),0,b
  5124  00145E                     
  5125                           ; BSR set to: 0
  5126                           ;mcc_generated_files/i2c1_master.c: 375:         I2C1_MasterSendTxData(*I2C1_Status.data
      +                          _ptr++);
  5127  00145E  C07D  FFD9         	movff	_I2C1_Status+29,fsr2l
  5128  001462  C07E  FFDA         	movff	_I2C1_Status+30,fsr2h
  5129  001466  4B7D               	infsnz	(_I2C1_Status+29)& (0+255),f,b
  5130  001468  2B7E               	incf	(_I2C1_Status+30)& (0+255),f,b
  5131  00146A  50DF               	movf	indf2,w,c
  5132  00146C  ECC7  F00F         	call	_I2C1_MasterSendTxData
  5133  001470                     
  5134                           ;mcc_generated_files/i2c1_master.c: 376:         return (--I2C1_Status.data_length)?I2C1
      +                          _TX:I2C1_TX_EMPTY;
  5135  001470  0100               	movlb	0	; () banked
  5136  001472  077F               	decf	(_I2C1_Status+31)& (0+255),f,b
  5137  001474  A0D8               	btfss	status,0,c
  5138  001476  0780               	decf	(_I2C1_Status+32)& (0+255),f,b
  5139  001478  517F               	movf	(_I2C1_Status+31)& (0+255),w,b
  5140  00147A  1180               	iorwf	(_I2C1_Status+32)& (0+255),w,b
  5141  00147C  A4D8               	btfss	status,2,c
  5142  00147E  EF43  F00A         	goto	i2u101_41
  5143  001482  EF45  F00A         	goto	i2u101_40
  5144  001486                     i2u101_41:
  5145  001486  EF48  F00A         	goto	i2l3042
  5146  00148A                     i2u101_40:
  5147  00148A                     
  5148                           ; BSR set to: 0
  5149  00148A  0E06               	movlw	6
  5150  00148C  EF49  F00A         	goto	i2l467
  5151  001490                     i2l3042:
  5152                           
  5153                           ; BSR set to: 0
  5154  001490  0E03               	movlw	3
  5155  001492                     i2l467:
  5156  001492  0012               	return		;funcret
  5157  001494                     __end_of_I2C1_DO_TX:
  5158                           	callstack 0
  5159                           
  5160 ;; *************** function _I2C1_DO_SEND_ADR_WRITE *****************
  5161 ;; Defined at:
  5162 ;;		line 349 in file "mcc_generated_files/i2c1_master.c"
  5163 ;; Parameters:    Size  Location     Type
  5164 ;;		None
  5165 ;; Auto vars:     Size  Location     Type
  5166 ;;		None
  5167 ;; Return value:  Size  Location     Type
  5168 ;;                  1    wreg      enum E6655
  5169 ;; Registers used:
  5170 ;;		wreg, status,2, status,0, cstack
  5171 ;; Tracked objects:
  5172 ;;		On entry : 0/0
  5173 ;;		On exit  : 0/0
  5174 ;;		Unchanged: 0/0
  5175 ;; Data sizes:     COMRAM   BANK0   BANK1   BANK2   BANK3   BANK4   BANK5   BANK6   BANK7   BANK8   BANK9  BANK10  BANK1
      +1  BANK12  BANK13  BANK14
  5176 ;;      Params:         0       0       0       0       0       0       0       0       0       0       0       0       
      +0       0       0       0
  5177 ;;      Locals:         0       0       0       0       0       0       0       0       0       0       0       0       
      +0       0       0       0
  5178 ;;      Temps:          0       0       0       0       0       0       0       0       0       0       0       0       
      +0       0       0       0
  5179 ;;      Totals:         0       0       0       0       0       0       0       0       0       0       0       0       
      +0       0       0       0
  5180 ;;Total ram usage:        0 bytes
  5181 ;; Hardware stack levels used: 1
  5182 ;; Hardware stack levels required when called: 1
  5183 ;; This function calls:
  5184 ;;		_I2C1_MasterSendTxData
  5185 ;; This function is called by:
  5186 ;;		_I2C1_MasterFsm
  5187 ;; This function uses a non-reentrant model
  5188 ;;
  5189                           
  5190                           	psect	text53
  5191  001EC4                     __ptext53:
  5192                           	callstack 0
  5193  001EC4                     _I2C1_DO_SEND_ADR_WRITE:
  5194                           	callstack 20
  5195  001EC4                     
  5196                           ;mcc_generated_files/i2c1_master.c: 351:     I2C1_Status.addressNackCheck = 1;
  5197  001EC4  0100               	movlb	0	; () banked
  5198  001EC6  8183               	bsf	(_I2C1_Status+35)& (0+255),0,b
  5199  001EC8                     
  5200                           ; BSR set to: 0
  5201                           ;mcc_generated_files/i2c1_master.c: 352:     I2C1_MasterSendTxData((uint8_t) (I2C1_Statu
      +                          s.address << 1));
  5202  001EC8  517C               	movf	(_I2C1_Status+28)& (0+255),w,b
  5203  001ECA  257C               	addwf	(_I2C1_Status+28)& (0+255),w,b
  5204  001ECC  ECC7  F00F         	call	_I2C1_MasterSendTxData
  5205  001ED0                     
  5206                           ;mcc_generated_files/i2c1_master.c: 353:     return I2C1_TX;
  5207  001ED0  0E03               	movlw	3
  5208  001ED2  0012               	return		;funcret
  5209  001ED4                     __end_of_I2C1_DO_SEND_ADR_WRITE:
  5210                           	callstack 0
  5211                           
  5212 ;; *************** function _I2C1_DO_SEND_ADR_READ *****************
  5213 ;; Defined at:
  5214 ;;		line 342 in file "mcc_generated_files/i2c1_master.c"
  5215 ;; Parameters:    Size  Location     Type
  5216 ;;		None
  5217 ;; Auto vars:     Size  Location     Type
  5218 ;;		None
  5219 ;; Return value:  Size  Location     Type
  5220 ;;                  1    wreg      enum E6655
  5221 ;; Registers used:
  5222 ;;		wreg, status,0, cstack
  5223 ;; Tracked objects:
  5224 ;;		On entry : 0/0
  5225 ;;		On exit  : 0/0
  5226 ;;		Unchanged: 0/0
  5227 ;; Data sizes:     COMRAM   BANK0   BANK1   BANK2   BANK3   BANK4   BANK5   BANK6   BANK7   BANK8   BANK9  BANK10  BANK1
      +1  BANK12  BANK13  BANK14
  5228 ;;      Params:         0       0       0       0       0       0       0       0       0       0       0       0       
      +0       0       0       0
  5229 ;;      Locals:         0       0       0       0       0       0       0       0       0       0       0       0       
      +0       0       0       0
  5230 ;;      Temps:          0       0       0       0       0       0       0       0       0       0       0       0       
      +0       0       0       0
  5231 ;;      Totals:         0       0       0       0       0       0       0       0       0       0       0       0       
      +0       0       0       0
  5232 ;;Total ram usage:        0 bytes
  5233 ;; Hardware stack levels used: 1
  5234 ;; Hardware stack levels required when called: 1
  5235 ;; This function calls:
  5236 ;;		_I2C1_MasterSendTxData
  5237 ;; This function is called by:
  5238 ;;		_I2C1_MasterFsm
  5239 ;; This function uses a non-reentrant model
  5240 ;;
  5241                           
  5242                           	psect	text54
  5243  001ED4                     __ptext54:
  5244                           	callstack 0
  5245  001ED4                     _I2C1_DO_SEND_ADR_READ:
  5246                           	callstack 20
  5247  001ED4                     
  5248                           ;mcc_generated_files/i2c1_master.c: 344:     I2C1_Status.addressNackCheck = 1;
  5249  001ED4  0100               	movlb	0	; () banked
  5250  001ED6  8183               	bsf	(_I2C1_Status+35)& (0+255),0,b
  5251  001ED8                     
  5252                           ; BSR set to: 0
  5253                           ;mcc_generated_files/i2c1_master.c: 345:     I2C1_MasterSendTxData((uint8_t) (I2C1_Statu
      +                          s.address << 1 | 1));
  5254  001ED8  80D8               	bsf	status,0,c
  5255  001EDA  357C               	rlcf	(_I2C1_Status+28)& (0+255),w,b
  5256  001EDC  ECC7  F00F         	call	_I2C1_MasterSendTxData
  5257  001EE0                     
  5258                           ;mcc_generated_files/i2c1_master.c: 346:     return I2C1_RCEN;
  5259  001EE0  0E05               	movlw	5
  5260  001EE2  0012               	return		;funcret
  5261  001EE4                     __end_of_I2C1_DO_SEND_ADR_READ:
  5262                           	callstack 0
  5263                           
  5264 ;; *************** function _I2C1_DO_IDLE *****************
  5265 ;; Defined at:
  5266 ;;		line 335 in file "mcc_generated_files/i2c1_master.c"
  5267 ;; Parameters:    Size  Location     Type
  5268 ;;		None
  5269 ;; Auto vars:     Size  Location     Type
  5270 ;;		None
  5271 ;; Return value:  Size  Location     Type
  5272 ;;                  1    wreg      enum E6655
  5273 ;; Registers used:
  5274 ;;		wreg, status,2
  5275 ;; Tracked objects:
  5276 ;;		On entry : 0/0
  5277 ;;		On exit  : 0/0
  5278 ;;		Unchanged: 0/0
  5279 ;; Data sizes:     COMRAM   BANK0   BANK1   BANK2   BANK3   BANK4   BANK5   BANK6   BANK7   BANK8   BANK9  BANK10  BANK1
      +1  BANK12  BANK13  BANK14
  5280 ;;      Params:         0       0       0       0       0       0       0       0       0       0       0       0       
      +0       0       0       0
  5281 ;;      Locals:         0       0       0       0       0       0       0       0       0       0       0       0       
      +0       0       0       0
  5282 ;;      Temps:          0       0       0       0       0       0       0       0       0       0       0       0       
      +0       0       0       0
  5283 ;;      Totals:         0       0       0       0       0       0       0       0       0       0       0       0       
      +0       0       0       0
  5284 ;;Total ram usage:        0 bytes
  5285 ;; Hardware stack levels used: 1
  5286 ;; This function calls:
  5287 ;;		Nothing
  5288 ;; This function is called by:
  5289 ;;		_I2C1_MasterFsm
  5290 ;; This function uses a non-reentrant model
  5291 ;;
  5292                           
  5293                           	psect	text55
  5294  001EFC                     __ptext55:
  5295                           	callstack 0
  5296  001EFC                     _I2C1_DO_IDLE:
  5297                           	callstack 21
  5298  001EFC                     
  5299                           ;mcc_generated_files/i2c1_master.c: 337:     I2C1_Status.busy = 0;
  5300  001EFC  0100               	movlb	0	; () banked
  5301  001EFE  9383               	bcf	(_I2C1_Status+35)& (0+255),1,b
  5302  001F00                     
  5303                           ; BSR set to: 0
  5304                           ;mcc_generated_files/i2c1_master.c: 338:     I2C1_Status.error = I2C1_NOERR;
  5305  001F00  0E00               	movlw	0
  5306  001F02  6F82               	movwf	(_I2C1_Status+34)& (0+255),b
  5307  001F04                     
  5308                           ; BSR set to: 0
  5309                           ;mcc_generated_files/i2c1_master.c: 339:     return I2C1_RESET;
  5310  001F04  0E0E               	movlw	14
  5311  001F06                     
  5312                           ; BSR set to: 0
  5313  001F06  0012               	return		;funcret
  5314  001F08                     __end_of_I2C1_DO_IDLE:
  5315                           	callstack 0
  5316                           
  5317 ;; *************** function _I2C1_DO_TX_EMPTY *****************
  5318 ;; Defined at:
  5319 ;;		line 411 in file "mcc_generated_files/i2c1_master.c"
  5320 ;; Parameters:    Size  Location     Type
  5321 ;;		None
  5322 ;; Auto vars:     Size  Location     Type
  5323 ;;		None
  5324 ;; Return value:  Size  Location     Type
  5325 ;;                  1    wreg      enum E6655
  5326 ;; Registers used:
  5327 ;;		wreg, fsr2l, fsr2h, status,2, status,0, pcl, pclath, pclatu, tosl, prodl, prodh, cstack
  5328 ;; Tracked objects:
  5329 ;;		On entry : 0/0
  5330 ;;		On exit  : 0/0
  5331 ;;		Unchanged: 0/0
  5332 ;; Data sizes:     COMRAM   BANK0   BANK1   BANK2   BANK3   BANK4   BANK5   BANK6   BANK7   BANK8   BANK9  BANK10  BANK1
      +1  BANK12  BANK13  BANK14
  5333 ;;      Params:         0       0       0       0       0       0       0       0       0       0       0       0       
      +0       0       0       0
  5334 ;;      Locals:         0       0       0       0       0       0       0       0       0       0       0       0       
      +0       0       0       0
  5335 ;;      Temps:          2       0       0       0       0       0       0       0       0       0       0       0       
      +0       0       0       0
  5336 ;;      Totals:         2       0       0       0       0       0       0       0       0       0       0       0       
      +0       0       0       0
  5337 ;;Total ram usage:        2 bytes
  5338 ;; Hardware stack levels used: 1
  5339 ;; Hardware stack levels required when called: 3
  5340 ;; This function calls:
  5341 ;;		Absolute function
  5342 ;;		_I2C1_CallbackReturnReset
  5343 ;;		_I2C1_CallbackReturnStop
  5344 ;;		_I2C1_DO_SEND_RESTART
  5345 ;;		_I2C1_DO_SEND_STOP
  5346 ;;		_I2C1_MasterSetIrq
  5347 ;;		_rd1RegCompleteHandler
  5348 ;;		_rd2RegCompleteHandler
  5349 ;;		_rdBlkRegCompleteHandler
  5350 ;;		_wr1RegCompleteHandler
  5351 ;;		_wr2RegCompleteHandler
  5352 ;; This function is called by:
  5353 ;;		_I2C1_MasterFsm
  5354 ;; This function uses a non-reentrant model
  5355 ;;
  5356                           
  5357                           	psect	text56
  5358  001732                     __ptext56:
  5359                           	callstack 0
  5360  001732                     _I2C1_DO_TX_EMPTY:
  5361                           	callstack 18
  5362  001732                     
  5363                           ;mcc_generated_files/i2c1_master.c: 413:     I2C1_Status.bufferFree = 1;
  5364  001732  0100               	movlb	0	; () banked
  5365  001734  8783               	bsf	(_I2C1_Status+35)& (0+255),3,b
  5366                           
  5367                           ;mcc_generated_files/i2c1_master.c: 414:     switch(I2C1_Status.callbackTable[I2C1_DATA_
      +                          COMPLETE](I2C1_Status.callbackPayload[I2C1_DATA_COMPLETE]))
  5368  001736  EFAA  F00B         	goto	i2l3106
  5369  00173A                     i2l3090:
  5370                           
  5371                           ;mcc_generated_files/i2c1_master.c: 418:             return I2C1_DO_SEND_RESTART();
  5372  00173A  ECBB  F00F         	call	_I2C1_DO_SEND_RESTART	;wreg free
  5373  00173E  EFD7  F00B         	goto	i2l498
  5374  001742                     i2l3094:
  5375                           
  5376                           ;mcc_generated_files/i2c1_master.c: 420:             I2C1_MasterSetIrq();
  5377  001742  ECE8  F00F         	call	_I2C1_MasterSetIrq	;wreg free
  5378  001746                     
  5379                           ;mcc_generated_files/i2c1_master.c: 421:             return I2C1_TX;
  5380  001746  0E03               	movlw	3
  5381  001748  EFD7  F00B         	goto	i2l498
  5382  00174C                     i2l3100:
  5383                           
  5384                           ;mcc_generated_files/i2c1_master.c: 424:             return I2C1_DO_SEND_STOP();
  5385  00174C  ECB7  F00F         	call	_I2C1_DO_SEND_STOP	;wreg free
  5386  001750  EFD7  F00B         	goto	i2l498
  5387  001754                     i2l3106:
  5388                           
  5389                           ; BSR set to: 0
  5390  001754  C06C  F00A         	movff	_I2C1_Status+12,I2C1_CallbackReturnReset@funPtr
  5391  001758  C06D  F00B         	movff	_I2C1_Status+13,I2C1_CallbackReturnReset@funPtr+1
  5392  00175C  D802               	call	i2u104_48
  5393  00175E  EFBB  F00B         	goto	i2u104_49
  5394  001762                     i2u104_48:
  5395  001762  0005               	push	
  5396  001764  6EFA               	movwf	pclath,c
  5397  001766  5160               	movf	_I2C1_Status& (0+255),w,b
  5398  001768  6EFD               	movwf	tosl,c
  5399  00176A  5161               	movf	(_I2C1_Status+1)& (0+255),w,b
  5400  00176C  6EFE               	movwf	tosh,c
  5401  00176E  50F8               	movf	tblptru,w,c
  5402  001770  6EFF               	movwf	tosu,c
  5403  001772  50FA               	movf	pclath,w,c
  5404  001774  0012               	return		;indir
  5405  001776                     i2u104_49:
  5406  001776  6E0C               	movwf	??_I2C1_DO_TX_EMPTY^0,c
  5407  001778  6A0D               	clrf	(??_I2C1_DO_TX_EMPTY+1)^0,c
  5408                           
  5409                           ; Switch on 2 bytes has been partitioned into a top level switch of size 1, and 1 sub-sw
      +                          itches
  5410                           ; Switch size 1, requested type "simple"
  5411                           ; Number of cases is 1, Range of values is 0 to 0
  5412                           ; switch strategies available:
  5413                           ; Name         Instructions Cycles
  5414                           ; simple_byte            4     3 (average)
  5415                           ;	Chosen strategy is simple_byte
  5416  00177A  500D               	movf	(??_I2C1_DO_TX_EMPTY+1)^0,w,c
  5417  00177C  0A00               	xorlw	0	; case 0
  5418  00177E  B4D8               	btfsc	status,2,c
  5419  001780  EFC4  F00B         	goto	i2l4430
  5420  001784  EFA6  F00B         	goto	i2l3100
  5421  001788                     i2l4430:
  5422                           
  5423                           ; Switch size 1, requested type "simple"
  5424                           ; Number of cases is 4, Range of values is 1 to 4
  5425                           ; switch strategies available:
  5426                           ; Name         Instructions Cycles
  5427                           ; simple_byte           13     7 (average)
  5428                           ;	Chosen strategy is simple_byte
  5429  001788  500C               	movf	??_I2C1_DO_TX_EMPTY^0,w,c
  5430  00178A  0A01               	xorlw	1	; case 1
  5431  00178C  B4D8               	btfsc	status,2,c
  5432  00178E  EFA6  F00B         	goto	i2l3100
  5433  001792  0A03               	xorlw	3	; case 2
  5434  001794  B4D8               	btfsc	status,2,c
  5435  001796  EF9D  F00B         	goto	i2l3090
  5436  00179A  0A01               	xorlw	1	; case 3
  5437  00179C  B4D8               	btfsc	status,2,c
  5438  00179E  EF9D  F00B         	goto	i2l3090
  5439  0017A2  0A07               	xorlw	7	; case 4
  5440  0017A4  B4D8               	btfsc	status,2,c
  5441  0017A6  EFA1  F00B         	goto	i2l3094
  5442  0017AA  EFA6  F00B         	goto	i2l3100
  5443  0017AE                     i2l498:
  5444  0017AE  0012               	return		;funcret
  5445  0017B0                     __end_of_I2C1_DO_TX_EMPTY:
  5446                           	callstack 0
  5447                           
  5448 ;; *************** function _I2C1_MasterSetIrq *****************
  5449 ;; Defined at:
  5450 ;;		line 647 in file "mcc_generated_files/i2c1_master.c"
  5451 ;; Parameters:    Size  Location     Type
  5452 ;;		None
  5453 ;; Auto vars:     Size  Location     Type
  5454 ;;		None
  5455 ;; Return value:  Size  Location     Type
  5456 ;;                  1    wreg      void 
  5457 ;; Registers used:
  5458 ;;		None
  5459 ;; Tracked objects:
  5460 ;;		On entry : 0/0
  5461 ;;		On exit  : 0/0
  5462 ;;		Unchanged: 0/0
  5463 ;; Data sizes:     COMRAM   BANK0   BANK1   BANK2   BANK3   BANK4   BANK5   BANK6   BANK7   BANK8   BANK9  BANK10  BANK1
      +1  BANK12  BANK13  BANK14
  5464 ;;      Params:         0       0       0       0       0       0       0       0       0       0       0       0       
      +0       0       0       0
  5465 ;;      Locals:         0       0       0       0       0       0       0       0       0       0       0       0       
      +0       0       0       0
  5466 ;;      Temps:          0       0       0       0       0       0       0       0       0       0       0       0       
      +0       0       0       0
  5467 ;;      Totals:         0       0       0       0       0       0       0       0       0       0       0       0       
      +0       0       0       0
  5468 ;;Total ram usage:        0 bytes
  5469 ;; Hardware stack levels used: 1
  5470 ;; This function calls:
  5471 ;;		Nothing
  5472 ;; This function is called by:
  5473 ;;		_I2C1_DO_TX_EMPTY
  5474 ;; This function uses a non-reentrant model
  5475 ;;
  5476                           
  5477                           	psect	text57
  5478  001FD0                     __ptext57:
  5479                           	callstack 0
  5480  001FD0                     _I2C1_MasterSetIrq:
  5481                           	callstack 20
  5482  001FD0                     
  5483                           ;mcc_generated_files/i2c1_master.c: 649:     PIR1bits.SSP1IF = 1;
  5484  001FD0  869E               	bsf	158,3,c	;volatile
  5485  001FD2  0012               	return		;funcret
  5486  001FD4                     __end_of_I2C1_MasterSetIrq:
  5487                           	callstack 0
  5488                           
  5489 ;; *************** function _I2C1_MasterIsNack *****************
  5490 ;; Defined at:
  5491 ;;		line 599 in file "mcc_generated_files/i2c1_master.c"
  5492 ;; Parameters:    Size  Location     Type
  5493 ;;		None
  5494 ;; Auto vars:     Size  Location     Type
  5495 ;;		None
  5496 ;; Return value:  Size  Location     Type
  5497 ;;                  1    wreg      _Bool 
  5498 ;; Registers used:
  5499 ;;		wreg
  5500 ;; Tracked objects:
  5501 ;;		On entry : 0/0
  5502 ;;		On exit  : 0/0
  5503 ;;		Unchanged: 0/0
  5504 ;; Data sizes:     COMRAM   BANK0   BANK1   BANK2   BANK3   BANK4   BANK5   BANK6   BANK7   BANK8   BANK9  BANK10  BANK1
      +1  BANK12  BANK13  BANK14
  5505 ;;      Params:         0       0       0       0       0       0       0       0       0       0       0       0       
      +0       0       0       0
  5506 ;;      Locals:         0       0       0       0       0       0       0       0       0       0       0       0       
      +0       0       0       0
  5507 ;;      Temps:          0       0       0       0       0       0       0       0       0       0       0       0       
      +0       0       0       0
  5508 ;;      Totals:         0       0       0       0       0       0       0       0       0       0       0       0       
      +0       0       0       0
  5509 ;;Total ram usage:        0 bytes
  5510 ;; Hardware stack levels used: 1
  5511 ;; This function calls:
  5512 ;;		Nothing
  5513 ;; This function is called by:
  5514 ;;		_I2C1_MasterFsm
  5515 ;;		_I2C1_DO_TX
  5516 ;; This function uses a non-reentrant model
  5517 ;;
  5518                           
  5519                           	psect	text58
  5520  001EA0                     __ptext58:
  5521                           	callstack 0
  5522  001EA0                     _I2C1_MasterIsNack:
  5523                           	callstack 21
  5524  001EA0                     
  5525                           ;mcc_generated_files/i2c1_master.c: 601:     return SSP1CON2bits.ACKSTAT;
  5526  001EA0  BCC5               	btfsc	197,6,c	;volatile
  5527  001EA2  EF55  F00F         	goto	i2u89_41
  5528  001EA6  EF58  F00F         	goto	i2u89_40
  5529  001EAA                     i2u89_41:
  5530  001EAA  0E01               	movlw	1
  5531  001EAC  EF59  F00F         	goto	i2u89_46
  5532  001EB0                     i2u89_40:
  5533  001EB0  0E00               	movlw	0
  5534  001EB2                     i2u89_46:
  5535  001EB2  0012               	return		;funcret
  5536  001EB4                     __end_of_I2C1_MasterIsNack:
  5537                           	callstack 0
  5538                           
  5539 ;; *************** function _I2C1_MasterSendTxData *****************
  5540 ;; Defined at:
  5541 ;;		line 569 in file "mcc_generated_files/i2c1_master.c"
  5542 ;; Parameters:    Size  Location     Type
  5543 ;;  data            1    wreg     unsigned char 
  5544 ;; Auto vars:     Size  Location     Type
  5545 ;;  data            1    0[COMRAM] unsigned char 
  5546 ;; Return value:  Size  Location     Type
  5547 ;;                  1    wreg      void 
  5548 ;; Registers used:
  5549 ;;		wreg
  5550 ;; Tracked objects:
  5551 ;;		On entry : 0/0
  5552 ;;		On exit  : 0/0
  5553 ;;		Unchanged: 0/0
  5554 ;; Data sizes:     COMRAM   BANK0   BANK1   BANK2   BANK3   BANK4   BANK5   BANK6   BANK7   BANK8   BANK9  BANK10  BANK1
      +1  BANK12  BANK13  BANK14
  5555 ;;      Params:         0       0       0       0       0       0       0       0       0       0       0       0       
      +0       0       0       0
  5556 ;;      Locals:         1       0       0       0       0       0       0       0       0       0       0       0       
      +0       0       0       0
  5557 ;;      Temps:          0       0       0       0       0       0       0       0       0       0       0       0       
      +0       0       0       0
  5558 ;;      Totals:         1       0       0       0       0       0       0       0       0       0       0       0       
      +0       0       0       0
  5559 ;;Total ram usage:        1 bytes
  5560 ;; Hardware stack levels used: 1
  5561 ;; This function calls:
  5562 ;;		Nothing
  5563 ;; This function is called by:
  5564 ;;		_I2C1_DO_SEND_ADR_READ
  5565 ;;		_I2C1_DO_SEND_ADR_WRITE
  5566 ;;		_I2C1_DO_TX
  5567 ;; This function uses a non-reentrant model
  5568 ;;
  5569                           
  5570                           	psect	text59
  5571  001F8E                     __ptext59:
  5572                           	callstack 0
  5573  001F8E                     _I2C1_MasterSendTxData:
  5574                           	callstack 20
  5575                           
  5576                           ;incstack = 0
  5577                           ;I2C1_MasterSendTxData@data stored from wreg
  5578  001F8E  6E01               	movwf	I2C1_MasterSendTxData@data^0,c
  5579  001F90                     
  5580                           ;mcc_generated_files/i2c1_master.c: 569: static __attribute__((inline)) void I2C1_Master
      +                          SendTxData(uint8_t data);mcc_generated_files/i2c1_master.c: 570: {;mcc_generated_files/i
      +                          2c1_master.c: 571:     SSP1BUF = data;
  5581  001F90  C001  FFC9         	movff	I2C1_MasterSendTxData@data,4041	;volatile
  5582  001F94  0012               	return		;funcret
  5583  001F96                     __end_of_I2C1_MasterSendTxData:
  5584                           	callstack 0
  5585                           
  5586 ;; *************** function _I2C1_MasterSendAck *****************
  5587 ;; Defined at:
  5588 ;;		line 604 in file "mcc_generated_files/i2c1_master.c"
  5589 ;; Parameters:    Size  Location     Type
  5590 ;;		None
  5591 ;; Auto vars:     Size  Location     Type
  5592 ;;		None
  5593 ;; Return value:  Size  Location     Type
  5594 ;;                  1    wreg      void 
  5595 ;; Registers used:
  5596 ;;		None
  5597 ;; Tracked objects:
  5598 ;;		On entry : 0/0
  5599 ;;		On exit  : 0/0
  5600 ;;		Unchanged: 0/0
  5601 ;; Data sizes:     COMRAM   BANK0   BANK1   BANK2   BANK3   BANK4   BANK5   BANK6   BANK7   BANK8   BANK9  BANK10  BANK1
      +1  BANK12  BANK13  BANK14
  5602 ;;      Params:         0       0       0       0       0       0       0       0       0       0       0       0       
      +0       0       0       0
  5603 ;;      Locals:         0       0       0       0       0       0       0       0       0       0       0       0       
      +0       0       0       0
  5604 ;;      Temps:          0       0       0       0       0       0       0       0       0       0       0       0       
      +0       0       0       0
  5605 ;;      Totals:         0       0       0       0       0       0       0       0       0       0       0       0       
      +0       0       0       0
  5606 ;;Total ram usage:        0 bytes
  5607 ;; Hardware stack levels used: 1
  5608 ;; This function calls:
  5609 ;;		Nothing
  5610 ;; This function is called by:
  5611 ;;		_I2C1_DO_RX
  5612 ;;		_I2C1_DO_RX_ACK
  5613 ;; This function uses a non-reentrant model
  5614 ;;
  5615                           
  5616                           	psect	text60
  5617  001F9C                     __ptext60:
  5618                           	callstack 0
  5619  001F9C                     _I2C1_MasterSendAck:
  5620                           	callstack 20
  5621  001F9C                     
  5622                           ;mcc_generated_files/i2c1_master.c: 606:     SSP1CON2bits.ACKDT = 0;
  5623  001F9C  9AC5               	bcf	197,5,c	;volatile
  5624                           
  5625                           ;mcc_generated_files/i2c1_master.c: 607:     SSP1CON2bits.ACKEN = 1;
  5626  001F9E  88C5               	bsf	197,4,c	;volatile
  5627  001FA0  0012               	return		;funcret
  5628  001FA2                     __end_of_I2C1_MasterSendAck:
  5629                           	callstack 0
  5630                           
  5631 ;; *************** function _I2C1_MasterGetRxData *****************
  5632 ;; Defined at:
  5633 ;;		line 564 in file "mcc_generated_files/i2c1_master.c"
  5634 ;; Parameters:    Size  Location     Type
  5635 ;;		None
  5636 ;; Auto vars:     Size  Location     Type
  5637 ;;		None
  5638 ;; Return value:  Size  Location     Type
  5639 ;;                  1    wreg      unsigned char 
  5640 ;; Registers used:
  5641 ;;		wreg, status,2
  5642 ;; Tracked objects:
  5643 ;;		On entry : 0/0
  5644 ;;		On exit  : 0/0
  5645 ;;		Unchanged: 0/0
  5646 ;; Data sizes:     COMRAM   BANK0   BANK1   BANK2   BANK3   BANK4   BANK5   BANK6   BANK7   BANK8   BANK9  BANK10  BANK1
      +1  BANK12  BANK13  BANK14
  5647 ;;      Params:         0       0       0       0       0       0       0       0       0       0       0       0       
      +0       0       0       0
  5648 ;;      Locals:         0       0       0       0       0       0       0       0       0       0       0       0       
      +0       0       0       0
  5649 ;;      Temps:          0       0       0       0       0       0       0       0       0       0       0       0       
      +0       0       0       0
  5650 ;;      Totals:         0       0       0       0       0       0       0       0       0       0       0       0       
      +0       0       0       0
  5651 ;;Total ram usage:        0 bytes
  5652 ;; Hardware stack levels used: 1
  5653 ;; This function calls:
  5654 ;;		Nothing
  5655 ;; This function is called by:
  5656 ;;		_I2C1_DO_RX
  5657 ;; This function uses a non-reentrant model
  5658 ;;
  5659                           
  5660                           	psect	text61
  5661  001FD4                     __ptext61:
  5662                           	callstack 0
  5663  001FD4                     _I2C1_MasterGetRxData:
  5664                           	callstack 20
  5665  001FD4                     
  5666                           ;mcc_generated_files/i2c1_master.c: 566:     return SSP1BUF;
  5667  001FD4  50C9               	movf	201,w,c	;volatile
  5668  001FD6  0012               	return		;funcret
  5669  001FD8                     __end_of_I2C1_MasterGetRxData:
  5670                           	callstack 0
  5671                           
  5672 ;; *************** function _I2C1_MasterSendNack *****************
  5673 ;; Defined at:
  5674 ;;		line 610 in file "mcc_generated_files/i2c1_master.c"
  5675 ;; Parameters:    Size  Location     Type
  5676 ;;		None
  5677 ;; Auto vars:     Size  Location     Type
  5678 ;;		None
  5679 ;; Return value:  Size  Location     Type
  5680 ;;                  1    wreg      void 
  5681 ;; Registers used:
  5682 ;;		None
  5683 ;; Tracked objects:
  5684 ;;		On entry : 0/0
  5685 ;;		On exit  : 0/0
  5686 ;;		Unchanged: 0/0
  5687 ;; Data sizes:     COMRAM   BANK0   BANK1   BANK2   BANK3   BANK4   BANK5   BANK6   BANK7   BANK8   BANK9  BANK10  BANK1
      +1  BANK12  BANK13  BANK14
  5688 ;;      Params:         0       0       0       0       0       0       0       0       0       0       0       0       
      +0       0       0       0
  5689 ;;      Locals:         0       0       0       0       0       0       0       0       0       0       0       0       
      +0       0       0       0
  5690 ;;      Temps:          0       0       0       0       0       0       0       0       0       0       0       0       
      +0       0       0       0
  5691 ;;      Totals:         0       0       0       0       0       0       0       0       0       0       0       0       
      +0       0       0       0
  5692 ;;Total ram usage:        0 bytes
  5693 ;; Hardware stack levels used: 1
  5694 ;; This function calls:
  5695 ;;		Nothing
  5696 ;; This function is called by:
  5697 ;;		_I2C1_DO_RX_NACK_STOP
  5698 ;;		_I2C1_DO_RX_NACK_RESTART
  5699 ;; This function uses a non-reentrant model
  5700 ;;
  5701                           
  5702                           	psect	text62
  5703  001FA2                     __ptext62:
  5704                           	callstack 0
  5705  001FA2                     _I2C1_MasterSendNack:
  5706                           	callstack 20
  5707  001FA2                     
  5708                           ;mcc_generated_files/i2c1_master.c: 612:     SSP1CON2bits.ACKDT = 1;
  5709  001FA2  8AC5               	bsf	197,5,c	;volatile
  5710                           
  5711                           ;mcc_generated_files/i2c1_master.c: 613:     SSP1CON2bits.ACKEN = 1;
  5712  001FA4  88C5               	bsf	197,4,c	;volatile
  5713  001FA6  0012               	return		;funcret
  5714  001FA8                     __end_of_I2C1_MasterSendNack:
  5715                           	callstack 0
  5716                           
  5717 ;; *************** function _I2C1_MasterStartRx *****************
  5718 ;; Defined at:
  5719 ;;		line 584 in file "mcc_generated_files/i2c1_master.c"
  5720 ;; Parameters:    Size  Location     Type
  5721 ;;		None
  5722 ;; Auto vars:     Size  Location     Type
  5723 ;;		None
  5724 ;; Return value:  Size  Location     Type
  5725 ;;                  1    wreg      void 
  5726 ;; Registers used:
  5727 ;;		None
  5728 ;; Tracked objects:
  5729 ;;		On entry : 0/0
  5730 ;;		On exit  : 0/0
  5731 ;;		Unchanged: 0/0
  5732 ;; Data sizes:     COMRAM   BANK0   BANK1   BANK2   BANK3   BANK4   BANK5   BANK6   BANK7   BANK8   BANK9  BANK10  BANK1
      +1  BANK12  BANK13  BANK14
  5733 ;;      Params:         0       0       0       0       0       0       0       0       0       0       0       0       
      +0       0       0       0
  5734 ;;      Locals:         0       0       0       0       0       0       0       0       0       0       0       0       
      +0       0       0       0
  5735 ;;      Temps:          0       0       0       0       0       0       0       0       0       0       0       0       
      +0       0       0       0
  5736 ;;      Totals:         0       0       0       0       0       0       0       0       0       0       0       0       
      +0       0       0       0
  5737 ;;Total ram usage:        0 bytes
  5738 ;; Hardware stack levels used: 1
  5739 ;; This function calls:
  5740 ;;		Nothing
  5741 ;; This function is called by:
  5742 ;;		_I2C1_DO_RCEN
  5743 ;; This function uses a non-reentrant model
  5744 ;;
  5745                           
  5746                           	psect	text63
  5747  001FD8                     __ptext63:
  5748                           	callstack 0
  5749  001FD8                     _I2C1_MasterStartRx:
  5750                           	callstack 20
  5751  001FD8                     
  5752                           ;mcc_generated_files/i2c1_master.c: 586:     SSP1CON2bits.RCEN = 1;
  5753  001FD8  86C5               	bsf	197,3,c	;volatile
  5754  001FDA  0012               	return		;funcret
  5755  001FDC                     __end_of_I2C1_MasterStartRx:
  5756                           	callstack 0
  5757                           
  5758 ;; *************** function _I2C1_CallbackReturnReset *****************
  5759 ;; Defined at:
  5760 ;;		line 526 in file "mcc_generated_files/i2c1_master.c"
  5761 ;; Parameters:    Size  Location     Type
  5762 ;;  funPtr          2    9[COMRAM] PTR void 
  5763 ;;		 -> I2C1_ReadDataBlock@bufferBlock(4), I2C1_Write2ByteRegister@data(2), I2C1_Write1ByteRegister@data(1), I2C1_Read2B
      +yteRegister@returnValue(2), 
  5764 ;;		 -> NULL(0), I2C1_Read1ByteRegister@returnValue(1), 
  5765 ;; Auto vars:     Size  Location     Type
  5766 ;;		None
  5767 ;; Return value:  Size  Location     Type
  5768 ;;                  1    wreg      enum E360
  5769 ;; Registers used:
  5770 ;;		wreg
  5771 ;; Tracked objects:
  5772 ;;		On entry : 0/0
  5773 ;;		On exit  : 0/0
  5774 ;;		Unchanged: 0/0
  5775 ;; Data sizes:     COMRAM   BANK0   BANK1   BANK2   BANK3   BANK4   BANK5   BANK6   BANK7   BANK8   BANK9  BANK10  BANK1
      +1  BANK12  BANK13  BANK14
  5776 ;;      Params:         2       0       0       0       0       0       0       0       0       0       0       0       
      +0       0       0       0
  5777 ;;      Locals:         0       0       0       0       0       0       0       0       0       0       0       0       
      +0       0       0       0
  5778 ;;      Temps:          0       0       0       0       0       0       0       0       0       0       0       0       
      +0       0       0       0
  5779 ;;      Totals:         2       0       0       0       0       0       0       0       0       0       0       0       
      +0       0       0       0
  5780 ;;Total ram usage:        2 bytes
  5781 ;; Hardware stack levels used: 1
  5782 ;; This function calls:
  5783 ;;		Nothing
  5784 ;; This function is called by:
  5785 ;;		_I2C1_Open
  5786 ;;		_I2C1_DO_TX
  5787 ;;		_I2C1_DO_RX
  5788 ;;		_I2C1_DO_TX_EMPTY
  5789 ;;		_I2C1_DO_ADDRESS_NACK
  5790 ;;		_I2C1_DO_RX_EMPTY
  5791 ;; This function uses a non-reentrant model
  5792 ;;
  5793                           
  5794                           	psect	text64
  5795  001FDC                     __ptext64:
  5796                           	callstack 0
  5797  001FDC                     _I2C1_CallbackReturnReset:
  5798                           	callstack 20
  5799  001FDC                     
  5800                           ;mcc_generated_files/i2c1_master.c: 526: i2c1_operations_t I2C1_CallbackReturnReset(void
      +                           *funPtr);mcc_generated_files/i2c1_master.c: 527: {;mcc_generated_files/i2c1_master.c: 5
      +                          28:     return I2C1_RESET_LINK;
  5801  001FDC  0E05               	movlw	5
  5802  001FDE  0012               	return		;funcret
  5803  001FE0                     __end_of_I2C1_CallbackReturnReset:
  5804                           	callstack 0
  5805                           
  5806 ;; *************** function _I2C1_CallbackReturnStop *****************
  5807 ;; Defined at:
  5808 ;;		line 521 in file "mcc_generated_files/i2c1_master.c"
  5809 ;; Parameters:    Size  Location     Type
  5810 ;;  funPtr          2    9[COMRAM] PTR void 
  5811 ;;		 -> I2C1_ReadDataBlock@bufferBlock(4), I2C1_Write2ByteRegister@data(2), I2C1_Write1ByteRegister@data(1), I2C1_Read2B
      +yteRegister@returnValue(2), 
  5812 ;;		 -> NULL(0), I2C1_Read1ByteRegister@returnValue(1), 
  5813 ;; Auto vars:     Size  Location     Type
  5814 ;;		None
  5815 ;; Return value:  Size  Location     Type
  5816 ;;                  1    wreg      enum E360
  5817 ;; Registers used:
  5818 ;;		wreg
  5819 ;; Tracked objects:
  5820 ;;		On entry : 0/0
  5821 ;;		On exit  : 0/0
  5822 ;;		Unchanged: 0/0
  5823 ;; Data sizes:     COMRAM   BANK0   BANK1   BANK2   BANK3   BANK4   BANK5   BANK6   BANK7   BANK8   BANK9  BANK10  BANK1
      +1  BANK12  BANK13  BANK14
  5824 ;;      Params:         2       0       0       0       0       0       0       0       0       0       0       0       
      +0       0       0       0
  5825 ;;      Locals:         0       0       0       0       0       0       0       0       0       0       0       0       
      +0       0       0       0
  5826 ;;      Temps:          0       0       0       0       0       0       0       0       0       0       0       0       
      +0       0       0       0
  5827 ;;      Totals:         2       0       0       0       0       0       0       0       0       0       0       0       
      +0       0       0       0
  5828 ;;Total ram usage:        2 bytes
  5829 ;; Hardware stack levels used: 1
  5830 ;; This function calls:
  5831 ;;		Nothing
  5832 ;; This function is called by:
  5833 ;;		_I2C1_Open
  5834 ;;		_I2C1_SetCallback
  5835 ;;		i2_I2C1_SetCallback
  5836 ;;		_I2C1_DO_TX
  5837 ;;		_I2C1_DO_RX
  5838 ;;		_I2C1_DO_TX_EMPTY
  5839 ;;		_I2C1_DO_ADDRESS_NACK
  5840 ;;		_I2C1_DO_RX_EMPTY
  5841 ;; This function uses a non-reentrant model
  5842 ;;
  5843                           
  5844                           	psect	text65
  5845  001FE0                     __ptext65:
  5846                           	callstack 0
  5847  001FE0                     _I2C1_CallbackReturnStop:
  5848                           	callstack 20
  5849  001FE0                     
  5850                           ;mcc_generated_files/i2c1_master.c: 521: i2c1_operations_t I2C1_CallbackReturnStop(void 
      +                          *funPtr);mcc_generated_files/i2c1_master.c: 522: {;mcc_generated_files/i2c1_master.c: 52
      +                          3:     return I2C1_STOP;
  5851  001FE0  0E01               	movlw	1
  5852  001FE2  0012               	return		;funcret
  5853  001FE4                     __end_of_I2C1_CallbackReturnStop:
  5854                           	callstack 0
  5855                           
  5856 ;; *************** function _rdBlkRegCompleteHandler *****************
  5857 ;; Defined at:
  5858 ;;		line 170 in file "mcc_generated_files/examples/i2c1_master_example.c"
  5859 ;; Parameters:    Size  Location     Type
  5860 ;;  ptr             2    9[COMRAM] PTR void 
  5861 ;;		 -> I2C1_ReadDataBlock@bufferBlock(4), I2C1_Write2ByteRegister@data(2), I2C1_Write1ByteRegister@data(1), I2C1_Read2B
      +yteRegister@returnValue(2), 
  5862 ;;		 -> NULL(0), I2C1_Read1ByteRegister@returnValue(1), 
  5863 ;; Auto vars:     Size  Location     Type
  5864 ;;		None
  5865 ;; Return value:  Size  Location     Type
  5866 ;;                  1    wreg      enum E360
  5867 ;; Registers used:
  5868 ;;		wreg, fsr2l, fsr2h, status,2, status,0, prodl, prodh, cstack
  5869 ;; Tracked objects:
  5870 ;;		On entry : 0/0
  5871 ;;		On exit  : 0/0
  5872 ;;		Unchanged: 0/0
  5873 ;; Data sizes:     COMRAM   BANK0   BANK1   BANK2   BANK3   BANK4   BANK5   BANK6   BANK7   BANK8   BANK9  BANK10  BANK1
      +1  BANK12  BANK13  BANK14
  5874 ;;      Params:         2       0       0       0       0       0       0       0       0       0       0       0       
      +0       0       0       0
  5875 ;;      Locals:         0       0       0       0       0       0       0       0       0       0       0       0       
      +0       0       0       0
  5876 ;;      Temps:          0       0       0       0       0       0       0       0       0       0       0       0       
      +0       0       0       0
  5877 ;;      Totals:         2       0       0       0       0       0       0       0       0       0       0       0       
      +0       0       0       0
  5878 ;;Total ram usage:        2 bytes
  5879 ;; Hardware stack levels used: 1
  5880 ;; Hardware stack levels required when called: 2
  5881 ;; This function calls:
  5882 ;;		i2_I2C1_SetBuffer
  5883 ;;		i2_I2C1_SetDataCompleteCallback
  5884 ;; This function is called by:
  5885 ;;		_I2C1_ReadDataBlock
  5886 ;;		_I2C1_DO_TX
  5887 ;;		_I2C1_DO_RX
  5888 ;;		_I2C1_DO_TX_EMPTY
  5889 ;;		_I2C1_DO_ADDRESS_NACK
  5890 ;;		_I2C1_DO_RX_EMPTY
  5891 ;; This function uses a non-reentrant model
  5892 ;;
  5893                           
  5894                           	psect	text66
  5895  001B4E                     __ptext66:
  5896                           	callstack 0
  5897  001B4E                     _rdBlkRegCompleteHandler:
  5898                           	callstack 18
  5899  001B4E                     
  5900                           ;mcc_generated_files/examples/i2c1_master_example.c: 170: static i2c1_operations_t rdBlk
      +                          RegCompleteHandler(void *ptr);mcc_generated_files/examples/i2c1_master_example.c: 171: {
      +                          ;mcc_generated_files/examples/i2c1_master_example.c: 172:     I2C1_SetBuffer(((i2c1_buff
      +                          er_t *)ptr)->data,((i2c1_buffer_t*)ptr)->len);
  5901  001B4E  EE20 F002          	lfsr	2,2
  5902  001B52  500A               	movf	rdBlkRegCompleteHandler@ptr^0,w,c
  5903  001B54  26D9               	addwf	fsr2l,f,c
  5904  001B56  500B               	movf	(rdBlkRegCompleteHandler@ptr+1)^0,w,c
  5905  001B58  22DA               	addwfc	fsr2h,f,c
  5906  001B5A  CFDE F001          	movff	postinc2,i2I2C1_SetBuffer@buffer
  5907  001B5E  CFDD F002          	movff	postdec2,i2I2C1_SetBuffer@buffer+1
  5908  001B62  C00A  FFD9         	movff	rdBlkRegCompleteHandler@ptr,fsr2l
  5909  001B66  C00B  FFDA         	movff	rdBlkRegCompleteHandler@ptr+1,fsr2h
  5910  001B6A  CFDE F003          	movff	postinc2,i2I2C1_SetBuffer@bufferSize
  5911  001B6E  CFDD F004          	movff	postdec2,i2I2C1_SetBuffer@bufferSize+1
  5912  001B72  ECD5  F00E         	call	i2_I2C1_SetBuffer	;wreg free
  5913  001B76                     
  5914                           ;mcc_generated_files/examples/i2c1_master_example.c: 173:     I2C1_SetDataCompleteCallba
      +                          ck(((void*)0),((void*)0));
  5915  001B76  0E00               	movlw	0
  5916  001B78  6E06               	movwf	i2I2C1_SetDataCompleteCallback@cb^0,c
  5917  001B7A  0E00               	movlw	0
  5918  001B7C  6E07               	movwf	(i2I2C1_SetDataCompleteCallback@cb+1)^0,c
  5919  001B7E  0E00               	movlw	0
  5920  001B80  6E08               	movwf	i2I2C1_SetDataCompleteCallback@ptr^0,c
  5921  001B82  0E00               	movlw	0
  5922  001B84  6E09               	movwf	(i2I2C1_SetDataCompleteCallback@ptr+1)^0,c
  5923  001B86  EC30  F00F         	call	i2_I2C1_SetDataCompleteCallback	;wreg free
  5924  001B8A                     
  5925                           ;mcc_generated_files/examples/i2c1_master_example.c: 174:     return I2C1_RESTART_READ;
  5926  001B8A  0E02               	movlw	2
  5927  001B8C  0012               	return		;funcret
  5928  001B8E                     __end_of_rdBlkRegCompleteHandler:
  5929                           	callstack 0
  5930                           
  5931 ;; *************** function _wr1RegCompleteHandler *****************
  5932 ;; Defined at:
  5933 ;;		line 156 in file "mcc_generated_files/examples/i2c1_master_example.c"
  5934 ;; Parameters:    Size  Location     Type
  5935 ;;  ptr             2    9[COMRAM] PTR void 
  5936 ;;		 -> I2C1_ReadDataBlock@bufferBlock(4), I2C1_Write2ByteRegister@data(2), I2C1_Write1ByteRegister@data(1), I2C1_Read2B
      +yteRegister@returnValue(2), 
  5937 ;;		 -> NULL(0), I2C1_Read1ByteRegister@returnValue(1), 
  5938 ;; Auto vars:     Size  Location     Type
  5939 ;;		None
  5940 ;; Return value:  Size  Location     Type
  5941 ;;                  1    wreg      enum E360
  5942 ;; Registers used:
  5943 ;;		wreg, fsr2l, fsr2h, status,2, status,0, prodl, prodh, cstack
  5944 ;; Tracked objects:
  5945 ;;		On entry : 0/0
  5946 ;;		On exit  : 0/0
  5947 ;;		Unchanged: 0/0
  5948 ;; Data sizes:     COMRAM   BANK0   BANK1   BANK2   BANK3   BANK4   BANK5   BANK6   BANK7   BANK8   BANK9  BANK10  BANK1
      +1  BANK12  BANK13  BANK14
  5949 ;;      Params:         2       0       0       0       0       0       0       0       0       0       0       0       
      +0       0       0       0
  5950 ;;      Locals:         0       0       0       0       0       0       0       0       0       0       0       0       
      +0       0       0       0
  5951 ;;      Temps:          0       0       0       0       0       0       0       0       0       0       0       0       
      +0       0       0       0
  5952 ;;      Totals:         2       0       0       0       0       0       0       0       0       0       0       0       
      +0       0       0       0
  5953 ;;Total ram usage:        2 bytes
  5954 ;; Hardware stack levels used: 1
  5955 ;; Hardware stack levels required when called: 2
  5956 ;; This function calls:
  5957 ;;		i2_I2C1_SetBuffer
  5958 ;;		i2_I2C1_SetDataCompleteCallback
  5959 ;; This function is called by:
  5960 ;;		_I2C1_Write1ByteRegister
  5961 ;;		_I2C1_DO_TX
  5962 ;;		_I2C1_DO_RX
  5963 ;;		_I2C1_DO_TX_EMPTY
  5964 ;;		_I2C1_DO_ADDRESS_NACK
  5965 ;;		_I2C1_DO_RX_EMPTY
  5966 ;; This function uses a non-reentrant model
  5967 ;;
  5968                           
  5969                           	psect	text67
  5970  001C34                     __ptext67:
  5971                           	callstack 0
  5972  001C34                     _wr1RegCompleteHandler:
  5973                           	callstack 18
  5974  001C34                     
  5975                           ;mcc_generated_files/examples/i2c1_master_example.c: 156: static i2c1_operations_t wr1Re
      +                          gCompleteHandler(void *ptr);mcc_generated_files/examples/i2c1_master_example.c: 157: {;m
      +                          cc_generated_files/examples/i2c1_master_example.c: 158:     I2C1_SetBuffer(ptr,1);
  5976  001C34  C00A  F001         	movff	wr1RegCompleteHandler@ptr,i2I2C1_SetBuffer@buffer
  5977  001C38  C00B  F002         	movff	wr1RegCompleteHandler@ptr+1,i2I2C1_SetBuffer@buffer+1
  5978  001C3C  0E00               	movlw	0
  5979  001C3E  6E04               	movwf	(i2I2C1_SetBuffer@bufferSize+1)^0,c
  5980  001C40  0E01               	movlw	1
  5981  001C42  6E03               	movwf	i2I2C1_SetBuffer@bufferSize^0,c
  5982  001C44  ECD5  F00E         	call	i2_I2C1_SetBuffer	;wreg free
  5983  001C48                     
  5984                           ;mcc_generated_files/examples/i2c1_master_example.c: 159:     I2C1_SetDataCompleteCallba
      +                          ck(((void*)0),((void*)0));
  5985  001C48  0E00               	movlw	0
  5986  001C4A  6E06               	movwf	i2I2C1_SetDataCompleteCallback@cb^0,c
  5987  001C4C  0E00               	movlw	0
  5988  001C4E  6E07               	movwf	(i2I2C1_SetDataCompleteCallback@cb+1)^0,c
  5989  001C50  0E00               	movlw	0
  5990  001C52  6E08               	movwf	i2I2C1_SetDataCompleteCallback@ptr^0,c
  5991  001C54  0E00               	movlw	0
  5992  001C56  6E09               	movwf	(i2I2C1_SetDataCompleteCallback@ptr+1)^0,c
  5993  001C58  EC30  F00F         	call	i2_I2C1_SetDataCompleteCallback	;wreg free
  5994  001C5C                     
  5995                           ;mcc_generated_files/examples/i2c1_master_example.c: 160:     return I2C1_CONTINUE;
  5996  001C5C  0E04               	movlw	4
  5997  001C5E  0012               	return		;funcret
  5998  001C60                     __end_of_wr1RegCompleteHandler:
  5999                           	callstack 0
  6000                           
  6001 ;; *************** function _rd2RegCompleteHandler *****************
  6002 ;; Defined at:
  6003 ;;		line 149 in file "mcc_generated_files/examples/i2c1_master_example.c"
  6004 ;; Parameters:    Size  Location     Type
  6005 ;;  ptr             2    9[COMRAM] PTR void 
  6006 ;;		 -> I2C1_ReadDataBlock@bufferBlock(4), I2C1_Write2ByteRegister@data(2), I2C1_Write1ByteRegister@data(1), I2C1_Read2B
      +yteRegister@returnValue(2), 
  6007 ;;		 -> NULL(0), I2C1_Read1ByteRegister@returnValue(1), 
  6008 ;; Auto vars:     Size  Location     Type
  6009 ;;		None
  6010 ;; Return value:  Size  Location     Type
  6011 ;;                  1    wreg      enum E360
  6012 ;; Registers used:
  6013 ;;		wreg, fsr2l, fsr2h, status,2, status,0, prodl, prodh, cstack
  6014 ;; Tracked objects:
  6015 ;;		On entry : 0/0
  6016 ;;		On exit  : 0/0
  6017 ;;		Unchanged: 0/0
  6018 ;; Data sizes:     COMRAM   BANK0   BANK1   BANK2   BANK3   BANK4   BANK5   BANK6   BANK7   BANK8   BANK9  BANK10  BANK1
      +1  BANK12  BANK13  BANK14
  6019 ;;      Params:         2       0       0       0       0       0       0       0       0       0       0       0       
      +0       0       0       0
  6020 ;;      Locals:         0       0       0       0       0       0       0       0       0       0       0       0       
      +0       0       0       0
  6021 ;;      Temps:          0       0       0       0       0       0       0       0       0       0       0       0       
      +0       0       0       0
  6022 ;;      Totals:         2       0       0       0       0       0       0       0       0       0       0       0       
      +0       0       0       0
  6023 ;;Total ram usage:        2 bytes
  6024 ;; Hardware stack levels used: 1
  6025 ;; Hardware stack levels required when called: 2
  6026 ;; This function calls:
  6027 ;;		i2_I2C1_SetBuffer
  6028 ;;		i2_I2C1_SetDataCompleteCallback
  6029 ;; This function is called by:
  6030 ;;		_I2C1_Read2ByteRegister
  6031 ;;		_I2C1_DO_TX
  6032 ;;		_I2C1_DO_RX
  6033 ;;		_I2C1_DO_TX_EMPTY
  6034 ;;		_I2C1_DO_ADDRESS_NACK
  6035 ;;		_I2C1_DO_RX_EMPTY
  6036 ;; This function uses a non-reentrant model
  6037 ;;
  6038                           
  6039                           	psect	text68
  6040  001C60                     __ptext68:
  6041                           	callstack 0
  6042  001C60                     _rd2RegCompleteHandler:
  6043                           	callstack 18
  6044  001C60                     
  6045                           ;mcc_generated_files/examples/i2c1_master_example.c: 149: static i2c1_operations_t rd2Re
      +                          gCompleteHandler(void *ptr);mcc_generated_files/examples/i2c1_master_example.c: 150: {;m
      +                          cc_generated_files/examples/i2c1_master_example.c: 151:     I2C1_SetBuffer(ptr,2);
  6046  001C60  C00A  F001         	movff	rd2RegCompleteHandler@ptr,i2I2C1_SetBuffer@buffer
  6047  001C64  C00B  F002         	movff	rd2RegCompleteHandler@ptr+1,i2I2C1_SetBuffer@buffer+1
  6048  001C68  0E00               	movlw	0
  6049  001C6A  6E04               	movwf	(i2I2C1_SetBuffer@bufferSize+1)^0,c
  6050  001C6C  0E02               	movlw	2
  6051  001C6E  6E03               	movwf	i2I2C1_SetBuffer@bufferSize^0,c
  6052  001C70  ECD5  F00E         	call	i2_I2C1_SetBuffer	;wreg free
  6053  001C74                     
  6054                           ;mcc_generated_files/examples/i2c1_master_example.c: 152:     I2C1_SetDataCompleteCallba
      +                          ck(((void*)0),((void*)0));
  6055  001C74  0E00               	movlw	0
  6056  001C76  6E06               	movwf	i2I2C1_SetDataCompleteCallback@cb^0,c
  6057  001C78  0E00               	movlw	0
  6058  001C7A  6E07               	movwf	(i2I2C1_SetDataCompleteCallback@cb+1)^0,c
  6059  001C7C  0E00               	movlw	0
  6060  001C7E  6E08               	movwf	i2I2C1_SetDataCompleteCallback@ptr^0,c
  6061  001C80  0E00               	movlw	0
  6062  001C82  6E09               	movwf	(i2I2C1_SetDataCompleteCallback@ptr+1)^0,c
  6063  001C84  EC30  F00F         	call	i2_I2C1_SetDataCompleteCallback	;wreg free
  6064  001C88                     
  6065                           ;mcc_generated_files/examples/i2c1_master_example.c: 153:     return I2C1_RESTART_READ;
  6066  001C88  0E02               	movlw	2
  6067  001C8A  0012               	return		;funcret
  6068  001C8C                     __end_of_rd2RegCompleteHandler:
  6069                           	callstack 0
  6070                           
  6071 ;; *************** function _rd1RegCompleteHandler *****************
  6072 ;; Defined at:
  6073 ;;		line 142 in file "mcc_generated_files/examples/i2c1_master_example.c"
  6074 ;; Parameters:    Size  Location     Type
  6075 ;;  ptr             2    9[COMRAM] PTR void 
  6076 ;;		 -> I2C1_ReadDataBlock@bufferBlock(4), I2C1_Write2ByteRegister@data(2), I2C1_Write1ByteRegister@data(1), I2C1_Read2B
      +yteRegister@returnValue(2), 
  6077 ;;		 -> NULL(0), I2C1_Read1ByteRegister@returnValue(1), 
  6078 ;; Auto vars:     Size  Location     Type
  6079 ;;		None
  6080 ;; Return value:  Size  Location     Type
  6081 ;;                  1    wreg      enum E360
  6082 ;; Registers used:
  6083 ;;		wreg, fsr2l, fsr2h, status,2, status,0, prodl, prodh, cstack
  6084 ;; Tracked objects:
  6085 ;;		On entry : 0/0
  6086 ;;		On exit  : 0/0
  6087 ;;		Unchanged: 0/0
  6088 ;; Data sizes:     COMRAM   BANK0   BANK1   BANK2   BANK3   BANK4   BANK5   BANK6   BANK7   BANK8   BANK9  BANK10  BANK1
      +1  BANK12  BANK13  BANK14
  6089 ;;      Params:         2       0       0       0       0       0       0       0       0       0       0       0       
      +0       0       0       0
  6090 ;;      Locals:         0       0       0       0       0       0       0       0       0       0       0       0       
      +0       0       0       0
  6091 ;;      Temps:          0       0       0       0       0       0       0       0       0       0       0       0       
      +0       0       0       0
  6092 ;;      Totals:         2       0       0       0       0       0       0       0       0       0       0       0       
      +0       0       0       0
  6093 ;;Total ram usage:        2 bytes
  6094 ;; Hardware stack levels used: 1
  6095 ;; Hardware stack levels required when called: 2
  6096 ;; This function calls:
  6097 ;;		i2_I2C1_SetBuffer
  6098 ;;		i2_I2C1_SetDataCompleteCallback
  6099 ;; This function is called by:
  6100 ;;		_I2C1_Read1ByteRegister
  6101 ;;		_I2C1_DO_TX
  6102 ;;		_I2C1_DO_RX
  6103 ;;		_I2C1_DO_TX_EMPTY
  6104 ;;		_I2C1_DO_ADDRESS_NACK
  6105 ;;		_I2C1_DO_RX_EMPTY
  6106 ;; This function uses a non-reentrant model
  6107 ;;
  6108                           
  6109                           	psect	text69
  6110  001C8C                     __ptext69:
  6111                           	callstack 0
  6112  001C8C                     _rd1RegCompleteHandler:
  6113                           	callstack 18
  6114  001C8C                     
  6115                           ;mcc_generated_files/examples/i2c1_master_example.c: 142: static i2c1_operations_t rd1Re
      +                          gCompleteHandler(void *ptr);mcc_generated_files/examples/i2c1_master_example.c: 143: {;m
      +                          cc_generated_files/examples/i2c1_master_example.c: 144:     I2C1_SetBuffer(ptr,1);
  6116  001C8C  C00A  F001         	movff	rd1RegCompleteHandler@ptr,i2I2C1_SetBuffer@buffer
  6117  001C90  C00B  F002         	movff	rd1RegCompleteHandler@ptr+1,i2I2C1_SetBuffer@buffer+1
  6118  001C94  0E00               	movlw	0
  6119  001C96  6E04               	movwf	(i2I2C1_SetBuffer@bufferSize+1)^0,c
  6120  001C98  0E01               	movlw	1
  6121  001C9A  6E03               	movwf	i2I2C1_SetBuffer@bufferSize^0,c
  6122  001C9C  ECD5  F00E         	call	i2_I2C1_SetBuffer	;wreg free
  6123  001CA0                     
  6124                           ;mcc_generated_files/examples/i2c1_master_example.c: 145:     I2C1_SetDataCompleteCallba
      +                          ck(((void*)0),((void*)0));
  6125  001CA0  0E00               	movlw	0
  6126  001CA2  6E06               	movwf	i2I2C1_SetDataCompleteCallback@cb^0,c
  6127  001CA4  0E00               	movlw	0
  6128  001CA6  6E07               	movwf	(i2I2C1_SetDataCompleteCallback@cb+1)^0,c
  6129  001CA8  0E00               	movlw	0
  6130  001CAA  6E08               	movwf	i2I2C1_SetDataCompleteCallback@ptr^0,c
  6131  001CAC  0E00               	movlw	0
  6132  001CAE  6E09               	movwf	(i2I2C1_SetDataCompleteCallback@ptr+1)^0,c
  6133  001CB0  EC30  F00F         	call	i2_I2C1_SetDataCompleteCallback	;wreg free
  6134  001CB4                     
  6135                           ;mcc_generated_files/examples/i2c1_master_example.c: 146:     return I2C1_RESTART_READ;
  6136  001CB4  0E02               	movlw	2
  6137  001CB6  0012               	return		;funcret
  6138  001CB8                     __end_of_rd1RegCompleteHandler:
  6139                           	callstack 0
  6140                           
  6141 ;; *************** function _wr2RegCompleteHandler *****************
  6142 ;; Defined at:
  6143 ;;		line 163 in file "mcc_generated_files/examples/i2c1_master_example.c"
  6144 ;; Parameters:    Size  Location     Type
  6145 ;;  ptr             2    9[COMRAM] PTR void 
  6146 ;;		 -> I2C1_ReadDataBlock@bufferBlock(4), I2C1_Write2ByteRegister@data(2), I2C1_Write1ByteRegister@data(1), I2C1_Read2B
      +yteRegister@returnValue(2), 
  6147 ;;		 -> NULL(0), I2C1_Read1ByteRegister@returnValue(1), 
  6148 ;; Auto vars:     Size  Location     Type
  6149 ;;		None
  6150 ;; Return value:  Size  Location     Type
  6151 ;;                  1    wreg      enum E360
  6152 ;; Registers used:
  6153 ;;		wreg, fsr2l, fsr2h, status,2, status,0, prodl, prodh, cstack
  6154 ;; Tracked objects:
  6155 ;;		On entry : 0/0
  6156 ;;		On exit  : 0/0
  6157 ;;		Unchanged: 0/0
  6158 ;; Data sizes:     COMRAM   BANK0   BANK1   BANK2   BANK3   BANK4   BANK5   BANK6   BANK7   BANK8   BANK9  BANK10  BANK1
      +1  BANK12  BANK13  BANK14
  6159 ;;      Params:         2       0       0       0       0       0       0       0       0       0       0       0       
      +0       0       0       0
  6160 ;;      Locals:         0       0       0       0       0       0       0       0       0       0       0       0       
      +0       0       0       0
  6161 ;;      Temps:          0       0       0       0       0       0       0       0       0       0       0       0       
      +0       0       0       0
  6162 ;;      Totals:         2       0       0       0       0       0       0       0       0       0       0       0       
      +0       0       0       0
  6163 ;;Total ram usage:        2 bytes
  6164 ;; Hardware stack levels used: 1
  6165 ;; Hardware stack levels required when called: 2
  6166 ;; This function calls:
  6167 ;;		i2_I2C1_SetBuffer
  6168 ;;		i2_I2C1_SetDataCompleteCallback
  6169 ;; This function is called by:
  6170 ;;		_I2C1_Write2ByteRegister
  6171 ;;		_I2C1_DO_TX
  6172 ;;		_I2C1_DO_RX
  6173 ;;		_I2C1_DO_TX_EMPTY
  6174 ;;		_I2C1_DO_ADDRESS_NACK
  6175 ;;		_I2C1_DO_RX_EMPTY
  6176 ;; This function uses a non-reentrant model
  6177 ;;
  6178                           
  6179                           	psect	text70
  6180  001CB8                     __ptext70:
  6181                           	callstack 0
  6182  001CB8                     _wr2RegCompleteHandler:
  6183                           	callstack 18
  6184  001CB8                     
  6185                           ;mcc_generated_files/examples/i2c1_master_example.c: 163: static i2c1_operations_t wr2Re
      +                          gCompleteHandler(void *ptr);mcc_generated_files/examples/i2c1_master_example.c: 164: {;m
      +                          cc_generated_files/examples/i2c1_master_example.c: 165:     I2C1_SetBuffer(ptr,2);
  6186  001CB8  C00A  F001         	movff	wr2RegCompleteHandler@ptr,i2I2C1_SetBuffer@buffer
  6187  001CBC  C00B  F002         	movff	wr2RegCompleteHandler@ptr+1,i2I2C1_SetBuffer@buffer+1
  6188  001CC0  0E00               	movlw	0
  6189  001CC2  6E04               	movwf	(i2I2C1_SetBuffer@bufferSize+1)^0,c
  6190  001CC4  0E02               	movlw	2
  6191  001CC6  6E03               	movwf	i2I2C1_SetBuffer@bufferSize^0,c
  6192  001CC8  ECD5  F00E         	call	i2_I2C1_SetBuffer	;wreg free
  6193  001CCC                     
  6194                           ;mcc_generated_files/examples/i2c1_master_example.c: 166:     I2C1_SetDataCompleteCallba
      +                          ck(((void*)0),((void*)0));
  6195  001CCC  0E00               	movlw	0
  6196  001CCE  6E06               	movwf	i2I2C1_SetDataCompleteCallback@cb^0,c
  6197  001CD0  0E00               	movlw	0
  6198  001CD2  6E07               	movwf	(i2I2C1_SetDataCompleteCallback@cb+1)^0,c
  6199  001CD4  0E00               	movlw	0
  6200  001CD6  6E08               	movwf	i2I2C1_SetDataCompleteCallback@ptr^0,c
  6201  001CD8  0E00               	movlw	0
  6202  001CDA  6E09               	movwf	(i2I2C1_SetDataCompleteCallback@ptr+1)^0,c
  6203  001CDC  EC30  F00F         	call	i2_I2C1_SetDataCompleteCallback	;wreg free
  6204  001CE0                     
  6205                           ;mcc_generated_files/examples/i2c1_master_example.c: 167:     return I2C1_CONTINUE;
  6206  001CE0  0E04               	movlw	4
  6207  001CE2  0012               	return		;funcret
  6208  001CE4                     __end_of_wr2RegCompleteHandler:
  6209                           	callstack 0
  6210                           
  6211 ;; *************** function i2_I2C1_SetDataCompleteCallback *****************
  6212 ;; Defined at:
  6213 ;;		line 274 in file "mcc_generated_files/i2c1_master.c"
  6214 ;; Parameters:    Size  Location     Type
  6215 ;;  cb              2    5[COMRAM] PTR FTN(PTR void ,)enum 
  6216 ;;		 -> Absolute function(1), rdBlkRegCompleteHandler(1), wr2RegCompleteHandler(1), wr1RegCompleteHandler(1), 
  6217 ;;		 -> rd2RegCompleteHandler(1), rd1RegCompleteHandler(1), 
  6218 ;;  ptr             2    7[COMRAM] PTR void 
  6219 ;;		 -> I2C1_ReadDataBlock@bufferBlock(4), I2C1_Write2ByteRegister@data(2), I2C1_Write1ByteRegister@data(1), I2C1_Read2B
      +yteRegister@returnValue(2), 
  6220 ;;		 -> NULL(0), I2C1_Read1ByteRegister@returnValue(1), 
  6221 ;; Auto vars:     Size  Location     Type
  6222 ;;		None
  6223 ;; Return value:  Size  Location     Type
  6224 ;;                  1    wreg      void 
  6225 ;; Registers used:
  6226 ;;		wreg, fsr2l, fsr2h, status,2, status,0, prodl, prodh, cstack
  6227 ;; Tracked objects:
  6228 ;;		On entry : 0/0
  6229 ;;		On exit  : 0/0
  6230 ;;		Unchanged: 0/0
  6231 ;; Data sizes:     COMRAM   BANK0   BANK1   BANK2   BANK3   BANK4   BANK5   BANK6   BANK7   BANK8   BANK9  BANK10  BANK1
      +1  BANK12  BANK13  BANK14
  6232 ;;      Params:         4       0       0       0       0       0       0       0       0       0       0       0       
      +0       0       0       0
  6233 ;;      Locals:         0       0       0       0       0       0       0       0       0       0       0       0       
      +0       0       0       0
  6234 ;;      Temps:          0       0       0       0       0       0       0       0       0       0       0       0       
      +0       0       0       0
  6235 ;;      Totals:         4       0       0       0       0       0       0       0       0       0       0       0       
      +0       0       0       0
  6236 ;;Total ram usage:        4 bytes
  6237 ;; Hardware stack levels used: 1
  6238 ;; Hardware stack levels required when called: 1
  6239 ;; This function calls:
  6240 ;;		i2_I2C1_SetCallback
  6241 ;; This function is called by:
  6242 ;;		_rd1RegCompleteHandler
  6243 ;;		_rd2RegCompleteHandler
  6244 ;;		_wr1RegCompleteHandler
  6245 ;;		_wr2RegCompleteHandler
  6246 ;;		_rdBlkRegCompleteHandler
  6247 ;; This function uses a non-reentrant model
  6248 ;;
  6249                           
  6250                           	psect	text71
  6251  001E60                     __ptext71:
  6252                           	callstack 0
  6253  001E60                     i2_I2C1_SetDataCompleteCallback:
  6254                           	callstack 18
  6255  001E60                     
  6256                           ;mcc_generated_files/i2c1_master.c: 274: void I2C1_SetDataCompleteCallback(i2c1_callback
      +                          _t cb, void *ptr);mcc_generated_files/i2c1_master.c: 275: {;mcc_generated_files/i2c1_mas
      +                          ter.c: 276:     I2C1_SetCallback(I2C1_DATA_COMPLETE, cb, ptr);
  6257  001E60  C006  F001         	movff	i2I2C1_SetDataCompleteCallback@cb,i2I2C1_SetCallback@cb
  6258  001E64  C007  F002         	movff	i2I2C1_SetDataCompleteCallback@cb+1,i2I2C1_SetCallback@cb+1
  6259  001E68  C008  F003         	movff	i2I2C1_SetDataCompleteCallback@ptr,i2I2C1_SetCallback@ptr
  6260  001E6C  C009  F004         	movff	i2I2C1_SetDataCompleteCallback@ptr+1,i2I2C1_SetCallback@ptr+1
  6261  001E70  0E00               	movlw	0
  6262  001E72  EC15  F00C         	call	i2_I2C1_SetCallback
  6263  001E76  0012               	return		;funcret
  6264  001E78                     __end_ofi2_I2C1_SetDataCompleteCallback:
  6265                           	callstack 0
  6266                           
  6267 ;; *************** function i2_I2C1_SetCallback *****************
  6268 ;; Defined at:
  6269 ;;		line 304 in file "mcc_generated_files/i2c1_master.c"
  6270 ;; Parameters:    Size  Location     Type
  6271 ;;  idx             1    wreg     enum E6673
  6272 ;;  cb              2    0[COMRAM] PTR FTN(PTR void ,)enum 
  6273 ;;		 -> Absolute function(1), rdBlkRegCompleteHandler(1), wr2RegCompleteHandler(1), wr1RegCompleteHandler(1), 
  6274 ;;		 -> rd2RegCompleteHandler(1), rd1RegCompleteHandler(1), 
  6275 ;;  ptr             2    2[COMRAM] PTR void 
  6276 ;;		 -> I2C1_ReadDataBlock@bufferBlock(4), I2C1_Write2ByteRegister@data(2), I2C1_Write1ByteRegister@data(1), I2C1_Read2B
      +yteRegister@returnValue(2), 
  6277 ;;		 -> NULL(0), I2C1_Read1ByteRegister@returnValue(1), 
  6278 ;; Auto vars:     Size  Location     Type
  6279 ;;  idx             1    4[COMRAM] enum E6673
  6280 ;; Return value:  Size  Location     Type
  6281 ;;                  1    wreg      void 
  6282 ;; Registers used:
  6283 ;;		wreg, fsr2l, fsr2h, status,2, status,0, prodl, prodh
  6284 ;; Tracked objects:
  6285 ;;		On entry : 0/0
  6286 ;;		On exit  : 0/0
  6287 ;;		Unchanged: 0/0
  6288 ;; Data sizes:     COMRAM   BANK0   BANK1   BANK2   BANK3   BANK4   BANK5   BANK6   BANK7   BANK8   BANK9  BANK10  BANK1
      +1  BANK12  BANK13  BANK14
  6289 ;;      Params:         4       0       0       0       0       0       0       0       0       0       0       0       
      +0       0       0       0
  6290 ;;      Locals:         1       0       0       0       0       0       0       0       0       0       0       0       
      +0       0       0       0
  6291 ;;      Temps:          0       0       0       0       0       0       0       0       0       0       0       0       
      +0       0       0       0
  6292 ;;      Totals:         5       0       0       0       0       0       0       0       0       0       0       0       
      +0       0       0       0
  6293 ;;Total ram usage:        5 bytes
  6294 ;; Hardware stack levels used: 1
  6295 ;; This function calls:
  6296 ;;		Nothing
  6297 ;; This function is called by:
  6298 ;;		i2_I2C1_SetDataCompleteCallback
  6299 ;; This function uses a non-reentrant model
  6300 ;;
  6301                           
  6302                           	psect	text72
  6303  00182A                     __ptext72:
  6304                           	callstack 0
  6305  00182A                     i2_I2C1_SetCallback:
  6306                           	callstack 18
  6307                           
  6308                           ;incstack = 0
  6309                           ;i2I2C1_SetCallback@idx stored from wreg
  6310  00182A  6E05               	movwf	i2I2C1_SetCallback@idx^0,c
  6311  00182C                     
  6312                           ;mcc_generated_files/i2c1_master.c: 304: static void I2C1_SetCallback(i2c1_callbackIndex
      +                          _t idx, i2c1_callback_t cb, void *ptr);mcc_generated_files/i2c1_master.c: 305: {;mcc_gen
      +                          erated_files/i2c1_master.c: 306:     if(cb)
  6313  00182C  5001               	movf	i2I2C1_SetCallback@cb^0,w,c
  6314  00182E  1002               	iorwf	(i2I2C1_SetCallback@cb+1)^0,w,c
  6315  001830  B4D8               	btfsc	status,2,c
  6316  001832  EF1D  F00C         	goto	i2u87_41
  6317  001836  EF1F  F00C         	goto	i2u87_40
  6318  00183A                     i2u87_41:
  6319  00183A  EF39  F00C         	goto	i2l2792
  6320  00183E                     i2u87_40:
  6321  00183E                     
  6322                           ;mcc_generated_files/i2c1_master.c: 307:     {;mcc_generated_files/i2c1_master.c: 308:  
      +                                 I2C1_Status.callbackTable[idx] = cb;
  6323  00183E  5005               	movf	i2I2C1_SetCallback@idx^0,w,c
  6324  001840  0D02               	mullw	2
  6325  001842  0E60               	movlw	low _I2C1_Status
  6326  001844  24F3               	addwf	243,w,c
  6327  001846  6ED9               	movwf	fsr2l,c
  6328  001848  0E00               	movlw	high _I2C1_Status
  6329  00184A  20F4               	addwfc	prodh,w,c
  6330  00184C  6EDA               	movwf	fsr2h,c
  6331  00184E  C001  FFDE         	movff	i2I2C1_SetCallback@cb,postinc2
  6332  001852  C002  FFDD         	movff	i2I2C1_SetCallback@cb+1,postdec2
  6333                           
  6334                           ;mcc_generated_files/i2c1_master.c: 309:         I2C1_Status.callbackPayload[idx] = ptr;
  6335  001856  5005               	movf	i2I2C1_SetCallback@idx^0,w,c
  6336  001858  0D02               	mullw	2
  6337  00185A  0E6C               	movlw	low (_I2C1_Status+12)
  6338  00185C  24F3               	addwf	243,w,c
  6339  00185E  6ED9               	movwf	fsr2l,c
  6340  001860  0E00               	movlw	high (_I2C1_Status+12)
  6341  001862  20F4               	addwfc	prodh,w,c
  6342  001864  6EDA               	movwf	fsr2h,c
  6343  001866  C003  FFDE         	movff	i2I2C1_SetCallback@ptr,postinc2
  6344  00186A  C004  FFDD         	movff	i2I2C1_SetCallback@ptr+1,postdec2
  6345                           
  6346                           ;mcc_generated_files/i2c1_master.c: 310:     }
  6347  00186E  EF51  F00C         	goto	i2l445
  6348  001872                     i2l2792:
  6349                           
  6350                           ;mcc_generated_files/i2c1_master.c: 312:     {;mcc_generated_files/i2c1_master.c: 313:  
      +                                 I2C1_Status.callbackTable[idx] = I2C1_CallbackReturnStop;
  6351  001872  5005               	movf	i2I2C1_SetCallback@idx^0,w,c
  6352  001874  0D02               	mullw	2
  6353  001876  0E60               	movlw	low _I2C1_Status
  6354  001878  24F3               	addwf	243,w,c
  6355  00187A  6ED9               	movwf	fsr2l,c
  6356  00187C  0E00               	movlw	high _I2C1_Status
  6357  00187E  20F4               	addwfc	prodh,w,c
  6358  001880  6EDA               	movwf	fsr2h,c
  6359  001882  0EE0               	movlw	low _I2C1_CallbackReturnStop
  6360  001884  6EDE               	movwf	postinc2,c
  6361  001886  0E1F               	movlw	high _I2C1_CallbackReturnStop
  6362  001888  6EDD               	movwf	postdec2,c
  6363                           
  6364                           ;mcc_generated_files/i2c1_master.c: 314:         I2C1_Status.callbackPayload[idx] = ((vo
      +                          id*)0);
  6365  00188A  5005               	movf	i2I2C1_SetCallback@idx^0,w,c
  6366  00188C  0D02               	mullw	2
  6367  00188E  0E6C               	movlw	low (_I2C1_Status+12)
  6368  001890  24F3               	addwf	243,w,c
  6369  001892  6ED9               	movwf	fsr2l,c
  6370  001894  0E00               	movlw	high (_I2C1_Status+12)
  6371  001896  20F4               	addwfc	prodh,w,c
  6372  001898  6EDA               	movwf	fsr2h,c
  6373  00189A  0E00               	movlw	0
  6374  00189C  6EDE               	movwf	postinc2,c
  6375  00189E  0E00               	movlw	0
  6376  0018A0  6EDD               	movwf	postdec2,c
  6377  0018A2                     i2l445:
  6378  0018A2  0012               	return		;funcret
  6379  0018A4                     __end_ofi2_I2C1_SetCallback:
  6380                           	callstack 0
  6381                           
  6382 ;; *************** function i2_I2C1_SetBuffer *****************
  6383 ;; Defined at:
  6384 ;;		line 264 in file "mcc_generated_files/i2c1_master.c"
  6385 ;; Parameters:    Size  Location     Type
  6386 ;;  buffer          2    0[COMRAM] PTR void 
  6387 ;;		 -> I2C1_Read1ByteRegister@returnValue.data(3), I2C1_Read2ByteRegister@returnValue.data(3), I2C1_Write1ByteRegister@
      +data.data(3), I2C1_Write2ByteRegister@data.data(3), 
  6388 ;;		 -> I2C1_ReadDataBlock@reg(1), I2C1_ReadDataBlock@bufferBlock(4), bufferBlock.data(3), I2C1_Write2ByteRegister@reg(1
      +), 
  6389 ;;		 -> I2C1_Write2ByteRegister@data(2), I2C1_Write1ByteRegister@reg(1), I2C1_Write1ByteRegister@data(1), I2C1_Read2Byte
      +Register@reg(1), 
  6390 ;;		 -> I2C1_Read2ByteRegister@returnValue(2), NULL(0), I2C1_Read1ByteRegister@reg(1), I2C1_Read1ByteRegister@returnValu
      +e(1), 
  6391 ;;  bufferSize      2    2[COMRAM] unsigned int 
  6392 ;; Auto vars:     Size  Location     Type
  6393 ;;		None
  6394 ;; Return value:  Size  Location     Type
  6395 ;;                  1    wreg      void 
  6396 ;; Registers used:
  6397 ;;		wreg, status,2, status,0
  6398 ;; Tracked objects:
  6399 ;;		On entry : 0/0
  6400 ;;		On exit  : 0/0
  6401 ;;		Unchanged: 0/0
  6402 ;; Data sizes:     COMRAM   BANK0   BANK1   BANK2   BANK3   BANK4   BANK5   BANK6   BANK7   BANK8   BANK9  BANK10  BANK1
      +1  BANK12  BANK13  BANK14
  6403 ;;      Params:         4       0       0       0       0       0       0       0       0       0       0       0       
      +0       0       0       0
  6404 ;;      Locals:         0       0       0       0       0       0       0       0       0       0       0       0       
      +0       0       0       0
  6405 ;;      Temps:          0       0       0       0       0       0       0       0       0       0       0       0       
      +0       0       0       0
  6406 ;;      Totals:         4       0       0       0       0       0       0       0       0       0       0       0       
      +0       0       0       0
  6407 ;;Total ram usage:        4 bytes
  6408 ;; Hardware stack levels used: 1
  6409 ;; This function calls:
  6410 ;;		Nothing
  6411 ;; This function is called by:
  6412 ;;		_rd1RegCompleteHandler
  6413 ;;		_rd2RegCompleteHandler
  6414 ;;		_wr1RegCompleteHandler
  6415 ;;		_wr2RegCompleteHandler
  6416 ;;		_rdBlkRegCompleteHandler
  6417 ;; This function uses a non-reentrant model
  6418 ;;
  6419                           
  6420                           	psect	text73
  6421  001DAA                     __ptext73:
  6422                           	callstack 0
  6423  001DAA                     i2_I2C1_SetBuffer:
  6424                           	callstack 19
  6425  001DAA                     
  6426                           ;mcc_generated_files/i2c1_master.c: 264: void I2C1_SetBuffer(void *buffer, size_t buffer
      +                          Size);mcc_generated_files/i2c1_master.c: 265: {;mcc_generated_files/i2c1_master.c: 266: 
      +                              if(I2C1_Status.bufferFree)
  6427  001DAA  0100               	movlb	0	; () banked
  6428  001DAC  A783               	btfss	(_I2C1_Status+35)& (0+255),3,b
  6429  001DAE  EFDB  F00E         	goto	i2u88_41
  6430  001DB2  EFDD  F00E         	goto	i2u88_40
  6431  001DB6                     i2u88_41:
  6432  001DB6  EFE6  F00E         	goto	i2l422
  6433  001DBA                     i2u88_40:
  6434  001DBA                     
  6435                           ; BSR set to: 0
  6436                           ;mcc_generated_files/i2c1_master.c: 267:     {;mcc_generated_files/i2c1_master.c: 268:  
      +                                 I2C1_Status.data_ptr = buffer;
  6437  001DBA  C001  F07D         	movff	i2I2C1_SetBuffer@buffer,_I2C1_Status+29
  6438  001DBE  C002  F07E         	movff	i2I2C1_SetBuffer@buffer+1,_I2C1_Status+30
  6439  001DC2                     
  6440                           ; BSR set to: 0
  6441                           ;mcc_generated_files/i2c1_master.c: 269:         I2C1_Status.data_length = bufferSize;
  6442  001DC2  C003  F07F         	movff	i2I2C1_SetBuffer@bufferSize,_I2C1_Status+31
  6443  001DC6  C004  F080         	movff	i2I2C1_SetBuffer@bufferSize+1,_I2C1_Status+32
  6444  001DCA                     
  6445                           ; BSR set to: 0
  6446                           ;mcc_generated_files/i2c1_master.c: 270:         I2C1_Status.bufferFree = 0;
  6447  001DCA  9783               	bcf	(_I2C1_Status+35)& (0+255),3,b
  6448  001DCC                     i2l422:
  6449                           
  6450                           ; BSR set to: 0
  6451  001DCC  0012               	return		;funcret
  6452  001DCE                     __end_ofi2_I2C1_SetBuffer:
  6453                           	callstack 0
  6454                           
  6455 ;; *************** function _I2C1_MasterStop *****************
  6456 ;; Defined at:
  6457 ;;		line 594 in file "mcc_generated_files/i2c1_master.c"
  6458 ;; Parameters:    Size  Location     Type
  6459 ;;		None
  6460 ;; Auto vars:     Size  Location     Type
  6461 ;;		None
  6462 ;; Return value:  Size  Location     Type
  6463 ;;                  1    wreg      void 
  6464 ;; Registers used:
  6465 ;;		None
  6466 ;; Tracked objects:
  6467 ;;		On entry : 0/0
  6468 ;;		On exit  : 0/0
  6469 ;;		Unchanged: 0/0
  6470 ;; Data sizes:     COMRAM   BANK0   BANK1   BANK2   BANK3   BANK4   BANK5   BANK6   BANK7   BANK8   BANK9  BANK10  BANK1
      +1  BANK12  BANK13  BANK14
  6471 ;;      Params:         0       0       0       0       0       0       0       0       0       0       0       0       
      +0       0       0       0
  6472 ;;      Locals:         0       0       0       0       0       0       0       0       0       0       0       0       
      +0       0       0       0
  6473 ;;      Temps:          0       0       0       0       0       0       0       0       0       0       0       0       
      +0       0       0       0
  6474 ;;      Totals:         0       0       0       0       0       0       0       0       0       0       0       0       
      +0       0       0       0
  6475 ;;Total ram usage:        0 bytes
  6476 ;; Hardware stack levels used: 1
  6477 ;; This function calls:
  6478 ;;		Nothing
  6479 ;; This function is called by:
  6480 ;;		_I2C1_DO_SEND_STOP
  6481 ;; This function uses a non-reentrant model
  6482 ;;
  6483                           
  6484                           	psect	text74
  6485  001FE4                     __ptext74:
  6486                           	callstack 0
  6487  001FE4                     _I2C1_MasterStop:
  6488                           	callstack 19
  6489  001FE4                     
  6490                           ;mcc_generated_files/i2c1_master.c: 596:     SSP1CON2bits.PEN = 1;
  6491  001FE4  84C5               	bsf	197,2,c	;volatile
  6492  001FE6  0012               	return		;funcret
  6493  001FE8                     __end_of_I2C1_MasterStop:
  6494                           	callstack 0
  6495                           
  6496 ;; *************** function _I2C1_MasterEnableRestart *****************
  6497 ;; Defined at:
  6498 ;;		line 574 in file "mcc_generated_files/i2c1_master.c"
  6499 ;; Parameters:    Size  Location     Type
  6500 ;;		None
  6501 ;; Auto vars:     Size  Location     Type
  6502 ;;		None
  6503 ;; Return value:  Size  Location     Type
  6504 ;;                  1    wreg      void 
  6505 ;; Registers used:
  6506 ;;		None
  6507 ;; Tracked objects:
  6508 ;;		On entry : 0/0
  6509 ;;		On exit  : 0/0
  6510 ;;		Unchanged: 0/0
  6511 ;; Data sizes:     COMRAM   BANK0   BANK1   BANK2   BANK3   BANK4   BANK5   BANK6   BANK7   BANK8   BANK9  BANK10  BANK1
      +1  BANK12  BANK13  BANK14
  6512 ;;      Params:         0       0       0       0       0       0       0       0       0       0       0       0       
      +0       0       0       0
  6513 ;;      Locals:         0       0       0       0       0       0       0       0       0       0       0       0       
      +0       0       0       0
  6514 ;;      Temps:          0       0       0       0       0       0       0       0       0       0       0       0       
      +0       0       0       0
  6515 ;;      Totals:         0       0       0       0       0       0       0       0       0       0       0       0       
      +0       0       0       0
  6516 ;;Total ram usage:        0 bytes
  6517 ;; Hardware stack levels used: 1
  6518 ;; This function calls:
  6519 ;;		Nothing
  6520 ;; This function is called by:
  6521 ;;		_I2C1_DO_SEND_RESTART_READ
  6522 ;;		_I2C1_DO_SEND_RESTART_WRITE
  6523 ;;		_I2C1_DO_SEND_RESTART
  6524 ;;		_I2C1_DO_RX_EMPTY
  6525 ;; This function uses a non-reentrant model
  6526 ;;
  6527                           
  6528                           	psect	text75
  6529  001FE8                     __ptext75:
  6530                           	callstack 0
  6531  001FE8                     _I2C1_MasterEnableRestart:
  6532                           	callstack 19
  6533  001FE8                     
  6534                           ;mcc_generated_files/i2c1_master.c: 576:     SSP1CON2bits.RSEN = 1;
  6535  001FE8  82C5               	bsf	197,1,c	;volatile
  6536  001FEA  0012               	return		;funcret
  6537  001FEC                     __end_of_I2C1_MasterEnableRestart:
  6538                           	callstack 0
  6539                           
  6540 ;; *************** function _EUSART2_Transmit_ISR *****************
  6541 ;; Defined at:
  6542 ;;		line 206 in file "mcc_generated_files/eusart2.c"
  6543 ;; Parameters:    Size  Location     Type
  6544 ;;		None
  6545 ;; Auto vars:     Size  Location     Type
  6546 ;;		None
  6547 ;; Return value:  Size  Location     Type
  6548 ;;                  1    wreg      void 
  6549 ;; Registers used:
  6550 ;;		wreg, fsr2l, fsr2h, status,2, status,0
  6551 ;; Tracked objects:
  6552 ;;		On entry : 0/0
  6553 ;;		On exit  : 0/0
  6554 ;;		Unchanged: 0/0
  6555 ;; Data sizes:     COMRAM   BANK0   BANK1   BANK2   BANK3   BANK4   BANK5   BANK6   BANK7   BANK8   BANK9  BANK10  BANK1
      +1  BANK12  BANK13  BANK14
  6556 ;;      Params:         0       0       0       0       0       0       0       0       0       0       0       0       
      +0       0       0       0
  6557 ;;      Locals:         0       0       0       0       0       0       0       0       0       0       0       0       
      +0       0       0       0
  6558 ;;      Temps:          0       0       0       0       0       0       0       0       0       0       0       0       
      +0       0       0       0
  6559 ;;      Totals:         0       0       0       0       0       0       0       0       0       0       0       0       
      +0       0       0       0
  6560 ;;Total ram usage:        0 bytes
  6561 ;; Hardware stack levels used: 1
  6562 ;; This function calls:
  6563 ;;		Nothing
  6564 ;; This function is called by:
  6565 ;;		_EUSART2_Initialize
  6566 ;;		_INTERRUPT_InterruptManager
  6567 ;; This function uses a non-reentrant model
  6568 ;;
  6569                           
  6570                           	psect	text76
  6571  001B8E                     __ptext76:
  6572                           	callstack 0
  6573  001B8E                     _EUSART2_Transmit_ISR:
  6574                           	callstack 23
  6575  001B8E                     
  6576                           ;mcc_generated_files/eusart2.c: 210:     if(sizeof(eusart2TxBuffer) > eusart2TxBufferRem
      +                          aining)
  6577  001B8E  0E08               	movlw	8
  6578  001B90  6047               	cpfslt	_eusart2TxBufferRemaining^0,c	;volatile
  6579  001B92  EFCD  F00D         	goto	i2u119_41
  6580  001B96  EFCF  F00D         	goto	i2u119_40
  6581  001B9A                     i2u119_41:
  6582  001B9A  EFE5  F00D         	goto	i2l216
  6583  001B9E                     i2u119_40:
  6584  001B9E                     
  6585                           ;mcc_generated_files/eusart2.c: 211:     {;mcc_generated_files/eusart2.c: 212:         T
      +                          XREG2 = eusart2TxBuffer[eusart2TxTail++];
  6586  001B9E  0EAC               	movlw	low _eusart2TxBuffer
  6587  001BA0  243F               	addwf	_eusart2TxTail^0,w,c	;volatile
  6588  001BA2  6ED9               	movwf	fsr2l,c
  6589  001BA4  6ADA               	clrf	fsr2h,c
  6590  001BA6  0E00               	movlw	high _eusart2TxBuffer
  6591  001BA8  22DA               	addwfc	fsr2h,f,c
  6592  001BAA  50DF               	movf	indf2,w,c
  6593  001BAC  6EA9               	movwf	169,c	;volatile
  6594  001BAE  2A3F               	incf	_eusart2TxTail^0,f,c	;volatile
  6595  001BB0                     
  6596                           ;mcc_generated_files/eusart2.c: 213:         if(sizeof(eusart2TxBuffer) <= eusart2TxTail
      +                          )
  6597  001BB0  0E07               	movlw	7
  6598  001BB2  643F               	cpfsgt	_eusart2TxTail^0,c	;volatile
  6599  001BB4  EFDE  F00D         	goto	i2u120_41
  6600  001BB8  EFE0  F00D         	goto	i2u120_40
  6601  001BBC                     i2u120_41:
  6602  001BBC  EFE2  F00D         	goto	i2l3354
  6603  001BC0                     i2u120_40:
  6604  001BC0                     
  6605                           ;mcc_generated_files/eusart2.c: 214:         {;mcc_generated_files/eusart2.c: 215:      
      +                                 eusart2TxTail = 0;
  6606  001BC0  0E00               	movlw	0
  6607  001BC2  6E3F               	movwf	_eusart2TxTail^0,c	;volatile
  6608  001BC4                     i2l3354:
  6609                           
  6610                           ;mcc_generated_files/eusart2.c: 217:         eusart2TxBufferRemaining++;
  6611  001BC4  2A47               	incf	_eusart2TxBufferRemaining^0,f,c	;volatile
  6612                           
  6613                           ;mcc_generated_files/eusart2.c: 218:     }
  6614  001BC6  EFE6  F00D         	goto	i2l219
  6615  001BCA                     i2l216:
  6616                           
  6617                           ;mcc_generated_files/eusart2.c: 220:     {;mcc_generated_files/eusart2.c: 221:         P
      +                          IE3bits.TX2IE = 0;
  6618  001BCA  98A3               	bcf	163,4,c	;volatile
  6619  001BCC                     i2l219:
  6620  001BCC  0012               	return		;funcret
  6621  001BCE                     __end_of_EUSART2_Transmit_ISR:
  6622                           	callstack 0
  6623                           
  6624 ;; *************** function _EUSART2_Receive_ISR *****************
  6625 ;; Defined at:
  6626 ;;		line 225 in file "mcc_generated_files/eusart2.c"
  6627 ;; Parameters:    Size  Location     Type
  6628 ;;		None
  6629 ;; Auto vars:     Size  Location     Type
  6630 ;;		None
  6631 ;; Return value:  Size  Location     Type
  6632 ;;                  1    wreg      void 
  6633 ;; Registers used:
  6634 ;;		wreg, fsr2l, fsr2h, status,2, status,0, pcl, pclath, pclatu, tosl, cstack
  6635 ;; Tracked objects:
  6636 ;;		On entry : 0/0
  6637 ;;		On exit  : 0/0
  6638 ;;		Unchanged: 0/0
  6639 ;; Data sizes:     COMRAM   BANK0   BANK1   BANK2   BANK3   BANK4   BANK5   BANK6   BANK7   BANK8   BANK9  BANK10  BANK1
      +1  BANK12  BANK13  BANK14
  6640 ;;      Params:         0       0       0       0       0       0       0       0       0       0       0       0       
      +0       0       0       0
  6641 ;;      Locals:         0       0       0       0       0       0       0       0       0       0       0       0       
      +0       0       0       0
  6642 ;;      Temps:          0       0       0       0       0       0       0       0       0       0       0       0       
      +0       0       0       0
  6643 ;;      Totals:         0       0       0       0       0       0       0       0       0       0       0       0       
      +0       0       0       0
  6644 ;;Total ram usage:        0 bytes
  6645 ;; Hardware stack levels used: 1
  6646 ;; Hardware stack levels required when called: 2
  6647 ;; This function calls:
  6648 ;;		Absolute function
  6649 ;;		_EUSART2_DefaultErrorHandler
  6650 ;;		_EUSART2_DefaultFramingErrorHandler
  6651 ;;		_EUSART2_DefaultOverrunErrorHandler
  6652 ;;		_EUSART2_RxDataHandler
  6653 ;; This function is called by:
  6654 ;;		_EUSART2_Initialize
  6655 ;;		_INTERRUPT_InterruptManager
  6656 ;; This function uses a non-reentrant model
  6657 ;;
  6658                           
  6659                           	psect	text77
  6660  001494                     __ptext77:
  6661                           	callstack 0
  6662  001494                     _EUSART2_Receive_ISR:
  6663                           	callstack 21
  6664  001494                     
  6665                           ;mcc_generated_files/eusart2.c: 228:     eusart2RxStatusBuffer[eusart2RxHead].status = 0
      +                          ;
  6666  001494  0E27               	movlw	low _eusart2RxStatusBuffer
  6667  001496  243E               	addwf	_eusart2RxHead^0,w,c	;volatile
  6668  001498  6ED9               	movwf	fsr2l,c
  6669  00149A  6ADA               	clrf	fsr2h,c
  6670  00149C  0E00               	movlw	high _eusart2RxStatusBuffer
  6671  00149E  22DA               	addwfc	fsr2h,f,c
  6672  0014A0  0E00               	movlw	0
  6673  0014A2  6EDF               	movwf	indf2,c
  6674  0014A4                     
  6675                           ;mcc_generated_files/eusart2.c: 230:     if(RCSTA2bits.FERR){
  6676  0014A4  A49C               	btfss	156,2,c	;volatile
  6677  0014A6  EF57  F00A         	goto	i2u121_41
  6678  0014AA  EF59  F00A         	goto	i2u121_40
  6679  0014AE                     i2u121_41:
  6680  0014AE  EF6E  F00A         	goto	i2l3364
  6681  0014B2                     i2u121_40:
  6682  0014B2                     
  6683                           ;mcc_generated_files/eusart2.c: 231:         eusart2RxStatusBuffer[eusart2RxHead].ferr =
      +                           1;
  6684  0014B2  0E27               	movlw	low _eusart2RxStatusBuffer
  6685  0014B4  243E               	addwf	_eusart2RxHead^0,w,c	;volatile
  6686  0014B6  6ED9               	movwf	fsr2l,c
  6687  0014B8  6ADA               	clrf	fsr2h,c
  6688  0014BA  0E00               	movlw	high _eusart2RxStatusBuffer
  6689  0014BC  22DA               	addwfc	fsr2h,f,c
  6690  0014BE  82DF               	bsf	indf2,1,c
  6691  0014C0                     
  6692                           ;mcc_generated_files/eusart2.c: 232:         EUSART2_FramingErrorHandler();
  6693  0014C0  D802               	call	i2u122_48
  6694  0014C2  EF6E  F00A         	goto	i2u122_49
  6695  0014C6                     i2u122_48:
  6696  0014C6  0005               	push	
  6697  0014C8  0100               	movlb	0	; () banked
  6698  0014CA  6EFA               	movwf	pclath,c
  6699  0014CC  51CF               	movf	_EUSART2_FramingErrorHandler& (0+255),w,b
  6700  0014CE  6EFD               	movwf	tosl,c
  6701  0014D0  51D0               	movf	(_EUSART2_FramingErrorHandler+1)& (0+255),w,b
  6702  0014D2  6EFE               	movwf	tosh,c
  6703  0014D4  50F8               	movf	tblptru,w,c
  6704  0014D6  6EFF               	movwf	tosu,c
  6705  0014D8  50FA               	movf	pclath,w,c
  6706  0014DA  0012               	return		;indir
  6707  0014DC                     i2u122_49:
  6708  0014DC                     i2l3364:
  6709                           
  6710                           ;mcc_generated_files/eusart2.c: 235:     if(RCSTA2bits.OERR){
  6711  0014DC  A29C               	btfss	156,1,c	;volatile
  6712  0014DE  EF73  F00A         	goto	i2u123_41
  6713  0014E2  EF75  F00A         	goto	i2u123_40
  6714  0014E6                     i2u123_41:
  6715  0014E6  EF8A  F00A         	goto	i2l3370
  6716  0014EA                     i2u123_40:
  6717  0014EA                     
  6718                           ;mcc_generated_files/eusart2.c: 236:         eusart2RxStatusBuffer[eusart2RxHead].oerr =
      +                           1;
  6719  0014EA  0E27               	movlw	low _eusart2RxStatusBuffer
  6720  0014EC  243E               	addwf	_eusart2RxHead^0,w,c	;volatile
  6721  0014EE  6ED9               	movwf	fsr2l,c
  6722  0014F0  6ADA               	clrf	fsr2h,c
  6723  0014F2  0E00               	movlw	high _eusart2RxStatusBuffer
  6724  0014F4  22DA               	addwfc	fsr2h,f,c
  6725  0014F6  84DF               	bsf	indf2,2,c
  6726  0014F8                     
  6727                           ;mcc_generated_files/eusart2.c: 237:         EUSART2_OverrunErrorHandler();
  6728  0014F8  D802               	call	i2u124_48
  6729  0014FA  EF8A  F00A         	goto	i2u124_49
  6730  0014FE                     i2u124_48:
  6731  0014FE  0005               	push	
  6732  001500  0100               	movlb	0	; () banked
  6733  001502  6EFA               	movwf	pclath,c
  6734  001504  51CD               	movf	_EUSART2_OverrunErrorHandler& (0+255),w,b
  6735  001506  6EFD               	movwf	tosl,c
  6736  001508  51CE               	movf	(_EUSART2_OverrunErrorHandler+1)& (0+255),w,b
  6737  00150A  6EFE               	movwf	tosh,c
  6738  00150C  50F8               	movf	tblptru,w,c
  6739  00150E  6EFF               	movwf	tosu,c
  6740  001510  50FA               	movf	pclath,w,c
  6741  001512  0012               	return		;indir
  6742  001514                     i2u124_49:
  6743  001514                     i2l3370:
  6744                           
  6745                           ;mcc_generated_files/eusart2.c: 240:     if(eusart2RxStatusBuffer[eusart2RxHead].status)
      +                          {
  6746  001514  0E27               	movlw	low _eusart2RxStatusBuffer
  6747  001516  243E               	addwf	_eusart2RxHead^0,w,c	;volatile
  6748  001518  6ED9               	movwf	fsr2l,c
  6749  00151A  6ADA               	clrf	fsr2h,c
  6750  00151C  0E00               	movlw	high _eusart2RxStatusBuffer
  6751  00151E  22DA               	addwfc	fsr2h,f,c
  6752  001520  50DF               	movf	indf2,w,c
  6753  001522  B4D8               	btfsc	status,2,c
  6754  001524  EF96  F00A         	goto	i2u125_41
  6755  001528  EF98  F00A         	goto	i2u125_40
  6756  00152C                     i2u125_41:
  6757  00152C  EFA8  F00A         	goto	i2l3374
  6758  001530                     i2u125_40:
  6759  001530                     
  6760                           ;mcc_generated_files/eusart2.c: 241:         EUSART2_ErrorHandler();
  6761  001530  D802               	call	i2u126_48
  6762  001532  EFA6  F00A         	goto	i2u126_49
  6763  001536                     i2u126_48:
  6764  001536  0005               	push	
  6765  001538  0100               	movlb	0	; () banked
  6766  00153A  6EFA               	movwf	pclath,c
  6767  00153C  51CB               	movf	_EUSART2_ErrorHandler& (0+255),w,b
  6768  00153E  6EFD               	movwf	tosl,c
  6769  001540  51CC               	movf	(_EUSART2_ErrorHandler+1)& (0+255),w,b
  6770  001542  6EFE               	movwf	tosh,c
  6771  001544  50F8               	movf	tblptru,w,c
  6772  001546  6EFF               	movwf	tosu,c
  6773  001548  50FA               	movf	pclath,w,c
  6774  00154A  0012               	return		;indir
  6775  00154C                     i2u126_49:
  6776                           
  6777                           ;mcc_generated_files/eusart2.c: 242:     } else {
  6778  00154C  EFAA  F00A         	goto	i2l226
  6779  001550                     i2l3374:
  6780                           
  6781                           ;mcc_generated_files/eusart2.c: 243:         EUSART2_RxDataHandler();
  6782  001550  EC87  F00E         	call	_EUSART2_RxDataHandler	;wreg free
  6783  001554                     i2l226:
  6784  001554  0012               	return		;funcret
  6785  001556                     __end_of_EUSART2_Receive_ISR:
  6786                           	callstack 0
  6787                           
  6788 ;; *************** function _EUSART2_DefaultOverrunErrorHandler *****************
  6789 ;; Defined at:
  6790 ;;		line 261 in file "mcc_generated_files/eusart2.c"
  6791 ;; Parameters:    Size  Location     Type
  6792 ;;		None
  6793 ;; Auto vars:     Size  Location     Type
  6794 ;;		None
  6795 ;; Return value:  Size  Location     Type
  6796 ;;                  1    wreg      void 
  6797 ;; Registers used:
  6798 ;;		None
  6799 ;; Tracked objects:
  6800 ;;		On entry : 0/0
  6801 ;;		On exit  : 0/0
  6802 ;;		Unchanged: 0/0
  6803 ;; Data sizes:     COMRAM   BANK0   BANK1   BANK2   BANK3   BANK4   BANK5   BANK6   BANK7   BANK8   BANK9  BANK10  BANK1
      +1  BANK12  BANK13  BANK14
  6804 ;;      Params:         0       0       0       0       0       0       0       0       0       0       0       0       
      +0       0       0       0
  6805 ;;      Locals:         0       0       0       0       0       0       0       0       0       0       0       0       
      +0       0       0       0
  6806 ;;      Temps:          0       0       0       0       0       0       0       0       0       0       0       0       
      +0       0       0       0
  6807 ;;      Totals:         0       0       0       0       0       0       0       0       0       0       0       0       
      +0       0       0       0
  6808 ;;Total ram usage:        0 bytes
  6809 ;; Hardware stack levels used: 1
  6810 ;; This function calls:
  6811 ;;		Nothing
  6812 ;; This function is called by:
  6813 ;;		_EUSART2_Initialize
  6814 ;;		_EUSART2_Receive_ISR
  6815 ;; This function uses a non-reentrant model
  6816 ;;
  6817                           
  6818                           	psect	text78
  6819  001FA8                     __ptext78:
  6820                           	callstack 0
  6821  001FA8                     _EUSART2_DefaultOverrunErrorHandler:
  6822                           	callstack 22
  6823  001FA8                     
  6824                           ;mcc_generated_files/eusart2.c: 264:     RCSTA2bits.CREN = 0;
  6825  001FA8  989C               	bcf	156,4,c	;volatile
  6826                           
  6827                           ;mcc_generated_files/eusart2.c: 265:     RCSTA2bits.CREN = 1;
  6828  001FAA  889C               	bsf	156,4,c	;volatile
  6829  001FAC  0012               	return		;funcret
  6830  001FAE                     __end_of_EUSART2_DefaultOverrunErrorHandler:
  6831                           	callstack 0
  6832                           
  6833 ;; *************** function _EUSART2_DefaultFramingErrorHandler *****************
  6834 ;; Defined at:
  6835 ;;		line 259 in file "mcc_generated_files/eusart2.c"
  6836 ;; Parameters:    Size  Location     Type
  6837 ;;		None
  6838 ;; Auto vars:     Size  Location     Type
  6839 ;;		None
  6840 ;; Return value:  Size  Location     Type
  6841 ;;                  1    wreg      void 
  6842 ;; Registers used:
  6843 ;;		None
  6844 ;; Tracked objects:
  6845 ;;		On entry : 0/0
  6846 ;;		On exit  : 0/0
  6847 ;;		Unchanged: 0/0
  6848 ;; Data sizes:     COMRAM   BANK0   BANK1   BANK2   BANK3   BANK4   BANK5   BANK6   BANK7   BANK8   BANK9  BANK10  BANK1
      +1  BANK12  BANK13  BANK14
  6849 ;;      Params:         0       0       0       0       0       0       0       0       0       0       0       0       
      +0       0       0       0
  6850 ;;      Locals:         0       0       0       0       0       0       0       0       0       0       0       0       
      +0       0       0       0
  6851 ;;      Temps:          0       0       0       0       0       0       0       0       0       0       0       0       
      +0       0       0       0
  6852 ;;      Totals:         0       0       0       0       0       0       0       0       0       0       0       0       
      +0       0       0       0
  6853 ;;Total ram usage:        0 bytes
  6854 ;; Hardware stack levels used: 1
  6855 ;; This function calls:
  6856 ;;		Nothing
  6857 ;; This function is called by:
  6858 ;;		_EUSART2_Initialize
  6859 ;;		_EUSART2_Receive_ISR
  6860 ;; This function uses a non-reentrant model
  6861 ;;
  6862                           
  6863                           	psect	text79
  6864  001FEC                     __ptext79:
  6865                           	callstack 0
  6866  001FEC                     _EUSART2_DefaultFramingErrorHandler:
  6867                           	callstack 22
  6868  001FEC  0012               	return		;funcret
  6869  001FEE                     __end_of_EUSART2_DefaultFramingErrorHandler:
  6870                           	callstack 0
  6871                           
  6872 ;; *************** function _EUSART2_DefaultErrorHandler *****************
  6873 ;; Defined at:
  6874 ;;		line 269 in file "mcc_generated_files/eusart2.c"
  6875 ;; Parameters:    Size  Location     Type
  6876 ;;		None
  6877 ;; Auto vars:     Size  Location     Type
  6878 ;;		None
  6879 ;; Return value:  Size  Location     Type
  6880 ;;                  1    wreg      void 
  6881 ;; Registers used:
  6882 ;;		wreg, fsr2l, fsr2h, status,2, status,0, cstack
  6883 ;; Tracked objects:
  6884 ;;		On entry : 0/0
  6885 ;;		On exit  : 0/0
  6886 ;;		Unchanged: 0/0
  6887 ;; Data sizes:     COMRAM   BANK0   BANK1   BANK2   BANK3   BANK4   BANK5   BANK6   BANK7   BANK8   BANK9  BANK10  BANK1
      +1  BANK12  BANK13  BANK14
  6888 ;;      Params:         0       0       0       0       0       0       0       0       0       0       0       0       
      +0       0       0       0
  6889 ;;      Locals:         0       0       0       0       0       0       0       0       0       0       0       0       
      +0       0       0       0
  6890 ;;      Temps:          0       0       0       0       0       0       0       0       0       0       0       0       
      +0       0       0       0
  6891 ;;      Totals:         0       0       0       0       0       0       0       0       0       0       0       0       
      +0       0       0       0
  6892 ;;Total ram usage:        0 bytes
  6893 ;; Hardware stack levels used: 1
  6894 ;; Hardware stack levels required when called: 1
  6895 ;; This function calls:
  6896 ;;		_EUSART2_RxDataHandler
  6897 ;; This function is called by:
  6898 ;;		_EUSART2_Initialize
  6899 ;;		_EUSART2_Receive_ISR
  6900 ;; This function uses a non-reentrant model
  6901 ;;
  6902                           
  6903                           	psect	text80
  6904  001FAE                     __ptext80:
  6905                           	callstack 0
  6906  001FAE                     _EUSART2_DefaultErrorHandler:
  6907                           	callstack 21
  6908  001FAE                     
  6909                           ;mcc_generated_files/eusart2.c: 270:     EUSART2_RxDataHandler();
  6910  001FAE  EC87  F00E         	call	_EUSART2_RxDataHandler	;wreg free
  6911  001FB2  0012               	return		;funcret
  6912  001FB4                     __end_of_EUSART2_DefaultErrorHandler:
  6913                           	callstack 0
  6914                           
  6915 ;; *************** function _EUSART2_RxDataHandler *****************
  6916 ;; Defined at:
  6917 ;;		line 249 in file "mcc_generated_files/eusart2.c"
  6918 ;; Parameters:    Size  Location     Type
  6919 ;;		None
  6920 ;; Auto vars:     Size  Location     Type
  6921 ;;		None
  6922 ;; Return value:  Size  Location     Type
  6923 ;;                  1    wreg      void 
  6924 ;; Registers used:
  6925 ;;		wreg, fsr2l, fsr2h, status,2, status,0
  6926 ;; Tracked objects:
  6927 ;;		On entry : 0/0
  6928 ;;		On exit  : 0/0
  6929 ;;		Unchanged: 0/0
  6930 ;; Data sizes:     COMRAM   BANK0   BANK1   BANK2   BANK3   BANK4   BANK5   BANK6   BANK7   BANK8   BANK9  BANK10  BANK1
      +1  BANK12  BANK13  BANK14
  6931 ;;      Params:         0       0       0       0       0       0       0       0       0       0       0       0       
      +0       0       0       0
  6932 ;;      Locals:         0       0       0       0       0       0       0       0       0       0       0       0       
      +0       0       0       0
  6933 ;;      Temps:          0       0       0       0       0       0       0       0       0       0       0       0       
      +0       0       0       0
  6934 ;;      Totals:         0       0       0       0       0       0       0       0       0       0       0       0       
      +0       0       0       0
  6935 ;;Total ram usage:        0 bytes
  6936 ;; Hardware stack levels used: 1
  6937 ;; This function calls:
  6938 ;;		Nothing
  6939 ;; This function is called by:
  6940 ;;		_EUSART2_Receive_ISR
  6941 ;;		_EUSART2_DefaultErrorHandler
  6942 ;; This function uses a non-reentrant model
  6943 ;;
  6944                           
  6945                           	psect	text81
  6946  001D0E                     __ptext81:
  6947                           	callstack 0
  6948  001D0E                     _EUSART2_RxDataHandler:
  6949                           	callstack 22
  6950  001D0E                     
  6951                           ;mcc_generated_files/eusart2.c: 251:     eusart2RxBuffer[eusart2RxHead++] = RCREG2;
  6952  001D0E  0EA4               	movlw	low _eusart2RxBuffer
  6953  001D10  243E               	addwf	_eusart2RxHead^0,w,c	;volatile
  6954  001D12  6ED9               	movwf	fsr2l,c
  6955  001D14  6ADA               	clrf	fsr2h,c
  6956  001D16  0E00               	movlw	high _eusart2RxBuffer
  6957  001D18  22DA               	addwfc	fsr2h,f,c
  6958  001D1A  CFAA FFDF          	movff	4010,indf2	;volatile
  6959  001D1E  2A3E               	incf	_eusart2RxHead^0,f,c	;volatile
  6960  001D20                     
  6961                           ;mcc_generated_files/eusart2.c: 252:     if(sizeof(eusart2RxBuffer) <= eusart2RxHead)
  6962  001D20  0E07               	movlw	7
  6963  001D22  643E               	cpfsgt	_eusart2RxHead^0,c	;volatile
  6964  001D24  EF96  F00E         	goto	i2u94_41
  6965  001D28  EF98  F00E         	goto	i2u94_40
  6966  001D2C                     i2u94_41:
  6967  001D2C  EF9A  F00E         	goto	i2l2946
  6968  001D30                     i2u94_40:
  6969  001D30                     
  6970                           ;mcc_generated_files/eusart2.c: 253:     {;mcc_generated_files/eusart2.c: 254:         e
      +                          usart2RxHead = 0;
  6971  001D30  0E00               	movlw	0
  6972  001D32  6E3E               	movwf	_eusart2RxHead^0,c	;volatile
  6973  001D34                     i2l2946:
  6974                           
  6975                           ;mcc_generated_files/eusart2.c: 256:     eusart2RxCount++;
  6976  001D34  2A3C               	incf	_eusart2RxCount^0,f,c	;volatile
  6977  001D36  0012               	return		;funcret
  6978  001D38                     __end_of_EUSART2_RxDataHandler:
  6979                           	callstack 0
  6980                           
  6981                           	psect	text82
  6982  000000                     __ptext82:
  6983                           	callstack 0
  6984  000000                     
  6985                           	psect	rparam
  6986  0000                     
  6987                           	psect	temp
  6988  000048                     btemp:
  6989                           	callstack 0
  6990  000048                     	ds	1
  6991  0000                     int$flags	set	btemp
  6992  0000                     wtemp8	set	btemp+1
  6993  0000                     ttemp5	set	btemp+1
  6994  0000                     ttemp6	set	btemp+4
  6995  0000                     ttemp7	set	btemp+8
  6996                           
  6997                           	psect	config
  6998                           
  6999                           ;Config register CONFIG1L @ 0xFFF8
  7000                           ;	Watchdog Timer
  7001                           ;	WDTEN = OFF, Disabled - Controlled by SWDTEN bit
  7002                           ;	PLL Prescaler Selection
  7003                           ;	PLLDIV = 2, Divide by 2 (8 MHz oscillator input)
  7004                           ;	PLL Enable Configuration Bit
  7005                           ;	CFGPLLEN = ON, PLL Enabled
  7006                           ;	Stack Overflow/Underflow Reset
  7007                           ;	STVREN = ON, Enabled
  7008                           ;	Extended Instruction Set
  7009                           ;	XINST = OFF, Disabled
  7010  FFF8                     	org	65528
  7011  FFF8  AC                 	db	172
  7012                           
  7013                           ;Config register CONFIG1H @ 0xFFF9
  7014                           ;	CPU System Clock Postscaler
  7015                           ;	CPUDIV = OSC1, No CPU system clock divide
  7016                           ;	Code Protect
  7017                           ;	CP0 = OFF, Program memory is not code-protected
  7018  FFF9                     	org	65529
  7019  FFF9  F7                 	db	247
  7020                           
  7021                           ;Config register CONFIG2L @ 0xFFFA
  7022                           ;	Oscillator
  7023                           ;	OSC = INTOSCPLL, INTOSCPLL
  7024                           ;	T1OSC/SOSC Power Selection Bits
  7025                           ;	SOSCSEL = DIG, Digital (SCLKI) mode selected
  7026                           ;	EC Clock Out Enable Bit
  7027                           ;	CLKOEC = OFF, CLKO output disabled on the RA6 pin
  7028                           ;	Fail-Safe Clock Monitor
  7029                           ;	FCMEN = ON, Enabled
  7030                           ;	Internal External Oscillator Switch Over Mode
  7031                           ;	IESO = ON, Enabled
  7032  FFFA                     	org	65530
  7033  FFFA  D2                 	db	210
  7034                           
  7035                           ;Config register CONFIG2H @ 0xFFFB
  7036                           ;	Watchdog Postscaler
  7037                           ;	WDTPS = 32768, 1:32768
  7038  FFFB                     	org	65531
  7039  FFFB  FF                 	db	255
  7040                           
  7041                           ;Config register CONFIG3L @ 0xFFFC
  7042                           ;	DSWDT Clock Select
  7043                           ;	DSWDTOSC = INTOSCREF, DSWDT uses INTRC
  7044                           ;	RTCC Clock Select
  7045                           ;	RTCOSC = T1OSCREF, RTCC uses T1OSC/T1CKI
  7046                           ;	Deep Sleep BOR
  7047                           ;	DSBOREN = ON, Enabled
  7048                           ;	Deep Sleep Watchdog Timer
  7049                           ;	DSWDTEN = ON, Enabled
  7050                           ;	Deep Sleep Watchdog Postscaler
  7051                           ;	DSWDTPS = G2, 1:2,147,483,648 (25.7 days)
  7052  FFFC                     	org	65532
  7053  FFFC  FF                 	db	255
  7054                           
  7055                           ;Config register CONFIG3H @ 0xFFFD
  7056                           ;	IOLOCK One-Way Set Enable bit
  7057                           ;	IOL1WAY = ON, The IOLOCK bit (PPSCON<0>) can be set once
  7058                           ;	ADC 10 or 12 Bit Select
  7059                           ;	ADCSEL = BIT10, 10 - Bit ADC Enabled
  7060                           ;	MSSP address masking
  7061                           ;	MSSP7B_EN = MSK7, 7 Bit address masking mode
  7062  FFFD                     	org	65533
  7063  FFFD  FB                 	db	251
  7064                           
  7065                           ;Config register CONFIG4L @ 0xFFFE
  7066                           ;	Write/Erase Protect Page Start/End Location
  7067                           ;	WPFP = PAGE_63, Write Protect Program Flash Page 63
  7068                           ;	Write/Erase Protect Configuration Region
  7069                           ;	WPCFG = OFF, Configuration Words page not erase/write-protected
  7070  FFFE                     	org	65534
  7071  FFFE  BF                 	db	191
  7072                           
  7073                           ;Config register CONFIG4H @ 0xFFFF
  7074                           ;	Write Protect Disable bit
  7075                           ;	WPDIS = OFF, WPFP<6:0>/WPEND region ignored
  7076                           ;	Write/Erase Protect Region Select bit (valid when WPDIS = 0)
  7077                           ;	WPEND = PAGE_WPFP, Pages WPFP<6:0> through Configuration Words erase/write protected
  7078                           ;	Low Speed USB mode with 48 MHz system clock bit
  7079                           ;	LS48MHZ = SYS48X8, System clock at 48 MHz USB CLKEN divide-by is set to 8
  7080  FFFF                     	org	65535
  7081  FFFF  FB                 	db	251
  7082                           tosu	equ	0xFFF
  7083                           tosh	equ	0xFFE
  7084                           tosl	equ	0xFFD
  7085                           stkptr	equ	0xFFC
  7086                           pclatu	equ	0xFFB
  7087                           pclath	equ	0xFFA
  7088                           pcl	equ	0xFF9
  7089                           tblptru	equ	0xFF8
  7090                           tblptrh	equ	0xFF7
  7091                           tblptrl	equ	0xFF6
  7092                           tablat	equ	0xFF5
  7093                           prodh	equ	0xFF4
  7094                           prodl	equ	0xFF3
  7095                           indf0	equ	0xFEF
  7096                           postinc0	equ	0xFEE
  7097                           postdec0	equ	0xFED
  7098                           preinc0	equ	0xFEC
  7099                           plusw0	equ	0xFEB
  7100                           fsr0h	equ	0xFEA
  7101                           fsr0l	equ	0xFE9
  7102                           wreg	equ	0xFE8
  7103                           indf1	equ	0xFE7
  7104                           postinc1	equ	0xFE6
  7105                           postdec1	equ	0xFE5
  7106                           preinc1	equ	0xFE4
  7107                           plusw1	equ	0xFE3
  7108                           fsr1h	equ	0xFE2
  7109                           fsr1l	equ	0xFE1
  7110                           bsr	equ	0xFE0
  7111                           indf2	equ	0xFDF
  7112                           postinc2	equ	0xFDE
  7113                           postdec2	equ	0xFDD
  7114                           preinc2	equ	0xFDC
  7115                           plusw2	equ	0xFDB
  7116                           fsr2h	equ	0xFDA
  7117                           fsr2l	equ	0xFD9
  7118                           status	equ	0xFD8

Data Sizes:
    Strings     10
    Constant    32
    Data        0
    BSS         110
    Persistent  13
    Stack       0

Auto Spaces:
    Space          Size  Autos    Used
    COMRAM           94     38      71
    BANK0           160     23     113
    BANK1           256      0       0
    BANK2           256      0       0
    BANK3           256      0       0
    BANK4           256      0       0
    BANK5           256      0       0
    BANK6           256      0       0
    BANK7           256      0       0
    BANK8           256      0       0
    BANK9           256      0       0
    BANK10          256      0       0
    BANK11          256      0       0
    BANK12          256      0       0
    BANK13          256      0       0
    BANK14          176      0       0

Pointer List with Targets:

    I2C1_Read1ByteRegister@returnValue.data	PTR unsigned char  size(2) Largest target is 0

    I2C1_Read2ByteRegister@returnValue.data	PTR unsigned char  size(2) Largest target is 0

    I2C1_Write1ByteRegister@data.data	PTR unsigned char  size(2) Largest target is 0

    I2C1_Write2ByteRegister@data.data	PTR unsigned char  size(2) Largest target is 0

    I2C1_DO_TX$3101$0	PTR void  size(2) Largest target is 5
		 -> I2C1_ReadDataBlock@bufferBlock(COMRAM[4]), I2C1_Write2ByteRegister@data(COMRAM[2]), I2C1_Write1ByteRegister@data(COMRAM[1]), I2C1_Read2ByteRegister@returnValue(COMRAM[2]), 
		 -> NULL(NULL[0]), I2C1_Read1ByteRegister@returnValue(COMRAM[1]), 

    I2C1_DO_RX$3107$0	PTR void  size(2) Largest target is 5
		 -> I2C1_ReadDataBlock@bufferBlock(COMRAM[4]), I2C1_Write2ByteRegister@data(COMRAM[2]), I2C1_Write1ByteRegister@data(COMRAM[1]), I2C1_Read2ByteRegister@returnValue(COMRAM[2]), 
		 -> NULL(NULL[0]), I2C1_Read1ByteRegister@returnValue(COMRAM[1]), 

    I2C1_DO_TX_EMPTY$3113$0	PTR void  size(2) Largest target is 5
		 -> I2C1_ReadDataBlock@bufferBlock(COMRAM[4]), I2C1_Write2ByteRegister@data(COMRAM[2]), I2C1_Write1ByteRegister@data(COMRAM[1]), I2C1_Read2ByteRegister@returnValue(COMRAM[2]), 
		 -> NULL(NULL[0]), I2C1_Read1ByteRegister@returnValue(COMRAM[1]), 

    I2C1_DO_RX_EMPTY$3119$0	PTR void  size(2) Largest target is 5
		 -> I2C1_ReadDataBlock@bufferBlock(COMRAM[4]), I2C1_Write2ByteRegister@data(COMRAM[2]), I2C1_Write1ByteRegister@data(COMRAM[1]), I2C1_Read2ByteRegister@returnValue(COMRAM[2]), 
		 -> NULL(NULL[0]), I2C1_Read1ByteRegister@returnValue(COMRAM[1]), 

    I2C1_DO_TX_EMPTY$3118	PTR void  size(2) Largest target is 5
		 -> I2C1_ReadDataBlock@bufferBlock(COMRAM[4]), I2C1_Write2ByteRegister@data(COMRAM[2]), I2C1_Write1ByteRegister@data(COMRAM[1]), I2C1_Read2ByteRegister@returnValue(COMRAM[2]), 
		 -> NULL(NULL[0]), I2C1_Read1ByteRegister@returnValue(COMRAM[1]), 

    I2C1_DO_TX_EMPTY$3113	PTR FTN(PTR void ,)enum E360 size(2) Largest target is 1
		 -> I2C1_CallbackReturnReset(), I2C1_CallbackReturnStop(), Absolute function(), rdBlkRegCompleteHandler(), 
		 -> wr2RegCompleteHandler(), wr1RegCompleteHandler(), rd2RegCompleteHandler(), rd1RegCompleteHandler(), 

    I2C1_DO_RX$3112	PTR void  size(2) Largest target is 5
		 -> I2C1_ReadDataBlock@bufferBlock(COMRAM[4]), I2C1_Write2ByteRegister@data(COMRAM[2]), I2C1_Write1ByteRegister@data(COMRAM[1]), I2C1_Read2ByteRegister@returnValue(COMRAM[2]), 
		 -> NULL(NULL[0]), I2C1_Read1ByteRegister@returnValue(COMRAM[1]), 

    I2C1_DO_RX$3107	PTR FTN(PTR void ,)enum E360 size(2) Largest target is 1
		 -> I2C1_CallbackReturnReset(), I2C1_CallbackReturnStop(), Absolute function(), rdBlkRegCompleteHandler(), 
		 -> wr2RegCompleteHandler(), wr1RegCompleteHandler(), rd2RegCompleteHandler(), rd1RegCompleteHandler(), 

    I2C1_DO_TX$3106	PTR void  size(2) Largest target is 5
		 -> I2C1_ReadDataBlock@bufferBlock(COMRAM[4]), I2C1_Write2ByteRegister@data(COMRAM[2]), I2C1_Write1ByteRegister@data(COMRAM[1]), I2C1_Read2ByteRegister@returnValue(COMRAM[2]), 
		 -> NULL(NULL[0]), I2C1_Read1ByteRegister@returnValue(COMRAM[1]), 

    I2C1_DO_TX$3101	PTR FTN(PTR void ,)enum E360 size(2) Largest target is 1
		 -> I2C1_CallbackReturnReset(), I2C1_CallbackReturnStop(), Absolute function(), rdBlkRegCompleteHandler(), 
		 -> wr2RegCompleteHandler(), wr1RegCompleteHandler(), rd2RegCompleteHandler(), rd1RegCompleteHandler(), 

    I2C1_MasterFsm$3100	const PTR FTN()enum E6655 size(2) Largest target is 1
		 -> I2C1_DO_ADDRESS_NACK(), I2C1_DO_RESET(), I2C1_DO_RX_NACK_RESTART(), I2C1_DO_RX_NACK_STOP(), 
		 -> I2C1_DO_RX_ACK(), I2C1_DO_SEND_STOP(), I2C1_DO_SEND_RESTART(), I2C1_DO_SEND_RESTART_WRITE(), 
		 -> I2C1_DO_SEND_RESTART_READ(), I2C1_DO_TX_EMPTY(), I2C1_DO_RCEN(), I2C1_DO_RX(), 
		 -> I2C1_DO_TX(), I2C1_DO_SEND_ADR_WRITE(), I2C1_DO_SEND_ADR_READ(), I2C1_DO_IDLE(), 

    I2C1_CallbackReturnStop@funPtr	PTR void  size(2) Largest target is 5
		 -> I2C1_ReadDataBlock@bufferBlock(COMRAM[4]), I2C1_Write2ByteRegister@data(COMRAM[2]), I2C1_Write1ByteRegister@data(COMRAM[1]), I2C1_Read2ByteRegister@returnValue(COMRAM[2]), 
		 -> NULL(NULL[0]), I2C1_Read1ByteRegister@returnValue(COMRAM[1]), 

    I2C1_CallbackReturnReset@funPtr	PTR void  size(2) Largest target is 5
		 -> I2C1_ReadDataBlock@bufferBlock(COMRAM[4]), I2C1_Write2ByteRegister@data(COMRAM[2]), I2C1_Write1ByteRegister@data(COMRAM[1]), I2C1_Read2ByteRegister@returnValue(COMRAM[2]), 
		 -> NULL(NULL[0]), I2C1_Read1ByteRegister@returnValue(COMRAM[1]), 

    cb$0	PTR void  size(2) Largest target is 5
		 -> I2C1_ReadDataBlock@bufferBlock(COMRAM[4]), I2C1_Write2ByteRegister@data(COMRAM[2]), I2C1_Write1ByteRegister@data(COMRAM[1]), I2C1_Read2ByteRegister@returnValue(COMRAM[2]), 
		 -> NULL(NULL[0]), I2C1_Read1ByteRegister@returnValue(COMRAM[1]), 

    Absolute function$0	PTR void  size(2) Largest target is 5
		 -> I2C1_ReadDataBlock@bufferBlock(COMRAM[4]), I2C1_Write2ByteRegister@data(COMRAM[2]), I2C1_Write1ByteRegister@data(COMRAM[1]), I2C1_Read2ByteRegister@returnValue(COMRAM[2]), 
		 -> NULL(NULL[0]), I2C1_Read1ByteRegister@returnValue(COMRAM[1]), 

    cb$0	PTR void  size(2) Largest target is 5
		 -> I2C1_ReadDataBlock@bufferBlock(COMRAM[4]), I2C1_Write2ByteRegister@data(COMRAM[2]), I2C1_Write1ByteRegister@data(COMRAM[1]), I2C1_Read2ByteRegister@returnValue(COMRAM[2]), 
		 -> NULL(NULL[0]), I2C1_Read1ByteRegister@returnValue(COMRAM[1]), 

    vfpfcnvrt@ap	PTR PTR void  size(2) Largest target is 2
		 -> printf@ap(BANK0[2]), 

    S605$0$0	PTR void  size(2) Largest target is 5
		 -> I2C1_ReadDataBlock@bufferBlock(COMRAM[4]), I2C1_Write2ByteRegister@data(COMRAM[2]), I2C1_Write1ByteRegister@data(COMRAM[1]), I2C1_Read2ByteRegister@returnValue(COMRAM[2]), 
		 -> NULL(NULL[0]), I2C1_Read1ByteRegister@returnValue(COMRAM[1]), 

    ADC_InterruptHandler	PTR FTN()void  size(2) Largest target is 1
		 -> Absolute function(), 

    S2673$source	PTR const unsigned char  size(2) Largest target is 0

    fputc@fp...source	PTR const unsigned char  size(2) Largest target is 0

    S2673$buffer	PTR unsigned char  size(2) Largest target is 0

    fputc@fp...buffer	PTR unsigned char  size(2) Largest target is 0

    fputc@fp	PTR struct _IO_FILE size(2) Largest target is 0
		 -> NULL(NULL[0]), 

    vfprintf@ap	PTR PTR void  size(2) Largest target is 2
		 -> printf@ap(BANK0[2]), 

    vfprintf@fp	PTR struct _IO_FILE size(2) Largest target is 0
		 -> NULL(NULL[0]), 

    vfprintf@fmt	PTR const unsigned char  size(2) Largest target is 10
		 -> STR_1(CODE[10]), 

    vfprintf@cfmt	PTR unsigned char  size(2) Largest target is 10
		 -> STR_1(CODE[10]), 

    vfpfcnvrt@fp	PTR struct _IO_FILE size(2) Largest target is 0
		 -> NULL(NULL[0]), 

    vfpfcnvrt@fmt	PTR PTR unsigned char  size(2) Largest target is 2
		 -> vfprintf@cfmt(COMRAM[2]), 

    printf@fmt	PTR const unsigned char  size(2) Largest target is 10
		 -> STR_1(CODE[10]), 

    printf@ap	PTR void [1] size(2) Largest target is 2
		 -> ?_printf(COMRAM[2]), 

    I2C1_SetCallback@ptr	PTR void  size(2) Largest target is 5
		 -> I2C1_ReadDataBlock@bufferBlock(COMRAM[4]), I2C1_Write2ByteRegister@data(COMRAM[2]), I2C1_Write1ByteRegister@data(COMRAM[1]), I2C1_Read2ByteRegister@returnValue(COMRAM[2]), 
		 -> NULL(NULL[0]), I2C1_Read1ByteRegister@returnValue(COMRAM[1]), 

    I2C1_SetCallback@cb	PTR FTN(PTR void ,)enum E360 size(2) Largest target is 1
		 -> Absolute function(), rdBlkRegCompleteHandler(), wr2RegCompleteHandler(), wr1RegCompleteHandler(), 
		 -> rd2RegCompleteHandler(), rd1RegCompleteHandler(), 

    I2C1_SetInterruptHandler@InterruptHandler	PTR FTN()void  size(2) Largest target is 1
		 -> I2C1_MasterIsr(), 

    MSSP1_InterruptHandler	PTR FTN()void  size(2) Largest target is 1
		 -> I2C1_MasterIsr(), Absolute function(), 

    I2C1_SetAddressNackCallback@ptr	PTR void  size(2) Largest target is 0
		 -> NULL(NULL[0]), 

    I2C1_SetAddressNackCallback@cb	PTR FTN(PTR void ,)enum E360 size(2) Largest target is 1
		 -> Absolute function(), 

    I2C1_SetDataCompleteCallback@ptr	PTR void  size(2) Largest target is 5
		 -> I2C1_ReadDataBlock@bufferBlock(COMRAM[4]), I2C1_Write2ByteRegister@data(COMRAM[2]), I2C1_Write1ByteRegister@data(COMRAM[1]), I2C1_Read2ByteRegister@returnValue(COMRAM[2]), 
		 -> NULL(NULL[0]), I2C1_Read1ByteRegister@returnValue(COMRAM[1]), 

    I2C1_SetDataCompleteCallback@cb	PTR FTN(PTR void ,)enum E360 size(2) Largest target is 1
		 -> Absolute function(), rdBlkRegCompleteHandler(), wr2RegCompleteHandler(), wr1RegCompleteHandler(), 
		 -> rd2RegCompleteHandler(), rd1RegCompleteHandler(), 

    I2C1_SetBuffer@buffer	PTR void  size(2) Largest target is 5
		 -> I2C1_ReadDataBlock@reg(COMRAM[1]), I2C1_ReadDataBlock@bufferBlock(COMRAM[4]), I2C1_Write2ByteRegister@reg(COMRAM[1]), I2C1_Write2ByteRegister@data(COMRAM[2]), 
		 -> I2C1_Write1ByteRegister@reg(COMRAM[1]), I2C1_Write1ByteRegister@data(COMRAM[1]), I2C1_Read2ByteRegister@reg(COMRAM[1]), I2C1_Read2ByteRegister@returnValue(COMRAM[2]), 
		 -> NULL(NULL[0]), I2C1_Read1ByteRegister@reg(COMRAM[1]), I2C1_Read1ByteRegister@returnValue(COMRAM[1]), 

    S605$data_ptr	PTR unsigned char  size(2) Largest target is 5
		 -> I2C1_ReadDataBlock@reg(COMRAM[1]), I2C1_ReadDataBlock@bufferBlock(COMRAM[4]), I2C1_Write2ByteRegister@reg(COMRAM[1]), I2C1_Write2ByteRegister@data(COMRAM[2]), 
		 -> I2C1_Write1ByteRegister@reg(COMRAM[1]), I2C1_Write1ByteRegister@data(COMRAM[1]), I2C1_Read2ByteRegister@reg(COMRAM[1]), I2C1_Read2ByteRegister@returnValue(COMRAM[2]), 
		 -> NULL(NULL[0]), I2C1_Read1ByteRegister@reg(COMRAM[1]), I2C1_Read1ByteRegister@returnValue(COMRAM[1]), 

    I2C1_Status.data_ptr	PTR unsigned char  size(2) Largest target is 5
		 -> I2C1_Read1ByteRegister@returnValue.data(COMRAM[3]), I2C1_Read2ByteRegister@returnValue.data(COMRAM[3]), I2C1_Write1ByteRegister@data.data(COMRAM[3]), I2C1_Write2ByteRegister@data.data(COMRAM[3]), 
		 -> I2C1_ReadDataBlock@reg(COMRAM[1]), I2C1_ReadDataBlock@bufferBlock(COMRAM[4]), bufferBlock.data(COMRAM[3]), I2C1_Write2ByteRegister@reg(COMRAM[1]), 
		 -> I2C1_Write2ByteRegister@data(COMRAM[2]), I2C1_Write1ByteRegister@reg(COMRAM[1]), I2C1_Write1ByteRegister@data(COMRAM[1]), I2C1_Read2ByteRegister@reg(COMRAM[1]), 
		 -> I2C1_Read2ByteRegister@returnValue(COMRAM[2]), NULL(NULL[0]), I2C1_Read1ByteRegister@reg(COMRAM[1]), I2C1_Read1ByteRegister@returnValue(COMRAM[1]), 

    S605$callbackPayload	PTR void [6] size(2) Largest target is 5
		 -> I2C1_ReadDataBlock@bufferBlock(COMRAM[4]), I2C1_Write2ByteRegister@data(COMRAM[2]), I2C1_Write1ByteRegister@data(COMRAM[1]), I2C1_Read2ByteRegister@returnValue(COMRAM[2]), 
		 -> NULL(NULL[0]), I2C1_Read1ByteRegister@returnValue(COMRAM[1]), 

    I2C1_Status.callbackPayload	PTR void [6] size(2) Largest target is 5
		 -> I2C1_ReadDataBlock@bufferBlock(COMRAM[4]), I2C1_Write2ByteRegister@data(COMRAM[2]), I2C1_Write1ByteRegister@data(COMRAM[1]), I2C1_Read2ByteRegister@returnValue(COMRAM[2]), 
		 -> NULL(NULL[0]), I2C1_Read1ByteRegister@returnValue(COMRAM[1]), 

    S605$callbackTable	PTR FTN(PTR void ,)enum E360[6] size(2) Largest target is 1
		 -> I2C1_CallbackReturnReset(), I2C1_CallbackReturnStop(), Absolute function(), rdBlkRegCompleteHandler(), 
		 -> wr2RegCompleteHandler(), wr1RegCompleteHandler(), rd2RegCompleteHandler(), rd1RegCompleteHandler(), 

    I2C1_Status.callbackTable	PTR FTN(PTR void ,)enum E360[6] size(2) Largest target is 1
		 -> I2C1_CallbackReturnReset(), I2C1_CallbackReturnStop(), Absolute function(), rdBlkRegCompleteHandler(), 
		 -> wr2RegCompleteHandler(), wr1RegCompleteHandler(), rd2RegCompleteHandler(), rd1RegCompleteHandler(), 

    i2c1_fsmStateTable	const PTR FTN()enum E6655[16] size(2) Largest target is 1
		 -> I2C1_DO_ADDRESS_NACK(), I2C1_DO_RESET(), I2C1_DO_RX_NACK_RESTART(), I2C1_DO_RX_NACK_STOP(), 
		 -> I2C1_DO_RX_ACK(), I2C1_DO_SEND_STOP(), I2C1_DO_SEND_RESTART(), I2C1_DO_SEND_RESTART_WRITE(), 
		 -> I2C1_DO_SEND_RESTART_READ(), I2C1_DO_TX_EMPTY(), I2C1_DO_RCEN(), I2C1_DO_RX(), 
		 -> I2C1_DO_TX(), I2C1_DO_SEND_ADR_WRITE(), I2C1_DO_SEND_ADR_READ(), I2C1_DO_IDLE(), 

    EUSART2_SetRxInterruptHandler@interruptHandler	PTR FTN()void  size(2) Largest target is 1
		 -> EUSART2_Receive_ISR(), 

    EUSART2_RxDefaultInterruptHandler	PTR FTN()void  size(2) Largest target is 1
		 -> Absolute function(), EUSART2_Receive_ISR(), 

    EUSART2_SetTxInterruptHandler@interruptHandler	PTR FTN()void  size(2) Largest target is 1
		 -> EUSART2_Transmit_ISR(), 

    EUSART2_TxDefaultInterruptHandler	PTR FTN()void  size(2) Largest target is 1
		 -> Absolute function(), EUSART2_Transmit_ISR(), 

    EUSART2_SetErrorHandler@interruptHandler	PTR FTN()void  size(2) Largest target is 1
		 -> EUSART2_DefaultErrorHandler(), 

    EUSART2_SetOverrunErrorHandler@interruptHandler	PTR FTN()void  size(2) Largest target is 1
		 -> EUSART2_DefaultOverrunErrorHandler(), 

    EUSART2_SetFramingErrorHandler@interruptHandler	PTR FTN()void  size(2) Largest target is 1
		 -> EUSART2_DefaultFramingErrorHandler(), 

    EUSART2_ErrorHandler	PTR FTN()void  size(2) Largest target is 1
		 -> Absolute function(), EUSART2_DefaultErrorHandler(), 

    EUSART2_OverrunErrorHandler	PTR FTN()void  size(2) Largest target is 1
		 -> Absolute function(), EUSART2_DefaultOverrunErrorHandler(), 

    EUSART2_FramingErrorHandler	PTR FTN()void  size(2) Largest target is 1
		 -> Absolute function(), EUSART2_DefaultFramingErrorHandler(), 

    rdBlkRegCompleteHandler@ptr.data	PTR unsigned char  size(2) Largest target is 0

    rdBlkRegCompleteHandler@ptr	PTR void  size(2) Largest target is 5
		 -> I2C1_ReadDataBlock@bufferBlock(COMRAM[4]), I2C1_Write2ByteRegister@data(COMRAM[2]), I2C1_Write1ByteRegister@data(COMRAM[1]), I2C1_Read2ByteRegister@returnValue(COMRAM[2]), 
		 -> NULL(NULL[0]), I2C1_Read1ByteRegister@returnValue(COMRAM[1]), 

    wr2RegCompleteHandler@ptr	PTR void  size(2) Largest target is 5
		 -> I2C1_ReadDataBlock@bufferBlock(COMRAM[4]), I2C1_Write2ByteRegister@data(COMRAM[2]), I2C1_Write1ByteRegister@data(COMRAM[1]), I2C1_Read2ByteRegister@returnValue(COMRAM[2]), 
		 -> NULL(NULL[0]), I2C1_Read1ByteRegister@returnValue(COMRAM[1]), 

    wr1RegCompleteHandler@ptr	PTR void  size(2) Largest target is 5
		 -> I2C1_ReadDataBlock@bufferBlock(COMRAM[4]), I2C1_Write2ByteRegister@data(COMRAM[2]), I2C1_Write1ByteRegister@data(COMRAM[1]), I2C1_Read2ByteRegister@returnValue(COMRAM[2]), 
		 -> NULL(NULL[0]), I2C1_Read1ByteRegister@returnValue(COMRAM[1]), 

    rd2RegCompleteHandler@ptr	PTR void  size(2) Largest target is 5
		 -> I2C1_ReadDataBlock@bufferBlock(COMRAM[4]), I2C1_Write2ByteRegister@data(COMRAM[2]), I2C1_Write1ByteRegister@data(COMRAM[1]), I2C1_Read2ByteRegister@returnValue(COMRAM[2]), 
		 -> NULL(NULL[0]), I2C1_Read1ByteRegister@returnValue(COMRAM[1]), 

    rd1RegCompleteHandler@ptr	PTR void  size(2) Largest target is 5
		 -> I2C1_ReadDataBlock@bufferBlock(COMRAM[4]), I2C1_Write2ByteRegister@data(COMRAM[2]), I2C1_Write1ByteRegister@data(COMRAM[1]), I2C1_Read2ByteRegister@returnValue(COMRAM[2]), 
		 -> NULL(NULL[0]), I2C1_Read1ByteRegister@returnValue(COMRAM[1]), 

    S97$data	PTR unsigned char  size(2) Largest target is 0

    bufferBlock.data	PTR unsigned char  size(2) Largest target is 0


Critical Paths under _main in COMRAM

    _main->_printf
    _printf->_vfprintf
    _vfpfcnvrt->_fputc
    _fputc->_putch
    _putch->_EUSART2_Write
    _SYSTEM_Initialize->_TMR1_Initialize
    _EUSART2_Initialize->_EUSART2_SetErrorHandler
    _EUSART2_Initialize->_EUSART2_SetFramingErrorHandler
    _EUSART2_Initialize->_EUSART2_SetOverrunErrorHandler
    _EUSART2_Initialize->_EUSART2_SetRxInterruptHandler
    _EUSART2_Initialize->_EUSART2_SetTxInterruptHandler
    _I2C1_Write1ByteRegister->_I2C1_SetAddressNackCallback
    _I2C1_Write1ByteRegister->_I2C1_SetDataCompleteCallback
    _I2C1_SetDataCompleteCallback->_I2C1_SetCallback
    _I2C1_SetAddressNackCallback->_I2C1_SetCallback
    _I2C1_Open->_I2C1_SetInterruptHandler
    _I2C1_MasterWrite->_I2C1_MasterOperation

Critical Paths under _INTERRUPT_InterruptManager in COMRAM

    _I2C1_MasterFsm->_I2C1_DO_ADDRESS_NACK
    _I2C1_MasterFsm->_I2C1_DO_RX
    _I2C1_MasterFsm->_I2C1_DO_TX
    _I2C1_MasterFsm->_I2C1_DO_TX_EMPTY
    _I2C1_DO_TX_EMPTY->_I2C1_CallbackReturnReset
    _I2C1_DO_TX_EMPTY->_I2C1_CallbackReturnStop
    _I2C1_DO_TX_EMPTY->_rd1RegCompleteHandler
    _I2C1_DO_TX_EMPTY->_rd2RegCompleteHandler
    _I2C1_DO_TX_EMPTY->_rdBlkRegCompleteHandler
    _I2C1_DO_TX_EMPTY->_wr1RegCompleteHandler
    _I2C1_DO_TX_EMPTY->_wr2RegCompleteHandler
    _I2C1_DO_TX->_I2C1_CallbackReturnReset
    _I2C1_DO_TX->_I2C1_CallbackReturnStop
    _I2C1_DO_TX->_rd1RegCompleteHandler
    _I2C1_DO_TX->_rd2RegCompleteHandler
    _I2C1_DO_TX->_rdBlkRegCompleteHandler
    _I2C1_DO_TX->_wr1RegCompleteHandler
    _I2C1_DO_TX->_wr2RegCompleteHandler
    _I2C1_DO_SEND_ADR_WRITE->_I2C1_MasterSendTxData
    _I2C1_DO_RX->_I2C1_CallbackReturnReset
    _I2C1_DO_RX->_I2C1_CallbackReturnStop
    _I2C1_DO_RX->_rd1RegCompleteHandler
    _I2C1_DO_RX->_rd2RegCompleteHandler
    _I2C1_DO_RX->_rdBlkRegCompleteHandler
    _I2C1_DO_RX->_wr1RegCompleteHandler
    _I2C1_DO_RX->_wr2RegCompleteHandler
    _I2C1_DO_ADDRESS_NACK->_I2C1_CallbackReturnReset
    _I2C1_DO_ADDRESS_NACK->_I2C1_CallbackReturnStop
    _I2C1_DO_ADDRESS_NACK->_rd1RegCompleteHandler
    _I2C1_DO_ADDRESS_NACK->_rd2RegCompleteHandler
    _I2C1_DO_ADDRESS_NACK->_rdBlkRegCompleteHandler
    _I2C1_DO_ADDRESS_NACK->_wr1RegCompleteHandler
    _I2C1_DO_ADDRESS_NACK->_wr2RegCompleteHandler
    _wr2RegCompleteHandler->i2_I2C1_SetDataCompleteCallback
    _wr1RegCompleteHandler->i2_I2C1_SetDataCompleteCallback
    _rdBlkRegCompleteHandler->i2_I2C1_SetDataCompleteCallback
    _rd2RegCompleteHandler->i2_I2C1_SetDataCompleteCallback
    _rd1RegCompleteHandler->i2_I2C1_SetDataCompleteCallback
    i2_I2C1_SetDataCompleteCallback->i2_I2C1_SetCallback

Critical Paths under _main in BANK0

    _main->_printf
    _printf->_vfprintf
    _vfprintf->_vfpfcnvrt

Critical Paths under _INTERRUPT_InterruptManager in BANK0

    None.

Critical Paths under _main in BANK1

    None.

Critical Paths under _INTERRUPT_InterruptManager in BANK1

    None.

Critical Paths under _main in BANK2

    None.

Critical Paths under _INTERRUPT_InterruptManager in BANK2

    None.

Critical Paths under _main in BANK3

    None.

Critical Paths under _INTERRUPT_InterruptManager in BANK3

    None.

Critical Paths under _main in BANK4

    None.

Critical Paths under _INTERRUPT_InterruptManager in BANK4

    None.

Critical Paths under _main in BANK5

    None.

Critical Paths under _INTERRUPT_InterruptManager in BANK5

    None.

Critical Paths under _main in BANK6

    None.

Critical Paths under _INTERRUPT_InterruptManager in BANK6

    None.

Critical Paths under _main in BANK7

    None.

Critical Paths under _INTERRUPT_InterruptManager in BANK7

    None.

Critical Paths under _main in BANK8

    None.

Critical Paths under _INTERRUPT_InterruptManager in BANK8

    None.

Critical Paths under _main in BANK9

    None.

Critical Paths under _INTERRUPT_InterruptManager in BANK9

    None.

Critical Paths under _main in BANK10

    None.

Critical Paths under _INTERRUPT_InterruptManager in BANK10

    None.

Critical Paths under _main in BANK11

    None.

Critical Paths under _INTERRUPT_InterruptManager in BANK11

    None.

Critical Paths under _main in BANK12

    None.

Critical Paths under _INTERRUPT_InterruptManager in BANK12

    None.

Critical Paths under _main in BANK13

    None.

Critical Paths under _INTERRUPT_InterruptManager in BANK13

    None.

Critical Paths under _main in BANK14

    None.

Critical Paths under _INTERRUPT_InterruptManager in BANK14

    None.

Call Graph Tables:

 ---------------------------------------------------------------------------------
 (Depth) Function   	        Calls       Base Space   Used Autos Params    Refs
 ---------------------------------------------------------------------------------
 (0) _main                                                 9     9      0   15399
                                             14 BANK0      9     9      0
            _I2C1_Write1ByteRegister
                  _SYSTEM_Initialize
                             _printf
 ---------------------------------------------------------------------------------
 (1) _printf                                               6     4      2    2132
                                             36 COMRAM     2     0      2
                                             12 BANK0      2     2      0
                           _vfprintf
 ---------------------------------------------------------------------------------
 (2) _vfprintf                                             8     2      6    1967
                                             34 COMRAM     2     2      0
                                              6 BANK0      6     0      6
                          _vfpfcnvrt
 ---------------------------------------------------------------------------------
 (3) _vfpfcnvrt                                           40    34      6    1506
                                              0 BANK0      6     0      6
                              _fputc
 ---------------------------------------------------------------------------------
 (4) _fputc                                                9     5      4     957
                                             25 COMRAM     9     5      4
                              _putch
 ---------------------------------------------------------------------------------
 (5) _putch                                                1     1      0      93
                                             24 COMRAM     1     1      0
                      _EUSART2_Write
 ---------------------------------------------------------------------------------
 (6) _EUSART2_Write                                        1     1      0      62
                                             23 COMRAM     1     1      0
 ---------------------------------------------------------------------------------
 (1) _SYSTEM_Initialize                                    0     0      0     605
                     _ADC_Initialize
                 _EUSART2_Initialize
                    _I2C1_Initialize
               _INTERRUPT_Initialize
              _OSCILLATOR_Initialize
             _PIN_MANAGER_Initialize
                    _TMR1_Initialize
                    _TMR2_Initialize
 ---------------------------------------------------------------------------------
 (2) _TMR2_Initialize                                      0     0      0       0
 ---------------------------------------------------------------------------------
 (2) _TMR1_Initialize                                      2     2      0       0
                                             23 COMRAM     2     2      0
 ---------------------------------------------------------------------------------
 (2) _PIN_MANAGER_Initialize                               0     0      0       0
 ---------------------------------------------------------------------------------
 (2) _OSCILLATOR_Initialize                                0     0      0       0
 ---------------------------------------------------------------------------------
 (2) _INTERRUPT_Initialize                                 0     0      0       0
 ---------------------------------------------------------------------------------
 (2) _I2C1_Initialize                                      0     0      0       0
 ---------------------------------------------------------------------------------
 (2) _EUSART2_Initialize                                   0     0      0     605
            _EUSART2_SetErrorHandler
     _EUSART2_SetFramingErrorHandler
     _EUSART2_SetOverrunErrorHandler
      _EUSART2_SetRxInterruptHandler
      _EUSART2_SetTxInterruptHandler
 ---------------------------------------------------------------------------------
 (3) _EUSART2_SetTxInterruptHandler                        2     0      2     121
                                             23 COMRAM     2     0      2
 ---------------------------------------------------------------------------------
 (3) _EUSART2_SetRxInterruptHandler                        2     0      2     121
                                             23 COMRAM     2     0      2
 ---------------------------------------------------------------------------------
 (3) _EUSART2_SetOverrunErrorHandler                       2     0      2     121
                                             23 COMRAM     2     0      2
 ---------------------------------------------------------------------------------
 (3) _EUSART2_SetFramingErrorHandler                       2     0      2     121
                                             23 COMRAM     2     0      2
 ---------------------------------------------------------------------------------
 (3) _EUSART2_SetErrorHandler                              2     0      2     121
                                             23 COMRAM     2     0      2
 ---------------------------------------------------------------------------------
 (2) _ADC_Initialize                                       0     0      0       0
 ---------------------------------------------------------------------------------
 (1) _I2C1_Write1ByteRegister                              3     1      2   12031
                                             32 COMRAM     3     1      2
                         _I2C1_Close
                   _I2C1_MasterWrite
                          _I2C1_Open
        _I2C1_SetAddressNackCallback
                     _I2C1_SetBuffer
       _I2C1_SetDataCompleteCallback
 ---------------------------------------------------------------------------------
 (2) _I2C1_SetDataCompleteCallback                         4     0      4    2629
                                             28 COMRAM     4     0      4
                   _I2C1_SetCallback
 ---------------------------------------------------------------------------------
 (2) _I2C1_SetBuffer                                       4     0      4    1872
                                             23 COMRAM     4     0      4
 ---------------------------------------------------------------------------------
 (2) _I2C1_SetAddressNackCallback                          4     0      4    2259
                                             28 COMRAM     4     0      4
                   _I2C1_SetCallback
 ---------------------------------------------------------------------------------
 (3) _I2C1_SetCallback                                     5     1      4    1117
                                             23 COMRAM     5     1      4
 ---------------------------------------------------------------------------------
 (2) _I2C1_Open                                            2     2      0     189
                                             25 COMRAM     2     2      0
                _I2C1_MasterClearIrq
               _I2C1_MasterEnableIrq
                    _I2C1_MasterOpen
           _I2C1_SetInterruptHandler
 ---------------------------------------------------------------------------------
 (3) _I2C1_SetInterruptHandler                             2     0      2     121
                                             23 COMRAM     2     0      2
 ---------------------------------------------------------------------------------
 (3) _I2C1_MasterOpen                                      0     0      0       0
 ---------------------------------------------------------------------------------
 (3) _I2C1_MasterEnableIrq                                 0     0      0       0
 ---------------------------------------------------------------------------------
 (2) _I2C1_MasterWrite                                     0     0      0      68
               _I2C1_MasterOperation
 ---------------------------------------------------------------------------------
 (3) _I2C1_MasterOperation                                 2     2      0      68
                                             23 COMRAM     2     2      0
                   _I2C1_MasterStart
 ---------------------------------------------------------------------------------
 (4) _I2C1_MasterStart                                     0     0      0       0
 ---------------------------------------------------------------------------------
 (2) _I2C1_Close                                           1     1      0      37
                                             23 COMRAM     1     1      0
                _I2C1_MasterClearIrq
                   _I2C1_MasterClose
              _I2C1_MasterDisableIrq
 ---------------------------------------------------------------------------------
 (3) _I2C1_MasterDisableIrq                                0     0      0       0
 ---------------------------------------------------------------------------------
 (3) _I2C1_MasterClose                                     0     0      0       0
 ---------------------------------------------------------------------------------
 (3) _I2C1_MasterClearIrq                                  0     0      0       0
 ---------------------------------------------------------------------------------
 Estimated maximum stack depth 6
 ---------------------------------------------------------------------------------
 (Depth) Function   	        Calls       Base Space   Used Autos Params    Refs
 ---------------------------------------------------------------------------------
 (7) _INTERRUPT_InterruptManager                          10    10      0   17934
                                             13 COMRAM    10    10      0
                   Absolute function *
                _EUSART2_Receive_ISR *
               _EUSART2_Transmit_ISR *
                     _I2C1_MasterIsr *
 ---------------------------------------------------------------------------------
 (8) _I2C1_MasterIsr                                       0     0      0   17934
                     _I2C1_MasterFsm
 ---------------------------------------------------------------------------------
 (9) _I2C1_MasterFsm                                       0     0      0   17934
               _I2C1_DO_ADDRESS_NACK *
                       _I2C1_DO_IDLE *
                       _I2C1_DO_RCEN *
                      _I2C1_DO_RESET *
                         _I2C1_DO_RX *
                     _I2C1_DO_RX_ACK *
            _I2C1_DO_RX_NACK_RESTART *
               _I2C1_DO_RX_NACK_STOP *
              _I2C1_DO_SEND_ADR_READ *
             _I2C1_DO_SEND_ADR_WRITE *
               _I2C1_DO_SEND_RESTART *
          _I2C1_DO_SEND_RESTART_READ *
         _I2C1_DO_SEND_RESTART_WRITE *
                  _I2C1_DO_SEND_STOP *
                         _I2C1_DO_TX *
                   _I2C1_DO_TX_EMPTY *
                  _I2C1_MasterIsNack
              i2_I2C1_MasterClearIrq
 ---------------------------------------------------------------------------------
 (10) i2_I2C1_MasterClearIrq                               0     0      0       0
 ---------------------------------------------------------------------------------
 (10) _I2C1_DO_TX_EMPTY                                    2     2      0    4467
                                             11 COMRAM     2     2      0
                   Absolute function *
           _I2C1_CallbackReturnReset *
            _I2C1_CallbackReturnStop *
               _I2C1_DO_SEND_RESTART
                  _I2C1_DO_SEND_STOP
                  _I2C1_MasterSetIrq
              _rd1RegCompleteHandler *
              _rd2RegCompleteHandler *
            _rdBlkRegCompleteHandler *
              _wr1RegCompleteHandler *
              _wr2RegCompleteHandler *
 ---------------------------------------------------------------------------------
 (11) _I2C1_MasterSetIrq                                   0     0      0       0
 ---------------------------------------------------------------------------------
 (10) _I2C1_DO_TX                                          2     2      0    4489
                                             11 COMRAM     2     2      0
                   Absolute function *
           _I2C1_CallbackReturnReset *
            _I2C1_CallbackReturnStop *
          _I2C1_DO_SEND_RESTART_READ
         _I2C1_DO_SEND_RESTART_WRITE
                  _I2C1_DO_SEND_STOP
                  _I2C1_MasterIsNack
              _I2C1_MasterSendTxData
              _rd1RegCompleteHandler *
              _rd2RegCompleteHandler *
            _rdBlkRegCompleteHandler *
              _wr1RegCompleteHandler *
              _wr2RegCompleteHandler *
 ---------------------------------------------------------------------------------
 (10) _I2C1_MasterIsNack                                   0     0      0       0
 ---------------------------------------------------------------------------------
 (11) _I2C1_DO_SEND_RESTART_WRITE                          0     0      0       0
           _I2C1_MasterEnableRestart
 ---------------------------------------------------------------------------------
 (11) _I2C1_DO_SEND_RESTART_READ                           0     0      0       0
           _I2C1_MasterEnableRestart
 ---------------------------------------------------------------------------------
 (10) _I2C1_DO_SEND_ADR_WRITE                              0     0      0      22
              _I2C1_MasterSendTxData
 ---------------------------------------------------------------------------------
 (10) _I2C1_DO_SEND_ADR_READ                               0     0      0      22
              _I2C1_MasterSendTxData
 ---------------------------------------------------------------------------------
 (11) _I2C1_MasterSendTxData                               1     1      0      22
                                              0 COMRAM     1     1      0
 ---------------------------------------------------------------------------------
 (10) _I2C1_DO_RX_ACK                                      0     0      0       0
                 _I2C1_MasterSendAck
 ---------------------------------------------------------------------------------
 (10) _I2C1_DO_RX                                          2     2      0    4467
                                             11 COMRAM     2     2      0
                   Absolute function *
           _I2C1_CallbackReturnReset *
            _I2C1_CallbackReturnStop *
            _I2C1_DO_RX_NACK_RESTART
               _I2C1_DO_RX_NACK_STOP
               _I2C1_MasterGetRxData
                 _I2C1_MasterSendAck
              _rd1RegCompleteHandler *
              _rd2RegCompleteHandler *
            _rdBlkRegCompleteHandler *
              _wr1RegCompleteHandler *
              _wr2RegCompleteHandler *
 ---------------------------------------------------------------------------------
 (11) _I2C1_MasterSendAck                                  0     0      0       0
 ---------------------------------------------------------------------------------
 (11) _I2C1_MasterGetRxData                                0     0      0       0
 ---------------------------------------------------------------------------------
 (10) _I2C1_DO_RX_NACK_STOP                                0     0      0       0
                _I2C1_MasterSendNack
 ---------------------------------------------------------------------------------
 (10) _I2C1_DO_RX_NACK_RESTART                             0     0      0       0
                _I2C1_MasterSendNack
 ---------------------------------------------------------------------------------
 (11) _I2C1_MasterSendNack                                 0     0      0       0
 ---------------------------------------------------------------------------------
 (10) _I2C1_DO_RESET                                       0     0      0       0
 ---------------------------------------------------------------------------------
 (10) _I2C1_DO_RCEN                                        0     0      0       0
                 _I2C1_MasterStartRx
 ---------------------------------------------------------------------------------
 (11) _I2C1_MasterStartRx                                  0     0      0       0
 ---------------------------------------------------------------------------------
 (10) _I2C1_DO_IDLE                                        0     0      0       0
 ---------------------------------------------------------------------------------
 (10) _I2C1_DO_ADDRESS_NACK                                2     2      0    4467
                                             11 COMRAM     2     2      0
                   Absolute function *
           _I2C1_CallbackReturnReset *
            _I2C1_CallbackReturnStop *
               _I2C1_DO_SEND_RESTART
                  _I2C1_DO_SEND_STOP
              _rd1RegCompleteHandler *
              _rd2RegCompleteHandler *
            _rdBlkRegCompleteHandler *
              _wr1RegCompleteHandler *
              _wr2RegCompleteHandler *
 ---------------------------------------------------------------------------------
 (11) _wr2RegCompleteHandler                               2     0      2     836
                                              9 COMRAM     2     0      2
                   i2_I2C1_SetBuffer
     i2_I2C1_SetDataCompleteCallback
 ---------------------------------------------------------------------------------
 (11) _wr1RegCompleteHandler                               2     0      2     836
                                              9 COMRAM     2     0      2
                   i2_I2C1_SetBuffer
     i2_I2C1_SetDataCompleteCallback
 ---------------------------------------------------------------------------------
 (11) _rdBlkRegCompleteHandler                             2     0      2     858
                                              9 COMRAM     2     0      2
                   i2_I2C1_SetBuffer
     i2_I2C1_SetDataCompleteCallback
 ---------------------------------------------------------------------------------
 (11) _rd2RegCompleteHandler                               2     0      2     836
                                              9 COMRAM     2     0      2
                   i2_I2C1_SetBuffer
     i2_I2C1_SetDataCompleteCallback
 ---------------------------------------------------------------------------------
 (11) _rd1RegCompleteHandler                               2     0      2     836
                                              9 COMRAM     2     0      2
                   i2_I2C1_SetBuffer
     i2_I2C1_SetDataCompleteCallback
 ---------------------------------------------------------------------------------
 (12) i2_I2C1_SetDataCompleteCallback                      4     0      4     510
                                              5 COMRAM     4     0      4
                 i2_I2C1_SetCallback
 ---------------------------------------------------------------------------------
 (13) i2_I2C1_SetCallback                                  5     1      4     206
                                              0 COMRAM     5     1      4
 ---------------------------------------------------------------------------------
 (12) i2_I2C1_SetBuffer                                    4     0      4     304
                                              0 COMRAM     4     0      4
 ---------------------------------------------------------------------------------
 (11) _I2C1_DO_SEND_STOP                                   0     0      0       0
                    _I2C1_MasterStop
 ---------------------------------------------------------------------------------
 (12) _I2C1_MasterStop                                     0     0      0       0
 ---------------------------------------------------------------------------------
 (11) _I2C1_DO_SEND_RESTART                                0     0      0       0
           _I2C1_MasterEnableRestart
 ---------------------------------------------------------------------------------
 (12) _I2C1_MasterEnableRestart                            0     0      0       0
 ---------------------------------------------------------------------------------
 (11) _I2C1_CallbackReturnStop                             2     0      2       0
                                              9 COMRAM     2     0      2
 ---------------------------------------------------------------------------------
 (11) _I2C1_CallbackReturnReset                            2     0      2     265
                                              9 COMRAM     2     0      2
 ---------------------------------------------------------------------------------
 (8) _EUSART2_Transmit_ISR                                 0     0      0       0
 ---------------------------------------------------------------------------------
 (8) _EUSART2_Receive_ISR                                  0     0      0       0
                   Absolute function *
        _EUSART2_DefaultErrorHandler *
 _EUSART2_DefaultFramingErrorHandler *
 _EUSART2_DefaultOverrunErrorHandler *
              _EUSART2_RxDataHandler
 ---------------------------------------------------------------------------------
 (9) _EUSART2_DefaultOverrunErrorHandler                   0     0      0       0
 ---------------------------------------------------------------------------------
 (9) _EUSART2_DefaultFramingErrorHandler                   0     0      0       0
 ---------------------------------------------------------------------------------
 (9) _EUSART2_DefaultErrorHandler                          0     0      0       0
              _EUSART2_RxDataHandler
 ---------------------------------------------------------------------------------
 (9) _EUSART2_RxDataHandler                                0     0      0       0
 ---------------------------------------------------------------------------------
 (11) Absolute function(Fake)                              2     0      2       0
 ---------------------------------------------------------------------------------
 Estimated maximum stack depth 13
 ---------------------------------------------------------------------------------

 Call Graph Graphs:

 _main (ROOT)
   _I2C1_Write1ByteRegister
     _I2C1_Close
       _I2C1_MasterClearIrq
       _I2C1_MasterClose
       _I2C1_MasterDisableIrq
     _I2C1_MasterWrite
       _I2C1_MasterOperation
         _I2C1_MasterStart
     _I2C1_Open
       _I2C1_MasterClearIrq
       _I2C1_MasterEnableIrq
       _I2C1_MasterOpen
       _I2C1_SetInterruptHandler
     _I2C1_SetAddressNackCallback
       _I2C1_SetCallback
     _I2C1_SetBuffer
     _I2C1_SetDataCompleteCallback
       _I2C1_SetCallback
   _SYSTEM_Initialize
     _ADC_Initialize
     _EUSART2_Initialize
       _EUSART2_SetErrorHandler
       _EUSART2_SetFramingErrorHandler
       _EUSART2_SetOverrunErrorHandler
       _EUSART2_SetRxInterruptHandler
       _EUSART2_SetTxInterruptHandler
     _I2C1_Initialize
     _INTERRUPT_Initialize
     _OSCILLATOR_Initialize
     _PIN_MANAGER_Initialize
     _TMR1_Initialize
     _TMR2_Initialize
   _printf
     _vfprintf
       _vfpfcnvrt
         _fputc
           _putch
             _EUSART2_Write

 _INTERRUPT_InterruptManager (ROOT)
   Absolute function(Fake) *
   _EUSART2_Receive_ISR *
     Absolute function(Fake) *
     _EUSART2_DefaultErrorHandler *
       _EUSART2_RxDataHandler
     _EUSART2_DefaultFramingErrorHandler *
     _EUSART2_DefaultOverrunErrorHandler *
     _EUSART2_RxDataHandler *
   _EUSART2_Transmit_ISR *
   _I2C1_MasterIsr *
     _I2C1_MasterFsm
       _I2C1_DO_ADDRESS_NACK *
         Absolute function(Fake) *
         _I2C1_CallbackReturnReset *
         _I2C1_CallbackReturnStop *
         _I2C1_DO_SEND_RESTART *
           _I2C1_MasterEnableRestart
         _I2C1_DO_SEND_STOP *
           _I2C1_MasterStop
         _rd1RegCompleteHandler *
           i2_I2C1_SetBuffer
           i2_I2C1_SetDataCompleteCallback
             i2_I2C1_SetCallback
         _rd2RegCompleteHandler *
           i2_I2C1_SetBuffer
           i2_I2C1_SetDataCompleteCallback
         _rdBlkRegCompleteHandler *
           i2_I2C1_SetBuffer
           i2_I2C1_SetDataCompleteCallback
         _wr1RegCompleteHandler *
           i2_I2C1_SetBuffer
           i2_I2C1_SetDataCompleteCallback
         _wr2RegCompleteHandler *
           i2_I2C1_SetBuffer
           i2_I2C1_SetDataCompleteCallback
       _I2C1_DO_IDLE *
       _I2C1_DO_RCEN *
         _I2C1_MasterStartRx
       _I2C1_DO_RESET *
       _I2C1_DO_RX *
         Absolute function(Fake) *
         _I2C1_CallbackReturnReset *
         _I2C1_CallbackReturnStop *
         _I2C1_DO_RX_NACK_RESTART *
           _I2C1_MasterSendNack
         _I2C1_DO_RX_NACK_STOP *
           _I2C1_MasterSendNack
         _I2C1_MasterGetRxData *
         _I2C1_MasterSendAck *
         _rd1RegCompleteHandler *
         _rd2RegCompleteHandler *
         _rdBlkRegCompleteHandler *
         _wr1RegCompleteHandler *
         _wr2RegCompleteHandler *
       _I2C1_DO_RX_ACK *
         _I2C1_MasterSendAck
       _I2C1_DO_RX_NACK_RESTART *
       _I2C1_DO_RX_NACK_STOP *
       _I2C1_DO_SEND_ADR_READ *
         _I2C1_MasterSendTxData
       _I2C1_DO_SEND_ADR_WRITE *
         _I2C1_MasterSendTxData
       _I2C1_DO_SEND_RESTART *
       _I2C1_DO_SEND_RESTART_READ *
         _I2C1_MasterEnableRestart
       _I2C1_DO_SEND_RESTART_WRITE *
         _I2C1_MasterEnableRestart
       _I2C1_DO_SEND_STOP *
       _I2C1_DO_TX *
         Absolute function(Fake) *
         _I2C1_CallbackReturnReset *
         _I2C1_CallbackReturnStop *
         _I2C1_DO_SEND_RESTART_READ *
         _I2C1_DO_SEND_RESTART_WRITE *
         _I2C1_DO_SEND_STOP *
         _I2C1_MasterIsNack *
         _I2C1_MasterSendTxData *
         _rd1RegCompleteHandler *
         _rd2RegCompleteHandler *
         _rdBlkRegCompleteHandler *
         _wr1RegCompleteHandler *
         _wr2RegCompleteHandler *
       _I2C1_DO_TX_EMPTY *
         Absolute function(Fake) *
         _I2C1_CallbackReturnReset *
         _I2C1_CallbackReturnStop *
         _I2C1_DO_SEND_RESTART *
         _I2C1_DO_SEND_STOP *
         _I2C1_MasterSetIrq *
         _rd1RegCompleteHandler *
         _rd2RegCompleteHandler *
         _rdBlkRegCompleteHandler *
         _wr1RegCompleteHandler *
         _wr2RegCompleteHandler *
       _I2C1_MasterIsNack *
       i2_I2C1_MasterClearIrq *

 Address spaces:
Name               Size   Autos  Total    Cost      Usage
BIGRAM             EAF      0       0      52        0.0%
BITBANK13          100      0       0      29        0.0%
BANK13             100      0       0      30        0.0%
BITBANK12          100      0       0      27        0.0%
BANK12             100      0       0      28        0.0%
BITBANK11          100      0       0      25        0.0%
BANK11             100      0       0      26        0.0%
BITBANK10          100      0       0      23        0.0%
BANK10             100      0       0      24        0.0%
BITBANK9           100      0       0      21        0.0%
BANK9              100      0       0      22        0.0%
BITBANK8           100      0       0      19        0.0%
BANK8              100      0       0      20        0.0%
BITBANK7           100      0       0      17        0.0%
BANK7              100      0       0      18        0.0%
BITBANK6           100      0       0      15        0.0%
BANK6              100      0       0      16        0.0%
BITBANK5           100      0       0      13        0.0%
BANK5              100      0       0      14        0.0%
BITBANK4           100      0       0      11        0.0%
BANK4              100      0       0      12        0.0%
BITBANK3           100      0       0       9        0.0%
BANK3              100      0       0      10        0.0%
BITBANK2           100      0       0       7        0.0%
BANK2              100      0       0       8        0.0%
BITBANK1           100      0       0       5        0.0%
BANK1              100      0       0       6        0.0%
BITBANK14           B0      0       0      31        0.0%
BANK14              B0      0       0      32        0.0%
BITBANK0            A0      0       0       3        0.0%
BANK0               A0     17      71       4       70.6%
BITCOMRAM           5E      0       0       0        0.0%
COMRAM              5E     26      47       1       75.5%
BITBIGSFRlllh       45      0       0      47        0.0%
BITBIGSFRllhh       32      0       0      44        0.0%
BITBIGSFRllllh      25      0       0      48        0.0%
BITBIGSFRhhhhl      1D      0       0      34        0.0%
BITBIGSFRlllllh     18      0       0      49        0.0%
BITBIGSFRhhhlll     15      0       0      36        0.0%
BITBIGSFRhhhhh       D      0       0      33        0.0%
BITBIGSFRlhll        9      0       0      43        0.0%
BITBIGSFRllllll      8      0       0      50        0.0%
BITBIGSFRlhlhhl      6      0       0      41        0.0%
BITBIGSFRllhlh       5      0       0      45        0.0%
BITBIGSFRlhlhhh      5      0       0      40        0.0%
BITBIGSFRhl          3      0       0      37        0.0%
BITBIGSFRhhhlhh      2      0       0      35        0.0%
BITBIGSFRllhll       2      0       0      46        0.0%
BITBIGSFRlhhh        1      0       0      38        0.0%
BITBIGSFRlhlhl       1      0       0      42        0.0%
BITBIGSFRlhhl        1      0       0      39        0.0%
BIGSFR               0      0       0     200        0.0%
BITSFR_2             0      0       0     200        0.0%
SFR_2                0      0       0     200        0.0%
BITSFR_1             0      0       0     200        0.0%
SFR_1                0      0       0     200        0.0%
BITSFR               0      0       0     200        0.0%
SFR                  0      0       0     200        0.0%
STACK                0      0       0       2        0.0%
NULL                 0      0       0       0        0.0%
ABS                  0      0      B8      51        0.0%
DATA                 0      0      B8      53        0.0%
CODE                 0      0       0       0        0.0%


Microchip Technology PIC18 Macro Assembler V2.35 build 20211206165544 
Symbol Table                                                                                   Fri Apr 08 18:42:01 2022

                        ?_EUSART2_RxDataHandler 0001                                              l53 1984  
                                           l203 1ACA                                             l204 1AE0  
                                           l213 1F10                                             l207 1B0C  
                                           l242 1F38                                             l403 1C32  
                                           l251 1F1A                                             l245 1F2E  
                                           l422 1DA8                                             l254 1F24  
                                           l415 1F54                                             l431 1E5E  
                                           l440 1F4C                                             l248 1F42  
                                           l409 1B4C                                             l425 1E46  
                                           l179 1916                                             l283 1DEE  
                                           l612 1FC2                                             l445 1828  
                                           l606 1FBA                                             l286 1E8A  
                                           l615 1FCA                                             l395 1E9E  
                                           l564 1E10                                             l718 1FB6  
                                           l567 1FC6                                             l399 169A  
                                           l752 1D0C                                             l585 1FBE  
                                           l658 1C06                                             l674 1EC2  
                                           l799 1E2E                                             _PR2 000FCB  
                             ?i2_I2C1_SetBuffer 0001                           ?_I2C1_MasterOperation 0001  
        __end_of_EUSART2_SetFramingErrorHandler 1F3A                  _EUSART2_SetFramingErrorHandler 1F30  
                               _timer1ReloadVal 0041                                 _TMR2_Initialize 1EB4  
                                           prod 000FF3                                             tosl 000FFD  
                                           wreg 000FE8                          ?_I2C1_MasterSendTxData 0001  
                                    _TXSTA2bits 000FA8                            _I2C1_DO_RX_NACK_STOP 1F5E  
                     ?_I2C1_MasterEnableRestart 0001                        fp__I2C1_DO_SEND_ADR_READ 0000  
                            ??i2_I2C1_SetBuffer 0005                         fp__I2C1_DO_SEND_RESTART 0000  
                          I2C1_SetBuffer@buffer 0018                         ??_rd2RegCompleteHandler 000C  
                                          l4000 18C0                                            l4010 18D4  
                                          l4002 18C4                                            l4012 18E0  
                                          l4004 18C8                                            l4020 1E8C  
                                          l1604 1730                                            l4014 18EC  
                                          l4006 18CC                                            l4022 1E9C  
                                          l4030 1E78                                            l4032 1E12  
                                          l4016 1914                                            l4008 18D0  
                                          l4024 1BCE                                            l4040 1CF0  
                                          l4200 0F56                                            l1553 1D5E  
                                          l4018 1FB4                                            l4026 1BDE  
                                          l4042 1CF2                                            l4034 1EB4  
                                          l4050 1A6A                                            l4210 0F9A  
                                          l4202 0F58                                            l4060 1944  
                                          l4028 1BEE                                            l4044 1D08  
                                          l4036 1EBC                                            l4052 1A92  
                                          l4300 11A6                                            l4220 0FBE  
                                          l4204 0F72                                            l4062 1958  
                                          l4054 191A                                            l4038 1CE4  
                                          l4070 1DD2                                            l4046 1A56  
                                          l4310 11E0                                            l4230 0FEC  
                                          l4206 0F7E                                            l1591 1AAE  
                                          l4064 196C                                            l4056 191A  
                                          l4080 1DE6                                            l4072 1DD6  
                                          l1592 1AB6                                            l4048 1A5E  
                                          l4320 122A                                            l4312 11EE  
                                          l4240 1030                                            l4232 0FF0  
                                          l4216 0FA0                                            l4208 0F8C  
                                          l4066 1970                                            l4058 1930  
                                          l4082 1DEA                                            l4074 1DDA  
                                          l1586 13CA                                            l4330 1264  
                                          l4314 11FC                                            l4306 11AA  
                                          l4250 105E                                            l4234 1000  
                                          l4226 0FC4                                            l4218 0FB0  
                                          l4076 1DDE                                            l4068 1DCE  
                                          l4084 1D38                                            l4340 12AE  
                                          l4332 1272                                            l4316 1216  
                                          l4308 11C6                                            l4252 1062  
                                          l4228 0FD2                                            l4236 1012  
                                          l4078 1DE2                                            l4086 1D42  
                                          l4342 12BC                                            l4334 1280  
                                          l4326 122E                                            l4318 121A  
                                          l4270 10C4                                            l4254 1072  
                                          l4246 1036                                            l4238 1022  
                                          l4190 0F34                                            l3800 1AF4  
                                          l4336 129A                                            l4328 124A  
                                          l4280 1120                                            l4272 10D4  
                                          l4264 1098                                            l4248 1044  
                                          l4256 1084                                            l4192 0F36  
                                          l4184 0F2C                                            l3810 1FBC  
                                          l3802 1B04                                            l4338 129E  
                                          l4290 115C                                            l4266 10A6  
                                          l4258 1092                                            l4274 10E2  
                                          l4194 0F38                                            l4186 0F30  
                                          l3804 1B08                                            l3820 16E8  
                                          l3812 169C                                            l3900 1386  
                                          l4292 116A                                            l4276 10E6  
                                          l4268 10C0                                            l4196 0F3A  
                                          l4188 0F32                                            l3830 1F30  
                                          l3806 1B0A                                            l3822 171E  
                                          l3814 16AE                                            l4294 1178  
                                          l4286 1126                                            l4278 10F6  
                                          l4198 0F3C                                            l3840 1DF0  
                                          l3920 161A                                            l3912 1600  
                                          l3832 1F26                                            l3808 1F0A  
                                          l3816 16C0                                            l3904 1394  
                                          l4296 1192                                            l4288 1142  
                                          l3850 1FC0                                            l3842 1DFE  
                                          l3930 162C                                            l3922 161C  
                                          l3914 1604                                            l3834 1F3A  
                                          l3826 1F1C                                            l3818 16CA  
                                          l3906 13B8                                            l4298 1196  
                                          l3852 1FC4                                            l3860 1B26  
                                          l3844 1E0E                                            l3836 1F44  
                                          l3940 1654                                            l3932 1634  
                                          l3924 161E                                            l3916 1614  
                                          l3828 1F12                                            l3838 1FC8  
                                          l3862 1B2A                                            l3870 1B4A  
                                          l3854 1B10                                            l3950 167C  
                                          l3942 165C                                            l3934 163C  
                                          l3926 1622                                            l3918 1618  
                                          l3790 1ABA                                            l3864 1B3A  
                                          l3856 1B14                                            l3848 1FB8  
                                          l3952 1688                                            l3944 1664  
                                          l3936 1644                                            l3928 162A  
                                          l3960 1698                                            l3792 1ABA  
                                          l3880 12DE                                            l3866 1B42  
                                          l3858 1B24                                            l3954 168C  
                                          l3946 166C                                            l3938 164C  
                                          l3874 17B2                                            l3970 1D9E  
                                          l3794 1AD8                                            l3890 1348  
                                          l3882 1302                                            l3980 1C08  
                                          l3868 1B46                                            l3956 1690  
                                          l3948 1674                                            l3876 17C4  
                                          l3972 1DA6                                            l3964 1E30  
                                          l3796 1AE2                                            l3892 1356  
                                          l3884 1310                                            l3990 1C30  
                                          l3982 1C0C                                            l3958 1694  
                                          l3878 17F8                                            l3974 1E48  
                                          l3966 1D86                                            l3798 1AF2  
                                          l3894 136A                                            l3886 1320  
                                          l3984 1C1C                                            l3976 1F4E  
                                          l3968 1D96                                            l3888 1324  
                                          l3986 1C20                                            l3994 18A4  
                                          l3898 1378                                            l3988 1C2C  
                                          l3996 18A6                                            l3998 18B2  
                                          STR_1 0F21                                            u2000 122A  
                                          u2001 1226                                            u2010 12AE  
                                          u2011 12AA                                            u2107 1208  
                                          u2027 0F48                                            u2117 1256  
                                          u2037 0F64                                            _LATA 000F89  
                                          _LATB 000F8A                                            u2127 128C  
                                          u2047 0FDE                                            _LATC 000F8B  
                                          u2137 12C8                                            u2057 1050  
                                          u2067 10B2                                            u1700 1B24  
                                          u1620 1ACA                                            u1701 1B20  
                                          u1621 1AC6                                            u2077 114E  
                                          u1710 1B3A                                            u1630 1AD8  
                                          u1711 1B36                                            u1631 1AD4  
                                          u2087 1184                                            u1720 17C4  
                                          u1800 1984                                            u1640 1B04  
                                          u1721 17C0                                            u1801 1980  
                                          u1641 1B00                                            u2097 11D2  
                                          u1650 16AE                                            u1730 1302  
                                          u1651 16AA                                            u1731 12FE  
                                          u1660 16C0                                            u1740 1348  
                                          u1661 16BC                                            u1741 1344  
                                          u1750 1614                                            u1670 16E8  
                                          u1751 1610                                            u1671 16E4  
                                          u1760 1D96                                            u1680 171E  
                                          u1761 1D92                                            u1681 171A  
                                          u1770 1C1C                                            u1690 1DFE  
                                          u1930 0FB0                                            u1771 1C18  
                                          u1691 1DFA                                            u1931 0FAC  
                                          u1780 1AAE                                            u1940 1000  
                                          u1781 1AAA                                            u1941 0FFC  
                                          u1790 1930                                            u1950 1022  
                                          u1791 192C                                            u1951 101E  
                                          u1960 1072                                            u1961 106E  
                                          u1970 10D4                                            u1971 10D0  
                                          u1980 10F6                                            u1981 10F2  
                                          u1990 11A6                                            u1991 11A2  
                                          i2l92 1CB6                                            i2l95 1C8A  
                                          i2l98 1C5E                                            _TMR2 000FCC  
                         ??_EUSART2_Receive_ISR 0001                         ??_wr2RegCompleteHandler 000C  
                              ??_I2C1_MasterFsm 000E                                ??_I2C1_MasterIsr 000E  
                                 _EUSART2_Write 1AB8                       ??_I2C1_CallbackReturnStop 000C  
                                          _dbuf 0084                                            _main 0F2C  
                                          _prec 0033                                            _nout 002F  
                                          fsr1h 000FE2                                            fsr2h 000FDA  
                                          indf2 000FDF                                            fsr1l 000FE1  
                                          fsr2l 000FD9                                            btemp 0048  
                                          prodh 000FF4                                            prodl 000FF3  
                                          start 013A                                ??_I2C1_SetBuffer 001C  
                  __end_of_EUSART2_Transmit_ISR 1BCE                                    ___param_bank 000000  
                            i2_I2C1_SetCallback 182A                   I2C1_CallbackReturnStop@funPtr 000A  
                 __end_of_OSCILLATOR_Initialize 1E8C                             ?i2_I2C1_SetCallback 0001  
                             __end_of_I2C1_Open 169C                                           ?_main 0001  
                                         _T1CON 000FCD                                           _T2CON 000FCA  
                                         i2l101 1CE2                                           i2l104 1B8C  
                                         i2l230 1D36                                           i2l216 1BCA  
                                         i2l233 1FEC                                           i2l226 1554  
                                         i2l219 1BCC                                           i2l236 1FAC  
                                         i2l422 1DCC                                           i2l239 1FB2  
                                         i2l425 1E76                                           i2l522 1F7C  
                                         i2l531 1F64                                           i2l516 1F8C  
                                         i2l452 1A54                                           i2l445 18A2  
                                         i2l461 1ED2                                           i2l525 1F74  
                                         i2l534 1F5C                                           i2l551 1FE2  
                                         i2l455 1F06                                           i2l519 1F84  
                                         i2l543 19F0                                           i2l615 1FCE  
                                         i2l464 145A                                           i2l480 158C  
                                         i2l528 1F6C                                           i2l448 1F9A  
                                         i2l481 15FC                                           i2l537 1EEE  
                                         i2l554 1FDE                                           i2l570 1FD6  
                                         i2l618 1FD2                                           i2l458 1EE2  
                                         i2l467 1492                                           i2l492 1EFA  
                                         i2l724 007A                                           i2l573 1F94  
                                         i2l733 010E                                           i2l582 1FDA  
                                         i2l726 00B4                                           i2l591 1EB2  
                                         i2l727 010E                                           i2l576 1FEA  
                                         i2l728 00EE                                           i2l594 1FA0  
                                         i2l498 17AE                                           i2l588 1FE6  
                                         i2l597 1FA6                      __end_of_i2c1_fsmStateTable 0F21  
                                  vfpfcnvrt@fmt 00B6                          ??_I2C1_MasterEnableIrq 0018  
                                         _TMR1H 000FCF                                           _TMR1L 000FCE  
                                         _TRISA 000F92                                           _TRISB 000F93  
                                         _TRISC 000F94                          ??_I2C1_MasterGetRxData 0001  
                         ?_I2C1_DO_RX_NACK_STOP 0001                      ??_I2C1_CallbackReturnReset 000C  
                             ??_I2C1_MasterOpen 0018                               ??_I2C1_MasterStop 0001  
                             ??_I2C1_Initialize 0018                                           _flags 0035  
                                         _fputc 169C                                           _width 0031  
                                         _putch 1F08                                           main@i 00C7  
                                         main@j 00CA                         __end_of_TMR1_Initialize 1D0E  
                                ?_EUSART2_Write 0001                                           pclath 000FFA  
                                         pclatu 000FFB                                           tablat 000FF5  
                          ??i2_I2C1_SetCallback 0005                                           ttemp5 0049  
                                         ttemp6 004C                                           ttemp7 0050  
                                         status 000FD8                                           wtemp8 0049  
                                  ??_I2C1_DO_RX 000C                                    ??_I2C1_DO_TX 000C  
                        ??_I2C1_DO_ADDRESS_NACK 000C                                    ??_I2C1_Close 0018  
         __end_of_EUSART2_SetTxInterruptHandler 1F1C                   _EUSART2_SetTxInterruptHandler 1F12  
                      fp__rd1RegCompleteHandler 0000                                 __initialization 1D60  
                                  __end_of_main 12DE                        fp__wr1RegCompleteHandler 0000  
                       __end_of_TMR2_Initialize 1EC4                     ?_INTERRUPT_InterruptManager 0001  
                  fp__I2C1_DO_SEND_RESTART_READ 0000                          ??_I2C1_MasterOperation 0018  
                                        ??_main 00C2                                   __activetblptr 000002  
           __end_of_EUSART2_DefaultErrorHandler 1FB4                     _EUSART2_DefaultErrorHandler 1FAE  
                            __end_of_I2C1_DO_RX 15FE                              __end_of_I2C1_DO_TX 1494  
                            __end_of_I2C1_Close 1C34                      __end_of_EUSART2_Initialize 1918  
                                        _ADCON0 000FC2                                          _ADCON1 000FC1  
                      _eusart2TxBufferRemaining 0047                                          ?_fputc 001A  
                                        _ADRESH 000FC4                                          _ADRESL 000FC3  
                                        _ANCON0 000F48                                          _ANCON1 000F49  
                                        ?_putch 0001                                          _T1GCON 000F9A  
                                        _ODCON1 000F42                                          _ODCON2 000F41  
                                        _ODCON3 000F40                                          i2l3000 1ED4  
                                        i2l3002 1ED8                                          i2l3010 1EC8  
                                        i2l3100 174C                                          i2l3004 1EE0  
                                        i2l3012 1ED0                                          i2l3020 13E4  
                                        i2l3008 1EC4                                          i2l3040 148A  
                                        i2l3024 13EC                                          i2l3016 13CC  
                                        i2l3112 1F66                                          i2l3120 1EE8  
                                        i2l3106 1754                                          i2l3042 1490  
                                        i2l3034 13FC                                          i2l3050 1556  
                                        i2l3114 1F6A                                          i2l3122 1EEC  
                                        i2l3130 1992                                          i2l3036 145E  
                                        i2l3028 13F4                                          i2l3052 1564  
                                        i2l3140 19A2                                          i2l3038 1470  
                                        i2l3054 156A                                          i2l3118 1EE4  
                                        i2l3134 199A                                          i2l3126 1986  
                                        i2l3064 1592                                          i2l3056 1582  
                                        i2l3080 1EF0                                          i2l3128 198A  
                                        i2l3090 173A                                          i2l3074 15A2  
                                        i2l3058 1586                                          i2l3082 1EF4  
                                        i2l3068 159A                                          i2l3084 1EF8  
                                        i2l3350 1BB0                                          i2l3094 1742  
                                        i2l3360 14B2                                          i2l3352 1BC0  
                                        i2l3344 1B8E                                          i2l2800 1FA2  
                                        i2l3096 1746                                          i2l3088 1732  
                                        i2l3370 1514                                          i2l3362 14C0  
                                        i2l3354 1BC4                                          i2l3346 1B9E  
                                        i2l2802 1DAA                                          i2l2810 1E60  
                                        i2l3178 1FCC                                          i2l3290 19F2  
                                        i2l3530 0032                                          i2l3372 1530  
                                        i2l3364 14DC                                          i2l3356 1494  
                                        i2l3348 1BAE                                          i2l2804 1DBA  
                                        i2l2812 1C8C                                          i2l2820 1C60  
                                        i2l2900 1F7A                                          i2l3292 19F6  
                                        i2l3540 0096                                          i2l3532 0040  
                                        i2l3286 1FA8                                          i2l3374 1550  
                                        i2l3366 14EA                                          i2l3358 14A4  
                                        i2l2806 1DC2                                          i2l2814 1CA0  
                                        i2l2822 1C74                                          i2l2830 1C48  
                                        i2l2910 1FDC                                          i2l4430 1788  
                                        i2l3294 1A06                                          i2l3542 00C2  
                                        i2l3534 004E                                          i2l3288 1FAE  
                                        i2l3368 14F8                                          i2l2808 1DCA  
                                        i2l2840 1CE0                                          i2l2816 1CB4  
                                        i2l2824 1C88                                          i2l2832 1C5C  
                                        i2l2904 1FD0                                          i2l4424 19DA  
                                        i2l3296 1A1A                                          i2l3392 1F96  
                                        i2l3544 00D0                                          i2l3536 005C  
                                        i2l2906 1FE0                                          i2l4426 15D6  
                                        i2l3298 1A20                                          i2l3546 00FC  
                                        i2l3538 0088                                          i2l2940 1D1E  
                                        i2l2836 1CB8                                          i2l2828 1C34  
                                        i2l2844 1B4E                                          i2l4428 1434  
                                        i2l2860 1F86                                          i2l2942 1D20  
                                        i2l2790 183E                                          i2l2838 1CCC  
                                        i2l2846 1B76                                          i2l2854 1EA0  
                                        i2l2862 1F8A                                          i2l2944 1D30  
                                        i2l2792 1872                                          i2l2848 1B8A  
                                        i2l2872 1F6E                                          i2l2946 1D34  
                                        i2l2938 1D0E                                          i2l2882 1F9C  
                                        i2l2858 1F90                                          i2l2866 1F7E  
                                        i2l2874 1F72                                          i2l2890 1F5E  
                                        i2l2796 1FE8                                          i2l2788 182C  
                                        i2l2868 1F82                                          i2l2892 1F62  
                                        i2l2884 1F56                                          i2l2798 1FE4  
                                        i2l2878 1FD4                                          i2l2886 1F5A  
                                        i2l2896 1FD8                                          i2l2992 1EFC  
                                        i2l2994 1F00                                          i2l2898 1F76  
                                        i2l2996 1F04                                          _RCREG2 000FAA  
                                        _RCSTA2 000F9C                                          _OSCCON 000FD3  
                                        _SPBRG2 000FAB                                          _RPOR17 000ED1  
                             ?_I2C1_MasterClose 0001                                          _TXREG2 000FA9  
                                        _TXSTA2 000FA8                         ??_I2C1_MasterDisableIrq 0018  
                             ?_I2C1_MasterStart 0001                               ?_I2C1_MasterWrite 0001  
                            ??_I2C1_MasterClose 0018                                _I2C1_DO_TX_EMPTY 1732  
                            ??_I2C1_MasterStart 0018                              ??_I2C1_MasterWrite 001A  
                                  vfprintf@cfmt 0023                        ?_I2C1_Write1ByteRegister 0021  
                                        clear_0 1D66                                          clear_1 1D72  
                                        isa$std 000001                     _EUSART2_FramingErrorHandler 00CF  
                                        _printf 1D38                        ??_I2C1_DO_SEND_ADR_WRITE 0002  
                             ?_I2C1_SetCallback 0018                          ??_I2C1_DO_RX_NACK_STOP 0001  
              __end_of_I2C1_SetInterruptHandler 1F4E                           _I2C1_DO_SEND_ADR_READ 1ED4  
                                        fputc@c 001A                   ?_I2C1_SetDataCompleteCallback 001D  
                            ??_I2C1_SetCallback 001C                                    __mediumconst 0000  
                                        tblptrh 000FF7                                          tblptrl 000FF6  
                                        tblptru 000FF8                            _EUSART2_Transmit_ISR 1B8E  
                              __end_of_vfprintf 1AB8                                 ??_EUSART2_Write 0018  
      I2C1_SetInterruptHandler@InterruptHandler 0018                         _I2C1_DO_RX_NACK_RESTART 1F56  
                    fp__I2C1_DO_RX_NACK_RESTART 0000                           i2_I2C1_MasterClearIrq 1FCC  
                               _eusart2RxBuffer 00A4                                ?_TMR1_Initialize 0001  
                             _SYSTEM_Initialize 1DCE                  I2C1_SetDataCompleteCallback@cb 001D  
              i2I2C1_SetDataCompleteCallback@cb 0006                                 _eusart2TxBuffer 00AC  
                                    __accesstop 0060                         __end_of__initialization 1D78  
               I2C1_MasterOperation@returnValue 0019                              ?_SYSTEM_Initialize 0001  
                                 ___rparam_used 000001                         ??_EUSART2_RxDataHandler 0001  
                       _rdBlkRegCompleteHandler 1B4E                      fp__rdBlkRegCompleteHandler 0000  
                                __pcstackCOMRAM 0001                             ??_SYSTEM_Initialize 001A  
              __end_of_I2C1_MasterEnableRestart 1FEC                                   __end_of_fputc 1732  
                ?_EUSART2_SetTxInterruptHandler 0018                                   __end_of_putch 1F12  
                              ?_TMR2_Initialize 0001                    ??_I2C1_DO_SEND_RESTART_WRITE 0001  
                       ??_I2C1_MasterSendTxData 0001                        ?_EUSART2_SetErrorHandler 0018  
                         ?_EUSART2_Transmit_ISR 0001                           __end_of_I2C1_DO_RESET 1EF0  
                                       ??_fputc 001E                       __end_of_SYSTEM_Initialize 1DF0  
                                       ??_putch 0019                                   _eusart2RxHead 003E  
                                 _eusart2TxHead 0040                                      __pbssBANK0 0060  
                                 _eusart2RxTail 003D                                   _eusart2TxTail 003F  
                 __end_of_rd2RegCompleteHandler 1C8C                            I2C1_Open@returnValue 001B  
              ??_EUSART2_SetFramingErrorHandler 001A                 ?_EUSART2_SetFramingErrorHandler 0018  
                                    __pnvCOMRAM 0041                   __end_of_wr2RegCompleteHandler 1CE4  
               __end_of_I2C1_Write1ByteRegister 1986                      i2I2C1_SetBuffer@bufferSize 0003  
                         _rd1RegCompleteHandler 1C8C                               _I2C1_DO_SEND_STOP 1F6E  
                         _wr1RegCompleteHandler 1C34                        rd1RegCompleteHandler@ptr 000A  
                                 fp__I2C1_DO_RX 0000                                   fp__I2C1_DO_TX 0000  
                               fp__I2C1_DO_IDLE 0000                                 fp__I2C1_DO_RCEN 0000  
                       fp__I2C1_DO_ADDRESS_NACK 0000                              ?_I2C1_DO_SEND_STOP 0001  
                               _I2C1_MasterOpen 1DF0                                 _I2C1_MasterStop 1FE4  
                               _I2C1_Initialize 1E8C                                         _ADCTRIG 000EB8  
                             fp__I2C1_DO_RX_ACK 0000                                         ?_printf 0025  
                        ?_I2C1_DO_SEND_ADR_READ 0001                             ??_I2C1_DO_SEND_STOP 0001  
                         _eusart2RxStatusBuffer 0027                                         _REFOCON 000F3D  
                             _I2C1_MasterIsNack 1EA0                                         _OSCCON2 000F87  
                                     _I2C1_Open 15FE                     __end_of_EUSART2_Receive_ISR 1556  
                     ??_I2C1_DO_RX_NACK_RESTART 0001                                         _OSCTUNE 000F9B  
                                       _SPBRGH2 000F7D                               _I2C1_MasterSetIrq 1FD0  
                                       _RPINR16 000EF7                                         i2u94_40 1D30  
                                       i2u94_41 1D2C                                         i2u87_40 183E  
                                       i2u87_41 183A                                         i2u88_40 1DBA  
                                       i2u88_41 1DB6                                         _SSP1ADD 000FC8  
                                       i2u89_40 1EB0                                         i2u89_41 1EAA  
                                       i2u89_46 1EB2                                         i2u99_40 13E0  
                                       i2u99_41 13DC                                         _SSP1BUF 000FC9  
                      _I2C1_SetInterruptHandler 1F44                              ?_I2C1_MasterIsNack 0001  
                        ?i2_I2C1_MasterClearIrq 0001                      ?_I2C1_DO_SEND_RESTART_READ 0001  
                ??_I2C1_SetDataCompleteCallback 0021                              ?_I2C1_MasterSetIrq 0001  
                            _i2c1_fsmStateTable 0F01                             ??_I2C1_MasterIsNack 0001  
                     __end_of_I2C1_DO_SEND_STOP 1F76                       ??_rdBlkRegCompleteHandler 000C  
                            I2C1_SetCallback@cb 0018                             ??_I2C1_MasterSetIrq 0001  
                          _ADC_InterruptHandler 0037                                         __Hparam 0000  
                                       __Lparam 0000                  fp__EUSART2_DefaultErrorHandler 0000  
                           fp__I2C1_DO_TX_EMPTY 0000                                       ?_vfprintf 00BA  
                                  __psmallconst 0F00                                         __pcinit 1D60  
               __end_of_EUSART2_SetErrorHandler 1F44                                   ?_I2C1_DO_IDLE 0001  
                                 ?_I2C1_DO_RCEN 0001                                         __ramtop 0F00  
                                       __ptext0 0F2C                                         __ptext1 1D38  
                                       __ptext2 1A56                                         __ptext3 12DE  
                                       __ptext4 169C                                         __ptext5 1F08  
                                       __ptext6 1AB8                                         __ptext7 1DCE  
                                       __ptext8 1EB4                                         __ptext9 1CE4  
                      _I2C1_MasterEnableRestart 1FE8                       __end_of_I2C1_MasterIsNack 1EB4  
                  ?_I2C1_SetAddressNackCallback 001D                                       _T1CONbits 000FCD  
         fp__EUSART2_DefaultOverrunErrorHandler 0000      __end_of_EUSART2_DefaultOverrunErrorHandler 1FAE  
          ??_EUSART2_DefaultOverrunErrorHandler 0001             ?_EUSART2_DefaultOverrunErrorHandler 0001  
            _EUSART2_DefaultOverrunErrorHandler 1FA8                           _OSCILLATOR_Initialize 1E78  
                        ??_EUSART2_Transmit_ISR 0001                                       _T2CONbits 000FCA  
                     __end_of_I2C1_MasterSetIrq 1FD4                        __end_of_I2C1_DO_TX_EMPTY 17B0  
                      ??_PIN_MANAGER_Initialize 0018                        wr1RegCompleteHandler@ptr 000A  
                                    ?_I2C1_Open 0001                         fp__I2C1_DO_RX_NACK_STOP 0000  
                      ?_I2C1_CallbackReturnStop 000A               __end_of_I2C1_DO_SEND_RESTART_READ 1F8E  
                          end_of_initialization 1D78                      __end_of_I2C1_MasterSendAck 1FA2  
                           _I2C1_MasterClearIrq 1FC8          __end_ofi2_I2C1_SetDataCompleteCallback 1E78  
                i2_I2C1_SetDataCompleteCallback 1E60                                         fputc@fp 001C  
                                 __Lmediumconst 0000                      __end_of_I2C1_MasterStartRx 1FDC  
                        ?_rd1RegCompleteHandler 000A                          _I2C1_DO_SEND_ADR_WRITE 1EC4  
                  __end_of_I2C1_DO_SEND_RESTART 1F7E                         __end_of_I2C1_MasterOpen 1E12  
                        ?_wr1RegCompleteHandler 000A                         __end_of_I2C1_MasterStop 1FE8  
                       __end_of_I2C1_Initialize 1EA0                       ?_I2C1_CallbackReturnReset 000A  
                            _EUSART2_Initialize 18A4                   __end_of_I2C1_MasterDisableIrq 1FC4  
                                   _I2C1_Status 0060                        fp__rd2RegCompleteHandler 0000  
                             __end_of_vfpfcnvrt 13CC                                         postdec2 000FDD  
                      fp__wr2RegCompleteHandler 0000                                         postinc0 000FEE  
                                       postinc1 000FE6                                         postinc2 000FDE  
                             fp__I2C1_MasterIsr 0000                             _I2C1_MasterSendNack 1FA2  
           __end_of_I2C1_SetAddressNackCallback 1E60                     _I2C1_SetAddressNackCallback 1E48  
                                    ??_vfprintf 0023                            ?_I2C1_MasterClearIrq 0001  
                                ??_I2C1_DO_IDLE 0001                                  ??_I2C1_DO_RCEN 0001  
            __end_of_I2C1_DO_SEND_RESTART_WRITE 1F86                      _I2C1_DO_SEND_RESTART_WRITE 1F7E  
                           ?_EUSART2_Initialize 0001                 __end_of_rdBlkRegCompleteHandler 1B8E  
                 ??_I2C1_SetAddressNackCallback 0021                 I2C1_SetDataCompleteCallback@ptr 001F  
             i2I2C1_SetDataCompleteCallback@ptr 0008                     I2C1_Write1ByteRegister@data 0022  
                I2C1_CallbackReturnReset@funPtr 000A                                      main@i_2230 00C5  
                                    main@i_2231 00C6                                      main@i_2227 00C8  
                                    main@i_2228 00C9                                      main@i_2229 00C4  
                          ?_I2C1_MasterSendNack 0001                            ??_EUSART2_Initialize 001A  
                    rdBlkRegCompleteHandler@ptr 000A                                i2_I2C1_SetBuffer 1DAA  
                 __end_of_EUSART2_RxDataHandler 1D38                    __end_of_INTERRUPT_Initialize 1FB8  
                         ??_I2C1_MasterClearIrq 0018                                     vfpfcnvrt@ap 00B8  
                                   vfpfcnvrt@fp 00B4                                  _I2C1_DO_RX_ACK 1F66  
                                _ADC_Initialize 1E12                          ?_OSCILLATOR_Initialize 0001  
               __end_of_I2C1_CallbackReturnStop 1FE4                                  __end_of_printf 1D60  
                 __end_of_I2C1_MasterSendTxData 1F96                             start_initialization 1D60  
                                   ??_I2C1_Open 001A                           ??_I2C1_MasterSendNack 0001  
 EUSART2_SetRxInterruptHandler@interruptHandler 0018   EUSART2_SetTxInterruptHandler@interruptHandler 0018  
                                   putch@txData 0019                           i2I2C1_SetCallback@idx 0005  
                         __end_of_EUSART2_Write 1B0E                           i2I2C1_SetCallback@ptr 0003  
                      I2C1_SetBuffer@bufferSize 001A                                ?_I2C1_MasterOpen 0001  
        __end_of_EUSART2_SetOverrunErrorHandler 1F30                  _EUSART2_SetOverrunErrorHandler 1F26  
                              ?_I2C1_MasterStop 0001                  I2C1_Write1ByteRegister@address 0023  
                              ?_I2C1_Initialize 0001                                     vfprintf@fmt 00BC  
                        __end_of_I2C1_DO_RX_ACK 1F6E                         ??_I2C1_DO_SEND_ADR_READ 0001  
                        __end_of_ADC_Initialize 1E30                      ??_I2C1_SetInterruptHandler 001A  
                                      ??_printf 0027                                I2C1_Open@address 001A  
                                _eusart2RxCount 003C                         ??i2_I2C1_MasterClearIrq 0001  
                                   __pbssCOMRAM 0027                            _I2C1_DO_SEND_RESTART 1F76  
                                 __pcstackBANK0 00B4                          i2I2C1_SetBuffer@buffer 0001  
                       fp__EUSART2_Transmit_ISR 0000                     ??_I2C1_DO_SEND_RESTART_READ 0001  
                           EUSART2_Write@txData 0018                            __end_of_I2C1_DO_IDLE 1F08  
               ??_EUSART2_SetRxInterruptHandler 001A                            __end_of_I2C1_DO_RCEN 1EFC  
                        fp__EUSART2_Receive_ISR 0000                   I2C1_SetAddressNackCallback@cb 001D  
                                     __pnvBANK0 00CB                           _rd2RegCompleteHandler 1C60  
                     fp__I2C1_DO_SEND_ADR_WRITE 0000                          _PIN_MANAGER_Initialize 1BCE  
                         _wr2RegCompleteHandler 1CB8                          _MSSP1_InterruptHandler 0039  
                    ??_I2C1_MasterEnableRestart 0001                        rd2RegCompleteHandler@ptr 000A  
                                     __pintcode 0008                                  _I2C1_MasterFsm 19F2  
                                _I2C1_MasterIsr 1F96                                fp__I2C1_DO_RESET 0000  
                               ?_I2C1_DO_RX_ACK 0001                                 ?_ADC_Initialize 0001  
             _EUSART2_TxDefaultInterruptHandler 0045                                _I2C1_MasterClose 1FC4  
                                _I2C1_SetBuffer 1D86                    ??_INTERRUPT_InterruptManager 000E  
                              _I2C1_MasterStart 1FBC                                _I2C1_MasterWrite 1F4E  
                                   __smallconst 0F00                         _I2C1_Write1ByteRegister 1918  
                                      _BAUDCON2 000F7C                           ?_I2C1_DO_SEND_RESTART 0001  
                  ?_EUSART2_DefaultErrorHandler 0001                               ?_I2C1_DO_TX_EMPTY 0001  
              __end_of_I2C1_CallbackReturnReset 1FE0                              ??_I2C1_DO_TX_EMPTY 000C  
                       ??_rd1RegCompleteHandler 000C                         ?_I2C1_DO_SEND_ADR_WRITE 0001  
                     I2C1_MasterSendTxData@data 0001                            _INTERRUPT_Initialize 1FB4  
                       ??_wr1RegCompleteHandler 000C                                _I2C1_SetCallback 17B0  
                                      _LATAbits 000F89         EUSART2_SetErrorHandler@interruptHandler 0018  
                                      _LATCbits 000F8B                                      _I2C1_DO_RX 1556  
                                    _I2C1_DO_TX 13CC                                        _PIE1bits 000F9D  
                                      _PIE2bits 000FA0                                        _PIE3bits 000FA3  
                                    _I2C1_Close 1C08                          __end_of_I2C1_MasterFsm 1A56  
                                      i2u101_40 148A                                        i2u100_48 140E  
                                      i2u101_41 1486                                        i2u100_49 1422  
                        __end_of_I2C1_MasterIsr 1F9C                                        i2u102_40 1582  
                                      i2u102_41 157E                                        i2u111_40 1A06  
                                      i2u111_41 1A02                    __end_of_I2C1_MasterEnableIrq 1FBC  
                                      i2u120_40 1BC0                                        i2u103_48 15B0  
                                      i2u112_40 1A1A                                        i2u120_41 1BBC  
                                      i2u103_49 15C4                                        i2u112_41 1A16  
                                      i2u121_40 14B2                                        i2u104_48 1762  
                                      i2u121_41 14AE                                        i2u104_49 1776  
                                      i2u105_48 19B4                                        i2u113_48 1A38  
                                      i2u105_49 19C8                                        i2u113_49 1A50  
                                      i2u123_40 14EA                                        i2u122_48 14C6  
                                      i2u123_41 14E6                                        i2u122_49 14DC  
                                      i2u125_40 1530                                        i2u124_48 14FE  
                                      i2u141_40 0040                                        i2u125_41 152C  
                                      i2u124_49 1514                                        i2u141_41 003C  
                                      i2u142_40 004E                                        i2u142_41 004A  
                                      i2u126_48 1536                                        i2u119_40 1B9E  
                                      i2u151_40 00FC                                        i2u150_48 00D6  
                                      i2u143_40 005C                                        i2u126_49 154C  
                                      i2u119_41 1B9A                                        i2u151_41 00F8  
                                      i2u150_49 00EA                                        i2u143_41 0058  
                                      i2u152_40 010A                                        i2u152_41 0106  
                  __end_of_I2C1_MasterGetRxData 1FD8                                        i2u145_40 0088  
                                      i2u144_48 0062                                        i2u145_41 0084  
                                      i2u144_49 0076                                        i2u146_40 0096  
                                      i2u146_41 0092                                        i2u148_40 00C2  
                                      i2u147_48 009C                                        i2u148_41 00BE  
                                      i2u147_49 00B0                                        i2u149_40 00D0  
                                      i2u149_41 00CC                                        _PIR1bits 000F9E  
                                      _PIR2bits 000FA1                                        _PIR3bits 000FA4  
                                      _RCONbits 000FD0                              _I2C1_MasterSendAck 1F9C  
                     _I2C1_DO_SEND_RESTART_READ 1F86                                        _SSP1CON1 000FC6  
                                      _SSP1CON2 000FC5                          __end_of_I2C1_SetBuffer 1DAA  
                                      _SSP1STAT 000FC7            __end_of_I2C1_SetDataCompleteCallback 1E48  
              ??i2_I2C1_SetDataCompleteCallback 000A                 ?i2_I2C1_SetDataCompleteCallback 0006  
                  _I2C1_SetDataCompleteCallback 1E30                              _I2C1_MasterStartRx 1FD8  
                                     _vfpfcnvrt 12DE                     ?_I2C1_DO_SEND_RESTART_WRITE 0001  
                             ??_TMR1_Initialize 0018                      I2C1_Write1ByteRegister@reg 0021  
                           ?_I2C1_MasterSendAck 0001                                      _ADCON0bits 000FC2  
                      ?_I2C1_DO_RX_NACK_RESTART 0001                        __end_ofi2_I2C1_SetBuffer 1DCE  
                          fp__I2C1_DO_SEND_STOP 0000                             ?_I2C1_MasterStartRx 0001  
                  __end_of_I2C1_DO_ADDRESS_NACK 19F2                        wr2RegCompleteHandler@ptr 000A  
                __end_of_I2C1_DO_SEND_ADR_WRITE 1ED4                   ??_EUSART2_DefaultErrorHandler 0001  
                                 _I2C1_DO_RESET 1EE4                                     _INTCON2bits 000FF1  
                    __end_ofi2_I2C1_SetCallback 18A4                           ?_INTERRUPT_Initialize 0001  
                         I2C1_Close@returnValue 0018                        ?_rdBlkRegCompleteHandler 000A  
                           I2C1_SetCallback@idx 001C                             I2C1_SetCallback@ptr 001A  
                       _EUSART2_SetErrorHandler 1F3A                            ??_I2C1_MasterSendAck 0001  
                             ??_TMR2_Initialize 0018                          ?_rd2RegCompleteHandler 000A  
                   _EUSART2_OverrunErrorHandler 00CD                            i2I2C1_SetCallback@cb 0001  
                  __end_of_I2C1_MasterOperation 1B4E                          ?_wr2RegCompleteHandler 000A  
                          ??_I2C1_MasterStartRx 0001                                        __Hrparam 0000  
                               ?_I2C1_MasterFsm 0001                                 ?_I2C1_MasterIsr 0001  
         __end_of_EUSART2_SetRxInterruptHandler 1F26                   _EUSART2_SetRxInterruptHandler 1F1C  
                                    vfprintf@ap 00BE                                        __Lrparam 0000  
                                    vfprintf@fp 00BA                           _I2C1_MasterDisableIrq 1FC0  
                       ??_OSCILLATOR_Initialize 0018                                 ?_I2C1_SetBuffer 0018  
                                    ?_vfpfcnvrt 00B4                       ??_I2C1_Write1ByteRegister 0023  
                        ??_I2C1_DO_SEND_RESTART 0001                            _EUSART2_ErrorHandler 00CB  
                                ?_I2C1_DO_RESET 0001                                        __ptext10 1BCE  
                                      __ptext11 1E78                                        __ptext20 1E12  
                                      __ptext12 1FB4                                        __ptext21 1918  
                                      __ptext13 1E8C                                      _T1GCONbits 000F9A  
                                      __ptext30 1F4E                                        __ptext22 1E30  
                                      __ptext14 18A4                                        __ptext31 1B0E  
                                      __ptext23 1D86                                        __ptext15 1F12  
                                      __ptext40 1FCC                                        __ptext32 1FBC  
                                      __ptext24 1E48                                        __ptext16 1F1C  
                                      __ptext41 1986                                        __ptext33 1C08  
                                      __ptext25 17B0                                        __ptext17 1F26  
                                      __ptext50 1EF0                                        __ptext42 1EE4  
                                      __ptext34 1FC0                                        __ptext26 15FE  
                                      __ptext18 1F30                                        __ptext51 1556  
                                      __ptext43 1F56                                        __ptext35 1FC4  
                                      __ptext27 1F44                                        __ptext19 1F3A  
                                      __ptext60 1F9C                                        __ptext52 13CC  
                                      __ptext44 1F5E                                        __ptext36 1FC8  
                                      __ptext28 1DF0                                        __ptext61 1FD4  
                                      __ptext53 1EC4                                        __ptext45 1F66  
                                      __ptext29 1FB8                                        __ptext70 1CB8  
                                      __ptext62 1FA2                                        __ptext54 1ED4  
                                      __ptext46 1F6E                                        __ptext38 1F96  
                                      __ptext71 1E60                                        __ptext63 1FD8  
                                      __ptext55 1EFC                                        __ptext47 1F76  
                                      __ptext39 19F2                                        __ptext80 1FAE  
                                      __ptext72 182A                                        __ptext64 1FDC  
                                      __ptext56 1732                                        __ptext48 1F7E  
                                      __ptext81 1D0E                                        __ptext73 1DAA  
                                      __ptext65 1FE0                                        __ptext57 1FD0  
                                      __ptext49 1F86                                        __ptext82 0000  
                                      __ptext74 1FE4                                        __ptext66 1B4E  
                                      __ptext58 1EA0                                        __ptext75 1FE8  
                                      __ptext67 1C34                                        __ptext59 1F8E  
                                      __ptext76 1B8E                                        __ptext68 1C60  
                                      __ptext77 1494                                        __ptext69 1C8C  
                                      __ptext78 1FA8                                        __ptext79 1FEC  
                                  _SSP1CON1bits 000FC6                                    _SSP1CON2bits 000FC5  
                      _I2C1_CallbackReturnReset 1FDC                     fp__I2C1_CallbackReturnReset 0000  
                                   ?_I2C1_DO_RX 0001                                     ?_I2C1_DO_TX 0001  
         fp__EUSART2_DefaultFramingErrorHandler 0000      __end_of_EUSART2_DefaultFramingErrorHandler 1FEE  
          ??_EUSART2_DefaultFramingErrorHandler 0001             ?_EUSART2_DefaultFramingErrorHandler 0001  
            _EUSART2_DefaultFramingErrorHandler 1FEC                     __end_of_I2C1_MasterClearIrq 1FCC  
                  __end_of_I2C1_DO_RX_NACK_STOP 1F66                                     ?_I2C1_Close 0001  
EUSART2_SetOverrunErrorHandler@interruptHandler 0018                                        isa$xinst 000000  
                                      int$flags 0048                 __end_of_I2C1_DO_RX_NACK_RESTART 1F5E  
                      I2C1_MasterOperation@read 0018                                        _vfprintf 1A56  
            __end_of_INTERRUPT_InterruptManager 013A                      _INTERRUPT_InterruptManager 0008  
                         _EUSART2_RxDataHandler 1D0E                                       printf@fmt 0025  
                                  _SSP1STATbits 000FC7                   __end_of_I2C1_DO_SEND_ADR_READ 1EE4  
                                  _I2C1_DO_IDLE 1EFC                                    _I2C1_DO_RCEN 1EF0  
                   __end_of_I2C1_MasterSendNack 1FA8                ??_EUSART2_SetOverrunErrorHandler 001A  
               ?_EUSART2_SetOverrunErrorHandler 0018                                      _INTCONbits 000FF2  
                 fp__I2C1_DO_SEND_RESTART_WRITE 0000                  I2C1_SetAddressNackCallback@ptr 001F  
                          _I2C1_MasterEnableIrq 1FB8                            _I2C1_MasterGetRxData 1FD4  
                 __end_ofi2_I2C1_MasterClearIrq 1FD0                           _I2C1_MasterSendTxData 1F8E  
                        ??_INTERRUPT_Initialize 0018                       ??_EUSART2_SetErrorHandler 001A  
                                      intlevel2 0000                        __end_of_I2C1_MasterClose 1FC8  
                       ?_PIN_MANAGER_Initialize 0001                        __end_of_I2C1_MasterStart 1FC0  
                      __end_of_I2C1_MasterWrite 1F56                                ??_I2C1_DO_RX_ACK 0001  
                                    _RCSTA2bits 000F9C                         _I2C1_CallbackReturnStop 1FE0  
                    fp__I2C1_CallbackReturnStop 0000                                ??_ADC_Initialize 0018  
                          _I2C1_DO_ADDRESS_NACK 1986                          ?_I2C1_MasterDisableIrq 0001  
                                      printf@ap 00C0  EUSART2_SetFramingErrorHandler@interruptHandler 0018  
                ?_EUSART2_SetRxInterruptHandler 0018                                     ??_vfpfcnvrt 0023  
                           _EUSART2_Receive_ISR 1494                        __end_of_I2C1_SetCallback 182A  
                               ??_I2C1_DO_RESET 0001                            _I2C1_MasterOperation 1B0E  
                         ?_I2C1_MasterEnableIrq 0001                           ?_I2C1_MasterGetRxData 0001  
                __end_of_PIN_MANAGER_Initialize 1C08                 ??_EUSART2_SetTxInterruptHandler 001A  
                     ?_I2C1_SetInterruptHandler 0018                   __end_of_rd1RegCompleteHandler 1CB8  
                          ?_EUSART2_Receive_ISR 0001                              _eusart2RxLastError 003B  
                 __end_of_wr1RegCompleteHandler 1C60                                 _TMR1_Initialize 1CE4  
             _EUSART2_RxDefaultInterruptHandler 0043                           ?_I2C1_DO_ADDRESS_NACK 0001  
