

Microchip MPLAB XC8 Assembler V2.35 build 20211206165544 
                                                                                               Wed Apr 20 14:48:55 2022

Microchip MPLAB XC8 C Compiler v2.35 (Free license) build 20211206165544 Og1 
     1                           	processor	18F26J53
     2                           	fnconf	rparam,??,?,0
     3                           	pagewidth 120
     4                           	opt	flic
     5                           	psect	smallconst,global,reloc=2,class=SMALLCONST,delta=1,noexec
     6                           	psect	nvCOMRAM,global,class=COMRAM,space=1,delta=1,lowdata,noexec
     7                           	psect	nvBANK0,global,class=BANK0,space=1,delta=1,lowdata,noexec
     8                           	psect	cinit,global,reloc=2,class=CODE,delta=1
     9                           	psect	bssCOMRAM,global,class=COMRAM,space=1,delta=1,lowdata,noexec
    10                           	psect	bssBANK0,global,class=BANK0,space=1,delta=1,lowdata,noexec
    11                           	psect	cstackBANK0,global,class=BANK0,space=1,delta=1,lowdata,noexec
    12                           	psect	cstackCOMRAM,global,class=COMRAM,space=1,delta=1,lowdata,noexec
    13                           	psect	text0,global,reloc=2,class=CODE,delta=1
    14                           	psect	text1,global,reloc=2,class=CODE,delta=1,group=3
    15                           	psect	text2,global,reloc=2,class=CODE,delta=1,group=1
    16                           	psect	text3,global,reloc=2,class=CODE,delta=1,group=1
    17                           	psect	text4,global,reloc=2,class=CODE,delta=1,group=3
    18                           	psect	text5,global,reloc=2,class=CODE,delta=1
    19                           	psect	text6,global,reloc=2,class=CODE,delta=1
    20                           	psect	text7,global,reloc=2,class=CODE,delta=1
    21                           	psect	text8,global,reloc=2,class=CODE,delta=1
    22                           	psect	text9,global,reloc=2,class=CODE,delta=1
    23                           	psect	text10,global,reloc=2,class=CODE,delta=1
    24                           	psect	text11,global,reloc=2,class=CODE,delta=1
    25                           	psect	text12,global,reloc=2,class=CODE,delta=1
    26                           	psect	text13,global,reloc=2,class=CODE,delta=1
    27                           	psect	text14,global,reloc=2,class=CODE,delta=1
    28                           	psect	text15,global,reloc=2,class=CODE,delta=1
    29                           	psect	text16,global,reloc=2,class=CODE,delta=1
    30                           	psect	text17,global,reloc=2,class=CODE,delta=1
    31                           	psect	text18,global,reloc=2,class=CODE,delta=1
    32                           	psect	text19,global,reloc=2,class=CODE,delta=1
    33                           	psect	text20,global,reloc=2,class=CODE,delta=1
    34                           	psect	text21,global,reloc=2,class=CODE,delta=1
    35                           	psect	text22,global,reloc=2,class=CODE,delta=1
    36                           	psect	text23,global,reloc=2,class=CODE,delta=1
    37                           	psect	text24,global,reloc=2,class=CODE,delta=1
    38                           	psect	text25,global,reloc=2,class=CODE,delta=1
    39                           	psect	text26,global,reloc=2,class=CODE,delta=1
    40                           	psect	text27,global,reloc=2,class=CODE,delta=1
    41                           	psect	text28,global,reloc=2,class=CODE,delta=1,inline
    42                           	psect	text29,global,reloc=2,class=CODE,delta=1,inline
    43                           	psect	text30,global,reloc=2,class=CODE,delta=1
    44                           	psect	text31,global,reloc=2,class=CODE,delta=1
    45                           	psect	text32,global,reloc=2,class=CODE,delta=1,inline
    46                           	psect	text33,global,reloc=2,class=CODE,delta=1
    47                           	psect	text34,global,reloc=2,class=CODE,delta=1,inline
    48                           	psect	text35,global,reloc=2,class=CODE,delta=1,inline
    49                           	psect	text36,global,reloc=2,class=CODE,delta=1,inline
    50                           	psect	intcode,global,reloc=2,class=CODE,delta=1
    51                           	psect	text38,global,reloc=2,class=CODE,delta=1
    52                           	psect	text39,global,reloc=2,class=CODE,delta=1,inline
    53                           	psect	text40,global,reloc=2,class=CODE,delta=1,inline
    54                           	psect	text41,global,reloc=2,class=CODE,delta=1
    55                           	psect	text42,global,reloc=2,class=CODE,delta=1
    56                           	psect	text43,global,reloc=2,class=CODE,delta=1
    57                           	psect	text44,global,reloc=2,class=CODE,delta=1
    58                           	psect	text45,global,reloc=2,class=CODE,delta=1
    59                           	psect	text46,global,reloc=2,class=CODE,delta=1
    60                           	psect	text47,global,reloc=2,class=CODE,delta=1
    61                           	psect	text48,global,reloc=2,class=CODE,delta=1
    62                           	psect	text49,global,reloc=2,class=CODE,delta=1
    63                           	psect	text50,global,reloc=2,class=CODE,delta=1
    64                           	psect	text51,global,reloc=2,class=CODE,delta=1
    65                           	psect	text52,global,reloc=2,class=CODE,delta=1
    66                           	psect	text53,global,reloc=2,class=CODE,delta=1
    67                           	psect	text54,global,reloc=2,class=CODE,delta=1
    68                           	psect	text55,global,reloc=2,class=CODE,delta=1
    69                           	psect	text56,global,reloc=2,class=CODE,delta=1
    70                           	psect	text57,global,reloc=2,class=CODE,delta=1,inline
    71                           	psect	text58,global,reloc=2,class=CODE,delta=1,inline
    72                           	psect	text59,global,reloc=2,class=CODE,delta=1,inline
    73                           	psect	text60,global,reloc=2,class=CODE,delta=1,inline
    74                           	psect	text61,global,reloc=2,class=CODE,delta=1,inline
    75                           	psect	text62,global,reloc=2,class=CODE,delta=1,inline
    76                           	psect	text63,global,reloc=2,class=CODE,delta=1,inline
    77                           	psect	text64,global,reloc=2,class=CODE,delta=1
    78                           	psect	text65,global,reloc=2,class=CODE,delta=1
    79                           	psect	text66,global,reloc=2,class=CODE,delta=1
    80                           	psect	text67,global,reloc=2,class=CODE,delta=1
    81                           	psect	text68,global,reloc=2,class=CODE,delta=1
    82                           	psect	text69,global,reloc=2,class=CODE,delta=1
    83                           	psect	text70,global,reloc=2,class=CODE,delta=1
    84                           	psect	text71,global,reloc=2,class=CODE,delta=1
    85                           	psect	text72,global,reloc=2,class=CODE,delta=1
    86                           	psect	text73,global,reloc=2,class=CODE,delta=1
    87                           	psect	text74,global,reloc=2,class=CODE,delta=1,inline
    88                           	psect	text75,global,reloc=2,class=CODE,delta=1,inline
    89                           	psect	text76,global,reloc=2,class=CODE,delta=1
    90                           	psect	text77,global,reloc=2,class=CODE,delta=1
    91                           	psect	text78,global,reloc=2,class=CODE,delta=1
    92                           	psect	text79,global,reloc=2,class=CODE,delta=1
    93                           	psect	text80,global,reloc=2,class=CODE,delta=1
    94                           	psect	text81,global,reloc=2,class=CODE,delta=1
    95                           	psect	intsave_regs,global,class=BIGRAM,space=1,delta=1,noexec
    96                           	psect	text82,global,reloc=2,class=CODE,delta=1
    97                           	psect	rparam,global,class=COMRAM,space=1,delta=1,noexec
    98                           	psect	temp,global,ovrld,common,class=COMRAM,space=1,delta=1
    99                           	psect	config,global,abs,ovrld,class=CONFIG,space=4,delta=1,noexec
   100  0000                     
   101                           ; Version 2.40
   102                           ; Generated 17/11/2021 GMT
   103                           ; 
   104                           ; Copyright © 2021, Microchip Technology Inc. and its subsidiaries ("Microchip")
   105                           ; All rights reserved.
   106                           ; 
   107                           ; This software is developed by Microchip Technology Inc. and its subsidiaries ("Microch
      +                          ip").
   108                           ; 
   109                           ; Redistribution and use in source and binary forms, with or without modification, are
   110                           ; permitted provided that the following conditions are met:
   111                           ; 
   112                           ;     1. Redistributions of source code must retain the above copyright notice, this lis
      +                          t of
   113                           ;        conditions and the following disclaimer.
   114                           ; 
   115                           ;     2. Redistributions in binary form must reproduce the above copyright notice, this 
      +                          list
   116                           ;        of conditions and the following disclaimer in the documentation and/or other
   117                           ;        materials provided with the distribution. Publication is not required when
   118                           ;        this file is used in an embedded application.
   119                           ; 
   120                           ;     3. Microchip's name may not be used to endorse or promote products derived from th
      +                          is
   121                           ;        software without specific prior written permission.
   122                           ; 
   123                           ; THIS SOFTWARE IS PROVIDED BY MICROCHIP "AS IS" AND ANY EXPRESS OR IMPLIED WARRANTIES,
   124                           ; INCLUDING, BUT NOT LIMITED TO, THE IMPLIED WARRANTIES OF MERCHANTABILITY AND FITNESS F
      +                          OR
   125                           ; PURPOSE ARE DISCLAIMED.  IN NO EVENT SHALL MICROCHIP BE LIABLE FOR ANY DIRECT, INDIREC
      +                          T,
   126                           ; INCIDENTAL, SPECIAL, EXEMPLARY, OR CONSEQUENTIAL DAMAGES (INCLUDING BUT NOT LIMITED TO
   127                           ; PROCUREMENT OF SUBSTITUTE GOODS OR SERVICES; LOSS OF USE, DATA OR PROFITS; OR BUSINESS
   128                           ; INTERRUPTION) HOWSOEVER CAUSED AND ON ANY THEORY OF LIABILITY, WHETHER IN CONTRACT, ST
      +                          RICT
   129                           ; LIABILITY, OR TORT (INCLUDING NEGLIGENCE OR OTHERWISE) ARISING IN ANY WAY OUT OF THE U
      +                          SE OF
   130                           ; THIS SOFTWARE, EVEN IF ADVISED OF THE POSSIBILITY OF SUCH DAMAGE.
   131                           ; 
   132                           ; 
   133                           ; Code-generator required, PIC18F26J53 Definitions
   134                           ; 
   135                           ; SFR Addresses
   136  0000                     
   137                           	psect	smallconst
   138  0000'                    __psmallconst:
   139                           	callstack 0
   140  0000' 00                 	db	0
   141  0001'                    _i2c1_fsmStateTable:
   142                           	callstack 0
   143  0001' 00'                	db	low _I2C1_DO_IDLE
   144  0002' 00'                	db	high _I2C1_DO_IDLE
   145  0003' 00'                	db	low _I2C1_DO_SEND_ADR_READ
   146  0004' 00'                	db	high _I2C1_DO_SEND_ADR_READ
   147  0005' 00'                	db	low _I2C1_DO_SEND_ADR_WRITE
   148  0006' 00'                	db	high _I2C1_DO_SEND_ADR_WRITE
   149  0007' 00'                	db	low _I2C1_DO_TX
   150  0008' 00'                	db	high _I2C1_DO_TX
   151  0009' 00'                	db	low _I2C1_DO_RX
   152  000A' 00'                	db	high _I2C1_DO_RX
   153  000B' 00'                	db	low _I2C1_DO_RCEN
   154  000C' 00'                	db	high _I2C1_DO_RCEN
   155  000D' 00'                	db	low _I2C1_DO_TX_EMPTY
   156  000E' 00'                	db	high _I2C1_DO_TX_EMPTY
   157  000F' 00'                	db	low _I2C1_DO_SEND_RESTART_READ
   158  0010' 00'                	db	high _I2C1_DO_SEND_RESTART_READ
   159  0011' 00'                	db	low _I2C1_DO_SEND_RESTART_WRITE
   160  0012' 00'                	db	high _I2C1_DO_SEND_RESTART_WRITE
   161  0013' 00'                	db	low _I2C1_DO_SEND_RESTART
   162  0014' 00'                	db	high _I2C1_DO_SEND_RESTART
   163  0015' 00'                	db	low _I2C1_DO_SEND_STOP
   164  0016' 00'                	db	high _I2C1_DO_SEND_STOP
   165  0017' 00'                	db	low _I2C1_DO_RX_ACK
   166  0018' 00'                	db	high _I2C1_DO_RX_ACK
   167  0019' 00'                	db	low _I2C1_DO_RX_NACK_STOP
   168  001A' 00'                	db	high _I2C1_DO_RX_NACK_STOP
   169  001B' 00'                	db	low _I2C1_DO_RX_NACK_RESTART
   170  001C' 00'                	db	high _I2C1_DO_RX_NACK_RESTART
   171  001D' 00'                	db	low _I2C1_DO_RESET
   172  001E' 00'                	db	high _I2C1_DO_RESET
   173  001F' 00'                	db	low _I2C1_DO_ADDRESS_NACK
   174  0020' 00'                	db	high _I2C1_DO_ADDRESS_NACK
   175  0021'                    __end_of_i2c1_fsmStateTable:
   176                           	callstack 0
   177  0000                     _ADCON0	set	4034
   178  0000                     _ADRESH	set	4036
   179  0000                     _ADRESL	set	4035
   180  0000                     _T1CON	set	4045
   181  0000                     _TMR1L	set	4046
   182  0000                     _TMR1H	set	4047
   183  0000                     _RCONbits	set	4048
   184  0000                     _T2CON	set	4042
   185  0000                     _TMR2	set	4044
   186  0000                     _PR2	set	4043
   187  0000                     _SSP1BUF	set	4041
   188  0000                     _SSP1ADD	set	4040
   189  0000                     _RCREG2	set	4010
   190  0000                     _TXREG2	set	4009
   191  0000                     _SPBRG2	set	4011
   192  0021'                    STR_1:
   193  0021' 74                 	db	116	;'t'
   194  0022' 65                 	db	101	;'e'
   195  0023' 73                 	db	115	;'s'
   196  0024' 74                 	db	116	;'t'
   197  0025' 69                 	db	105	;'i'
   198  0026' 6E                 	db	110	;'n'
   199  0027' 67                 	db	103	;'g'
   200  0028' 00                 	db	0
   201  0029' 00                 	db	0	; dummy byte at the end
   202  0000                     
   203                           	psect	nvCOMRAM
   204  0000'                    __pnvCOMRAM:
   205                           	callstack 0
   206  0000'                    _timer1ReloadVal:
   207                           	callstack 0
   208  0000'                    	ds	2
   209  0002'                    _EUSART2_TxDefaultInterruptHandler:
   210                           	callstack 0
   211  0002'                    	ds	2
   212  0004'                    _eusart2TxBufferRemaining:
   213                           	callstack 0
   214  0004'                    	ds	1
   215                           
   216                           	psect	nvBANK0
   217  0000'                    __pnvBANK0:
   218                           	callstack 0
   219  0000'                    _EUSART2_ErrorHandler:
   220                           	callstack 0
   221  0000'                    	ds	2
   222  0002'                    _EUSART2_OverrunErrorHandler:
   223                           	callstack 0
   224  0002'                    	ds	2
   225  0004'                    _EUSART2_FramingErrorHandler:
   226                           	callstack 0
   227  0004'                    	ds	2
   228  0006'                    _EUSART2_RxDefaultInterruptHandler:
   229                           	callstack 0
   230  0006'                    	ds	2
   231  0000                     _LATCbits	set	3979
   232  0000                     _LATAbits	set	3977
   233  0000                     _ADCON0bits	set	4034
   234  0000                     _T1GCONbits	set	3994
   235  0000                     _T1CONbits	set	4045
   236  0000                     _T2CONbits	set	4042
   237  0000                     _SSP1STATbits	set	4039
   238  0000                     _SSP1CON2bits	set	4037
   239  0000                     _SSP1CON1bits	set	4038
   240  0000                     _RCSTA2bits	set	3996
   241  0000                     _TXSTA2bits	set	4008
   242  0000                     _ADCTRIG	set	3768
   243  0000                     _RPOR6	set	3782
   244  0000                     _RPINR16	set	3831
   245  0000                     _REFOCON	set	3901
   246  0000                     _BAUDCON2	set	3964
   247  0000                     _PIE3bits	set	4003
   248  0000                     _PIR3bits	set	4004
   249  0000                     _TXSTA2	set	4008
   250  0000                     _OSCCON2	set	3975
   251  0000                     _OSCTUNE	set	3995
   252  0000                     _SPBRGH2	set	3965
   253  0000                     _RCSTA2	set	3996
   254  0000                     _PIE2bits	set	4000
   255  0000                     _PIR1bits	set	3998
   256  0000                     _PIE1bits	set	3997
   257  0000                     _PIR2bits	set	4001
   258  0000                     _ADCON1	set	4033
   259  0000                     _SSP1CON2	set	4037
   260  0000                     _SSP1CON1	set	4038
   261  0000                     _SSP1STAT	set	4039
   262  0000                     _OSCCON	set	4051
   263  0000                     _INTCON2bits	set	4081
   264  0000                     _ODCON3	set	3904
   265  0000                     _ODCON2	set	3905
   266  0000                     _ODCON1	set	3906
   267  0000                     _ANCON0	set	3912
   268  0000                     _LATA	set	3977
   269  0000                     _TRISA	set	3986
   270  0000                     _LATC	set	3979
   271  0000                     _LATB	set	3978
   272  0000                     _T1GCON	set	3994
   273  0000                     _TRISC	set	3988
   274  0000                     _TRISB	set	3987
   275  0000                     _ANCON1	set	3913
   276  0000                     _INTCONbits	set	4082
   277                           
   278                           ; #config settings
   279                           
   280                           	psect	cinit
   281  0000'                    __pcinit:
   282                           	callstack 0
   283  0000'                    start_initialization:
   284                           	callstack 0
   285  0000'                    __initialization:
   286                           	callstack 0
   287                           
   288                           ; Clear objects allocated to BANK0 (76 bytes)
   289  0000' EE00' F000'        	lfsr	0,__pbssBANK0
   290  0004' 0E4C               	movlw	76
   291  0006'                    clear_0:
   292  0006' 6AEE               	clrf	postinc0,c
   293  0008' 06E8               	decf	wreg,f,c
   294  000A' E1FD               	bnz	clear_0
   295                           
   296                           ; Clear objects allocated to COMRAM (34 bytes)
   297  000C' EE00' F000'        	lfsr	0,__pbssCOMRAM
   298  0010' 0E22               	movlw	34
   299  0012'                    clear_1:
   300  0012' 6AEE               	clrf	postinc0,c
   301  0014' 06E8               	decf	wreg,f,c
   302  0016' E1FD               	bnz	clear_1
   303  0018'                    end_of_initialization:
   304                           	callstack 0
   305  0018'                    __end_of__initialization:
   306                           	callstack 0
   307  0018' 9000'              	bcf	int$flags,0,c	;clear compiler interrupt flag (level 1)
   308  001A' 9200'              	bcf	int$flags,1,c	;clear compiler interrupt flag (level 2)
   309  001C' 0E00'              	movlw	low (__Lmediumconst shr (0+16))
   310  001E' 6EF8               	movwf	tblptru,c
   311  0020' 0100               	movlb	0
   312  0022' EF00' F000'        	goto	_main	;jump to C main() function
   313                           
   314                           	psect	bssCOMRAM
   315  0000'                    __pbssCOMRAM:
   316                           	callstack 0
   317  0000'                    _eusart2RxStatusBuffer:
   318                           	callstack 0
   319  0000'                    	ds	8
   320  0008'                    _eusart2TxBuffer:
   321                           	callstack 0
   322  0008'                    	ds	8
   323  0010'                    _nout:
   324                           	callstack 0
   325  0010'                    	ds	2
   326  0012'                    _width:
   327                           	callstack 0
   328  0012'                    	ds	2
   329  0014'                    _prec:
   330                           	callstack 0
   331  0014'                    	ds	2
   332  0016'                    _flags:
   333                           	callstack 0
   334  0016'                    	ds	2
   335  0018'                    _ADC_InterruptHandler:
   336                           	callstack 0
   337  0018'                    	ds	2
   338  001A'                    _MSSP1_InterruptHandler:
   339                           	callstack 0
   340  001A'                    	ds	2
   341  001C'                    _eusart2RxLastError:
   342                           	callstack 0
   343  001C'                    	ds	1
   344  001D'                    _eusart2RxCount:
   345                           	callstack 0
   346  001D'                    	ds	1
   347  001E'                    _eusart2RxTail:
   348                           	callstack 0
   349  001E'                    	ds	1
   350  001F'                    _eusart2RxHead:
   351                           	callstack 0
   352  001F'                    	ds	1
   353  0020'                    _eusart2TxTail:
   354                           	callstack 0
   355  0020'                    	ds	1
   356  0021'                    _eusart2TxHead:
   357                           	callstack 0
   358  0021'                    	ds	1
   359                           
   360                           	psect	bssBANK0
   361  0000'                    __pbssBANK0:
   362                           	callstack 0
   363  0000'                    _I2C1_Status:
   364                           	callstack 0
   365  0000'                    	ds	36
   366  0024'                    	ds	32
   367  0044'                    _eusart2RxBuffer:
   368                           	callstack 0
   369  0044'                    	ds	8
   370                           
   371                           	psect	cstackBANK0
   372  0000'                    __pcstackBANK0:
   373                           	callstack 0
   374  0000'                    ??_fputc:
   375  0000'                    I2C1_Write1ByteRegister@reg:
   376                           	callstack 0
   377                           
   378                           ; 1 bytes @ 0x0
   379  0000'                    	ds	1
   380  0001'                    I2C1_Write1ByteRegister@data:
   381                           	callstack 0
   382                           
   383                           ; 1 bytes @ 0x1
   384  0001'                    	ds	1
   385  0002'                    I2C1_Write1ByteRegister@address:
   386                           	callstack 0
   387                           
   388                           ; 1 bytes @ 0x2
   389  0002'                    	ds	3
   390  0005'                    ?_vfpfcnvrt:
   391                           	callstack 0
   392  0005'                    vfpfcnvrt@fp:
   393                           	callstack 0
   394                           
   395                           ; 2 bytes @ 0x5
   396  0005'                    	ds	2
   397  0007'                    vfpfcnvrt@fmt:
   398                           	callstack 0
   399                           
   400                           ; 2 bytes @ 0x7
   401  0007'                    	ds	2
   402  0009'                    vfpfcnvrt@ap:
   403                           	callstack 0
   404                           
   405                           ; 2 bytes @ 0x9
   406  0009'                    	ds	2
   407  000B'                    ?_vfprintf:
   408                           	callstack 0
   409  000B'                    vfprintf@fp:
   410                           	callstack 0
   411                           
   412                           ; 2 bytes @ 0xB
   413  000B'                    	ds	2
   414  000D'                    vfprintf@fmt:
   415                           	callstack 0
   416                           
   417                           ; 2 bytes @ 0xD
   418  000D'                    	ds	2
   419  000F'                    vfprintf@ap:
   420                           	callstack 0
   421                           
   422                           ; 2 bytes @ 0xF
   423  000F'                    	ds	2
   424  0011'                    ?_printf:
   425                           	callstack 0
   426  0011'                    printf@fmt:
   427                           	callstack 0
   428                           
   429                           ; 2 bytes @ 0x11
   430  0011'                    	ds	2
   431  0013'                    printf@ap:
   432                           	callstack 0
   433                           
   434                           ; 2 bytes @ 0x13
   435  0013'                    	ds	2
   436  0015'                    ??_main:
   437                           
   438                           ; 1 bytes @ 0x15
   439  0015'                    	ds	2
   440  0017'                    main@buffer:
   441                           	callstack 0
   442                           
   443                           ; 1 bytes @ 0x17
   444  0017'                    	ds	1
   445                           
   446                           	psect	cstackCOMRAM
   447  0000'                    __pcstackCOMRAM:
   448                           	callstack 0
   449  0000'                    I2C1_MasterSendTxData@data:
   450                           	callstack 0
   451  0000'                    i2I2C1_SetBuffer@buffer:
   452                           	callstack 0
   453  0000'                    i2I2C1_SetCallback@cb:
   454                           	callstack 0
   455                           
   456                           ; 2 bytes @ 0x0
   457  0000'                    	ds	1
   458  0001'                    
   459                           ; 1 bytes @ 0x1
   460  0001'                    	ds	1
   461  0002'                    i2I2C1_SetBuffer@bufferSize:
   462                           	callstack 0
   463  0002'                    i2I2C1_SetCallback@ptr:
   464                           	callstack 0
   465                           
   466                           ; 2 bytes @ 0x2
   467  0002'                    	ds	2
   468  0004'                    i2I2C1_SetCallback@idx:
   469                           	callstack 0
   470                           
   471                           ; 1 bytes @ 0x4
   472  0004'                    	ds	1
   473  0005'                    i2I2C1_SetDataCompleteCallback@cb:
   474                           	callstack 0
   475                           
   476                           ; 2 bytes @ 0x5
   477  0005'                    	ds	2
   478  0007'                    i2I2C1_SetDataCompleteCallback@ptr:
   479                           	callstack 0
   480                           
   481                           ; 2 bytes @ 0x7
   482  0007'                    	ds	2
   483  0009'                    rd1RegCompleteHandler@ptr:
   484                           	callstack 0
   485  0009'                    rd2RegCompleteHandler@ptr:
   486                           	callstack 0
   487  0009'                    wr1RegCompleteHandler@ptr:
   488                           	callstack 0
   489  0009'                    wr2RegCompleteHandler@ptr:
   490                           	callstack 0
   491  0009'                    rdBlkRegCompleteHandler@ptr:
   492                           	callstack 0
   493  0009'                    I2C1_CallbackReturnReset@funPtr:
   494                           	callstack 0
   495                           
   496                           ; 2 bytes @ 0x9
   497  0009'                    	ds	2
   498  000B'                    ??_I2C1_DO_TX:
   499  000B'                    ??_I2C1_DO_RX:
   500  000B'                    ??_I2C1_DO_TX_EMPTY:
   501  000B'                    ??_I2C1_DO_ADDRESS_NACK:
   502  000B'                    
   503                           ; 1 bytes @ 0xB
   504  000B'                    	ds	2
   505  000D'                    ??_INTERRUPT_InterruptManager:
   506                           
   507                           ; 1 bytes @ 0xD
   508  000D'                    	ds	10
   509  0017'                    ??_TMR1_Initialize:
   510  0017'                    EUSART2_Write@txData:
   511                           	callstack 0
   512  0017'                    I2C1_Close@returnValue:
   513                           	callstack 0
   514  0017'                    I2C1_MasterOperation@read:
   515                           	callstack 0
   516  0017'                    EUSART2_SetFramingErrorHandler@interruptHandler:
   517                           	callstack 0
   518  0017'                    EUSART2_SetOverrunErrorHandler@interruptHandler:
   519                           	callstack 0
   520  0017'                    EUSART2_SetErrorHandler@interruptHandler:
   521                           	callstack 0
   522  0017'                    EUSART2_SetTxInterruptHandler@interruptHandler:
   523                           	callstack 0
   524  0017'                    EUSART2_SetRxInterruptHandler@interruptHandler:
   525                           	callstack 0
   526  0017'                    I2C1_SetBuffer@buffer:
   527                           	callstack 0
   528  0017'                    I2C1_SetInterruptHandler@InterruptHandler:
   529                           	callstack 0
   530  0017'                    I2C1_SetCallback@cb:
   531                           	callstack 0
   532                           
   533                           ; 2 bytes @ 0x17
   534  0017'                    	ds	1
   535  0018'                    putch@txData:
   536                           	callstack 0
   537  0018'                    I2C1_MasterOperation@returnValue:
   538                           	callstack 0
   539                           
   540                           ; 1 bytes @ 0x18
   541  0018'                    	ds	1
   542  0019'                    I2C1_Open@address:
   543                           	callstack 0
   544  0019'                    I2C1_SetBuffer@bufferSize:
   545                           	callstack 0
   546  0019'                    I2C1_SetCallback@ptr:
   547                           	callstack 0
   548  0019'                    fputc@c:
   549                           	callstack 0
   550                           
   551                           ; 2 bytes @ 0x19
   552  0019'                    	ds	1
   553  001A'                    I2C1_Open@returnValue:
   554                           	callstack 0
   555                           
   556                           ; 1 bytes @ 0x1A
   557  001A'                    	ds	1
   558  001B'                    I2C1_SetCallback@idx:
   559                           	callstack 0
   560  001B'                    fputc@fp:
   561                           	callstack 0
   562                           
   563                           ; 2 bytes @ 0x1B
   564  001B'                    	ds	1
   565  001C'                    I2C1_SetDataCompleteCallback@cb:
   566                           	callstack 0
   567  001C'                    I2C1_SetAddressNackCallback@cb:
   568                           	callstack 0
   569                           
   570                           ; 2 bytes @ 0x1C
   571  001C'                    	ds	1
   572  001D'                    vfprintf@cfmt:
   573                           	callstack 0
   574                           
   575                           ; 2 bytes @ 0x1D
   576  001D'                    	ds	1
   577  001E'                    I2C1_SetDataCompleteCallback@ptr:
   578                           	callstack 0
   579  001E'                    I2C1_SetAddressNackCallback@ptr:
   580                           	callstack 0
   581                           
   582                           ; 2 bytes @ 0x1E
   583  001E'                    	ds	1
   584  001F'                    
   585                           ; 1 bytes @ 0x1F
   586  001F'                    	ds	1
   587  0020'                    
   588                           ; 1 bytes @ 0x20
   589 ;;
   590 ;;Main: autosize = 0, tempsize = 2, incstack = 0, save=0
   591 ;;
   592 ;; *************** function _main *****************
   593 ;; Defined at:
   594 ;;		line 68 in file "main.c"
   595 ;; Parameters:    Size  Location     Type
   596 ;;		None
   597 ;; Auto vars:     Size  Location     Type
   598 ;;  bufferPointe    2    0        PTR unsigned char 
   599 ;;		 -> main@buffer(1), 
   600 ;;  i2cSize         2    0        unsigned int 
   601 ;;  buffer          1   23[BANK0 ] unsigned char 
   602 ;; Return value:  Size  Location     Type
   603 ;;                  1    wreg      void 
   604 ;; Registers used:
   605 ;;		wreg, fsr0l, fsr0h, fsr1l, fsr1h, fsr1l, fsr1h, fsr2l, fsr2h, bsr, status,2, status,0, pcl, pclath, pclatu, btemp, b
      +temp+1, btemp+2, btemp+3, btemp+4, btemp+5, btemp+6, btemp+7, btemp+8, btemp+9, btemp+10, btemp+11, btemp+12, btemp+13, 
      +btemp+14, btemp+15, btemp+16, btemp+17, btemp+18, btemp+19, btemp+20, btemp+21, btemp+22, btemp+23, btemp+24, btemp+25, 
      +btemp+26, btemp+27, btemp+28, btemp+29, btemp+30, btemp+31, tosl, structret, tblptrl, tblptrh, tblptru, prodl, prodh, cs
      +tack
   606 ;; Tracked objects:
   607 ;;		On entry : 0/0
   608 ;;		On exit  : 0/0
   609 ;;		Unchanged: 0/0
   610 ;; Data sizes:     COMRAM   BANK0   BANK1   BANK2   BANK3   BANK4   BANK5   BANK6   BANK7   BANK8   BANK9  BANK10  BANK1
      +1  BANK12  BANK13  BANK14
   611 ;;      Params:         0       0       0       0       0       0       0       0       0       0       0       0       
      +0       0       0       0
   612 ;;      Locals:         0       1       0       0       0       0       0       0       0       0       0       0       
      +0       0       0       0
   613 ;;      Temps:          0       2       0       0       0       0       0       0       0       0       0       0       
      +0       0       0       0
   614 ;;      Totals:         0       3       0       0       0       0       0       0       0       0       0       0       
      +0       0       0       0
   615 ;;Total ram usage:        3 bytes
   616 ;; Hardware stack levels required when called: 13
   617 ;; This function calls:
   618 ;;		_I2C1_Write1ByteRegister
   619 ;;		_SYSTEM_Initialize
   620 ;;		_ms8607_init
   621 ;;		_ms8607_is_connected
   622 ;;		_printf
   623 ;; This function is called by:
   624 ;;		Startup code after reset
   625 ;; This function uses a non-reentrant model
   626 ;;
   627                           
   628                           	psect	text0
   629  0000'                    __ptext0:
   630                           	callstack 0
   631  0000'                    _main:
   632                           	callstack 18
   633  0000'                    
   634                           ;main.c: 71:     SYSTEM_Initialize();
   635  0000' EC00' F000'        	call	_SYSTEM_Initialize	;wreg free
   636  0004'                    
   637                           ;main.c: 78:     (INTCONbits.GIE = 1);
   638  0004' 8EF2               	bsf	242,7,c	;volatile
   639  0006'                    
   640                           ;main.c: 84:     (INTCONbits.PEIE = 1);
   641  0006' 8CF2               	bsf	242,6,c	;volatile
   642  0008' 8E89               	bsf	137,7,c	;volatile
   643  000A' 8C89               	bsf	137,6,c	;volatile
   644  000C' 908B               	bcf	139,0,c	;volatile
   645  000E'                    
   646                           ;main.c: 91:     char *bufferPointer;;main.c: 92:     char buffer = 'A';
   647  000E' 0E41               	movlw	65
   648  0010' 0100               	movlb	0	; () banked
   649  0012' 6F00'              	movwf	main@buffer& (0+255),b
   650  0014'                    
   651                           ; BSR set to: 0
   652                           ;main.c: 96:     ms8607_init();
   653  0014' EC00' F000'        	call	_ms8607_init	;wreg free
   654  0018'                    
   655                           ;main.c: 97:     if(ms8607_is_connected()){
   656  0018' EC00' F000'        	call	_ms8607_is_connected	;wreg free
   657  001C' 0900               	iorlw	0
   658  001E' B4D8               	btfsc	status,2,c
   659  0020' EF00' F000'        	goto	u1741
   660  0024' EF00' F000'        	goto	u1740
   661  0028'                    u1741:
   662  0028' EF00' F000'        	goto	l3933
   663  002C'                    u1740:
   664  002C' 9E89               	bcf	137,7,c	;volatile
   665  002E'                    
   666                           ;main.c: 99:         _delay((unsigned long)((1000)*(48000000/4000.0)));
   667  002E' 0E3D               	movlw	61
   668  0030' 0100               	movlb	0	; () banked
   669  0032' 6F00'              	movwf	(??_main+1)& (0+255),b
   670  0034' 0EE1               	movlw	225
   671  0036' 6F00'              	movwf	??_main& (0+255),b
   672  0038' 0E3F               	movlw	63
   673  003A'                    u1757:
   674  003A' 2EE8               	decfsz	wreg,f,c
   675  003C' D7FE               	bra	u1757
   676  003E' 2F00'              	decfsz	??_main& (0+255),f,b
   677  0040' D7FC               	bra	u1757
   678  0042' 2F00'              	decfsz	(??_main+1)& (0+255),f,b
   679  0044' D7FA               	bra	u1757
   680  0046' D000               	nop2	
   681  0048' 8E89               	bsf	137,7,c	;volatile
   682  004A'                    l855:
   683                           
   684                           ;main.c: 101:         _delay((unsigned long)((1000)*(48000000/4000.0)));
   685  004A' 0E3D               	movlw	61
   686  004C' 0100               	movlb	0	; () banked
   687  004E' 6F00'              	movwf	(??_main+1)& (0+255),b
   688  0050' 0EE1               	movlw	225
   689  0052' 6F00'              	movwf	??_main& (0+255),b
   690  0054' 0E3F               	movlw	63
   691  0056'                    u1767:
   692  0056' 2EE8               	decfsz	wreg,f,c
   693  0058' D7FE               	bra	u1767
   694  005A' 2F00'              	decfsz	??_main& (0+255),f,b
   695  005C' D7FC               	bra	u1767
   696  005E' 2F00'              	decfsz	(??_main+1)& (0+255),f,b
   697  0060' D7FA               	bra	u1767
   698  0062' D000               	nop2	
   699  0064'                    l3933:
   700  0064' 9C89               	bcf	137,6,c	;volatile
   701  0066'                    
   702                           ;main.c: 112:         _delay((unsigned long)((50)*(48000000/4000.0)));
   703  0066' 0E04               	movlw	4
   704  0068' 0100               	movlb	0	; () banked
   705  006A' 6F00'              	movwf	(??_main+1)& (0+255),b
   706  006C' 0E0C               	movlw	12
   707  006E' 6F00'              	movwf	??_main& (0+255),b
   708  0070' 0E33               	movlw	51
   709  0072'                    u1777:
   710  0072' 2EE8               	decfsz	wreg,f,c
   711  0074' D7FE               	bra	u1777
   712  0076' 2F00'              	decfsz	??_main& (0+255),f,b
   713  0078' D7FC               	bra	u1777
   714  007A' 2F00'              	decfsz	(??_main+1)& (0+255),f,b
   715  007C' D7FA               	bra	u1777
   716  007E' D000               	nop2	
   717  0080' 8C89               	bsf	137,6,c	;volatile
   718  0082'                    
   719                           ;main.c: 114:         _delay((unsigned long)((50)*(48000000/4000.0)));
   720  0082' 0E04               	movlw	4
   721  0084' 0100               	movlb	0	; () banked
   722  0086' 6F00'              	movwf	(??_main+1)& (0+255),b
   723  0088' 0E0C               	movlw	12
   724  008A' 6F00'              	movwf	??_main& (0+255),b
   725  008C' 0E33               	movlw	51
   726  008E'                    u1787:
   727  008E' 2EE8               	decfsz	wreg,f,c
   728  0090' D7FE               	bra	u1787
   729  0092' 2F00'              	decfsz	??_main& (0+255),f,b
   730  0094' D7FC               	bra	u1787
   731  0096' 2F00'              	decfsz	(??_main+1)& (0+255),f,b
   732  0098' D7FA               	bra	u1787
   733  009A' D000               	nop2	
   734  009C'                    
   735                           ;main.c: 115:         printf("testing");
   736  009C' 0E00'              	movlw	low STR_1
   737  009E' 0100               	movlb	0	; () banked
   738  00A0' 6F00'              	movwf	printf@fmt& (0+255),b
   739  00A2' 0E00'              	movlw	high STR_1
   740  00A4' 6F00'              	movwf	(printf@fmt+1)& (0+255),b
   741  00A6' EC00' F000'        	call	_printf	;wreg free
   742  00AA'                    
   743                           ;main.c: 126:         I2C1_Write1ByteRegister(0x40, 0xFE, 0x00);
   744  00AA' 0EFE               	movlw	254
   745  00AC' 0100               	movlb	0	; () banked
   746  00AE' 6F00'              	movwf	I2C1_Write1ByteRegister@reg& (0+255),b
   747  00B0' 0E00               	movlw	0
   748  00B2' 6F00'              	movwf	I2C1_Write1ByteRegister@data& (0+255),b
   749  00B4' 0E40               	movlw	64
   750  00B6' EC00' F000'        	call	_I2C1_Write1ByteRegister
   751  00BA'                    
   752                           ;main.c: 189:         I2C1_Write1ByteRegister(0x66, 0x03, 0x00);
   753  00BA' 0E03               	movlw	3
   754  00BC' 0100               	movlb	0	; () banked
   755  00BE' 6F00'              	movwf	I2C1_Write1ByteRegister@reg& (0+255),b
   756  00C0' 0E00               	movlw	0
   757  00C2' 6F00'              	movwf	I2C1_Write1ByteRegister@data& (0+255),b
   758  00C4' 0E66               	movlw	102
   759  00C6' EC00' F000'        	call	_I2C1_Write1ByteRegister
   760  00CA' EF00' F000'        	goto	l855
   761  00CE' EF00' F000'        	goto	start
   762  00D2'                    __end_of_main:
   763                           	callstack 0
   764                           
   765 ;; *************** function _printf *****************
   766 ;; Defined at:
   767 ;;		line 5 in file "C:\Program Files\Microchip\xc8\v2.35\pic\sources\c99\common\printf.c"
   768 ;; Parameters:    Size  Location     Type
   769 ;;  fmt             2   17[BANK0 ] PTR const unsigned char 
   770 ;;		 -> STR_1(8), 
   771 ;; Auto vars:     Size  Location     Type
   772 ;;  ap              2   19[BANK0 ] PTR void [1]
   773 ;;		 -> ?_printf(2), 
   774 ;;  ret             2    0        int 
   775 ;; Return value:  Size  Location     Type
   776 ;;                  2   17[BANK0 ] int 
   777 ;; Registers used:
   778 ;;		wreg, fsr1l, fsr1h, fsr2l, fsr2h, status,2, status,0, tblptrl, tblptrh, tblptru, cstack
   779 ;; Tracked objects:
   780 ;;		On entry : 0/0
   781 ;;		On exit  : 0/0
   782 ;;		Unchanged: 0/0
   783 ;; Data sizes:     COMRAM   BANK0   BANK1   BANK2   BANK3   BANK4   BANK5   BANK6   BANK7   BANK8   BANK9  BANK10  BANK1
      +1  BANK12  BANK13  BANK14
   784 ;;      Params:         0       2       0       0       0       0       0       0       0       0       0       0       
      +0       0       0       0
   785 ;;      Locals:         0       2       0       0       0       0       0       0       0       0       0       0       
      +0       0       0       0
   786 ;;      Temps:          0       0       0       0       0       0       0       0       0       0       0       0       
      +0       0       0       0
   787 ;;      Totals:         0       4       0       0       0       0       0       0       0       0       0       0       
      +0       0       0       0
   788 ;;Total ram usage:        4 bytes
   789 ;; Hardware stack levels used: 1
   790 ;; Hardware stack levels required when called: 12
   791 ;; This function calls:
   792 ;;		_vfprintf
   793 ;; This function is called by:
   794 ;;		_main
   795 ;; This function uses a non-reentrant model
   796 ;;
   797                           
   798                           	psect	text1
   799  0000'                    __ptext1:
   800                           	callstack 0
   801  0000'                    _printf:
   802                           	callstack 18
   803  0000' 0E00'              	movlw	low (?_printf+2)
   804  0002' 0100               	movlb	0	; () banked
   805  0004' 6F00'              	movwf	printf@ap& (0+255),b
   806  0006' 0E00'              	movlw	high (?_printf+2)
   807  0008' 6F00'              	movwf	(printf@ap+1)& (0+255),b
   808  000A'                    
   809                           ; BSR set to: 0
   810  000A' 0E00               	movlw	0
   811  000C' 6F00'              	movwf	vfprintf@fp& (0+255),b
   812  000E' 0E00               	movlw	0
   813  0010' 6F00'              	movwf	(vfprintf@fp+1)& (0+255),b
   814  0012' C011' F00D'        	movff	printf@fmt,vfprintf@fmt
   815  0016' C012' F00E'        	movff	printf@fmt+1,vfprintf@fmt+1
   816  001A' 0E00'              	movlw	low printf@ap
   817  001C' 6F00'              	movwf	vfprintf@ap& (0+255),b
   818  001E' 0E00'              	movlw	high printf@ap
   819  0020' 6F00'              	movwf	(vfprintf@ap+1)& (0+255),b
   820  0022' EC00' F000'        	call	_vfprintf	;wreg free
   821  0026' 0012               	return		;funcret
   822  0028'                    __end_of_printf:
   823                           	callstack 0
   824                           
   825 ;; *************** function _vfprintf *****************
   826 ;; Defined at:
   827 ;;		line 1390 in file "C:\Program Files\Microchip\xc8\v2.35\pic\sources\c99\common\doprnt.c"
   828 ;; Parameters:    Size  Location     Type
   829 ;;  fp              2   11[BANK0 ] PTR struct _IO_FILE
   830 ;;		 -> NULL(0), 
   831 ;;  fmt             2   13[BANK0 ] PTR const unsigned char 
   832 ;;		 -> STR_1(8), 
   833 ;;  ap              2   15[BANK0 ] PTR PTR void 
   834 ;;		 -> printf@ap(2), 
   835 ;; Auto vars:     Size  Location     Type
   836 ;;  cfmt            2   29[COMRAM] PTR unsigned char 
   837 ;;		 -> STR_1(8), 
   838 ;; Return value:  Size  Location     Type
   839 ;;                  2   11[BANK0 ] int 
   840 ;; Registers used:
   841 ;;		wreg, fsr1l, fsr1h, fsr2l, fsr2h, status,2, status,0, tblptrl, tblptrh, tblptru, cstack
   842 ;; Tracked objects:
   843 ;;		On entry : 0/0
   844 ;;		On exit  : 0/0
   845 ;;		Unchanged: 0/0
   846 ;; Data sizes:     COMRAM   BANK0   BANK1   BANK2   BANK3   BANK4   BANK5   BANK6   BANK7   BANK8   BANK9  BANK10  BANK1
      +1  BANK12  BANK13  BANK14
   847 ;;      Params:         0       6       0       0       0       0       0       0       0       0       0       0       
      +0       0       0       0
   848 ;;      Locals:         2       0       0       0       0       0       0       0       0       0       0       0       
      +0       0       0       0
   849 ;;      Temps:          0       0       0       0       0       0       0       0       0       0       0       0       
      +0       0       0       0
   850 ;;      Totals:         2       6       0       0       0       0       0       0       0       0       0       0       
      +0       0       0       0
   851 ;;Total ram usage:        8 bytes
   852 ;; Hardware stack levels used: 1
   853 ;; Hardware stack levels required when called: 11
   854 ;; This function calls:
   855 ;;		_vfpfcnvrt
   856 ;; This function is called by:
   857 ;;		_printf
   858 ;; This function uses a non-reentrant model
   859 ;;
   860                           
   861                           	psect	text2
   862  0000'                    __ptext2:
   863                           	callstack 0
   864  0000'                    _vfprintf:
   865                           	callstack 18
   866  0000'                    
   867                           ;C:\Program Files\Microchip\xc8\v2.35\pic\sources\c99\common\doprnt.c: 1390: int vfprint
      +                          f(FILE *fp, const char *fmt, va_list ap);C:\Program Files\Microchip\xc8\v2.35\pic\source
      +                          s\c99\common\doprnt.c: 1391: {;C:\Program Files\Microchip\xc8\v2.35\pic\sources\c99\comm
      +                          on\doprnt.c: 1393:     char *cfmt;;C:\Program Files\Microchip\xc8\v2.35\pic\sources\c99\
      +                          common\doprnt.c: 1395:     cfmt = (char *)fmt;
   868  0000' C00D' F01D'        	movff	vfprintf@fmt,vfprintf@cfmt
   869  0004' C00E' F01E'        	movff	vfprintf@fmt+1,vfprintf@cfmt+1
   870  0008'                    
   871                           ;C:\Program Files\Microchip\xc8\v2.35\pic\sources\c99\common\doprnt.c: 1396:     nout = 
      +                          0;
   872  0008' 0E00               	movlw	0
   873  000A' 6E00'              	movwf	(_nout+1)^0,c
   874  000C' 0E00               	movlw	0
   875  000E' 6E00'              	movwf	_nout^0,c
   876                           
   877                           ;C:\Program Files\Microchip\xc8\v2.35\pic\sources\c99\common\doprnt.c: 1397:     while (
      +                          *cfmt) {
   878  0010' EF00' F000'        	goto	l3775
   879  0014'                    l3773:
   880                           
   881                           ;C:\Program Files\Microchip\xc8\v2.35\pic\sources\c99\common\doprnt.c: 1398:         nou
      +                          t += vfpfcnvrt(fp, &cfmt, ap);
   882  0014' C00B' F005'        	movff	vfprintf@fp,vfpfcnvrt@fp
   883  0018' C00C' F006'        	movff	vfprintf@fp+1,vfpfcnvrt@fp+1
   884  001C' 0E00'              	movlw	low vfprintf@cfmt
   885  001E' 0100               	movlb	0	; () banked
   886  0020' 6F00'              	movwf	vfpfcnvrt@fmt& (0+255),b
   887  0022' 0E00'              	movlw	high vfprintf@cfmt
   888  0024' 6F00'              	movwf	(vfpfcnvrt@fmt+1)& (0+255),b
   889  0026' C00F' F009'        	movff	vfprintf@ap,vfpfcnvrt@ap
   890  002A' C010' F00A'        	movff	vfprintf@ap+1,vfpfcnvrt@ap+1
   891  002E' EC00' F000'        	call	_vfpfcnvrt	;wreg free
   892  0032' 0100               	movlb	0	; () banked
   893  0034' 5100'              	movf	?_vfpfcnvrt& (0+255),w,b
   894  0036' 2600'              	addwf	_nout^0,f,c
   895  0038' 5100'              	movf	(?_vfpfcnvrt+1)& (0+255),w,b
   896  003A' 2200'              	addwfc	(_nout+1)^0,f,c
   897  003C'                    l3775:
   898                           
   899                           ;C:\Program Files\Microchip\xc8\v2.35\pic\sources\c99\common\doprnt.c: 1397:     while (
      +                          *cfmt) {
   900  003C' C01D' FFF6         	movff	vfprintf@cfmt,tblptrl
   901  0040' C01E' FFF7         	movff	vfprintf@cfmt+1,tblptrh
   902  0044'                    	if	0	;tblptru may be non-zero
   903  0044'                    	endif
   904  0044'                    	if	0	;tblptru may be non-zero
   905  0044'                    	endif
   906  0044' 0008               	tblrd		*
   907  0046' 50F5               	movf	tablat,w,c
   908  0048' 0900               	iorlw	0
   909  004A' A4D8               	btfss	status,2,c
   910  004C' EF00' F000'        	goto	u1591
   911  0050' EF00' F000'        	goto	u1590
   912  0054'                    u1591:
   913  0054' EF00' F000'        	goto	l3773
   914  0058'                    u1590:
   915  0058'                    
   916                           ;C:\Program Files\Microchip\xc8\v2.35\pic\sources\c99\common\doprnt.c: 1400:     return 
      +                          nout;
   917  0058' C010' F00B'        	movff	_nout,?_vfprintf
   918  005C' C011' F00C'        	movff	_nout+1,?_vfprintf+1
   919  0060' 0012               	return		;funcret
   920  0062'                    __end_of_vfprintf:
   921                           	callstack 0
   922                           
   923 ;; *************** function _vfpfcnvrt *****************
   924 ;; Defined at:
   925 ;;		line 692 in file "C:\Program Files\Microchip\xc8\v2.35\pic\sources\c99\common\doprnt.c"
   926 ;; Parameters:    Size  Location     Type
   927 ;;  fp              2    5[BANK0 ] PTR struct _IO_FILE
   928 ;;		 -> NULL(0), 
   929 ;;  fmt             2    7[BANK0 ] PTR PTR unsigned char 
   930 ;;		 -> vfprintf@cfmt(2), 
   931 ;;  ap              2    9[BANK0 ] PTR PTR void 
   932 ;;		 -> printf@ap(2), 
   933 ;; Auto vars:     Size  Location     Type
   934 ;;  llu             8    0        unsigned long long 
   935 ;;  ll              8    0        long long 
   936 ;;  f               4    0        long long 
   937 ;;  vp              3    0        PTR void 
   938 ;;  ct              3    0        unsigned char [3]
   939 ;;  cp              3    0        PTR unsigned char 
   940 ;;  i               2    0        int 
   941 ;;  done            2    0        int 
   942 ;;  c               1    0        unsigned char 
   943 ;; Return value:  Size  Location     Type
   944 ;;                  2    5[BANK0 ] int 
   945 ;; Registers used:
   946 ;;		wreg, fsr1l, fsr1h, fsr2l, fsr2h, status,2, status,0, tblptrl, tblptrh, tblptru, cstack
   947 ;; Tracked objects:
   948 ;;		On entry : 0/0
   949 ;;		On exit  : 0/0
   950 ;;		Unchanged: 0/0
   951 ;; Data sizes:     COMRAM   BANK0   BANK1   BANK2   BANK3   BANK4   BANK5   BANK6   BANK7   BANK8   BANK9  BANK10  BANK1
      +1  BANK12  BANK13  BANK14
   952 ;;      Params:         0       6       0       0       0       0       0       0       0       0       0       0       
      +0       0       0       0
   953 ;;      Locals:         0       0       0       0       0       0       0       0       0       0       0       0       
      +0       0       0       0
   954 ;;      Temps:          0       0       0       0       0       0       0       0       0       0       0       0       
      +0       0       0       0
   955 ;;      Totals:         0       6       0       0       0       0       0       0       0       0       0       0       
      +0       0       0       0
   956 ;;Total ram usage:        6 bytes
   957 ;; Hardware stack levels used: 1
   958 ;; Hardware stack levels required when called: 10
   959 ;; This function calls:
   960 ;;		_fputc
   961 ;; This function is called by:
   962 ;;		_vfprintf
   963 ;; This function uses a non-reentrant model
   964 ;;
   965                           
   966                           	psect	text3
   967  0000'                    __ptext3:
   968                           	callstack 0
   969  0000'                    _vfpfcnvrt:
   970                           	callstack 18
   971  0000'                    
   972                           ;C:\Program Files\Microchip\xc8\v2.35\pic\sources\c99\common\doprnt.c: 692: static int v
      +                          fpfcnvrt(FILE *fp, char *fmt[], va_list ap);C:\Program Files\Microchip\xc8\v2.35\pic\sou
      +                          rces\c99\common\doprnt.c: 693: {;C:\Program Files\Microchip\xc8\v2.35\pic\sources\c99\co
      +                          mmon\doprnt.c: 694:     char c, *cp, ct[3];;C:\Program Files\Microchip\xc8\v2.35\pic\sou
      +                          rces\c99\common\doprnt.c: 695:     int done, i;;C:\Program Files\Microchip\xc8\v2.35\pic
      +                          \sources\c99\common\doprnt.c: 696:     long long ll;;C:\Program Files\Microchip\xc8\v2.3
      +                          5\pic\sources\c99\common\doprnt.c: 697:     unsigned long long llu;
   973  0000' C007' FFD9         	movff	vfpfcnvrt@fmt,fsr2l
   974  0004' C008' FFDA         	movff	vfpfcnvrt@fmt+1,fsr2h
   975  0008' CFDE FFF6          	movff	postinc2,tblptrl
   976  000C' CFDD FFF7          	movff	postdec2,tblptrh
   977  0010'                    	if	0	;tblptru may be non-zero
   978  0010'                    	endif
   979  0010'                    	if	0	;tblptru may be non-zero
   980  0010'                    	endif
   981  0010' 0008               	tblrd		*
   982  0012' 50F5               	movf	tablat,w,c
   983  0014' 0A25               	xorlw	37
   984  0016' A4D8               	btfss	status,2,c
   985  0018' EF00' F000'        	goto	u1541
   986  001C' EF00' F000'        	goto	u1540
   987  0020'                    u1541:
   988  0020' EF00' F000'        	goto	l3629
   989  0024'                    u1540:
   990  0024'                    
   991                           ;C:\Program Files\Microchip\xc8\v2.35\pic\sources\c99\common\doprnt.c: 703:         ++*f
      +                          mt;
   992  0024' C007' FFD9         	movff	vfpfcnvrt@fmt,fsr2l
   993  0028' C008' FFDA         	movff	vfpfcnvrt@fmt+1,fsr2h
   994  002C' 2ADE               	incf	postinc2,f,c
   995  002E' 0E00               	movlw	0
   996  0030' 22DD               	addwfc	postdec2,f,c
   997  0032'                    
   998                           ;C:\Program Files\Microchip\xc8\v2.35\pic\sources\c99\common\doprnt.c: 705:         flag
      +                          s = width = 0;
   999  0032' 0E00               	movlw	0
  1000  0034' 6E00'              	movwf	(_width+1)^0,c
  1001  0036' 0E00               	movlw	0
  1002  0038' 6E00'              	movwf	_width^0,c
  1003  003A' C012' F016'        	movff	_width,_flags
  1004  003E' C013' F017'        	movff	_width+1,_flags+1
  1005  0042'                    
  1006                           ;C:\Program Files\Microchip\xc8\v2.35\pic\sources\c99\common\doprnt.c: 706:         prec
      +                           = -1;
  1007  0042' 6800'              	setf	_prec^0,c
  1008  0044' 6800'              	setf	(_prec+1)^0,c
  1009  0046'                    
  1010                           ;C:\Program Files\Microchip\xc8\v2.35\pic\sources\c99\common\doprnt.c: 1372:         if 
      +                          ((*fmt)[0] == '%') {
  1011  0046' C007' FFD9         	movff	vfpfcnvrt@fmt,fsr2l
  1012  004A' C008' FFDA         	movff	vfpfcnvrt@fmt+1,fsr2h
  1013  004E' CFDE FFF6          	movff	postinc2,tblptrl
  1014  0052' CFDD FFF7          	movff	postdec2,tblptrh
  1015  0056'                    	if	0	;tblptru may be non-zero
  1016  0056'                    	endif
  1017  0056'                    	if	0	;tblptru may be non-zero
  1018  0056'                    	endif
  1019  0056' 0008               	tblrd		*
  1020  0058' 50F5               	movf	tablat,w,c
  1021  005A' 0A25               	xorlw	37
  1022  005C' A4D8               	btfss	status,2,c
  1023  005E' EF00' F000'        	goto	u1551
  1024  0062' EF00' F000'        	goto	u1550
  1025  0066'                    u1551:
  1026  0066' EF00' F000'        	goto	l3623
  1027  006A'                    u1550:
  1028  006A'                    
  1029                           ;C:\Program Files\Microchip\xc8\v2.35\pic\sources\c99\common\doprnt.c: 1373:            
      +                           ++*fmt;
  1030  006A' C007' FFD9         	movff	vfpfcnvrt@fmt,fsr2l
  1031  006E' C008' FFDA         	movff	vfpfcnvrt@fmt+1,fsr2h
  1032  0072' 2ADE               	incf	postinc2,f,c
  1033  0074' 0E00               	movlw	0
  1034  0076' 22DD               	addwfc	postdec2,f,c
  1035  0078'                    
  1036                           ;C:\Program Files\Microchip\xc8\v2.35\pic\sources\c99\common\doprnt.c: 1374:            
      +                           fputc((int)'%', fp);
  1037  0078' 0E00               	movlw	0
  1038  007A' 6E00'              	movwf	(fputc@c+1)^0,c
  1039  007C' 0E25               	movlw	37
  1040  007E' 6E00'              	movwf	fputc@c^0,c
  1041  0080' C005' F01B'        	movff	vfpfcnvrt@fp,fputc@fp
  1042  0084' C006' F01C'        	movff	vfpfcnvrt@fp+1,fputc@fp+1
  1043  0088' EC00' F000'        	call	_fputc	;wreg free
  1044  008C'                    l3619:
  1045                           
  1046                           ;C:\Program Files\Microchip\xc8\v2.35\pic\sources\c99\common\doprnt.c: 1375:            
      +                           return 1;
  1047  008C' 0E00               	movlw	0
  1048  008E' 0100               	movlb	0	; () banked
  1049  0090' 6F00'              	movwf	(?_vfpfcnvrt+1)& (0+255),b
  1050  0092' 0E01               	movlw	1
  1051  0094' 6F00'              	movwf	?_vfpfcnvrt& (0+255),b
  1052  0096' EF00' F000'        	goto	l1577
  1053  009A'                    l3623:
  1054                           
  1055                           ;C:\Program Files\Microchip\xc8\v2.35\pic\sources\c99\common\doprnt.c: 1379:         ++*
      +                          fmt;
  1056  009A' C007' FFD9         	movff	vfpfcnvrt@fmt,fsr2l
  1057  009E' C008' FFDA         	movff	vfpfcnvrt@fmt+1,fsr2h
  1058  00A2' 2ADE               	incf	postinc2,f,c
  1059  00A4' 0E00               	movlw	0
  1060  00A6' 22DD               	addwfc	postdec2,f,c
  1061  00A8'                    
  1062                           ;C:\Program Files\Microchip\xc8\v2.35\pic\sources\c99\common\doprnt.c: 1380:         ret
      +                          urn 0;
  1063  00A8' 0E00               	movlw	0
  1064  00AA' 0100               	movlb	0	; () banked
  1065  00AC' 6F00'              	movwf	(?_vfpfcnvrt+1)& (0+255),b
  1066  00AE' 0E00               	movlw	0
  1067  00B0' 6F00'              	movwf	?_vfpfcnvrt& (0+255),b
  1068  00B2' EF00' F000'        	goto	l1577
  1069  00B6'                    l3629:
  1070                           
  1071                           ;C:\Program Files\Microchip\xc8\v2.35\pic\sources\c99\common\doprnt.c: 1384:     fputc((
      +                          int)(*fmt)[0], fp);
  1072  00B6' C007' FFD9         	movff	vfpfcnvrt@fmt,fsr2l
  1073  00BA' C008' FFDA         	movff	vfpfcnvrt@fmt+1,fsr2h
  1074  00BE' CFDE FFF6          	movff	postinc2,tblptrl
  1075  00C2' CFDD FFF7          	movff	postdec2,tblptrh
  1076  00C6'                    	if	0	;tblptru may be non-zero
  1077  00C6'                    	endif
  1078  00C6'                    	if	0	;tblptru may be non-zero
  1079  00C6'                    	endif
  1080  00C6' 0008               	tblrd		*
  1081  00C8' 50F5               	movf	tablat,w,c
  1082  00CA' 6E00'              	movwf	fputc@c^0,c
  1083  00CC' 6A00'              	clrf	(fputc@c+1)^0,c
  1084  00CE' C005' F01B'        	movff	vfpfcnvrt@fp,fputc@fp
  1085  00D2' C006' F01C'        	movff	vfpfcnvrt@fp+1,fputc@fp+1
  1086  00D6' EC00' F000'        	call	_fputc	;wreg free
  1087  00DA'                    
  1088                           ;C:\Program Files\Microchip\xc8\v2.35\pic\sources\c99\common\doprnt.c: 1385:     ++*fmt;
  1089  00DA' C007' FFD9         	movff	vfpfcnvrt@fmt,fsr2l
  1090  00DE' C008' FFDA         	movff	vfpfcnvrt@fmt+1,fsr2h
  1091  00E2' 2ADE               	incf	postinc2,f,c
  1092  00E4' 0E00               	movlw	0
  1093  00E6' 22DD               	addwfc	postdec2,f,c
  1094  00E8' EF00' F000'        	goto	l3619
  1095  00EC'                    l1577:
  1096                           
  1097                           ; BSR set to: 0
  1098  00EC' 0012               	return		;funcret
  1099  00EE'                    __end_of_vfpfcnvrt:
  1100                           	callstack 0
  1101                           
  1102 ;; *************** function _fputc *****************
  1103 ;; Defined at:
  1104 ;;		line 8 in file "C:\Program Files\Microchip\xc8\v2.35\pic\sources\c99\common\nf_fputc.c"
  1105 ;; Parameters:    Size  Location     Type
  1106 ;;  c               2   25[COMRAM] int 
  1107 ;;  fp              2   27[COMRAM] PTR struct _IO_FILE
  1108 ;;		 -> NULL(0), 
  1109 ;; Auto vars:     Size  Location     Type
  1110 ;;		None
  1111 ;; Return value:  Size  Location     Type
  1112 ;;                  2   25[COMRAM] int 
  1113 ;; Registers used:
  1114 ;;		wreg, fsr1l, fsr1h, fsr2l, fsr2h, status,2, status,0, cstack
  1115 ;; Tracked objects:
  1116 ;;		On entry : 0/0
  1117 ;;		On exit  : 0/0
  1118 ;;		Unchanged: 0/0
  1119 ;; Data sizes:     COMRAM   BANK0   BANK1   BANK2   BANK3   BANK4   BANK5   BANK6   BANK7   BANK8   BANK9  BANK10  BANK1
      +1  BANK12  BANK13  BANK14
  1120 ;;      Params:         4       0       0       0       0       0       0       0       0       0       0       0       
      +0       0       0       0
  1121 ;;      Locals:         0       0       0       0       0       0       0       0       0       0       0       0       
      +0       0       0       0
  1122 ;;      Temps:          0       5       0       0       0       0       0       0       0       0       0       0       
      +0       0       0       0
  1123 ;;      Totals:         4       5       0       0       0       0       0       0       0       0       0       0       
      +0       0       0       0
  1124 ;;Total ram usage:        9 bytes
  1125 ;; Hardware stack levels used: 1
  1126 ;; Hardware stack levels required when called: 9
  1127 ;; This function calls:
  1128 ;;		_putch
  1129 ;; This function is called by:
  1130 ;;		_vfpfcnvrt
  1131 ;; This function uses a non-reentrant model
  1132 ;;
  1133                           
  1134                           	psect	text4
  1135  0000'                    __ptext4:
  1136                           	callstack 0
  1137  0000'                    _fputc:
  1138                           	callstack 18
  1139  0000' 5000'              	movf	fputc@fp^0,w,c
  1140  0002' 1000'              	iorwf	(fputc@fp+1)^0,w,c
  1141  0004' B4D8               	btfsc	status,2,c
  1142  0006' EF00' F000'        	goto	u1461
  1143  000A' EF00' F000'        	goto	u1460
  1144  000E'                    u1461:
  1145  000E' EF00' F000'        	goto	l3541
  1146  0012'                    u1460:
  1147  0012' 5000'              	movf	fputc@fp^0,w,c
  1148  0014' 1000'              	iorwf	(fputc@fp+1)^0,w,c
  1149  0016' A4D8               	btfss	status,2,c
  1150  0018' EF00' F000'        	goto	u1471
  1151  001C' EF00' F000'        	goto	u1470
  1152  0020'                    u1471:
  1153  0020' EF00' F000'        	goto	l3543
  1154  0024'                    u1470:
  1155  0024'                    l3541:
  1156  0024' 5000'              	movf	fputc@c^0,w,c
  1157  0026' EC00' F000'        	call	_putch
  1158  002A' EF00' F000'        	goto	l1595
  1159  002E'                    l3543:
  1160  002E' EE20 F009          	lfsr	2,9
  1161  0032' 5000'              	movf	fputc@fp^0,w,c
  1162  0034' 26D9               	addwf	fsr2l,f,c
  1163  0036' 5000'              	movf	(fputc@fp+1)^0,w,c
  1164  0038' 22DA               	addwfc	fsr2h,f,c
  1165  003A' 50DE               	movf	postinc2,w,c
  1166  003C' 10DE               	iorwf	postinc2,w,c
  1167  003E' B4D8               	btfsc	status,2,c
  1168  0040' EF00' F000'        	goto	u1481
  1169  0044' EF00' F000'        	goto	u1480
  1170  0048'                    u1481:
  1171  0048' EF00' F000'        	goto	l3547
  1172  004C'                    u1480:
  1173  004C' EE20 F009          	lfsr	2,9
  1174  0050' 5000'              	movf	fputc@fp^0,w,c
  1175  0052' 26D9               	addwf	fsr2l,f,c
  1176  0054' 5000'              	movf	(fputc@fp+1)^0,w,c
  1177  0056' 22DA               	addwfc	fsr2h,f,c
  1178  0058' EE10 F003          	lfsr	1,3
  1179  005C' 5000'              	movf	fputc@fp^0,w,c
  1180  005E' 26E1               	addwf	fsr1l,f,c
  1181  0060' 5000'              	movf	(fputc@fp+1)^0,w,c
  1182  0062' 22E2               	addwfc	fsr1h,f,c
  1183  0064' 50DE               	movf	postinc2,w,c
  1184  0066' 5CE6               	subwf	postinc1,w,c
  1185  0068' 50E6               	movf	postinc1,w,c
  1186  006A' 0A80               	xorlw	128
  1187  006C' 0100               	movlb	0	; () banked
  1188  006E' 6F00'              	movwf	(??_fputc+4)& (0+255),b
  1189  0070' 50DE               	movf	postinc2,w,c
  1190  0072' 0A80               	xorlw	128
  1191  0074' 5900'              	subwfb	(??_fputc+4)& (0+255),w,b
  1192  0076' B0D8               	btfsc	status,0,c
  1193  0078' EF00' F000'        	goto	u1491
  1194  007C' EF00' F000'        	goto	u1490
  1195  0080'                    u1491:
  1196  0080' EF00' F000'        	goto	l1595
  1197  0084'                    u1490:
  1198  0084'                    l3547:
  1199  0084' EE20 F003          	lfsr	2,3
  1200  0088' 5000'              	movf	fputc@fp^0,w,c
  1201  008A' 26D9               	addwf	fsr2l,f,c
  1202  008C' 5000'              	movf	(fputc@fp+1)^0,w,c
  1203  008E' 22DA               	addwfc	fsr2h,f,c
  1204  0090' 2ADE               	incf	postinc2,f,c
  1205  0092' 0E00               	movlw	0
  1206  0094' 22DD               	addwfc	postdec2,f,c
  1207  0096'                    l1595:
  1208  0096' 0012               	return		;funcret
  1209  0098'                    __end_of_fputc:
  1210                           	callstack 0
  1211                           
  1212 ;; *************** function _putch *****************
  1213 ;; Defined at:
  1214 ;;		line 201 in file "mcc_generated_files/eusart2.c"
  1215 ;; Parameters:    Size  Location     Type
  1216 ;;  txData          1    wreg     unsigned char 
  1217 ;; Auto vars:     Size  Location     Type
  1218 ;;  txData          1   24[COMRAM] unsigned char 
  1219 ;; Return value:  Size  Location     Type
  1220 ;;                  1    wreg      void 
  1221 ;; Registers used:
  1222 ;;		wreg, fsr2l, fsr2h, status,2, status,0, cstack
  1223 ;; Tracked objects:
  1224 ;;		On entry : 0/0
  1225 ;;		On exit  : 0/0
  1226 ;;		Unchanged: 0/0
  1227 ;; Data sizes:     COMRAM   BANK0   BANK1   BANK2   BANK3   BANK4   BANK5   BANK6   BANK7   BANK8   BANK9  BANK10  BANK1
      +1  BANK12  BANK13  BANK14
  1228 ;;      Params:         0       0       0       0       0       0       0       0       0       0       0       0       
      +0       0       0       0
  1229 ;;      Locals:         1       0       0       0       0       0       0       0       0       0       0       0       
      +0       0       0       0
  1230 ;;      Temps:          0       0       0       0       0       0       0       0       0       0       0       0       
      +0       0       0       0
  1231 ;;      Totals:         1       0       0       0       0       0       0       0       0       0       0       0       
      +0       0       0       0
  1232 ;;Total ram usage:        1 bytes
  1233 ;; Hardware stack levels used: 1
  1234 ;; Hardware stack levels required when called: 8
  1235 ;; This function calls:
  1236 ;;		_EUSART2_Write
  1237 ;; This function is called by:
  1238 ;;		_fputc
  1239 ;; This function uses a non-reentrant model
  1240 ;;
  1241                           
  1242                           	psect	text5
  1243  0000'                    __ptext5:
  1244                           	callstack 0
  1245  0000'                    _putch:
  1246                           	callstack 18
  1247                           
  1248                           ;incstack = 0
  1249                           ;putch@txData stored from wreg
  1250  0000' 6E00'              	movwf	putch@txData^0,c
  1251  0002'                    
  1252                           ;mcc_generated_files/eusart2.c: 201: void putch(char txData);mcc_generated_files/eusart2
      +                          .c: 202: {;mcc_generated_files/eusart2.c: 203:     EUSART2_Write(txData);
  1253  0002' 5000'              	movf	putch@txData^0,w,c
  1254  0004' EC00' F000'        	call	_EUSART2_Write
  1255  0008' 0012               	return		;funcret
  1256  000A'                    __end_of_putch:
  1257                           	callstack 0
  1258                           
  1259 ;; *************** function _EUSART2_Write *****************
  1260 ;; Defined at:
  1261 ;;		line 173 in file "mcc_generated_files/eusart2.c"
  1262 ;; Parameters:    Size  Location     Type
  1263 ;;  txData          1    wreg     unsigned char 
  1264 ;; Auto vars:     Size  Location     Type
  1265 ;;  txData          1   23[COMRAM] unsigned char 
  1266 ;; Return value:  Size  Location     Type
  1267 ;;                  1    wreg      void 
  1268 ;; Registers used:
  1269 ;;		wreg, fsr2l, fsr2h, status,2, status,0
  1270 ;; Tracked objects:
  1271 ;;		On entry : 0/0
  1272 ;;		On exit  : 0/0
  1273 ;;		Unchanged: 0/0
  1274 ;; Data sizes:     COMRAM   BANK0   BANK1   BANK2   BANK3   BANK4   BANK5   BANK6   BANK7   BANK8   BANK9  BANK10  BANK1
      +1  BANK12  BANK13  BANK14
  1275 ;;      Params:         0       0       0       0       0       0       0       0       0       0       0       0       
      +0       0       0       0
  1276 ;;      Locals:         1       0       0       0       0       0       0       0       0       0       0       0       
      +0       0       0       0
  1277 ;;      Temps:          0       0       0       0       0       0       0       0       0       0       0       0       
      +0       0       0       0
  1278 ;;      Totals:         1       0       0       0       0       0       0       0       0       0       0       0       
      +0       0       0       0
  1279 ;;Total ram usage:        1 bytes
  1280 ;; Hardware stack levels used: 1
  1281 ;; Hardware stack levels required when called: 7
  1282 ;; This function calls:
  1283 ;;		Nothing
  1284 ;; This function is called by:
  1285 ;;		_putch
  1286 ;; This function uses a non-reentrant model
  1287 ;;
  1288                           
  1289                           	psect	text6
  1290  0000'                    __ptext6:
  1291                           	callstack 0
  1292  0000'                    _EUSART2_Write:
  1293                           	callstack 18
  1294                           
  1295                           ;incstack = 0
  1296                           ;EUSART2_Write@txData stored from wreg
  1297  0000' 6E00'              	movwf	EUSART2_Write@txData^0,c
  1298  0002'                    l3517:
  1299                           
  1300                           ;mcc_generated_files/eusart2.c: 175:     while(0 == eusart2TxBufferRemaining)
  1301  0002' 5000'              	movf	_eusart2TxBufferRemaining^0,w,c	;volatile
  1302  0004' B4D8               	btfsc	status,2,c
  1303  0006' EF00' F000'        	goto	u1431
  1304  000A' EF00' F000'        	goto	u1430
  1305  000E'                    u1431:
  1306  000E' EF00' F000'        	goto	l3517
  1307  0012'                    u1430:
  1308  0012'                    
  1309                           ;mcc_generated_files/eusart2.c: 179:     if(0 == PIE3bits.TX2IE)
  1310  0012' B8A3               	btfsc	163,4,c	;volatile
  1311  0014' EF00' F000'        	goto	u1441
  1312  0018' EF00' F000'        	goto	u1440
  1313  001C'                    u1441:
  1314  001C' EF00' F000'        	goto	l204
  1315  0020'                    u1440:
  1316  0020'                    
  1317                           ;mcc_generated_files/eusart2.c: 180:     {;mcc_generated_files/eusart2.c: 181:         T
      +                          XREG2 = txData;
  1318  0020' C017' FFA9         	movff	EUSART2_Write@txData,4009	;volatile
  1319                           
  1320                           ;mcc_generated_files/eusart2.c: 182:     }
  1321  0024' EF00' F000'        	goto	l3531
  1322  0028'                    l204:
  1323                           
  1324                           ;mcc_generated_files/eusart2.c: 184:     {;mcc_generated_files/eusart2.c: 185:         P
      +                          IE3bits.TX2IE = 0;
  1325  0028' 98A3               	bcf	163,4,c	;volatile
  1326  002A'                    
  1327                           ;mcc_generated_files/eusart2.c: 186:         eusart2TxBuffer[eusart2TxHead++] = txData;
  1328  002A' 0E00'              	movlw	low _eusart2TxBuffer
  1329  002C' 2400'              	addwf	_eusart2TxHead^0,w,c	;volatile
  1330  002E' 6ED9               	movwf	fsr2l,c
  1331  0030' 6ADA               	clrf	fsr2h,c
  1332  0032' 0E00'              	movlw	high _eusart2TxBuffer
  1333  0034' 22DA               	addwfc	fsr2h,f,c
  1334  0036' C017' FFDF         	movff	EUSART2_Write@txData,indf2
  1335  003A' 2A00'              	incf	_eusart2TxHead^0,f,c	;volatile
  1336  003C'                    
  1337                           ;mcc_generated_files/eusart2.c: 187:         if(sizeof(eusart2TxBuffer) <= eusart2TxHead
      +                          )
  1338  003C' 0E07               	movlw	7
  1339  003E' 6400'              	cpfsgt	_eusart2TxHead^0,c	;volatile
  1340  0040' EF00' F000'        	goto	u1451
  1341  0044' EF00' F000'        	goto	u1450
  1342  0048'                    u1451:
  1343  0048' EF00' F000'        	goto	l3529
  1344  004C'                    u1450:
  1345  004C'                    
  1346                           ;mcc_generated_files/eusart2.c: 188:         {;mcc_generated_files/eusart2.c: 189:      
      +                                 eusart2TxHead = 0;
  1347  004C' 0E00               	movlw	0
  1348  004E' 6E00'              	movwf	_eusart2TxHead^0,c	;volatile
  1349  0050'                    l3529:
  1350                           
  1351                           ;mcc_generated_files/eusart2.c: 191:         eusart2TxBufferRemaining--;
  1352  0050' 0600'              	decf	_eusart2TxBufferRemaining^0,f,c	;volatile
  1353  0052'                    l3531:
  1354                           
  1355                           ;mcc_generated_files/eusart2.c: 193:     PIE3bits.TX2IE = 1;
  1356  0052' 88A3               	bsf	163,4,c	;volatile
  1357  0054' 0012               	return		;funcret
  1358  0056'                    __end_of_EUSART2_Write:
  1359                           	callstack 0
  1360                           
  1361 ;; *************** function _SYSTEM_Initialize *****************
  1362 ;; Defined at:
  1363 ;;		line 50 in file "mcc_generated_files/mcc.c"
  1364 ;; Parameters:    Size  Location     Type
  1365 ;;		None
  1366 ;; Auto vars:     Size  Location     Type
  1367 ;;		None
  1368 ;; Return value:  Size  Location     Type
  1369 ;;                  1    wreg      void 
  1370 ;; Registers used:
  1371 ;;		wreg, status,2, status,0, cstack
  1372 ;; Tracked objects:
  1373 ;;		On entry : 0/0
  1374 ;;		On exit  : 0/0
  1375 ;;		Unchanged: 0/0
  1376 ;; Data sizes:     COMRAM   BANK0   BANK1   BANK2   BANK3   BANK4   BANK5   BANK6   BANK7   BANK8   BANK9  BANK10  BANK1
      +1  BANK12  BANK13  BANK14
  1377 ;;      Params:         0       0       0       0       0       0       0       0       0       0       0       0       
      +0       0       0       0
  1378 ;;      Locals:         0       0       0       0       0       0       0       0       0       0       0       0       
      +0       0       0       0
  1379 ;;      Temps:          0       0       0       0       0       0       0       0       0       0       0       0       
      +0       0       0       0
  1380 ;;      Totals:         0       0       0       0       0       0       0       0       0       0       0       0       
      +0       0       0       0
  1381 ;;Total ram usage:        0 bytes
  1382 ;; Hardware stack levels used: 1
  1383 ;; Hardware stack levels required when called: 9
  1384 ;; This function calls:
  1385 ;;		_ADC_Initialize
  1386 ;;		_EUSART2_Initialize
  1387 ;;		_I2C1_Initialize
  1388 ;;		_INTERRUPT_Initialize
  1389 ;;		_OSCILLATOR_Initialize
  1390 ;;		_PIN_MANAGER_Initialize
  1391 ;;		_TMR1_Initialize
  1392 ;;		_TMR2_Initialize
  1393 ;; This function is called by:
  1394 ;;		_main
  1395 ;; This function uses a non-reentrant model
  1396 ;;
  1397                           
  1398                           	psect	text7
  1399  0000'                    __ptext7:
  1400                           	callstack 0
  1401  0000'                    _SYSTEM_Initialize:
  1402                           	callstack 21
  1403  0000'                    
  1404                           ;mcc_generated_files/mcc.c: 53:     INTERRUPT_Initialize();
  1405  0000' EC00' F000'        	call	_INTERRUPT_Initialize	;wreg free
  1406  0004'                    
  1407                           ;mcc_generated_files/mcc.c: 54:     I2C1_Initialize();
  1408  0004' EC00' F000'        	call	_I2C1_Initialize	;wreg free
  1409  0008'                    
  1410                           ;mcc_generated_files/mcc.c: 55:     PIN_MANAGER_Initialize();
  1411  0008' EC00' F000'        	call	_PIN_MANAGER_Initialize	;wreg free
  1412  000C'                    
  1413                           ;mcc_generated_files/mcc.c: 56:     OSCILLATOR_Initialize();
  1414  000C' EC00' F000'        	call	_OSCILLATOR_Initialize	;wreg free
  1415  0010'                    
  1416                           ;mcc_generated_files/mcc.c: 57:     ADC_Initialize();
  1417  0010' EC00' F000'        	call	_ADC_Initialize	;wreg free
  1418  0014'                    
  1419                           ;mcc_generated_files/mcc.c: 58:     TMR2_Initialize();
  1420  0014' EC00' F000'        	call	_TMR2_Initialize	;wreg free
  1421  0018'                    
  1422                           ;mcc_generated_files/mcc.c: 59:     TMR1_Initialize();
  1423  0018' EC00' F000'        	call	_TMR1_Initialize	;wreg free
  1424  001C'                    
  1425                           ;mcc_generated_files/mcc.c: 60:     EUSART2_Initialize();
  1426  001C' EC00' F000'        	call	_EUSART2_Initialize	;wreg free
  1427  0020' 0012               	return		;funcret
  1428  0022'                    __end_of_SYSTEM_Initialize:
  1429                           	callstack 0
  1430                           
  1431 ;; *************** function _TMR2_Initialize *****************
  1432 ;; Defined at:
  1433 ;;		line 62 in file "mcc_generated_files/tmr2.c"
  1434 ;; Parameters:    Size  Location     Type
  1435 ;;		None
  1436 ;; Auto vars:     Size  Location     Type
  1437 ;;		None
  1438 ;; Return value:  Size  Location     Type
  1439 ;;                  1    wreg      void 
  1440 ;; Registers used:
  1441 ;;		wreg, status,2
  1442 ;; Tracked objects:
  1443 ;;		On entry : 0/0
  1444 ;;		On exit  : 0/0
  1445 ;;		Unchanged: 0/0
  1446 ;; Data sizes:     COMRAM   BANK0   BANK1   BANK2   BANK3   BANK4   BANK5   BANK6   BANK7   BANK8   BANK9  BANK10  BANK1
      +1  BANK12  BANK13  BANK14
  1447 ;;      Params:         0       0       0       0       0       0       0       0       0       0       0       0       
      +0       0       0       0
  1448 ;;      Locals:         0       0       0       0       0       0       0       0       0       0       0       0       
      +0       0       0       0
  1449 ;;      Temps:          0       0       0       0       0       0       0       0       0       0       0       0       
      +0       0       0       0
  1450 ;;      Totals:         0       0       0       0       0       0       0       0       0       0       0       0       
      +0       0       0       0
  1451 ;;Total ram usage:        0 bytes
  1452 ;; Hardware stack levels used: 1
  1453 ;; Hardware stack levels required when called: 7
  1454 ;; This function calls:
  1455 ;;		Nothing
  1456 ;; This function is called by:
  1457 ;;		_SYSTEM_Initialize
  1458 ;; This function uses a non-reentrant model
  1459 ;;
  1460                           
  1461                           	psect	text8
  1462  0000'                    __ptext8:
  1463                           	callstack 0
  1464  0000'                    _TMR2_Initialize:
  1465                           	callstack 22
  1466  0000'                    
  1467                           ;mcc_generated_files/tmr2.c: 67:     PR2 = 0xF9;
  1468  0000' 0EF9               	movlw	249
  1469  0002' 6ECB               	movwf	203,c	;volatile
  1470                           
  1471                           ;mcc_generated_files/tmr2.c: 70:     TMR2 = 0x00;
  1472  0004' 0E00               	movlw	0
  1473  0006' 6ECC               	movwf	204,c	;volatile
  1474  0008'                    
  1475                           ;mcc_generated_files/tmr2.c: 73:     PIR1bits.TMR2IF = 0;
  1476  0008' 929E               	bcf	158,1,c	;volatile
  1477                           
  1478                           ;mcc_generated_files/tmr2.c: 76:     T2CON = 0x5D;
  1479  000A' 0E5D               	movlw	93
  1480  000C' 6ECA               	movwf	202,c	;volatile
  1481  000E' 0012               	return		;funcret
  1482  0010'                    __end_of_TMR2_Initialize:
  1483                           	callstack 0
  1484                           
  1485 ;; *************** function _TMR1_Initialize *****************
  1486 ;; Defined at:
  1487 ;;		line 63 in file "mcc_generated_files/tmr1.c"
  1488 ;; Parameters:    Size  Location     Type
  1489 ;;		None
  1490 ;; Auto vars:     Size  Location     Type
  1491 ;;		None
  1492 ;; Return value:  Size  Location     Type
  1493 ;;                  1    wreg      void 
  1494 ;; Registers used:
  1495 ;;		wreg, status,2, status,0
  1496 ;; Tracked objects:
  1497 ;;		On entry : 0/0
  1498 ;;		On exit  : 0/0
  1499 ;;		Unchanged: 0/0
  1500 ;; Data sizes:     COMRAM   BANK0   BANK1   BANK2   BANK3   BANK4   BANK5   BANK6   BANK7   BANK8   BANK9  BANK10  BANK1
      +1  BANK12  BANK13  BANK14
  1501 ;;      Params:         0       0       0       0       0       0       0       0       0       0       0       0       
      +0       0       0       0
  1502 ;;      Locals:         0       0       0       0       0       0       0       0       0       0       0       0       
      +0       0       0       0
  1503 ;;      Temps:          2       0       0       0       0       0       0       0       0       0       0       0       
      +0       0       0       0
  1504 ;;      Totals:         2       0       0       0       0       0       0       0       0       0       0       0       
      +0       0       0       0
  1505 ;;Total ram usage:        2 bytes
  1506 ;; Hardware stack levels used: 1
  1507 ;; Hardware stack levels required when called: 7
  1508 ;; This function calls:
  1509 ;;		Nothing
  1510 ;; This function is called by:
  1511 ;;		_SYSTEM_Initialize
  1512 ;; This function uses a non-reentrant model
  1513 ;;
  1514                           
  1515                           	psect	text9
  1516  0000'                    __ptext9:
  1517                           	callstack 0
  1518  0000'                    _TMR1_Initialize:
  1519                           	callstack 22
  1520  0000'                    
  1521                           ;mcc_generated_files/tmr1.c: 68:     T1GCON = 0x00;
  1522  0000' 0E00               	movlw	0
  1523  0002' 6E9A               	movwf	154,c	;volatile
  1524                           
  1525                           ;mcc_generated_files/tmr1.c: 71:     TMR1H = 0xD1;
  1526  0004' 0ED1               	movlw	209
  1527  0006' 6ECF               	movwf	207,c	;volatile
  1528                           
  1529                           ;mcc_generated_files/tmr1.c: 74:     TMR1L = 0x20;
  1530  0008' 0E20               	movlw	32
  1531  000A' 6ECE               	movwf	206,c	;volatile
  1532  000C'                    
  1533                           ;mcc_generated_files/tmr1.c: 77:     PIR1bits.TMR1IF = 0;
  1534  000C' 909E               	bcf	158,0,c	;volatile
  1535  000E'                    
  1536                           ;mcc_generated_files/tmr1.c: 80:     timer1ReloadVal=(uint16_t)((TMR1H << 8) | TMR1L);
  1537  000E' 50CE               	movf	206,w,c	;volatile
  1538  0010' CFCF F017'         	movff	4047,??_TMR1_Initialize	;volatile
  1539  0014' 6A00'              	clrf	(??_TMR1_Initialize+1)^0,c
  1540  0016' C017' F018'        	movff	??_TMR1_Initialize,??_TMR1_Initialize+1
  1541  001A' 6A00'              	clrf	??_TMR1_Initialize^0,c
  1542  001C' 1000'              	iorwf	??_TMR1_Initialize^0,w,c
  1543  001E' 6E00'              	movwf	_timer1ReloadVal^0,c	;volatile
  1544  0020' 5000'              	movf	(??_TMR1_Initialize+1)^0,w,c
  1545  0022' 6E00'              	movwf	(_timer1ReloadVal+1)^0,c	;volatile
  1546  0024'                    
  1547                           ;mcc_generated_files/tmr1.c: 83:     T1CON = 0x01;
  1548  0024' 0E01               	movlw	1
  1549  0026' 6ECD               	movwf	205,c	;volatile
  1550  0028' 0012               	return		;funcret
  1551  002A'                    __end_of_TMR1_Initialize:
  1552                           	callstack 0
  1553                           
  1554 ;; *************** function _PIN_MANAGER_Initialize *****************
  1555 ;; Defined at:
  1556 ;;		line 52 in file "mcc_generated_files/pin_manager.c"
  1557 ;; Parameters:    Size  Location     Type
  1558 ;;		None
  1559 ;; Auto vars:     Size  Location     Type
  1560 ;;		None
  1561 ;; Return value:  Size  Location     Type
  1562 ;;                  1    wreg      void 
  1563 ;; Registers used:
  1564 ;;		wreg, status,2
  1565 ;; Tracked objects:
  1566 ;;		On entry : 0/0
  1567 ;;		On exit  : 0/0
  1568 ;;		Unchanged: 0/0
  1569 ;; Data sizes:     COMRAM   BANK0   BANK1   BANK2   BANK3   BANK4   BANK5   BANK6   BANK7   BANK8   BANK9  BANK10  BANK1
      +1  BANK12  BANK13  BANK14
  1570 ;;      Params:         0       0       0       0       0       0       0       0       0       0       0       0       
      +0       0       0       0
  1571 ;;      Locals:         0       0       0       0       0       0       0       0       0       0       0       0       
      +0       0       0       0
  1572 ;;      Temps:          0       0       0       0       0       0       0       0       0       0       0       0       
      +0       0       0       0
  1573 ;;      Totals:         0       0       0       0       0       0       0       0       0       0       0       0       
      +0       0       0       0
  1574 ;;Total ram usage:        0 bytes
  1575 ;; Hardware stack levels used: 1
  1576 ;; Hardware stack levels required when called: 7
  1577 ;; This function calls:
  1578 ;;		Nothing
  1579 ;; This function is called by:
  1580 ;;		_SYSTEM_Initialize
  1581 ;; This function uses a non-reentrant model
  1582 ;;
  1583                           
  1584                           	psect	text10
  1585  0000'                    __ptext10:
  1586                           	callstack 0
  1587  0000'                    _PIN_MANAGER_Initialize:
  1588                           	callstack 22
  1589  0000'                    
  1590                           ;mcc_generated_files/pin_manager.c: 57:     LATA = 0x00;
  1591  0000' 0E00               	movlw	0
  1592  0002' 6E89               	movwf	137,c	;volatile
  1593                           
  1594                           ;mcc_generated_files/pin_manager.c: 58:     LATB = 0x00;
  1595  0004' 0E00               	movlw	0
  1596  0006' 6E8A               	movwf	138,c	;volatile
  1597                           
  1598                           ;mcc_generated_files/pin_manager.c: 59:     LATC = 0x00;
  1599  0008' 0E00               	movlw	0
  1600  000A' 6E8B               	movwf	139,c	;volatile
  1601                           
  1602                           ;mcc_generated_files/pin_manager.c: 64:     TRISA = 0x2F;
  1603  000C' 0E2F               	movlw	47
  1604  000E' 6E92               	movwf	146,c	;volatile
  1605                           
  1606                           ;mcc_generated_files/pin_manager.c: 65:     TRISB = 0xF7;
  1607  0010' 0EF7               	movlw	247
  1608  0012' 6E93               	movwf	147,c	;volatile
  1609                           
  1610                           ;mcc_generated_files/pin_manager.c: 66:     TRISC = 0xC4;
  1611  0014' 0EC4               	movlw	196
  1612  0016' 6E94               	movwf	148,c	;volatile
  1613                           
  1614                           ;mcc_generated_files/pin_manager.c: 71:     ANCON0 = 0x00;
  1615  0018' 0E00               	movlw	0
  1616  001A' 010F               	movlb	15	; () banked
  1617  001C' 6F48               	movwf	72,b	;volatile
  1618                           
  1619                           ;mcc_generated_files/pin_manager.c: 72:     ANCON1 = 0x0F;
  1620  001E' 0E0F               	movlw	15
  1621  0020' 6F49               	movwf	73,b	;volatile
  1622  0022'                    
  1623                           ; BSR set to: 15
  1624                           ;mcc_generated_files/pin_manager.c: 77:     INTCON2bits.nRBPU = 1;
  1625  0022' 8EF1               	bsf	241,7,c	;volatile
  1626                           
  1627                           ;mcc_generated_files/pin_manager.c: 82:     ODCON1 = 0x00;
  1628  0024' 0E00               	movlw	0
  1629  0026' 6F42               	movwf	66,b	;volatile
  1630                           
  1631                           ;mcc_generated_files/pin_manager.c: 83:     ODCON2 = 0x00;
  1632  0028' 0E00               	movlw	0
  1633  002A' 6F41               	movwf	65,b	;volatile
  1634                           
  1635                           ;mcc_generated_files/pin_manager.c: 84:     ODCON3 = 0x00;
  1636  002C' 0E00               	movlw	0
  1637  002E' 6F40               	movwf	64,b	;volatile
  1638                           
  1639                           ;mcc_generated_files/pin_manager.c: 90:     RPINR16 = 0x05;
  1640  0030' 0E05               	movlw	5
  1641  0032' 010E               	movlb	14	; () banked
  1642  0034' 6FF7               	movwf	247,b	;volatile
  1643                           
  1644                           ;mcc_generated_files/pin_manager.c: 91:     RPOR6 = 0x06;
  1645  0036' 0E06               	movlw	6
  1646  0038' 6FC6               	movwf	198,b	;volatile
  1647  003A'                    
  1648                           ; BSR set to: 14
  1649  003A' 0012               	return		;funcret
  1650  003C'                    __end_of_PIN_MANAGER_Initialize:
  1651                           	callstack 0
  1652                           
  1653 ;; *************** function _OSCILLATOR_Initialize *****************
  1654 ;; Defined at:
  1655 ;;		line 63 in file "mcc_generated_files/mcc.c"
  1656 ;; Parameters:    Size  Location     Type
  1657 ;;		None
  1658 ;; Auto vars:     Size  Location     Type
  1659 ;;		None
  1660 ;; Return value:  Size  Location     Type
  1661 ;;                  1    wreg      void 
  1662 ;; Registers used:
  1663 ;;		wreg, status,2
  1664 ;; Tracked objects:
  1665 ;;		On entry : 0/0
  1666 ;;		On exit  : 0/0
  1667 ;;		Unchanged: 0/0
  1668 ;; Data sizes:     COMRAM   BANK0   BANK1   BANK2   BANK3   BANK4   BANK5   BANK6   BANK7   BANK8   BANK9  BANK10  BANK1
      +1  BANK12  BANK13  BANK14
  1669 ;;      Params:         0       0       0       0       0       0       0       0       0       0       0       0       
      +0       0       0       0
  1670 ;;      Locals:         0       0       0       0       0       0       0       0       0       0       0       0       
      +0       0       0       0
  1671 ;;      Temps:          0       0       0       0       0       0       0       0       0       0       0       0       
      +0       0       0       0
  1672 ;;      Totals:         0       0       0       0       0       0       0       0       0       0       0       0       
      +0       0       0       0
  1673 ;;Total ram usage:        0 bytes
  1674 ;; Hardware stack levels used: 1
  1675 ;; Hardware stack levels required when called: 7
  1676 ;; This function calls:
  1677 ;;		Nothing
  1678 ;; This function is called by:
  1679 ;;		_SYSTEM_Initialize
  1680 ;; This function uses a non-reentrant model
  1681 ;;
  1682                           
  1683                           	psect	text11
  1684  0000'                    __ptext11:
  1685                           	callstack 0
  1686  0000'                    _OSCILLATOR_Initialize:
  1687                           	callstack 22
  1688  0000'                    
  1689                           ;mcc_generated_files/mcc.c: 66:     OSCCON = 0x60;
  1690  0000' 0E60               	movlw	96
  1691  0002' 6ED3               	movwf	211,c	;volatile
  1692                           
  1693                           ;mcc_generated_files/mcc.c: 68:     OSCTUNE = 0x00;
  1694  0004' 0E00               	movlw	0
  1695  0006' 6E9B               	movwf	155,c	;volatile
  1696                           
  1697                           ;mcc_generated_files/mcc.c: 70:     REFOCON = 0x00;
  1698  0008' 0E00               	movlw	0
  1699  000A' 010F               	movlb	15	; () banked
  1700  000C' 6F3D               	movwf	61,b	;volatile
  1701                           
  1702                           ;mcc_generated_files/mcc.c: 72:     OSCCON2 = 0x14;
  1703  000E' 0E14               	movlw	20
  1704  0010' 6E87               	movwf	135,c	;volatile
  1705  0012'                    
  1706                           ; BSR set to: 15
  1707  0012' 0012               	return		;funcret
  1708  0014'                    __end_of_OSCILLATOR_Initialize:
  1709                           	callstack 0
  1710                           
  1711 ;; *************** function _INTERRUPT_Initialize *****************
  1712 ;; Defined at:
  1713 ;;		line 52 in file "mcc_generated_files/interrupt_manager.c"
  1714 ;; Parameters:    Size  Location     Type
  1715 ;;		None
  1716 ;; Auto vars:     Size  Location     Type
  1717 ;;		None
  1718 ;; Return value:  Size  Location     Type
  1719 ;;                  1    wreg      void 
  1720 ;; Registers used:
  1721 ;;		None
  1722 ;; Tracked objects:
  1723 ;;		On entry : 0/0
  1724 ;;		On exit  : 0/0
  1725 ;;		Unchanged: 0/0
  1726 ;; Data sizes:     COMRAM   BANK0   BANK1   BANK2   BANK3   BANK4   BANK5   BANK6   BANK7   BANK8   BANK9  BANK10  BANK1
      +1  BANK12  BANK13  BANK14
  1727 ;;      Params:         0       0       0       0       0       0       0       0       0       0       0       0       
      +0       0       0       0
  1728 ;;      Locals:         0       0       0       0       0       0       0       0       0       0       0       0       
      +0       0       0       0
  1729 ;;      Temps:          0       0       0       0       0       0       0       0       0       0       0       0       
      +0       0       0       0
  1730 ;;      Totals:         0       0       0       0       0       0       0       0       0       0       0       0       
      +0       0       0       0
  1731 ;;Total ram usage:        0 bytes
  1732 ;; Hardware stack levels used: 1
  1733 ;; Hardware stack levels required when called: 7
  1734 ;; This function calls:
  1735 ;;		Nothing
  1736 ;; This function is called by:
  1737 ;;		_SYSTEM_Initialize
  1738 ;; This function uses a non-reentrant model
  1739 ;;
  1740                           
  1741                           	psect	text12
  1742  0000'                    __ptext12:
  1743                           	callstack 0
  1744  0000'                    _INTERRUPT_Initialize:
  1745                           	callstack 22
  1746  0000'                    
  1747                           ;mcc_generated_files/interrupt_manager.c: 55:     RCONbits.IPEN = 0;
  1748  0000' 9ED0               	bcf	208,7,c	;volatile
  1749  0002' 0012               	return		;funcret
  1750  0004'                    __end_of_INTERRUPT_Initialize:
  1751                           	callstack 0
  1752                           
  1753 ;; *************** function _I2C1_Initialize *****************
  1754 ;; Defined at:
  1755 ;;		line 167 in file "mcc_generated_files/i2c1_master.c"
  1756 ;; Parameters:    Size  Location     Type
  1757 ;;		None
  1758 ;; Auto vars:     Size  Location     Type
  1759 ;;		None
  1760 ;; Return value:  Size  Location     Type
  1761 ;;                  1    wreg      void 
  1762 ;; Registers used:
  1763 ;;		wreg, status,2
  1764 ;; Tracked objects:
  1765 ;;		On entry : 0/0
  1766 ;;		On exit  : 0/0
  1767 ;;		Unchanged: 0/0
  1768 ;; Data sizes:     COMRAM   BANK0   BANK1   BANK2   BANK3   BANK4   BANK5   BANK6   BANK7   BANK8   BANK9  BANK10  BANK1
      +1  BANK12  BANK13  BANK14
  1769 ;;      Params:         0       0       0       0       0       0       0       0       0       0       0       0       
      +0       0       0       0
  1770 ;;      Locals:         0       0       0       0       0       0       0       0       0       0       0       0       
      +0       0       0       0
  1771 ;;      Temps:          0       0       0       0       0       0       0       0       0       0       0       0       
      +0       0       0       0
  1772 ;;      Totals:         0       0       0       0       0       0       0       0       0       0       0       0       
      +0       0       0       0
  1773 ;;Total ram usage:        0 bytes
  1774 ;; Hardware stack levels used: 1
  1775 ;; Hardware stack levels required when called: 7
  1776 ;; This function calls:
  1777 ;;		Nothing
  1778 ;; This function is called by:
  1779 ;;		_SYSTEM_Initialize
  1780 ;; This function uses a non-reentrant model
  1781 ;;
  1782                           
  1783                           	psect	text13
  1784  0000'                    __ptext13:
  1785                           	callstack 0
  1786  0000'                    _I2C1_Initialize:
  1787                           	callstack 22
  1788  0000'                    
  1789                           ;mcc_generated_files/i2c1_master.c: 169:     SSP1STAT = 0x80;
  1790  0000' 0E80               	movlw	128
  1791  0002' 6EC7               	movwf	199,c	;volatile
  1792                           
  1793                           ;mcc_generated_files/i2c1_master.c: 170:     SSP1CON1 = 0x08;
  1794  0004' 0E08               	movlw	8
  1795  0006' 6EC6               	movwf	198,c	;volatile
  1796                           
  1797                           ;mcc_generated_files/i2c1_master.c: 171:     SSP1CON2 = 0x00;
  1798  0008' 0E00               	movlw	0
  1799  000A' 6EC5               	movwf	197,c	;volatile
  1800                           
  1801                           ;mcc_generated_files/i2c1_master.c: 172:     SSP1ADD = 0xEF;
  1802  000C' 0EEF               	movlw	239
  1803  000E' 6EC8               	movwf	200,c	;volatile
  1804  0010'                    
  1805                           ;mcc_generated_files/i2c1_master.c: 173:     SSP1CON1bits.SSPEN = 0;
  1806  0010' 9AC6               	bcf	198,5,c	;volatile
  1807  0012' 0012               	return		;funcret
  1808  0014'                    __end_of_I2C1_Initialize:
  1809                           	callstack 0
  1810                           
  1811 ;; *************** function _EUSART2_Initialize *****************
  1812 ;; Defined at:
  1813 ;;		line 88 in file "mcc_generated_files/eusart2.c"
  1814 ;; Parameters:    Size  Location     Type
  1815 ;;		None
  1816 ;; Auto vars:     Size  Location     Type
  1817 ;;		None
  1818 ;; Return value:  Size  Location     Type
  1819 ;;                  1    wreg      void 
  1820 ;; Registers used:
  1821 ;;		wreg, status,2, status,0, cstack
  1822 ;; Tracked objects:
  1823 ;;		On entry : 0/0
  1824 ;;		On exit  : 0/0
  1825 ;;		Unchanged: 0/0
  1826 ;; Data sizes:     COMRAM   BANK0   BANK1   BANK2   BANK3   BANK4   BANK5   BANK6   BANK7   BANK8   BANK9  BANK10  BANK1
      +1  BANK12  BANK13  BANK14
  1827 ;;      Params:         0       0       0       0       0       0       0       0       0       0       0       0       
      +0       0       0       0
  1828 ;;      Locals:         0       0       0       0       0       0       0       0       0       0       0       0       
      +0       0       0       0
  1829 ;;      Temps:          0       0       0       0       0       0       0       0       0       0       0       0       
      +0       0       0       0
  1830 ;;      Totals:         0       0       0       0       0       0       0       0       0       0       0       0       
      +0       0       0       0
  1831 ;;Total ram usage:        0 bytes
  1832 ;; Hardware stack levels used: 1
  1833 ;; Hardware stack levels required when called: 8
  1834 ;; This function calls:
  1835 ;;		_EUSART2_SetErrorHandler
  1836 ;;		_EUSART2_SetFramingErrorHandler
  1837 ;;		_EUSART2_SetOverrunErrorHandler
  1838 ;;		_EUSART2_SetRxInterruptHandler
  1839 ;;		_EUSART2_SetTxInterruptHandler
  1840 ;; This function is called by:
  1841 ;;		_SYSTEM_Initialize
  1842 ;; This function uses a non-reentrant model
  1843 ;;
  1844                           
  1845                           	psect	text14
  1846  0000'                    __ptext14:
  1847                           	callstack 0
  1848  0000'                    _EUSART2_Initialize:
  1849                           	callstack 21
  1850  0000'                    
  1851                           ;mcc_generated_files/eusart2.c: 91:     PIE3bits.RC2IE = 0;
  1852  0000' 9AA3               	bcf	163,5,c	;volatile
  1853  0002'                    
  1854                           ;mcc_generated_files/eusart2.c: 92:     EUSART2_SetRxInterruptHandler(EUSART2_Receive_IS
      +                          R);
  1855  0002' 0E00'              	movlw	low _EUSART2_Receive_ISR
  1856  0004' 6E00'              	movwf	EUSART2_SetRxInterruptHandler@interruptHandler^0,c
  1857  0006' 0E00'              	movlw	high _EUSART2_Receive_ISR
  1858  0008' 6E00'              	movwf	(EUSART2_SetRxInterruptHandler@interruptHandler+1)^0,c
  1859  000A' EC00' F000'        	call	_EUSART2_SetRxInterruptHandler	;wreg free
  1860  000E'                    
  1861                           ;mcc_generated_files/eusart2.c: 93:     PIE3bits.TX2IE = 0;
  1862  000E' 98A3               	bcf	163,4,c	;volatile
  1863                           
  1864                           ;mcc_generated_files/eusart2.c: 94:     EUSART2_SetTxInterruptHandler(EUSART2_Transmit_I
      +                          SR);
  1865  0010' 0E00'              	movlw	low _EUSART2_Transmit_ISR
  1866  0012' 6E00'              	movwf	EUSART2_SetTxInterruptHandler@interruptHandler^0,c
  1867  0014' 0E00'              	movlw	high _EUSART2_Transmit_ISR
  1868  0016' 6E00'              	movwf	(EUSART2_SetTxInterruptHandler@interruptHandler+1)^0,c
  1869  0018' EC00' F000'        	call	_EUSART2_SetTxInterruptHandler	;wreg free
  1870  001C'                    
  1871                           ;mcc_generated_files/eusart2.c: 98:     BAUDCON2 = 0x08;
  1872  001C' 0E08               	movlw	8
  1873  001E' 6E7C               	movwf	124,c	;volatile
  1874  0020'                    
  1875                           ;mcc_generated_files/eusart2.c: 101:     RCSTA2 = 0x90;
  1876  0020' 0E90               	movlw	144
  1877  0022' 6E9C               	movwf	156,c	;volatile
  1878  0024'                    
  1879                           ;mcc_generated_files/eusart2.c: 104:     TXSTA2 = 0x24;
  1880  0024' 0E24               	movlw	36
  1881  0026' 6EA8               	movwf	168,c	;volatile
  1882  0028'                    
  1883                           ;mcc_generated_files/eusart2.c: 107:     SPBRG2 = 0x0F;
  1884  0028' 0E0F               	movlw	15
  1885  002A' 6EAB               	movwf	171,c	;volatile
  1886  002C'                    
  1887                           ;mcc_generated_files/eusart2.c: 110:     SPBRGH2 = 0x27;
  1888  002C' 0E27               	movlw	39
  1889  002E' 6E7D               	movwf	125,c	;volatile
  1890  0030'                    
  1891                           ;mcc_generated_files/eusart2.c: 113:     EUSART2_SetFramingErrorHandler(EUSART2_DefaultF
      +                          ramingErrorHandler);
  1892  0030' 0E00'              	movlw	low _EUSART2_DefaultFramingErrorHandler
  1893  0032' 6E00'              	movwf	EUSART2_SetFramingErrorHandler@interruptHandler^0,c
  1894  0034' 0E00'              	movlw	high _EUSART2_DefaultFramingErrorHandler
  1895  0036' 6E00'              	movwf	(EUSART2_SetFramingErrorHandler@interruptHandler+1)^0,c
  1896  0038' EC00' F000'        	call	_EUSART2_SetFramingErrorHandler	;wreg free
  1897  003C'                    
  1898                           ;mcc_generated_files/eusart2.c: 114:     EUSART2_SetOverrunErrorHandler(EUSART2_DefaultO
      +                          verrunErrorHandler);
  1899  003C' 0E00'              	movlw	low _EUSART2_DefaultOverrunErrorHandler
  1900  003E' 6E00'              	movwf	EUSART2_SetOverrunErrorHandler@interruptHandler^0,c
  1901  0040' 0E00'              	movlw	high _EUSART2_DefaultOverrunErrorHandler
  1902  0042' 6E00'              	movwf	(EUSART2_SetOverrunErrorHandler@interruptHandler+1)^0,c
  1903  0044' EC00' F000'        	call	_EUSART2_SetOverrunErrorHandler	;wreg free
  1904  0048'                    
  1905                           ;mcc_generated_files/eusart2.c: 115:     EUSART2_SetErrorHandler(EUSART2_DefaultErrorHan
      +                          dler);
  1906  0048' 0E00'              	movlw	low _EUSART2_DefaultErrorHandler
  1907  004A' 6E00'              	movwf	EUSART2_SetErrorHandler@interruptHandler^0,c
  1908  004C' 0E00'              	movlw	high _EUSART2_DefaultErrorHandler
  1909  004E' 6E00'              	movwf	(EUSART2_SetErrorHandler@interruptHandler+1)^0,c
  1910  0050' EC00' F000'        	call	_EUSART2_SetErrorHandler	;wreg free
  1911                           
  1912                           ;mcc_generated_files/eusart2.c: 117:     eusart2RxLastError.status = 0;
  1913  0054' 0E00               	movlw	0
  1914  0056' 6E00'              	movwf	_eusart2RxLastError^0,c	;volatile
  1915                           
  1916                           ;mcc_generated_files/eusart2.c: 120:     eusart2TxHead = 0;
  1917  0058' 0E00               	movlw	0
  1918  005A' 6E00'              	movwf	_eusart2TxHead^0,c	;volatile
  1919                           
  1920                           ;mcc_generated_files/eusart2.c: 121:     eusart2TxTail = 0;
  1921  005C' 0E00               	movlw	0
  1922  005E' 6E00'              	movwf	_eusart2TxTail^0,c	;volatile
  1923                           
  1924                           ;mcc_generated_files/eusart2.c: 122:     eusart2TxBufferRemaining = sizeof(eusart2TxBuff
      +                          er);
  1925  0060' 0E08               	movlw	8
  1926  0062' 6E00'              	movwf	_eusart2TxBufferRemaining^0,c	;volatile
  1927                           
  1928                           ;mcc_generated_files/eusart2.c: 124:     eusart2RxHead = 0;
  1929  0064' 0E00               	movlw	0
  1930  0066' 6E00'              	movwf	_eusart2RxHead^0,c	;volatile
  1931                           
  1932                           ;mcc_generated_files/eusart2.c: 125:     eusart2RxTail = 0;
  1933  0068' 0E00               	movlw	0
  1934  006A' 6E00'              	movwf	_eusart2RxTail^0,c	;volatile
  1935                           
  1936                           ;mcc_generated_files/eusart2.c: 126:     eusart2RxCount = 0;
  1937  006C' 0E00               	movlw	0
  1938  006E' 6E00'              	movwf	_eusart2RxCount^0,c	;volatile
  1939  0070'                    
  1940                           ;mcc_generated_files/eusart2.c: 129:     PIE3bits.RC2IE = 1;
  1941  0070' 8AA3               	bsf	163,5,c	;volatile
  1942  0072' 0012               	return		;funcret
  1943  0074'                    __end_of_EUSART2_Initialize:
  1944                           	callstack 0
  1945                           
  1946 ;; *************** function _EUSART2_SetTxInterruptHandler *****************
  1947 ;; Defined at:
  1948 ;;		line 285 in file "mcc_generated_files/eusart2.c"
  1949 ;; Parameters:    Size  Location     Type
  1950 ;;  interruptHan    2   23[COMRAM] PTR FTN()void 
  1951 ;;		 -> EUSART2_Transmit_ISR(1), 
  1952 ;; Auto vars:     Size  Location     Type
  1953 ;;		None
  1954 ;; Return value:  Size  Location     Type
  1955 ;;                  1    wreg      void 
  1956 ;; Registers used:
  1957 ;;		wreg, status,2, status,0
  1958 ;; Tracked objects:
  1959 ;;		On entry : 0/0
  1960 ;;		On exit  : 0/0
  1961 ;;		Unchanged: 0/0
  1962 ;; Data sizes:     COMRAM   BANK0   BANK1   BANK2   BANK3   BANK4   BANK5   BANK6   BANK7   BANK8   BANK9  BANK10  BANK1
      +1  BANK12  BANK13  BANK14
  1963 ;;      Params:         2       0       0       0       0       0       0       0       0       0       0       0       
      +0       0       0       0
  1964 ;;      Locals:         0       0       0       0       0       0       0       0       0       0       0       0       
      +0       0       0       0
  1965 ;;      Temps:          0       0       0       0       0       0       0       0       0       0       0       0       
      +0       0       0       0
  1966 ;;      Totals:         2       0       0       0       0       0       0       0       0       0       0       0       
      +0       0       0       0
  1967 ;;Total ram usage:        2 bytes
  1968 ;; Hardware stack levels used: 1
  1969 ;; Hardware stack levels required when called: 7
  1970 ;; This function calls:
  1971 ;;		Nothing
  1972 ;; This function is called by:
  1973 ;;		_EUSART2_Initialize
  1974 ;; This function uses a non-reentrant model
  1975 ;;
  1976                           
  1977                           	psect	text15
  1978  0000'                    __ptext15:
  1979                           	callstack 0
  1980  0000'                    _EUSART2_SetTxInterruptHandler:
  1981                           	callstack 21
  1982  0000'                    
  1983                           ;mcc_generated_files/eusart2.c: 286:     EUSART2_TxDefaultInterruptHandler = interruptHa
      +                          ndler;
  1984  0000' C017' F002'        	movff	EUSART2_SetTxInterruptHandler@interruptHandler,_EUSART2_TxDefaultInterruptHandler
  1985  0004' C018' F003'        	movff	EUSART2_SetTxInterruptHandler@interruptHandler+1,_EUSART2_TxDefaultInterruptHandl
      +                          er+1
  1986  0008' 0012               	return		;funcret
  1987  000A'                    __end_of_EUSART2_SetTxInterruptHandler:
  1988                           	callstack 0
  1989                           
  1990 ;; *************** function _EUSART2_SetRxInterruptHandler *****************
  1991 ;; Defined at:
  1992 ;;		line 289 in file "mcc_generated_files/eusart2.c"
  1993 ;; Parameters:    Size  Location     Type
  1994 ;;  interruptHan    2   23[COMRAM] PTR FTN()void 
  1995 ;;		 -> EUSART2_Receive_ISR(1), 
  1996 ;; Auto vars:     Size  Location     Type
  1997 ;;		None
  1998 ;; Return value:  Size  Location     Type
  1999 ;;                  1    wreg      void 
  2000 ;; Registers used:
  2001 ;;		wreg, status,2, status,0
  2002 ;; Tracked objects:
  2003 ;;		On entry : 0/0
  2004 ;;		On exit  : 0/0
  2005 ;;		Unchanged: 0/0
  2006 ;; Data sizes:     COMRAM   BANK0   BANK1   BANK2   BANK3   BANK4   BANK5   BANK6   BANK7   BANK8   BANK9  BANK10  BANK1
      +1  BANK12  BANK13  BANK14
  2007 ;;      Params:         2       0       0       0       0       0       0       0       0       0       0       0       
      +0       0       0       0
  2008 ;;      Locals:         0       0       0       0       0       0       0       0       0       0       0       0       
      +0       0       0       0
  2009 ;;      Temps:          0       0       0       0       0       0       0       0       0       0       0       0       
      +0       0       0       0
  2010 ;;      Totals:         2       0       0       0       0       0       0       0       0       0       0       0       
      +0       0       0       0
  2011 ;;Total ram usage:        2 bytes
  2012 ;; Hardware stack levels used: 1
  2013 ;; Hardware stack levels required when called: 7
  2014 ;; This function calls:
  2015 ;;		Nothing
  2016 ;; This function is called by:
  2017 ;;		_EUSART2_Initialize
  2018 ;; This function uses a non-reentrant model
  2019 ;;
  2020                           
  2021                           	psect	text16
  2022  0000'                    __ptext16:
  2023                           	callstack 0
  2024  0000'                    _EUSART2_SetRxInterruptHandler:
  2025                           	callstack 21
  2026  0000'                    
  2027                           ;mcc_generated_files/eusart2.c: 290:     EUSART2_RxDefaultInterruptHandler = interruptHa
      +                          ndler;
  2028  0000' C017' F006'        	movff	EUSART2_SetRxInterruptHandler@interruptHandler,_EUSART2_RxDefaultInterruptHandler
  2029  0004' C018' F007'        	movff	EUSART2_SetRxInterruptHandler@interruptHandler+1,_EUSART2_RxDefaultInterruptHandl
      +                          er+1
  2030  0008' 0012               	return		;funcret
  2031  000A'                    __end_of_EUSART2_SetRxInterruptHandler:
  2032                           	callstack 0
  2033                           
  2034 ;; *************** function _EUSART2_SetOverrunErrorHandler *****************
  2035 ;; Defined at:
  2036 ;;		line 277 in file "mcc_generated_files/eusart2.c"
  2037 ;; Parameters:    Size  Location     Type
  2038 ;;  interruptHan    2   23[COMRAM] PTR FTN()void 
  2039 ;;		 -> EUSART2_DefaultOverrunErrorHandler(1), 
  2040 ;; Auto vars:     Size  Location     Type
  2041 ;;		None
  2042 ;; Return value:  Size  Location     Type
  2043 ;;                  1    wreg      void 
  2044 ;; Registers used:
  2045 ;;		wreg, status,2, status,0
  2046 ;; Tracked objects:
  2047 ;;		On entry : 0/0
  2048 ;;		On exit  : 0/0
  2049 ;;		Unchanged: 0/0
  2050 ;; Data sizes:     COMRAM   BANK0   BANK1   BANK2   BANK3   BANK4   BANK5   BANK6   BANK7   BANK8   BANK9  BANK10  BANK1
      +1  BANK12  BANK13  BANK14
  2051 ;;      Params:         2       0       0       0       0       0       0       0       0       0       0       0       
      +0       0       0       0
  2052 ;;      Locals:         0       0       0       0       0       0       0       0       0       0       0       0       
      +0       0       0       0
  2053 ;;      Temps:          0       0       0       0       0       0       0       0       0       0       0       0       
      +0       0       0       0
  2054 ;;      Totals:         2       0       0       0       0       0       0       0       0       0       0       0       
      +0       0       0       0
  2055 ;;Total ram usage:        2 bytes
  2056 ;; Hardware stack levels used: 1
  2057 ;; Hardware stack levels required when called: 7
  2058 ;; This function calls:
  2059 ;;		Nothing
  2060 ;; This function is called by:
  2061 ;;		_EUSART2_Initialize
  2062 ;; This function uses a non-reentrant model
  2063 ;;
  2064                           
  2065                           	psect	text17
  2066  0000'                    __ptext17:
  2067                           	callstack 0
  2068  0000'                    _EUSART2_SetOverrunErrorHandler:
  2069                           	callstack 21
  2070  0000'                    
  2071                           ;mcc_generated_files/eusart2.c: 278:     EUSART2_OverrunErrorHandler = interruptHandler;
  2072  0000' C017' F002'        	movff	EUSART2_SetOverrunErrorHandler@interruptHandler,_EUSART2_OverrunErrorHandler
  2073  0004' C018' F003'        	movff	EUSART2_SetOverrunErrorHandler@interruptHandler+1,_EUSART2_OverrunErrorHandler+1
  2074  0008' 0012               	return		;funcret
  2075  000A'                    __end_of_EUSART2_SetOverrunErrorHandler:
  2076                           	callstack 0
  2077                           
  2078 ;; *************** function _EUSART2_SetFramingErrorHandler *****************
  2079 ;; Defined at:
  2080 ;;		line 273 in file "mcc_generated_files/eusart2.c"
  2081 ;; Parameters:    Size  Location     Type
  2082 ;;  interruptHan    2   23[COMRAM] PTR FTN()void 
  2083 ;;		 -> EUSART2_DefaultFramingErrorHandler(1), 
  2084 ;; Auto vars:     Size  Location     Type
  2085 ;;		None
  2086 ;; Return value:  Size  Location     Type
  2087 ;;                  1    wreg      void 
  2088 ;; Registers used:
  2089 ;;		wreg, status,2, status,0
  2090 ;; Tracked objects:
  2091 ;;		On entry : 0/0
  2092 ;;		On exit  : 0/0
  2093 ;;		Unchanged: 0/0
  2094 ;; Data sizes:     COMRAM   BANK0   BANK1   BANK2   BANK3   BANK4   BANK5   BANK6   BANK7   BANK8   BANK9  BANK10  BANK1
      +1  BANK12  BANK13  BANK14
  2095 ;;      Params:         2       0       0       0       0       0       0       0       0       0       0       0       
      +0       0       0       0
  2096 ;;      Locals:         0       0       0       0       0       0       0       0       0       0       0       0       
      +0       0       0       0
  2097 ;;      Temps:          0       0       0       0       0       0       0       0       0       0       0       0       
      +0       0       0       0
  2098 ;;      Totals:         2       0       0       0       0       0       0       0       0       0       0       0       
      +0       0       0       0
  2099 ;;Total ram usage:        2 bytes
  2100 ;; Hardware stack levels used: 1
  2101 ;; Hardware stack levels required when called: 7
  2102 ;; This function calls:
  2103 ;;		Nothing
  2104 ;; This function is called by:
  2105 ;;		_EUSART2_Initialize
  2106 ;; This function uses a non-reentrant model
  2107 ;;
  2108                           
  2109                           	psect	text18
  2110  0000'                    __ptext18:
  2111                           	callstack 0
  2112  0000'                    _EUSART2_SetFramingErrorHandler:
  2113                           	callstack 21
  2114  0000'                    
  2115                           ;mcc_generated_files/eusart2.c: 274:     EUSART2_FramingErrorHandler = interruptHandler;
  2116  0000' C017' F004'        	movff	EUSART2_SetFramingErrorHandler@interruptHandler,_EUSART2_FramingErrorHandler
  2117  0004' C018' F005'        	movff	EUSART2_SetFramingErrorHandler@interruptHandler+1,_EUSART2_FramingErrorHandler+1
  2118  0008' 0012               	return		;funcret
  2119  000A'                    __end_of_EUSART2_SetFramingErrorHandler:
  2120                           	callstack 0
  2121                           
  2122 ;; *************** function _EUSART2_SetErrorHandler *****************
  2123 ;; Defined at:
  2124 ;;		line 281 in file "mcc_generated_files/eusart2.c"
  2125 ;; Parameters:    Size  Location     Type
  2126 ;;  interruptHan    2   23[COMRAM] PTR FTN()void 
  2127 ;;		 -> EUSART2_DefaultErrorHandler(1), 
  2128 ;; Auto vars:     Size  Location     Type
  2129 ;;		None
  2130 ;; Return value:  Size  Location     Type
  2131 ;;                  1    wreg      void 
  2132 ;; Registers used:
  2133 ;;		wreg, status,2, status,0
  2134 ;; Tracked objects:
  2135 ;;		On entry : 0/0
  2136 ;;		On exit  : 0/0
  2137 ;;		Unchanged: 0/0
  2138 ;; Data sizes:     COMRAM   BANK0   BANK1   BANK2   BANK3   BANK4   BANK5   BANK6   BANK7   BANK8   BANK9  BANK10  BANK1
      +1  BANK12  BANK13  BANK14
  2139 ;;      Params:         2       0       0       0       0       0       0       0       0       0       0       0       
      +0       0       0       0
  2140 ;;      Locals:         0       0       0       0       0       0       0       0       0       0       0       0       
      +0       0       0       0
  2141 ;;      Temps:          0       0       0       0       0       0       0       0       0       0       0       0       
      +0       0       0       0
  2142 ;;      Totals:         2       0       0       0       0       0       0       0       0       0       0       0       
      +0       0       0       0
  2143 ;;Total ram usage:        2 bytes
  2144 ;; Hardware stack levels used: 1
  2145 ;; Hardware stack levels required when called: 7
  2146 ;; This function calls:
  2147 ;;		Nothing
  2148 ;; This function is called by:
  2149 ;;		_EUSART2_Initialize
  2150 ;; This function uses a non-reentrant model
  2151 ;;
  2152                           
  2153                           	psect	text19
  2154  0000'                    __ptext19:
  2155                           	callstack 0
  2156  0000'                    _EUSART2_SetErrorHandler:
  2157                           	callstack 21
  2158  0000'                    
  2159                           ;mcc_generated_files/eusart2.c: 282:     EUSART2_ErrorHandler = interruptHandler;
  2160  0000' C017' F000'        	movff	EUSART2_SetErrorHandler@interruptHandler,_EUSART2_ErrorHandler
  2161  0004' C018' F001'        	movff	EUSART2_SetErrorHandler@interruptHandler+1,_EUSART2_ErrorHandler+1
  2162  0008' 0012               	return		;funcret
  2163  000A'                    __end_of_EUSART2_SetErrorHandler:
  2164                           	callstack 0
  2165                           
  2166 ;; *************** function _ADC_Initialize *****************
  2167 ;; Defined at:
  2168 ;;		line 61 in file "mcc_generated_files/adc.c"
  2169 ;; Parameters:    Size  Location     Type
  2170 ;;		None
  2171 ;; Auto vars:     Size  Location     Type
  2172 ;;		None
  2173 ;; Return value:  Size  Location     Type
  2174 ;;                  1    wreg      void 
  2175 ;; Registers used:
  2176 ;;		wreg, status,2
  2177 ;; Tracked objects:
  2178 ;;		On entry : 0/0
  2179 ;;		On exit  : 0/0
  2180 ;;		Unchanged: 0/0
  2181 ;; Data sizes:     COMRAM   BANK0   BANK1   BANK2   BANK3   BANK4   BANK5   BANK6   BANK7   BANK8   BANK9  BANK10  BANK1
      +1  BANK12  BANK13  BANK14
  2182 ;;      Params:         0       0       0       0       0       0       0       0       0       0       0       0       
      +0       0       0       0
  2183 ;;      Locals:         0       0       0       0       0       0       0       0       0       0       0       0       
      +0       0       0       0
  2184 ;;      Temps:          0       0       0       0       0       0       0       0       0       0       0       0       
      +0       0       0       0
  2185 ;;      Totals:         0       0       0       0       0       0       0       0       0       0       0       0       
      +0       0       0       0
  2186 ;;Total ram usage:        0 bytes
  2187 ;; Hardware stack levels used: 1
  2188 ;; Hardware stack levels required when called: 7
  2189 ;; This function calls:
  2190 ;;		Nothing
  2191 ;; This function is called by:
  2192 ;;		_SYSTEM_Initialize
  2193 ;; This function uses a non-reentrant model
  2194 ;;
  2195                           
  2196                           	psect	text20
  2197  0000'                    __ptext20:
  2198                           	callstack 0
  2199  0000'                    _ADC_Initialize:
  2200                           	callstack 22
  2201  0000'                    
  2202                           ;mcc_generated_files/adc.c: 66:     ADCON1 = 0x01;
  2203  0000' 0E01               	movlw	1
  2204  0002' 6EC1               	movwf	193,c	;volatile
  2205                           
  2206                           ;mcc_generated_files/adc.c: 69:     ADCTRIG = 0x02;
  2207  0004' 0E02               	movlw	2
  2208  0006' 010E               	movlb	14	; () banked
  2209  0008' 6FB8               	movwf	184,b	;volatile
  2210                           
  2211                           ;mcc_generated_files/adc.c: 72:     ANCON1 = 0x00;
  2212  000A' 0E00               	movlw	0
  2213  000C' 010F               	movlb	15	; () banked
  2214  000E' 6F49               	movwf	73,b	;volatile
  2215                           
  2216                           ;mcc_generated_files/adc.c: 75:     ADRESL = 0x00;
  2217  0010' 0E00               	movlw	0
  2218  0012' 6EC3               	movwf	195,c	;volatile
  2219                           
  2220                           ;mcc_generated_files/adc.c: 78:     ADRESH = 0x00;
  2221  0014' 0E00               	movlw	0
  2222  0016' 6EC4               	movwf	196,c	;volatile
  2223                           
  2224                           ;mcc_generated_files/adc.c: 81:     ADCON0 = 0x01;
  2225  0018' 0E01               	movlw	1
  2226  001A' 6EC2               	movwf	194,c	;volatile
  2227  001C'                    
  2228                           ; BSR set to: 15
  2229  001C' 0012               	return		;funcret
  2230  001E'                    __end_of_ADC_Initialize:
  2231                           	callstack 0
  2232                           
  2233 ;; *************** function _I2C1_Write1ByteRegister *****************
  2234 ;; Defined at:
  2235 ;;		line 91 in file "mcc_generated_files/examples/i2c1_master_example.c"
  2236 ;; Parameters:    Size  Location     Type
  2237 ;;  address         1    wreg     unsigned char 
  2238 ;;  reg             1    0[BANK0 ] unsigned char 
  2239 ;;  data            1    1[BANK0 ] unsigned char 
  2240 ;; Auto vars:     Size  Location     Type
  2241 ;;  address         1    2[BANK0 ] unsigned char 
  2242 ;; Return value:  Size  Location     Type
  2243 ;;                  1    wreg      void 
  2244 ;; Registers used:
  2245 ;;		wreg, fsr2l, fsr2h, status,2, status,0, prodl, prodh, cstack
  2246 ;; Tracked objects:
  2247 ;;		On entry : 0/0
  2248 ;;		On exit  : 0/0
  2249 ;;		Unchanged: 0/0
  2250 ;; Data sizes:     COMRAM   BANK0   BANK1   BANK2   BANK3   BANK4   BANK5   BANK6   BANK7   BANK8   BANK9  BANK10  BANK1
      +1  BANK12  BANK13  BANK14
  2251 ;;      Params:         0       2       0       0       0       0       0       0       0       0       0       0       
      +0       0       0       0
  2252 ;;      Locals:         0       1       0       0       0       0       0       0       0       0       0       0       
      +0       0       0       0
  2253 ;;      Temps:          0       0       0       0       0       0       0       0       0       0       0       0       
      +0       0       0       0
  2254 ;;      Totals:         0       3       0       0       0       0       0       0       0       0       0       0       
      +0       0       0       0
  2255 ;;Total ram usage:        3 bytes
  2256 ;; Hardware stack levels used: 1
  2257 ;; Hardware stack levels required when called: 10
  2258 ;; This function calls:
  2259 ;;		_I2C1_Close
  2260 ;;		_I2C1_MasterWrite
  2261 ;;		_I2C1_Open
  2262 ;;		_I2C1_SetAddressNackCallback
  2263 ;;		_I2C1_SetBuffer
  2264 ;;		_I2C1_SetDataCompleteCallback
  2265 ;; This function is called by:
  2266 ;;		_main
  2267 ;; This function uses a non-reentrant model
  2268 ;;
  2269                           
  2270                           	psect	text21
  2271  0000'                    __ptext21:
  2272                           	callstack 0
  2273  0000'                    _I2C1_Write1ByteRegister:
  2274                           	callstack 20
  2275                           
  2276                           ; BSR set to: 15
  2277                           ;incstack = 0
  2278                           ;I2C1_Write1ByteRegister@address stored from wreg
  2279  0000' 0100               	movlb	0	; () banked
  2280  0002' 6F00'              	movwf	I2C1_Write1ByteRegister@address& (0+255),b
  2281  0004'                    l3779:
  2282  0004' 0100               	movlb	0	; () banked
  2283  0006' 5100'              	movf	I2C1_Write1ByteRegister@address& (0+255),w,b
  2284  0008' EC00' F000'        	call	_I2C1_Open
  2285  000C' 0900               	iorlw	0
  2286  000E' B4D8               	btfsc	status,2,c
  2287  0010' EF00' F000'        	goto	u1601
  2288  0014' EF00' F000'        	goto	u1600
  2289  0018'                    u1601:
  2290  0018' EF00' F000'        	goto	l3779
  2291  001C'                    u1600:
  2292  001C'                    
  2293                           ;mcc_generated_files/examples/i2c1_master_example.c: 94:     I2C1_SetDataCompleteCallbac
      +                          k(wr1RegCompleteHandler,&data);
  2294  001C' 0E00'              	movlw	low _wr1RegCompleteHandler
  2295  001E' 6E00'              	movwf	I2C1_SetDataCompleteCallback@cb^0,c
  2296  0020' 0E00'              	movlw	high _wr1RegCompleteHandler
  2297  0022' 6E00'              	movwf	(I2C1_SetDataCompleteCallback@cb+1)^0,c
  2298  0024' 0E00'              	movlw	low I2C1_Write1ByteRegister@data
  2299  0026' 6E00'              	movwf	I2C1_SetDataCompleteCallback@ptr^0,c
  2300  0028' 0E00'              	movlw	high I2C1_Write1ByteRegister@data
  2301  002A' 6E00'              	movwf	(I2C1_SetDataCompleteCallback@ptr+1)^0,c
  2302  002C' EC00' F000'        	call	_I2C1_SetDataCompleteCallback	;wreg free
  2303  0030'                    
  2304                           ;mcc_generated_files/examples/i2c1_master_example.c: 95:     I2C1_SetBuffer(&reg,1);
  2305  0030' 0E00'              	movlw	low I2C1_Write1ByteRegister@reg
  2306  0032' 6E00'              	movwf	I2C1_SetBuffer@buffer^0,c
  2307  0034' 0E00'              	movlw	high I2C1_Write1ByteRegister@reg
  2308  0036' 6E00'              	movwf	(I2C1_SetBuffer@buffer+1)^0,c
  2309  0038' 0E00               	movlw	0
  2310  003A' 6E00'              	movwf	(I2C1_SetBuffer@bufferSize+1)^0,c
  2311  003C' 0E01               	movlw	1
  2312  003E' 6E00'              	movwf	I2C1_SetBuffer@bufferSize^0,c
  2313  0040' EC00' F000'        	call	_I2C1_SetBuffer	;wreg free
  2314  0044'                    
  2315                           ;mcc_generated_files/examples/i2c1_master_example.c: 96:     I2C1_SetAddressNackCallback
      +                          (((void*)0),((void*)0));
  2316  0044' 0E00               	movlw	0
  2317  0046' 6E00'              	movwf	I2C1_SetAddressNackCallback@cb^0,c
  2318  0048' 0E00               	movlw	0
  2319  004A' 6E00'              	movwf	(I2C1_SetAddressNackCallback@cb+1)^0,c
  2320  004C' 0E00               	movlw	0
  2321  004E' 6E00'              	movwf	I2C1_SetAddressNackCallback@ptr^0,c
  2322  0050' 0E00               	movlw	0
  2323  0052' 6E00'              	movwf	(I2C1_SetAddressNackCallback@ptr+1)^0,c
  2324  0054' EC00' F000'        	call	_I2C1_SetAddressNackCallback	;wreg free
  2325  0058'                    
  2326                           ;mcc_generated_files/examples/i2c1_master_example.c: 97:     I2C1_MasterWrite();
  2327  0058' EC00' F000'        	call	_I2C1_MasterWrite	;wreg free
  2328  005C'                    l3789:
  2329  005C' EC00' F000'        	call	_I2C1_Close	;wreg free
  2330  0060' 06E8               	decf	wreg,f,c
  2331  0062' B4D8               	btfsc	status,2,c
  2332  0064' EF00' F000'        	goto	u1611
  2333  0068' EF00' F000'        	goto	u1610
  2334  006C'                    u1611:
  2335  006C' EF00' F000'        	goto	l3789
  2336  0070'                    u1610:
  2337  0070' 0012               	return		;funcret
  2338  0072'                    __end_of_I2C1_Write1ByteRegister:
  2339                           	callstack 0
  2340                           
  2341 ;; *************** function _I2C1_SetDataCompleteCallback *****************
  2342 ;; Defined at:
  2343 ;;		line 274 in file "mcc_generated_files/i2c1_master.c"
  2344 ;; Parameters:    Size  Location     Type
  2345 ;;  cb              2   28[COMRAM] PTR FTN(PTR void ,)enum 
  2346 ;;		 -> Absolute function(1), rdBlkRegCompleteHandler(1), wr2RegCompleteHandler(1), wr1RegCompleteHandler(1), 
  2347 ;;		 -> rd2RegCompleteHandler(1), rd1RegCompleteHandler(1), 
  2348 ;;  ptr             2   30[COMRAM] PTR void 
  2349 ;;		 -> I2C1_ReadDataBlock@bufferBlock(4), I2C1_Write2ByteRegister@data(2), I2C1_Write1ByteRegister@data(1), I2C1_Read2B
      +yteRegister@returnValue(2), 
  2350 ;;		 -> NULL(0), I2C1_Read1ByteRegister@returnValue(1), 
  2351 ;; Auto vars:     Size  Location     Type
  2352 ;;		None
  2353 ;; Return value:  Size  Location     Type
  2354 ;;                  1    wreg      void 
  2355 ;; Registers used:
  2356 ;;		wreg, fsr2l, fsr2h, status,2, status,0, prodl, prodh, cstack
  2357 ;; Tracked objects:
  2358 ;;		On entry : 0/0
  2359 ;;		On exit  : 0/0
  2360 ;;		Unchanged: 0/0
  2361 ;; Data sizes:     COMRAM   BANK0   BANK1   BANK2   BANK3   BANK4   BANK5   BANK6   BANK7   BANK8   BANK9  BANK10  BANK1
      +1  BANK12  BANK13  BANK14
  2362 ;;      Params:         4       0       0       0       0       0       0       0       0       0       0       0       
      +0       0       0       0
  2363 ;;      Locals:         0       0       0       0       0       0       0       0       0       0       0       0       
      +0       0       0       0
  2364 ;;      Temps:          0       0       0       0       0       0       0       0       0       0       0       0       
      +0       0       0       0
  2365 ;;      Totals:         4       0       0       0       0       0       0       0       0       0       0       0       
      +0       0       0       0
  2366 ;;Total ram usage:        4 bytes
  2367 ;; Hardware stack levels used: 1
  2368 ;; Hardware stack levels required when called: 8
  2369 ;; This function calls:
  2370 ;;		_I2C1_SetCallback
  2371 ;; This function is called by:
  2372 ;;		_I2C1_Write1ByteRegister
  2373 ;;		_I2C1_Read1ByteRegister
  2374 ;;		_I2C1_Read2ByteRegister
  2375 ;;		_I2C1_Write2ByteRegister
  2376 ;;		_I2C1_ReadDataBlock
  2377 ;; This function uses a non-reentrant model
  2378 ;;
  2379                           
  2380                           	psect	text22
  2381  0000'                    __ptext22:
  2382                           	callstack 0
  2383  0000'                    _I2C1_SetDataCompleteCallback:
  2384                           	callstack 21
  2385  0000'                    
  2386                           ;mcc_generated_files/i2c1_master.c: 274: void I2C1_SetDataCompleteCallback(i2c1_callback
      +                          _t cb, void *ptr);mcc_generated_files/i2c1_master.c: 275: {;mcc_generated_files/i2c1_mas
      +                          ter.c: 276:     I2C1_SetCallback(I2C1_DATA_COMPLETE, cb, ptr);
  2387  0000' C01C' F017'        	movff	I2C1_SetDataCompleteCallback@cb,I2C1_SetCallback@cb
  2388  0004' C01D' F018'        	movff	I2C1_SetDataCompleteCallback@cb+1,I2C1_SetCallback@cb+1
  2389  0008' C01E' F019'        	movff	I2C1_SetDataCompleteCallback@ptr,I2C1_SetCallback@ptr
  2390  000C' C01F' F01A'        	movff	I2C1_SetDataCompleteCallback@ptr+1,I2C1_SetCallback@ptr+1
  2391  0010' 0E00               	movlw	0
  2392  0012' EC00' F000'        	call	_I2C1_SetCallback
  2393  0016' 0012               	return		;funcret
  2394  0018'                    __end_of_I2C1_SetDataCompleteCallback:
  2395                           	callstack 0
  2396                           
  2397 ;; *************** function _I2C1_SetBuffer *****************
  2398 ;; Defined at:
  2399 ;;		line 264 in file "mcc_generated_files/i2c1_master.c"
  2400 ;; Parameters:    Size  Location     Type
  2401 ;;  buffer          2   23[COMRAM] PTR void 
  2402 ;;		 -> I2C1_ReadDataBlock@reg(1), I2C1_ReadDataBlock@bufferBlock(4), I2C1_Write2ByteRegister@reg(1), I2C1_Write2ByteReg
      +ister@data(2), 
  2403 ;;		 -> I2C1_Write1ByteRegister@reg(1), I2C1_Write1ByteRegister@data(1), I2C1_Read2ByteRegister@reg(1), I2C1_Read2ByteRe
      +gister@returnValue(2), 
  2404 ;;		 -> NULL(0), I2C1_Read1ByteRegister@reg(1), I2C1_Read1ByteRegister@returnValue(1), 
  2405 ;;  bufferSize      2   25[COMRAM] unsigned int 
  2406 ;; Auto vars:     Size  Location     Type
  2407 ;;		None
  2408 ;; Return value:  Size  Location     Type
  2409 ;;                  1    wreg      void 
  2410 ;; Registers used:
  2411 ;;		wreg, status,2, status,0
  2412 ;; Tracked objects:
  2413 ;;		On entry : 0/0
  2414 ;;		On exit  : 0/0
  2415 ;;		Unchanged: 0/0
  2416 ;; Data sizes:     COMRAM   BANK0   BANK1   BANK2   BANK3   BANK4   BANK5   BANK6   BANK7   BANK8   BANK9  BANK10  BANK1
      +1  BANK12  BANK13  BANK14
  2417 ;;      Params:         4       0       0       0       0       0       0       0       0       0       0       0       
      +0       0       0       0
  2418 ;;      Locals:         0       0       0       0       0       0       0       0       0       0       0       0       
      +0       0       0       0
  2419 ;;      Temps:          0       0       0       0       0       0       0       0       0       0       0       0       
      +0       0       0       0
  2420 ;;      Totals:         4       0       0       0       0       0       0       0       0       0       0       0       
      +0       0       0       0
  2421 ;;Total ram usage:        4 bytes
  2422 ;; Hardware stack levels used: 1
  2423 ;; Hardware stack levels required when called: 7
  2424 ;; This function calls:
  2425 ;;		Nothing
  2426 ;; This function is called by:
  2427 ;;		_I2C1_Write1ByteRegister
  2428 ;;		_I2C1_Read1ByteRegister
  2429 ;;		_I2C1_Read2ByteRegister
  2430 ;;		_I2C1_Write2ByteRegister
  2431 ;;		_I2C1_WriteNBytes
  2432 ;;		_I2C1_ReadNBytes
  2433 ;;		_I2C1_ReadDataBlock
  2434 ;; This function uses a non-reentrant model
  2435 ;;
  2436                           
  2437                           	psect	text23
  2438  0000'                    __ptext23:
  2439                           	callstack 0
  2440  0000'                    _I2C1_SetBuffer:
  2441                           	callstack 22
  2442  0000'                    
  2443                           ;mcc_generated_files/i2c1_master.c: 264: void I2C1_SetBuffer(void *buffer, size_t buffer
      +                          Size);mcc_generated_files/i2c1_master.c: 265: {;mcc_generated_files/i2c1_master.c: 266: 
      +                              if(I2C1_Status.bufferFree)
  2444  0000' 0100               	movlb	0	; () banked
  2445  0002' A700'              	btfss	(_I2C1_Status+35)& (0+255),3,b
  2446  0004' EF00' F000'        	goto	u1571
  2447  0008' EF00' F000'        	goto	u1570
  2448  000C'                    u1571:
  2449  000C' EF00' F000'        	goto	l422
  2450  0010'                    u1570:
  2451  0010'                    
  2452                           ; BSR set to: 0
  2453                           ;mcc_generated_files/i2c1_master.c: 267:     {;mcc_generated_files/i2c1_master.c: 268:  
      +                                 I2C1_Status.data_ptr = buffer;
  2454  0010' C017' F01D'        	movff	I2C1_SetBuffer@buffer,_I2C1_Status+29
  2455  0014' C018' F01E'        	movff	I2C1_SetBuffer@buffer+1,_I2C1_Status+30
  2456  0018'                    
  2457                           ; BSR set to: 0
  2458                           ;mcc_generated_files/i2c1_master.c: 269:         I2C1_Status.data_length = bufferSize;
  2459  0018' C019' F01F'        	movff	I2C1_SetBuffer@bufferSize,_I2C1_Status+31
  2460  001C' C01A' F020'        	movff	I2C1_SetBuffer@bufferSize+1,_I2C1_Status+32
  2461  0020'                    
  2462                           ; BSR set to: 0
  2463                           ;mcc_generated_files/i2c1_master.c: 270:         I2C1_Status.bufferFree = 0;
  2464  0020' 9700'              	bcf	(_I2C1_Status+35)& (0+255),3,b
  2465  0022'                    l422:
  2466                           
  2467                           ; BSR set to: 0
  2468  0022' 0012               	return		;funcret
  2469  0024'                    __end_of_I2C1_SetBuffer:
  2470                           	callstack 0
  2471                           
  2472 ;; *************** function _I2C1_SetAddressNackCallback *****************
  2473 ;; Defined at:
  2474 ;;		line 284 in file "mcc_generated_files/i2c1_master.c"
  2475 ;; Parameters:    Size  Location     Type
  2476 ;;  cb              2   28[COMRAM] PTR FTN(PTR void ,)enum 
  2477 ;;		 -> Absolute function(1), 
  2478 ;;  ptr             2   30[COMRAM] PTR void 
  2479 ;;		 -> NULL(0), 
  2480 ;; Auto vars:     Size  Location     Type
  2481 ;;		None
  2482 ;; Return value:  Size  Location     Type
  2483 ;;                  1    wreg      void 
  2484 ;; Registers used:
  2485 ;;		wreg, fsr2l, fsr2h, status,2, status,0, prodl, prodh, cstack
  2486 ;; Tracked objects:
  2487 ;;		On entry : 0/0
  2488 ;;		On exit  : 0/0
  2489 ;;		Unchanged: 0/0
  2490 ;; Data sizes:     COMRAM   BANK0   BANK1   BANK2   BANK3   BANK4   BANK5   BANK6   BANK7   BANK8   BANK9  BANK10  BANK1
      +1  BANK12  BANK13  BANK14
  2491 ;;      Params:         4       0       0       0       0       0       0       0       0       0       0       0       
      +0       0       0       0
  2492 ;;      Locals:         0       0       0       0       0       0       0       0       0       0       0       0       
      +0       0       0       0
  2493 ;;      Temps:          0       0       0       0       0       0       0       0       0       0       0       0       
      +0       0       0       0
  2494 ;;      Totals:         4       0       0       0       0       0       0       0       0       0       0       0       
      +0       0       0       0
  2495 ;;Total ram usage:        4 bytes
  2496 ;; Hardware stack levels used: 1
  2497 ;; Hardware stack levels required when called: 8
  2498 ;; This function calls:
  2499 ;;		_I2C1_SetCallback
  2500 ;; This function is called by:
  2501 ;;		_I2C1_Write1ByteRegister
  2502 ;;		_I2C1_Read1ByteRegister
  2503 ;;		_I2C1_Read2ByteRegister
  2504 ;;		_I2C1_Write2ByteRegister
  2505 ;;		_I2C1_WriteNBytes
  2506 ;;		_I2C1_ReadDataBlock
  2507 ;; This function uses a non-reentrant model
  2508 ;;
  2509                           
  2510                           	psect	text24
  2511  0000'                    __ptext24:
  2512                           	callstack 0
  2513  0000'                    _I2C1_SetAddressNackCallback:
  2514                           	callstack 21
  2515  0000'                    
  2516                           ;mcc_generated_files/i2c1_master.c: 284: void I2C1_SetAddressNackCallback(i2c1_callback_
      +                          t cb, void *ptr);mcc_generated_files/i2c1_master.c: 285: {;mcc_generated_files/i2c1_mast
      +                          er.c: 286:     I2C1_SetCallback(I2C1_ADDR_NACK, cb, ptr);
  2517  0000' C01C' F017'        	movff	I2C1_SetAddressNackCallback@cb,I2C1_SetCallback@cb
  2518  0004' C01D' F018'        	movff	I2C1_SetAddressNackCallback@cb+1,I2C1_SetCallback@cb+1
  2519  0008' C01E' F019'        	movff	I2C1_SetAddressNackCallback@ptr,I2C1_SetCallback@ptr
  2520  000C' C01F' F01A'        	movff	I2C1_SetAddressNackCallback@ptr+1,I2C1_SetCallback@ptr+1
  2521  0010' 0E02               	movlw	2
  2522  0012' EC00' F000'        	call	_I2C1_SetCallback
  2523  0016' 0012               	return		;funcret
  2524  0018'                    __end_of_I2C1_SetAddressNackCallback:
  2525                           	callstack 0
  2526                           
  2527 ;; *************** function _I2C1_SetCallback *****************
  2528 ;; Defined at:
  2529 ;;		line 304 in file "mcc_generated_files/i2c1_master.c"
  2530 ;; Parameters:    Size  Location     Type
  2531 ;;  idx             1    wreg     enum E6673
  2532 ;;  cb              2   23[COMRAM] PTR FTN(PTR void ,)enum 
  2533 ;;		 -> Absolute function(1), rdBlkRegCompleteHandler(1), wr2RegCompleteHandler(1), wr1RegCompleteHandler(1), 
  2534 ;;		 -> rd2RegCompleteHandler(1), rd1RegCompleteHandler(1), 
  2535 ;;  ptr             2   25[COMRAM] PTR void 
  2536 ;;		 -> I2C1_ReadDataBlock@bufferBlock(4), I2C1_Write2ByteRegister@data(2), I2C1_Write1ByteRegister@data(1), I2C1_Read2B
      +yteRegister@returnValue(2), 
  2537 ;;		 -> NULL(0), I2C1_Read1ByteRegister@returnValue(1), 
  2538 ;; Auto vars:     Size  Location     Type
  2539 ;;  idx             1   27[COMRAM] enum E6673
  2540 ;; Return value:  Size  Location     Type
  2541 ;;                  1    wreg      void 
  2542 ;; Registers used:
  2543 ;;		wreg, fsr2l, fsr2h, status,2, status,0, prodl, prodh
  2544 ;; Tracked objects:
  2545 ;;		On entry : 0/0
  2546 ;;		On exit  : 0/0
  2547 ;;		Unchanged: 0/0
  2548 ;; Data sizes:     COMRAM   BANK0   BANK1   BANK2   BANK3   BANK4   BANK5   BANK6   BANK7   BANK8   BANK9  BANK10  BANK1
      +1  BANK12  BANK13  BANK14
  2549 ;;      Params:         4       0       0       0       0       0       0       0       0       0       0       0       
      +0       0       0       0
  2550 ;;      Locals:         1       0       0       0       0       0       0       0       0       0       0       0       
      +0       0       0       0
  2551 ;;      Temps:          0       0       0       0       0       0       0       0       0       0       0       0       
      +0       0       0       0
  2552 ;;      Totals:         5       0       0       0       0       0       0       0       0       0       0       0       
      +0       0       0       0
  2553 ;;Total ram usage:        5 bytes
  2554 ;; Hardware stack levels used: 1
  2555 ;; Hardware stack levels required when called: 7
  2556 ;; This function calls:
  2557 ;;		Nothing
  2558 ;; This function is called by:
  2559 ;;		_I2C1_SetDataCompleteCallback
  2560 ;;		_I2C1_SetAddressNackCallback
  2561 ;;		_I2C1_SetWriteCollisionCallback
  2562 ;;		_I2C1_SetDataNackCallback
  2563 ;;		_I2C1_SetTimeoutCallback
  2564 ;; This function uses a non-reentrant model
  2565 ;;
  2566                           
  2567                           	psect	text25
  2568  0000'                    __ptext25:
  2569                           	callstack 0
  2570  0000'                    _I2C1_SetCallback:
  2571                           	callstack 21
  2572                           
  2573                           ;incstack = 0
  2574                           ;I2C1_SetCallback@idx stored from wreg
  2575  0000' 6E00'              	movwf	I2C1_SetCallback@idx^0,c
  2576  0002'                    
  2577                           ;mcc_generated_files/i2c1_master.c: 304: static void I2C1_SetCallback(i2c1_callbackIndex
      +                          _t idx, i2c1_callback_t cb, void *ptr);mcc_generated_files/i2c1_master.c: 305: {;mcc_gen
      +                          erated_files/i2c1_master.c: 306:     if(cb)
  2578  0002' 5000'              	movf	I2C1_SetCallback@cb^0,w,c
  2579  0004' 1000'              	iorwf	(I2C1_SetCallback@cb+1)^0,w,c
  2580  0006' B4D8               	btfsc	status,2,c
  2581  0008' EF00' F000'        	goto	u1531
  2582  000C' EF00' F000'        	goto	u1530
  2583  0010'                    u1531:
  2584  0010' EF00' F000'        	goto	l3603
  2585  0014'                    u1530:
  2586  0014'                    
  2587                           ;mcc_generated_files/i2c1_master.c: 307:     {;mcc_generated_files/i2c1_master.c: 308:  
      +                                 I2C1_Status.callbackTable[idx] = cb;
  2588  0014' 5000'              	movf	I2C1_SetCallback@idx^0,w,c
  2589  0016' 0D02               	mullw	2
  2590  0018' 0E00'              	movlw	low _I2C1_Status
  2591  001A' 24F3               	addwf	243,w,c
  2592  001C' 6ED9               	movwf	fsr2l,c
  2593  001E' 0E00'              	movlw	high _I2C1_Status
  2594  0020' 20F4               	addwfc	prodh,w,c
  2595  0022' 6EDA               	movwf	fsr2h,c
  2596  0024' C017' FFDE         	movff	I2C1_SetCallback@cb,postinc2
  2597  0028' C018' FFDD         	movff	I2C1_SetCallback@cb+1,postdec2
  2598                           
  2599                           ;mcc_generated_files/i2c1_master.c: 309:         I2C1_Status.callbackPayload[idx] = ptr;
  2600  002C' 5000'              	movf	I2C1_SetCallback@idx^0,w,c
  2601  002E' 0D02               	mullw	2
  2602  0030' 0E00'              	movlw	low (_I2C1_Status+12)
  2603  0032' 24F3               	addwf	243,w,c
  2604  0034' 6ED9               	movwf	fsr2l,c
  2605  0036' 0E00'              	movlw	high (_I2C1_Status+12)
  2606  0038' 20F4               	addwfc	prodh,w,c
  2607  003A' 6EDA               	movwf	fsr2h,c
  2608  003C' C019' FFDE         	movff	I2C1_SetCallback@ptr,postinc2
  2609  0040' C01A' FFDD         	movff	I2C1_SetCallback@ptr+1,postdec2
  2610                           
  2611                           ;mcc_generated_files/i2c1_master.c: 310:     }
  2612  0044' EF00' F000'        	goto	l445
  2613  0048'                    l3603:
  2614                           
  2615                           ;mcc_generated_files/i2c1_master.c: 312:     {;mcc_generated_files/i2c1_master.c: 313:  
      +                                 I2C1_Status.callbackTable[idx] = I2C1_CallbackReturnStop;
  2616  0048' 5000'              	movf	I2C1_SetCallback@idx^0,w,c
  2617  004A' 0D02               	mullw	2
  2618  004C' 0E00'              	movlw	low _I2C1_Status
  2619  004E' 24F3               	addwf	243,w,c
  2620  0050' 6ED9               	movwf	fsr2l,c
  2621  0052' 0E00'              	movlw	high _I2C1_Status
  2622  0054' 20F4               	addwfc	prodh,w,c
  2623  0056' 6EDA               	movwf	fsr2h,c
  2624  0058' 0E00'              	movlw	low _I2C1_CallbackReturnStop
  2625  005A' 6EDE               	movwf	postinc2,c
  2626  005C' 0E00'              	movlw	high _I2C1_CallbackReturnStop
  2627  005E' 6EDD               	movwf	postdec2,c
  2628                           
  2629                           ;mcc_generated_files/i2c1_master.c: 314:         I2C1_Status.callbackPayload[idx] = ((vo
      +                          id*)0);
  2630  0060' 5000'              	movf	I2C1_SetCallback@idx^0,w,c
  2631  0062' 0D02               	mullw	2
  2632  0064' 0E00'              	movlw	low (_I2C1_Status+12)
  2633  0066' 24F3               	addwf	243,w,c
  2634  0068' 6ED9               	movwf	fsr2l,c
  2635  006A' 0E00'              	movlw	high (_I2C1_Status+12)
  2636  006C' 20F4               	addwfc	prodh,w,c
  2637  006E' 6EDA               	movwf	fsr2h,c
  2638  0070' 0E00               	movlw	0
  2639  0072' 6EDE               	movwf	postinc2,c
  2640  0074' 0E00               	movlw	0
  2641  0076' 6EDD               	movwf	postdec2,c
  2642  0078'                    l445:
  2643  0078' 0012               	return		;funcret
  2644  007A'                    __end_of_I2C1_SetCallback:
  2645                           	callstack 0
  2646                           
  2647 ;; *************** function _I2C1_Open *****************
  2648 ;; Defined at:
  2649 ;;		line 176 in file "mcc_generated_files/i2c1_master.c"
  2650 ;; Parameters:    Size  Location     Type
  2651 ;;  address         1    wreg     unsigned char 
  2652 ;; Auto vars:     Size  Location     Type
  2653 ;;  address         1   25[COMRAM] unsigned char 
  2654 ;;  returnValue     1   26[COMRAM] enum E355
  2655 ;; Return value:  Size  Location     Type
  2656 ;;                  1    wreg      enum E355
  2657 ;; Registers used:
  2658 ;;		wreg, status,2, status,0, cstack
  2659 ;; Tracked objects:
  2660 ;;		On entry : 0/0
  2661 ;;		On exit  : 0/0
  2662 ;;		Unchanged: 0/0
  2663 ;; Data sizes:     COMRAM   BANK0   BANK1   BANK2   BANK3   BANK4   BANK5   BANK6   BANK7   BANK8   BANK9  BANK10  BANK1
      +1  BANK12  BANK13  BANK14
  2664 ;;      Params:         0       0       0       0       0       0       0       0       0       0       0       0       
      +0       0       0       0
  2665 ;;      Locals:         2       0       0       0       0       0       0       0       0       0       0       0       
      +0       0       0       0
  2666 ;;      Temps:          0       0       0       0       0       0       0       0       0       0       0       0       
      +0       0       0       0
  2667 ;;      Totals:         2       0       0       0       0       0       0       0       0       0       0       0       
      +0       0       0       0
  2668 ;;Total ram usage:        2 bytes
  2669 ;; Hardware stack levels used: 1
  2670 ;; Hardware stack levels required when called: 8
  2671 ;; This function calls:
  2672 ;;		_I2C1_MasterClearIrq
  2673 ;;		_I2C1_MasterEnableIrq
  2674 ;;		_I2C1_MasterOpen
  2675 ;;		_I2C1_SetInterruptHandler
  2676 ;; This function is called by:
  2677 ;;		_I2C1_Write1ByteRegister
  2678 ;;		_I2C1_Read1ByteRegister
  2679 ;;		_I2C1_Read2ByteRegister
  2680 ;;		_I2C1_Write2ByteRegister
  2681 ;;		_I2C1_WriteNBytes
  2682 ;;		_I2C1_ReadNBytes
  2683 ;;		_I2C1_ReadDataBlock
  2684 ;; This function uses a non-reentrant model
  2685 ;;
  2686                           
  2687                           	psect	text26
  2688  0000'                    __ptext26:
  2689                           	callstack 0
  2690  0000'                    _I2C1_Open:
  2691                           	callstack 21
  2692                           
  2693                           ;incstack = 0
  2694                           ;I2C1_Open@address stored from wreg
  2695  0000' 6E00'              	movwf	I2C1_Open@address^0,c
  2696  0002'                    
  2697                           ;mcc_generated_files/i2c1_master.c: 176: i2c1_error_t I2C1_Open(i2c1_address_t address);
      +                          mcc_generated_files/i2c1_master.c: 177: {;mcc_generated_files/i2c1_master.c: 178:     i2
      +                          c1_error_t returnValue = I2C1_BUSY;
  2698  0002' 0E01               	movlw	1
  2699  0004' 6E00'              	movwf	I2C1_Open@returnValue^0,c
  2700  0006'                    
  2701                           ;mcc_generated_files/i2c1_master.c: 180:     if(!I2C1_Status.inUse)
  2702  0006' 0100               	movlb	0	; () banked
  2703  0008' B500'              	btfsc	(_I2C1_Status+35)& (0+255),2,b
  2704  000A' EF00' F000'        	goto	u1561
  2705  000E' EF00' F000'        	goto	u1560
  2706  0012'                    u1561:
  2707  0012' EF00' F000'        	goto	l3685
  2708  0016'                    u1560:
  2709  0016'                    
  2710                           ; BSR set to: 0
  2711                           ;mcc_generated_files/i2c1_master.c: 181:     {;mcc_generated_files/i2c1_master.c: 182:  
      +                                 I2C1_Status.address = address;
  2712  0016' C019' F01C'        	movff	I2C1_Open@address,_I2C1_Status+28
  2713  001A'                    
  2714                           ; BSR set to: 0
  2715                           ;mcc_generated_files/i2c1_master.c: 183:         I2C1_Status.busy = 0;
  2716  001A' 9300'              	bcf	(_I2C1_Status+35)& (0+255),1,b
  2717  001C'                    
  2718                           ; BSR set to: 0
  2719                           ;mcc_generated_files/i2c1_master.c: 184:         I2C1_Status.inUse = 1;
  2720  001C' 8500'              	bsf	(_I2C1_Status+35)& (0+255),2,b
  2721  001E'                    
  2722                           ; BSR set to: 0
  2723                           ;mcc_generated_files/i2c1_master.c: 185:         I2C1_Status.addressNackCheck = 0;
  2724  001E' 9100'              	bcf	(_I2C1_Status+35)& (0+255),0,b
  2725  0020'                    
  2726                           ; BSR set to: 0
  2727                           ;mcc_generated_files/i2c1_master.c: 186:         I2C1_Status.state = I2C1_RESET;
  2728  0020' 0E0E               	movlw	14
  2729  0022' 6F00'              	movwf	(_I2C1_Status+33)& (0+255),b
  2730  0024'                    
  2731                           ; BSR set to: 0
  2732                           ;mcc_generated_files/i2c1_master.c: 187:         I2C1_Status.time_out_value = 500;
  2733  0024' 0E01               	movlw	1
  2734  0026' 6F00'              	movwf	(_I2C1_Status+27)& (0+255),b
  2735  0028' 0EF4               	movlw	244
  2736  002A' 6F00'              	movwf	(_I2C1_Status+26)& (0+255),b
  2737  002C'                    
  2738                           ; BSR set to: 0
  2739                           ;mcc_generated_files/i2c1_master.c: 188:         I2C1_Status.bufferFree = 1;
  2740  002C' 8700'              	bsf	(_I2C1_Status+35)& (0+255),3,b
  2741  002E'                    
  2742                           ; BSR set to: 0
  2743                           ;mcc_generated_files/i2c1_master.c: 191:         I2C1_Status.callbackTable[I2C1_DATA_COM
      +                          PLETE]=I2C1_CallbackReturnStop;
  2744  002E' 0E00'              	movlw	low _I2C1_CallbackReturnStop
  2745  0030' 6F00'              	movwf	_I2C1_Status& (0+255),b
  2746  0032' 0E00'              	movlw	high _I2C1_CallbackReturnStop
  2747  0034' 6F00'              	movwf	(_I2C1_Status+1)& (0+255),b
  2748  0036'                    
  2749                           ; BSR set to: 0
  2750                           ;mcc_generated_files/i2c1_master.c: 192:         I2C1_Status.callbackPayload[I2C1_DATA_C
      +                          OMPLETE] = ((void*)0);
  2751  0036' 0E00               	movlw	0
  2752  0038' 6F00'              	movwf	(_I2C1_Status+12)& (0+255),b
  2753  003A' 0E00               	movlw	0
  2754  003C' 6F00'              	movwf	(_I2C1_Status+13)& (0+255),b
  2755  003E'                    
  2756                           ; BSR set to: 0
  2757                           ;mcc_generated_files/i2c1_master.c: 193:         I2C1_Status.callbackTable[I2C1_WRITE_CO
      +                          LLISION]=I2C1_CallbackReturnStop;
  2758  003E' 0E00'              	movlw	low _I2C1_CallbackReturnStop
  2759  0040' 6F00'              	movwf	(_I2C1_Status+2)& (0+255),b
  2760  0042' 0E00'              	movlw	high _I2C1_CallbackReturnStop
  2761  0044' 6F00'              	movwf	(_I2C1_Status+3)& (0+255),b
  2762  0046'                    
  2763                           ; BSR set to: 0
  2764                           ;mcc_generated_files/i2c1_master.c: 194:         I2C1_Status.callbackPayload[I2C1_WRITE_
      +                          COLLISION] = ((void*)0);
  2765  0046' 0E00               	movlw	0
  2766  0048' 6F00'              	movwf	(_I2C1_Status+14)& (0+255),b
  2767  004A' 0E00               	movlw	0
  2768  004C' 6F00'              	movwf	(_I2C1_Status+15)& (0+255),b
  2769  004E'                    
  2770                           ; BSR set to: 0
  2771                           ;mcc_generated_files/i2c1_master.c: 195:         I2C1_Status.callbackTable[I2C1_ADDR_NAC
      +                          K]=I2C1_CallbackReturnStop;
  2772  004E' 0E00'              	movlw	low _I2C1_CallbackReturnStop
  2773  0050' 6F00'              	movwf	(_I2C1_Status+4)& (0+255),b
  2774  0052' 0E00'              	movlw	high _I2C1_CallbackReturnStop
  2775  0054' 6F00'              	movwf	(_I2C1_Status+5)& (0+255),b
  2776  0056'                    
  2777                           ; BSR set to: 0
  2778                           ;mcc_generated_files/i2c1_master.c: 196:         I2C1_Status.callbackPayload[I2C1_ADDR_N
      +                          ACK] = ((void*)0);
  2779  0056' 0E00               	movlw	0
  2780  0058' 6F00'              	movwf	(_I2C1_Status+16)& (0+255),b
  2781  005A' 0E00               	movlw	0
  2782  005C' 6F00'              	movwf	(_I2C1_Status+17)& (0+255),b
  2783  005E'                    
  2784                           ; BSR set to: 0
  2785                           ;mcc_generated_files/i2c1_master.c: 197:         I2C1_Status.callbackTable[I2C1_DATA_NAC
      +                          K]=I2C1_CallbackReturnStop;
  2786  005E' 0E00'              	movlw	low _I2C1_CallbackReturnStop
  2787  0060' 6F00'              	movwf	(_I2C1_Status+6)& (0+255),b
  2788  0062' 0E00'              	movlw	high _I2C1_CallbackReturnStop
  2789  0064' 6F00'              	movwf	(_I2C1_Status+7)& (0+255),b
  2790  0066'                    
  2791                           ; BSR set to: 0
  2792                           ;mcc_generated_files/i2c1_master.c: 198:         I2C1_Status.callbackPayload[I2C1_DATA_N
      +                          ACK] = ((void*)0);
  2793  0066' 0E00               	movlw	0
  2794  0068' 6F00'              	movwf	(_I2C1_Status+18)& (0+255),b
  2795  006A' 0E00               	movlw	0
  2796  006C' 6F00'              	movwf	(_I2C1_Status+19)& (0+255),b
  2797  006E'                    
  2798                           ; BSR set to: 0
  2799                           ;mcc_generated_files/i2c1_master.c: 199:         I2C1_Status.callbackTable[I2C1_TIMEOUT]
      +                          =I2C1_CallbackReturnReset;
  2800  006E' 0E00'              	movlw	low _I2C1_CallbackReturnReset
  2801  0070' 6F00'              	movwf	(_I2C1_Status+8)& (0+255),b
  2802  0072' 0E00'              	movlw	high _I2C1_CallbackReturnReset
  2803  0074' 6F00'              	movwf	(_I2C1_Status+9)& (0+255),b
  2804  0076'                    
  2805                           ; BSR set to: 0
  2806                           ;mcc_generated_files/i2c1_master.c: 200:         I2C1_Status.callbackPayload[I2C1_TIMEOU
      +                          T] = ((void*)0);
  2807  0076' 0E00               	movlw	0
  2808  0078' 6F00'              	movwf	(_I2C1_Status+20)& (0+255),b
  2809  007A' 0E00               	movlw	0
  2810  007C' 6F00'              	movwf	(_I2C1_Status+21)& (0+255),b
  2811  007E'                    
  2812                           ; BSR set to: 0
  2813                           ;mcc_generated_files/i2c1_master.c: 202:         I2C1_SetInterruptHandler(I2C1_MasterIsr
      +                          );
  2814  007E' 0E00'              	movlw	low _I2C1_MasterIsr
  2815  0080' 6E00'              	movwf	I2C1_SetInterruptHandler@InterruptHandler^0,c
  2816  0082' 0E00'              	movlw	high _I2C1_MasterIsr
  2817  0084' 6E00'              	movwf	(I2C1_SetInterruptHandler@InterruptHandler+1)^0,c
  2818  0086' EC00' F000'        	call	_I2C1_SetInterruptHandler	;wreg free
  2819  008A'                    
  2820                           ;mcc_generated_files/i2c1_master.c: 203:         I2C1_MasterClearIrq();
  2821  008A' EC00' F000'        	call	_I2C1_MasterClearIrq	;wreg free
  2822  008E'                    
  2823                           ;mcc_generated_files/i2c1_master.c: 204:         I2C1_MasterOpen();
  2824  008E' EC00' F000'        	call	_I2C1_MasterOpen	;wreg free
  2825  0092'                    
  2826                           ;mcc_generated_files/i2c1_master.c: 205:         I2C1_MasterEnableIrq();
  2827  0092' EC00' F000'        	call	_I2C1_MasterEnableIrq	;wreg free
  2828  0096'                    
  2829                           ;mcc_generated_files/i2c1_master.c: 206:         returnValue = I2C1_NOERR;
  2830  0096' 0E00               	movlw	0
  2831  0098' 6E00'              	movwf	I2C1_Open@returnValue^0,c
  2832  009A'                    l3685:
  2833                           
  2834                           ;mcc_generated_files/i2c1_master.c: 208:     return returnValue;
  2835  009A' 5000'              	movf	I2C1_Open@returnValue^0,w,c
  2836  009C' 0012               	return		;funcret
  2837  009E'                    __end_of_I2C1_Open:
  2838                           	callstack 0
  2839                           
  2840 ;; *************** function _I2C1_SetInterruptHandler *****************
  2841 ;; Defined at:
  2842 ;;		line 299 in file "mcc_generated_files/i2c1_master.c"
  2843 ;; Parameters:    Size  Location     Type
  2844 ;;  InterruptHan    2   23[COMRAM] PTR FTN()void 
  2845 ;;		 -> I2C1_MasterIsr(1), 
  2846 ;; Auto vars:     Size  Location     Type
  2847 ;;		None
  2848 ;; Return value:  Size  Location     Type
  2849 ;;                  1    wreg      void 
  2850 ;; Registers used:
  2851 ;;		wreg, status,2, status,0
  2852 ;; Tracked objects:
  2853 ;;		On entry : 0/0
  2854 ;;		On exit  : 0/0
  2855 ;;		Unchanged: 0/0
  2856 ;; Data sizes:     COMRAM   BANK0   BANK1   BANK2   BANK3   BANK4   BANK5   BANK6   BANK7   BANK8   BANK9  BANK10  BANK1
      +1  BANK12  BANK13  BANK14
  2857 ;;      Params:         2       0       0       0       0       0       0       0       0       0       0       0       
      +0       0       0       0
  2858 ;;      Locals:         0       0       0       0       0       0       0       0       0       0       0       0       
      +0       0       0       0
  2859 ;;      Temps:          0       0       0       0       0       0       0       0       0       0       0       0       
      +0       0       0       0
  2860 ;;      Totals:         2       0       0       0       0       0       0       0       0       0       0       0       
      +0       0       0       0
  2861 ;;Total ram usage:        2 bytes
  2862 ;; Hardware stack levels used: 1
  2863 ;; Hardware stack levels required when called: 7
  2864 ;; This function calls:
  2865 ;;		Nothing
  2866 ;; This function is called by:
  2867 ;;		_I2C1_Open
  2868 ;; This function uses a non-reentrant model
  2869 ;;
  2870                           
  2871                           	psect	text27
  2872  0000'                    __ptext27:
  2873                           	callstack 0
  2874  0000'                    _I2C1_SetInterruptHandler:
  2875                           	callstack 21
  2876  0000'                    
  2877                           ;mcc_generated_files/i2c1_master.c: 299: void I2C1_SetInterruptHandler(void (* Interrupt
      +                          Handler)(void));mcc_generated_files/i2c1_master.c: 300: {;mcc_generated_files/i2c1_maste
      +                          r.c: 301:     MSSP1_InterruptHandler = InterruptHandler;
  2878  0000' C017' F01A'        	movff	I2C1_SetInterruptHandler@InterruptHandler,_MSSP1_InterruptHandler
  2879  0004' C018' F01B'        	movff	I2C1_SetInterruptHandler@InterruptHandler+1,_MSSP1_InterruptHandler+1
  2880  0008' 0012               	return		;funcret
  2881  000A'                    __end_of_I2C1_SetInterruptHandler:
  2882                           	callstack 0
  2883                           
  2884 ;; *************** function _I2C1_MasterOpen *****************
  2885 ;; Defined at:
  2886 ;;		line 544 in file "mcc_generated_files/i2c1_master.c"
  2887 ;; Parameters:    Size  Location     Type
  2888 ;;		None
  2889 ;; Auto vars:     Size  Location     Type
  2890 ;;		None
  2891 ;; Return value:  Size  Location     Type
  2892 ;;                  1    wreg      _Bool 
  2893 ;; Registers used:
  2894 ;;		wreg, status,2
  2895 ;; Tracked objects:
  2896 ;;		On entry : 0/0
  2897 ;;		On exit  : 0/0
  2898 ;;		Unchanged: 0/0
  2899 ;; Data sizes:     COMRAM   BANK0   BANK1   BANK2   BANK3   BANK4   BANK5   BANK6   BANK7   BANK8   BANK9  BANK10  BANK1
      +1  BANK12  BANK13  BANK14
  2900 ;;      Params:         0       0       0       0       0       0       0       0       0       0       0       0       
      +0       0       0       0
  2901 ;;      Locals:         0       0       0       0       0       0       0       0       0       0       0       0       
      +0       0       0       0
  2902 ;;      Temps:          0       0       0       0       0       0       0       0       0       0       0       0       
      +0       0       0       0
  2903 ;;      Totals:         0       0       0       0       0       0       0       0       0       0       0       0       
      +0       0       0       0
  2904 ;;Total ram usage:        0 bytes
  2905 ;; Hardware stack levels used: 1
  2906 ;; Hardware stack levels required when called: 7
  2907 ;; This function calls:
  2908 ;;		Nothing
  2909 ;; This function is called by:
  2910 ;;		_I2C1_Open
  2911 ;; This function uses a non-reentrant model
  2912 ;;
  2913                           
  2914                           	psect	text28
  2915  0000'                    __ptext28:
  2916                           	callstack 0
  2917  0000'                    _I2C1_MasterOpen:
  2918                           	callstack 21
  2919  0000'                    
  2920                           ;mcc_generated_files/i2c1_master.c: 546:     if(!SSP1CON1bits.SSPEN)
  2921  0000' BAC6               	btfsc	198,5,c	;volatile
  2922  0002' EF00' F000'        	goto	u1501
  2923  0006' EF00' F000'        	goto	u1500
  2924  000A'                    u1501:
  2925  000A' EF00' F000'        	goto	l564
  2926  000E'                    u1500:
  2927  000E'                    
  2928                           ;mcc_generated_files/i2c1_master.c: 547:     {;mcc_generated_files/i2c1_master.c: 548:  
      +                                 SSP1STAT = 0x80;
  2929  000E' 0E80               	movlw	128
  2930  0010' 6EC7               	movwf	199,c	;volatile
  2931                           
  2932                           ;mcc_generated_files/i2c1_master.c: 549:         SSP1CON1 = 0x08;
  2933  0012' 0E08               	movlw	8
  2934  0014' 6EC6               	movwf	198,c	;volatile
  2935                           
  2936                           ;mcc_generated_files/i2c1_master.c: 550:         SSP1CON2 = 0x00;
  2937  0016' 0E00               	movlw	0
  2938  0018' 6EC5               	movwf	197,c	;volatile
  2939                           
  2940                           ;mcc_generated_files/i2c1_master.c: 551:         SSP1ADD = 0xEF;
  2941  001A' 0EEF               	movlw	239
  2942  001C' 6EC8               	movwf	200,c	;volatile
  2943  001E'                    
  2944                           ;mcc_generated_files/i2c1_master.c: 552:         SSP1CON1bits.SSPEN = 1;
  2945  001E' 8AC6               	bsf	198,5,c	;volatile
  2946  0020'                    l564:
  2947  0020' 0012               	return		;funcret
  2948  0022'                    __end_of_I2C1_MasterOpen:
  2949                           	callstack 0
  2950                           
  2951 ;; *************** function _I2C1_MasterEnableIrq *****************
  2952 ;; Defined at:
  2953 ;;		line 627 in file "mcc_generated_files/i2c1_master.c"
  2954 ;; Parameters:    Size  Location     Type
  2955 ;;		None
  2956 ;; Auto vars:     Size  Location     Type
  2957 ;;		None
  2958 ;; Return value:  Size  Location     Type
  2959 ;;                  1    wreg      void 
  2960 ;; Registers used:
  2961 ;;		None
  2962 ;; Tracked objects:
  2963 ;;		On entry : 0/0
  2964 ;;		On exit  : 0/0
  2965 ;;		Unchanged: 0/0
  2966 ;; Data sizes:     COMRAM   BANK0   BANK1   BANK2   BANK3   BANK4   BANK5   BANK6   BANK7   BANK8   BANK9  BANK10  BANK1
      +1  BANK12  BANK13  BANK14
  2967 ;;      Params:         0       0       0       0       0       0       0       0       0       0       0       0       
      +0       0       0       0
  2968 ;;      Locals:         0       0       0       0       0       0       0       0       0       0       0       0       
      +0       0       0       0
  2969 ;;      Temps:          0       0       0       0       0       0       0       0       0       0       0       0       
      +0       0       0       0
  2970 ;;      Totals:         0       0       0       0       0       0       0       0       0       0       0       0       
      +0       0       0       0
  2971 ;;Total ram usage:        0 bytes
  2972 ;; Hardware stack levels used: 1
  2973 ;; Hardware stack levels required when called: 7
  2974 ;; This function calls:
  2975 ;;		Nothing
  2976 ;; This function is called by:
  2977 ;;		_I2C1_Open
  2978 ;;		_I2C1_SetTimeOut
  2979 ;; This function uses a non-reentrant model
  2980 ;;
  2981                           
  2982                           	psect	text29
  2983  0000'                    __ptext29:
  2984                           	callstack 0
  2985  0000'                    _I2C1_MasterEnableIrq:
  2986                           	callstack 21
  2987  0000'                    
  2988                           ;mcc_generated_files/i2c1_master.c: 629:     PIE1bits.SSP1IE = 1;
  2989  0000' 869D               	bsf	157,3,c	;volatile
  2990  0002' 0012               	return		;funcret
  2991  0004'                    __end_of_I2C1_MasterEnableIrq:
  2992                           	callstack 0
  2993                           
  2994 ;; *************** function _I2C1_MasterWrite *****************
  2995 ;; Defined at:
  2996 ;;		line 252 in file "mcc_generated_files/i2c1_master.c"
  2997 ;; Parameters:    Size  Location     Type
  2998 ;;		None
  2999 ;; Auto vars:     Size  Location     Type
  3000 ;;		None
  3001 ;; Return value:  Size  Location     Type
  3002 ;;                  1    wreg      enum E355
  3003 ;; Registers used:
  3004 ;;		wreg, status,2, cstack
  3005 ;; Tracked objects:
  3006 ;;		On entry : 0/0
  3007 ;;		On exit  : 0/0
  3008 ;;		Unchanged: 0/0
  3009 ;; Data sizes:     COMRAM   BANK0   BANK1   BANK2   BANK3   BANK4   BANK5   BANK6   BANK7   BANK8   BANK9  BANK10  BANK1
      +1  BANK12  BANK13  BANK14
  3010 ;;      Params:         0       0       0       0       0       0       0       0       0       0       0       0       
      +0       0       0       0
  3011 ;;      Locals:         0       0       0       0       0       0       0       0       0       0       0       0       
      +0       0       0       0
  3012 ;;      Temps:          0       0       0       0       0       0       0       0       0       0       0       0       
      +0       0       0       0
  3013 ;;      Totals:         0       0       0       0       0       0       0       0       0       0       0       0       
      +0       0       0       0
  3014 ;;Total ram usage:        0 bytes
  3015 ;; Hardware stack levels used: 1
  3016 ;; Hardware stack levels required when called: 9
  3017 ;; This function calls:
  3018 ;;		_I2C1_MasterOperation
  3019 ;; This function is called by:
  3020 ;;		_I2C1_Write1ByteRegister
  3021 ;;		_I2C1_Read1ByteRegister
  3022 ;;		_I2C1_Read2ByteRegister
  3023 ;;		_I2C1_Write2ByteRegister
  3024 ;;		_I2C1_WriteNBytes
  3025 ;;		_I2C1_ReadDataBlock
  3026 ;; This function uses a non-reentrant model
  3027 ;;
  3028                           
  3029                           	psect	text30
  3030  0000'                    __ptext30:
  3031                           	callstack 0
  3032  0000'                    _I2C1_MasterWrite:
  3033                           	callstack 20
  3034  0000'                    
  3035                           ;mcc_generated_files/i2c1_master.c: 254:     return I2C1_MasterOperation(0);;	Return val
      +                          ue of _I2C1_MasterWrite is never used
  3036  0000' 0E00               	movlw	0
  3037  0002' EC00' F000'        	call	_I2C1_MasterOperation
  3038  0006' 0012               	return		;funcret
  3039  0008'                    __end_of_I2C1_MasterWrite:
  3040                           	callstack 0
  3041                           
  3042 ;; *************** function _I2C1_MasterOperation *****************
  3043 ;; Defined at:
  3044 ;;		line 226 in file "mcc_generated_files/i2c1_master.c"
  3045 ;; Parameters:    Size  Location     Type
  3046 ;;  read            1    wreg     _Bool 
  3047 ;; Auto vars:     Size  Location     Type
  3048 ;;  read            1   23[COMRAM] _Bool 
  3049 ;;  returnValue     1   24[COMRAM] enum E355
  3050 ;; Return value:  Size  Location     Type
  3051 ;;                  1    wreg      enum E355
  3052 ;; Registers used:
  3053 ;;		wreg, status,2, cstack
  3054 ;; Tracked objects:
  3055 ;;		On entry : 0/0
  3056 ;;		On exit  : 0/0
  3057 ;;		Unchanged: 0/0
  3058 ;; Data sizes:     COMRAM   BANK0   BANK1   BANK2   BANK3   BANK4   BANK5   BANK6   BANK7   BANK8   BANK9  BANK10  BANK1
      +1  BANK12  BANK13  BANK14
  3059 ;;      Params:         0       0       0       0       0       0       0       0       0       0       0       0       
      +0       0       0       0
  3060 ;;      Locals:         2       0       0       0       0       0       0       0       0       0       0       0       
      +0       0       0       0
  3061 ;;      Temps:          0       0       0       0       0       0       0       0       0       0       0       0       
      +0       0       0       0
  3062 ;;      Totals:         2       0       0       0       0       0       0       0       0       0       0       0       
      +0       0       0       0
  3063 ;;Total ram usage:        2 bytes
  3064 ;; Hardware stack levels used: 1
  3065 ;; Hardware stack levels required when called: 8
  3066 ;; This function calls:
  3067 ;;		_I2C1_MasterStart
  3068 ;; This function is called by:
  3069 ;;		_I2C1_MasterWrite
  3070 ;;		_I2C1_MasterRead
  3071 ;; This function uses a non-reentrant model
  3072 ;;
  3073                           
  3074                           	psect	text31
  3075  0000'                    __ptext31:
  3076                           	callstack 0
  3077  0000'                    _I2C1_MasterOperation:
  3078                           	callstack 20
  3079                           
  3080                           ;incstack = 0
  3081                           ;I2C1_MasterOperation@read stored from wreg
  3082  0000' 6E00'              	movwf	I2C1_MasterOperation@read^0,c
  3083  0002'                    
  3084                           ;mcc_generated_files/i2c1_master.c: 226: i2c1_error_t I2C1_MasterOperation(_Bool read);m
      +                          cc_generated_files/i2c1_master.c: 227: {;mcc_generated_files/i2c1_master.c: 228:     i2c
      +                          1_error_t returnValue = I2C1_BUSY;
  3085  0002' 0E01               	movlw	1
  3086  0004' 6E00'              	movwf	I2C1_MasterOperation@returnValue^0,c
  3087  0006'                    
  3088                           ;mcc_generated_files/i2c1_master.c: 229:     if(!I2C1_Status.busy)
  3089  0006' 0100               	movlb	0	; () banked
  3090  0008' B300'              	btfsc	(_I2C1_Status+35)& (0+255),1,b
  3091  000A' EF00' F000'        	goto	u1511
  3092  000E' EF00' F000'        	goto	u1510
  3093  0012'                    u1511:
  3094  0012' EF00' F000'        	goto	l3595
  3095  0016'                    u1510:
  3096  0016'                    
  3097                           ; BSR set to: 0
  3098                           ;mcc_generated_files/i2c1_master.c: 230:     {;mcc_generated_files/i2c1_master.c: 231:  
      +                                 I2C1_Status.busy = 1;
  3099  0016' 8300'              	bsf	(_I2C1_Status+35)& (0+255),1,b
  3100  0018'                    
  3101                           ; BSR set to: 0
  3102                           ;mcc_generated_files/i2c1_master.c: 232:         returnValue = I2C1_NOERR;
  3103  0018' 0E00               	movlw	0
  3104  001A' 6E00'              	movwf	I2C1_MasterOperation@returnValue^0,c
  3105  001C'                    
  3106                           ; BSR set to: 0
  3107                           ;mcc_generated_files/i2c1_master.c: 234:         if(read)
  3108  001C' 5000'              	movf	I2C1_MasterOperation@read^0,w,c
  3109  001E' B4D8               	btfsc	status,2,c
  3110  0020' EF00' F000'        	goto	u1521
  3111  0024' EF00' F000'        	goto	u1520
  3112  0028'                    u1521:
  3113  0028' EF00' F000'        	goto	l3591
  3114  002C'                    u1520:
  3115  002C'                    
  3116                           ; BSR set to: 0
  3117                           ;mcc_generated_files/i2c1_master.c: 235:         {;mcc_generated_files/i2c1_master.c: 23
      +                          6:             I2C1_Status.state = I2C1_SEND_ADR_READ;
  3118  002C' 0E01               	movlw	1
  3119  002E' 6F00'              	movwf	(_I2C1_Status+33)& (0+255),b
  3120                           
  3121                           ;mcc_generated_files/i2c1_master.c: 237:         }
  3122  0030' EF00' F000'        	goto	l3593
  3123  0034'                    l3591:
  3124                           
  3125                           ; BSR set to: 0
  3126                           ;mcc_generated_files/i2c1_master.c: 239:         {;mcc_generated_files/i2c1_master.c: 24
      +                          0:             I2C1_Status.state = I2C1_SEND_ADR_WRITE;
  3127  0034' 0E02               	movlw	2
  3128  0036' 6F00'              	movwf	(_I2C1_Status+33)& (0+255),b
  3129  0038'                    l3593:
  3130                           
  3131                           ; BSR set to: 0
  3132                           ;mcc_generated_files/i2c1_master.c: 242:         I2C1_MasterStart();
  3133  0038' EC00' F000'        	call	_I2C1_MasterStart	;wreg free
  3134  003C'                    l3595:
  3135                           
  3136                           ;mcc_generated_files/i2c1_master.c: 244:     return returnValue;
  3137  003C' 5000'              	movf	I2C1_MasterOperation@returnValue^0,w,c
  3138  003E' 0012               	return		;funcret
  3139  0040'                    __end_of_I2C1_MasterOperation:
  3140                           	callstack 0
  3141                           
  3142 ;; *************** function _I2C1_MasterStart *****************
  3143 ;; Defined at:
  3144 ;;		line 589 in file "mcc_generated_files/i2c1_master.c"
  3145 ;; Parameters:    Size  Location     Type
  3146 ;;		None
  3147 ;; Auto vars:     Size  Location     Type
  3148 ;;		None
  3149 ;; Return value:  Size  Location     Type
  3150 ;;                  1    wreg      void 
  3151 ;; Registers used:
  3152 ;;		None
  3153 ;; Tracked objects:
  3154 ;;		On entry : 0/0
  3155 ;;		On exit  : 0/0
  3156 ;;		Unchanged: 0/0
  3157 ;; Data sizes:     COMRAM   BANK0   BANK1   BANK2   BANK3   BANK4   BANK5   BANK6   BANK7   BANK8   BANK9  BANK10  BANK1
      +1  BANK12  BANK13  BANK14
  3158 ;;      Params:         0       0       0       0       0       0       0       0       0       0       0       0       
      +0       0       0       0
  3159 ;;      Locals:         0       0       0       0       0       0       0       0       0       0       0       0       
      +0       0       0       0
  3160 ;;      Temps:          0       0       0       0       0       0       0       0       0       0       0       0       
      +0       0       0       0
  3161 ;;      Totals:         0       0       0       0       0       0       0       0       0       0       0       0       
      +0       0       0       0
  3162 ;;Total ram usage:        0 bytes
  3163 ;; Hardware stack levels used: 1
  3164 ;; Hardware stack levels required when called: 7
  3165 ;; This function calls:
  3166 ;;		Nothing
  3167 ;; This function is called by:
  3168 ;;		_I2C1_MasterOperation
  3169 ;; This function uses a non-reentrant model
  3170 ;;
  3171                           
  3172                           	psect	text32
  3173  0000'                    __ptext32:
  3174                           	callstack 0
  3175  0000'                    _I2C1_MasterStart:
  3176                           	callstack 20
  3177  0000'                    
  3178                           ;mcc_generated_files/i2c1_master.c: 591:     SSP1CON2bits.SEN = 1;
  3179  0000' 80C5               	bsf	197,0,c	;volatile
  3180  0002' 0012               	return		;funcret
  3181  0004'                    __end_of_I2C1_MasterStart:
  3182                           	callstack 0
  3183                           
  3184 ;; *************** function _I2C1_Close *****************
  3185 ;; Defined at:
  3186 ;;		line 211 in file "mcc_generated_files/i2c1_master.c"
  3187 ;; Parameters:    Size  Location     Type
  3188 ;;		None
  3189 ;; Auto vars:     Size  Location     Type
  3190 ;;  returnValue     1   23[COMRAM] enum E355
  3191 ;; Return value:  Size  Location     Type
  3192 ;;                  1    wreg      enum E355
  3193 ;; Registers used:
  3194 ;;		wreg, status,2, cstack
  3195 ;; Tracked objects:
  3196 ;;		On entry : 0/0
  3197 ;;		On exit  : 0/0
  3198 ;;		Unchanged: 0/0
  3199 ;; Data sizes:     COMRAM   BANK0   BANK1   BANK2   BANK3   BANK4   BANK5   BANK6   BANK7   BANK8   BANK9  BANK10  BANK1
      +1  BANK12  BANK13  BANK14
  3200 ;;      Params:         0       0       0       0       0       0       0       0       0       0       0       0       
      +0       0       0       0
  3201 ;;      Locals:         1       0       0       0       0       0       0       0       0       0       0       0       
      +0       0       0       0
  3202 ;;      Temps:          0       0       0       0       0       0       0       0       0       0       0       0       
      +0       0       0       0
  3203 ;;      Totals:         1       0       0       0       0       0       0       0       0       0       0       0       
      +0       0       0       0
  3204 ;;Total ram usage:        1 bytes
  3205 ;; Hardware stack levels used: 1
  3206 ;; Hardware stack levels required when called: 8
  3207 ;; This function calls:
  3208 ;;		_I2C1_MasterClearIrq
  3209 ;;		_I2C1_MasterClose
  3210 ;;		_I2C1_MasterDisableIrq
  3211 ;; This function is called by:
  3212 ;;		_I2C1_Write1ByteRegister
  3213 ;;		_I2C1_Read1ByteRegister
  3214 ;;		_I2C1_Read2ByteRegister
  3215 ;;		_I2C1_Write2ByteRegister
  3216 ;;		_I2C1_WriteNBytes
  3217 ;;		_I2C1_ReadNBytes
  3218 ;;		_I2C1_ReadDataBlock
  3219 ;; This function uses a non-reentrant model
  3220 ;;
  3221                           
  3222                           	psect	text33
  3223  0000'                    __ptext33:
  3224                           	callstack 0
  3225  0000'                    _I2C1_Close:
  3226                           	callstack 21
  3227  0000'                    
  3228                           ;mcc_generated_files/i2c1_master.c: 213:     i2c1_error_t returnValue = I2C1_BUSY;
  3229  0000' 0E01               	movlw	1
  3230  0002' 6E00'              	movwf	I2C1_Close@returnValue^0,c
  3231  0004'                    
  3232                           ;mcc_generated_files/i2c1_master.c: 214:     if(!I2C1_Status.busy)
  3233  0004' 0100               	movlb	0	; () banked
  3234  0006' B300'              	btfsc	(_I2C1_Status+35)& (0+255),1,b
  3235  0008' EF00' F000'        	goto	u1581
  3236  000C' EF00' F000'        	goto	u1580
  3237  0010'                    u1581:
  3238  0010' EF00' F000'        	goto	l3715
  3239  0014'                    u1580:
  3240  0014'                    
  3241                           ; BSR set to: 0
  3242                           ;mcc_generated_files/i2c1_master.c: 215:     {;mcc_generated_files/i2c1_master.c: 216:  
      +                                 I2C1_Status.inUse = 0;
  3243  0014' 9500'              	bcf	(_I2C1_Status+35)& (0+255),2,b
  3244                           
  3245                           ;mcc_generated_files/i2c1_master.c: 217:         I2C1_Status.address = 0xff;
  3246  0016' 6900'              	setf	(_I2C1_Status+28)& (0+255),b
  3247  0018'                    
  3248                           ; BSR set to: 0
  3249                           ;mcc_generated_files/i2c1_master.c: 218:         I2C1_MasterClearIrq();
  3250  0018' EC00' F000'        	call	_I2C1_MasterClearIrq	;wreg free
  3251                           
  3252                           ;mcc_generated_files/i2c1_master.c: 219:         I2C1_MasterDisableIrq();
  3253  001C' EC00' F000'        	call	_I2C1_MasterDisableIrq	;wreg free
  3254                           
  3255                           ;mcc_generated_files/i2c1_master.c: 220:         I2C1_MasterClose();
  3256  0020' EC00' F000'        	call	_I2C1_MasterClose	;wreg free
  3257  0024'                    
  3258                           ;mcc_generated_files/i2c1_master.c: 221:         returnValue = I2C1_Status.error;
  3259  0024' C022' F017'        	movff	_I2C1_Status+34,I2C1_Close@returnValue
  3260  0028'                    l3715:
  3261                           
  3262                           ;mcc_generated_files/i2c1_master.c: 223:     return returnValue;
  3263  0028' 5000'              	movf	I2C1_Close@returnValue^0,w,c
  3264  002A' 0012               	return		;funcret
  3265  002C'                    __end_of_I2C1_Close:
  3266                           	callstack 0
  3267                           
  3268 ;; *************** function _I2C1_MasterDisableIrq *****************
  3269 ;; Defined at:
  3270 ;;		line 637 in file "mcc_generated_files/i2c1_master.c"
  3271 ;; Parameters:    Size  Location     Type
  3272 ;;		None
  3273 ;; Auto vars:     Size  Location     Type
  3274 ;;		None
  3275 ;; Return value:  Size  Location     Type
  3276 ;;                  1    wreg      void 
  3277 ;; Registers used:
  3278 ;;		None
  3279 ;; Tracked objects:
  3280 ;;		On entry : 0/0
  3281 ;;		On exit  : 0/0
  3282 ;;		Unchanged: 0/0
  3283 ;; Data sizes:     COMRAM   BANK0   BANK1   BANK2   BANK3   BANK4   BANK5   BANK6   BANK7   BANK8   BANK9  BANK10  BANK1
      +1  BANK12  BANK13  BANK14
  3284 ;;      Params:         0       0       0       0       0       0       0       0       0       0       0       0       
      +0       0       0       0
  3285 ;;      Locals:         0       0       0       0       0       0       0       0       0       0       0       0       
      +0       0       0       0
  3286 ;;      Temps:          0       0       0       0       0       0       0       0       0       0       0       0       
      +0       0       0       0
  3287 ;;      Totals:         0       0       0       0       0       0       0       0       0       0       0       0       
      +0       0       0       0
  3288 ;;Total ram usage:        0 bytes
  3289 ;; Hardware stack levels used: 1
  3290 ;; Hardware stack levels required when called: 7
  3291 ;; This function calls:
  3292 ;;		Nothing
  3293 ;; This function is called by:
  3294 ;;		_I2C1_Close
  3295 ;;		_I2C1_SetTimeOut
  3296 ;; This function uses a non-reentrant model
  3297 ;;
  3298                           
  3299                           	psect	text34
  3300  0000'                    __ptext34:
  3301                           	callstack 0
  3302  0000'                    _I2C1_MasterDisableIrq:
  3303                           	callstack 21
  3304  0000'                    
  3305                           ;mcc_generated_files/i2c1_master.c: 639:     PIE1bits.SSP1IE = 0;
  3306  0000' 969D               	bcf	157,3,c	;volatile
  3307  0002' 0012               	return		;funcret
  3308  0004'                    __end_of_I2C1_MasterDisableIrq:
  3309                           	callstack 0
  3310                           
  3311 ;; *************** function _I2C1_MasterClose *****************
  3312 ;; Defined at:
  3313 ;;		line 558 in file "mcc_generated_files/i2c1_master.c"
  3314 ;; Parameters:    Size  Location     Type
  3315 ;;		None
  3316 ;; Auto vars:     Size  Location     Type
  3317 ;;		None
  3318 ;; Return value:  Size  Location     Type
  3319 ;;                  1    wreg      void 
  3320 ;; Registers used:
  3321 ;;		None
  3322 ;; Tracked objects:
  3323 ;;		On entry : 0/0
  3324 ;;		On exit  : 0/0
  3325 ;;		Unchanged: 0/0
  3326 ;; Data sizes:     COMRAM   BANK0   BANK1   BANK2   BANK3   BANK4   BANK5   BANK6   BANK7   BANK8   BANK9  BANK10  BANK1
      +1  BANK12  BANK13  BANK14
  3327 ;;      Params:         0       0       0       0       0       0       0       0       0       0       0       0       
      +0       0       0       0
  3328 ;;      Locals:         0       0       0       0       0       0       0       0       0       0       0       0       
      +0       0       0       0
  3329 ;;      Temps:          0       0       0       0       0       0       0       0       0       0       0       0       
      +0       0       0       0
  3330 ;;      Totals:         0       0       0       0       0       0       0       0       0       0       0       0       
      +0       0       0       0
  3331 ;;Total ram usage:        0 bytes
  3332 ;; Hardware stack levels used: 1
  3333 ;; Hardware stack levels required when called: 7
  3334 ;; This function calls:
  3335 ;;		Nothing
  3336 ;; This function is called by:
  3337 ;;		_I2C1_Close
  3338 ;; This function uses a non-reentrant model
  3339 ;;
  3340                           
  3341                           	psect	text35
  3342  0000'                    __ptext35:
  3343                           	callstack 0
  3344  0000'                    _I2C1_MasterClose:
  3345                           	callstack 21
  3346  0000'                    
  3347                           ;mcc_generated_files/i2c1_master.c: 561:     SSP1CON1bits.SSPEN = 0;
  3348  0000' 9AC6               	bcf	198,5,c	;volatile
  3349  0002' 0012               	return		;funcret
  3350  0004'                    __end_of_I2C1_MasterClose:
  3351                           	callstack 0
  3352                           
  3353 ;; *************** function _I2C1_MasterClearIrq *****************
  3354 ;; Defined at:
  3355 ;;		line 642 in file "mcc_generated_files/i2c1_master.c"
  3356 ;; Parameters:    Size  Location     Type
  3357 ;;		None
  3358 ;; Auto vars:     Size  Location     Type
  3359 ;;		None
  3360 ;; Return value:  Size  Location     Type
  3361 ;;                  1    wreg      void 
  3362 ;; Registers used:
  3363 ;;		None
  3364 ;; Tracked objects:
  3365 ;;		On entry : 0/0
  3366 ;;		On exit  : 0/0
  3367 ;;		Unchanged: 0/0
  3368 ;; Data sizes:     COMRAM   BANK0   BANK1   BANK2   BANK3   BANK4   BANK5   BANK6   BANK7   BANK8   BANK9  BANK10  BANK1
      +1  BANK12  BANK13  BANK14
  3369 ;;      Params:         0       0       0       0       0       0       0       0       0       0       0       0       
      +0       0       0       0
  3370 ;;      Locals:         0       0       0       0       0       0       0       0       0       0       0       0       
      +0       0       0       0
  3371 ;;      Temps:          0       0       0       0       0       0       0       0       0       0       0       0       
      +0       0       0       0
  3372 ;;      Totals:         0       0       0       0       0       0       0       0       0       0       0       0       
      +0       0       0       0
  3373 ;;Total ram usage:        0 bytes
  3374 ;; Hardware stack levels used: 1
  3375 ;; Hardware stack levels required when called: 7
  3376 ;; This function calls:
  3377 ;;		Nothing
  3378 ;; This function is called by:
  3379 ;;		_I2C1_Open
  3380 ;;		_I2C1_Close
  3381 ;; This function uses a non-reentrant model
  3382 ;;
  3383                           
  3384                           	psect	text36
  3385  0000'                    __ptext36:
  3386                           	callstack 0
  3387  0000'                    _I2C1_MasterClearIrq:
  3388                           	callstack 21
  3389  0000'                    
  3390                           ;mcc_generated_files/i2c1_master.c: 644:     PIR1bits.SSP1IF = 0;
  3391  0000' 969E               	bcf	158,3,c	;volatile
  3392  0002' 0012               	return		;funcret
  3393  0004'                    __end_of_I2C1_MasterClearIrq:
  3394                           	callstack 0
  3395                           
  3396 ;; *************** function _INTERRUPT_InterruptManager *****************
  3397 ;; Defined at:
  3398 ;;		line 58 in file "mcc_generated_files/interrupt_manager.c"
  3399 ;; Parameters:    Size  Location     Type
  3400 ;;		None
  3401 ;; Auto vars:     Size  Location     Type
  3402 ;;		None
  3403 ;; Return value:  Size  Location     Type
  3404 ;;                  1    wreg      void 
  3405 ;; Registers used:
  3406 ;;		wreg, fsr2l, fsr2h, status,2, status,0, pcl, pclath, pclatu, tosl, tblptrl, tblptrh, tblptru, prodl, prodh, cstack
  3407 ;; Tracked objects:
  3408 ;;		On entry : 0/0
  3409 ;;		On exit  : 0/0
  3410 ;;		Unchanged: 0/0
  3411 ;; Data sizes:     COMRAM   BANK0   BANK1   BANK2   BANK3   BANK4   BANK5   BANK6   BANK7   BANK8   BANK9  BANK10  BANK1
      +1  BANK12  BANK13  BANK14
  3412 ;;      Params:         0       0       0       0       0       0       0       0       0       0       0       0       
      +0       0       0       0
  3413 ;;      Locals:         0       0       0       0       0       0       0       0       0       0       0       0       
      +0       0       0       0
  3414 ;;      Temps:         10       0       0       0       0       0       0       0       0       0       0       0       
      +0       0       0       0
  3415 ;;      Totals:        10       0       0       0       0       0       0       0       0       0       0       0       
      +0       0       0       0
  3416 ;;Total ram usage:       10 bytes
  3417 ;; Hardware stack levels used: 1
  3418 ;; Hardware stack levels required when called: 6
  3419 ;; This function calls:
  3420 ;;		Absolute function
  3421 ;;		_EUSART2_Receive_ISR
  3422 ;;		_EUSART2_Transmit_ISR
  3423 ;;		_I2C1_MasterIsr
  3424 ;; This function is called by:
  3425 ;;		Interrupt level 2
  3426 ;; This function uses a non-reentrant model
  3427 ;;
  3428                           
  3429                           	psect	intcode
  3430  0000'                    __pintcode:
  3431                           	callstack 0
  3432  0000'                    _INTERRUPT_InterruptManager:
  3433                           	callstack 18
  3434                           
  3435                           ;incstack = 0
  3436  0000' 8200'              	bsf	int$flags,1,c	;set compiler interrupt flag (level 2)
  3437  0002' CFFA F00D'         	movff	pclath,??_INTERRUPT_InterruptManager
  3438  0006' CFFB F00E'         	movff	pclatu,??_INTERRUPT_InterruptManager+1
  3439  000A' CFD9 F00F'         	movff	fsr2l,??_INTERRUPT_InterruptManager+2
  3440  000E' CFDA F010'         	movff	fsr2h,??_INTERRUPT_InterruptManager+3
  3441  0012' CFF3 F011'         	movff	prodl,??_INTERRUPT_InterruptManager+4
  3442  0016' CFF4 F012'         	movff	prodh,??_INTERRUPT_InterruptManager+5
  3443  001A' CFF6 F013'         	movff	tblptrl,??_INTERRUPT_InterruptManager+6
  3444  001E' CFF7 F014'         	movff	tblptrh,??_INTERRUPT_InterruptManager+7
  3445  0022' CFF8 F015'         	movff	tblptru,??_INTERRUPT_InterruptManager+8
  3446  0026' CFF5 F016'         	movff	tablat,??_INTERRUPT_InterruptManager+9
  3447  002A'                    
  3448                           ;mcc_generated_files/interrupt_manager.c: 61:     if(INTCONbits.PEIE == 1)
  3449  002A' ACF2               	btfss	242,6,c	;volatile
  3450  002C' EF00' F000'        	goto	i2u130_41
  3451  0030' EF00' F000'        	goto	i2u130_40
  3452  0034'                    i2u130_41:
  3453  0034' EF00' F000'        	goto	i2l733
  3454  0038'                    i2u130_40:
  3455  0038'                    
  3456                           ;mcc_generated_files/interrupt_manager.c: 62:     {;mcc_generated_files/interrupt_manage
      +                          r.c: 63:         if(PIE3bits.TX2IE == 1 && PIR3bits.TX2IF == 1)
  3457  0038' A8A3               	btfss	163,4,c	;volatile
  3458  003A' EF00' F000'        	goto	i2u131_41
  3459  003E' EF00' F000'        	goto	i2u131_40
  3460  0042'                    i2u131_41:
  3461  0042' EF00' F000'        	goto	i2l724
  3462  0046'                    i2u131_40:
  3463  0046' A8A4               	btfss	164,4,c	;volatile
  3464  0048' EF00' F000'        	goto	i2u132_41
  3465  004C' EF00' F000'        	goto	i2u132_40
  3466  0050'                    i2u132_41:
  3467  0050' EF00' F000'        	goto	i2l724
  3468  0054'                    i2u132_40:
  3469  0054'                    
  3470                           ;mcc_generated_files/interrupt_manager.c: 64:         {;mcc_generated_files/interrupt_ma
      +                          nager.c: 65:             EUSART2_TxDefaultInterruptHandler();
  3471  0054' D802               	call	i2u133_48
  3472  0056' EF00' F000'        	goto	i2u133_49
  3473  005A'                    i2u133_48:
  3474  005A' 0005               	push	
  3475  005C' 6EFA               	movwf	pclath,c
  3476  005E' 5000'              	movf	_EUSART2_TxDefaultInterruptHandler^0,w,c
  3477  0060' 6EFD               	movwf	tosl,c
  3478  0062' 5000'              	movf	(_EUSART2_TxDefaultInterruptHandler+1)^0,w,c
  3479  0064' 6EFE               	movwf	tosh,c
  3480  0066' 50F8               	movf	tblptru,w,c
  3481  0068' 6EFF               	movwf	tosu,c
  3482  006A' 50FA               	movf	pclath,w,c
  3483  006C' 0012               	return		;indir
  3484  006E'                    i2u133_49:
  3485                           
  3486                           ;mcc_generated_files/interrupt_manager.c: 66:         }
  3487  006E' EF00' F000'        	goto	i2l733
  3488  0072'                    i2l724:
  3489  0072' AAA3               	btfss	163,5,c	;volatile
  3490  0074' EF00' F000'        	goto	i2u134_41
  3491  0078' EF00' F000'        	goto	i2u134_40
  3492  007C'                    i2u134_41:
  3493  007C' EF00' F000'        	goto	i2l726
  3494  0080'                    i2u134_40:
  3495  0080' AAA4               	btfss	164,5,c	;volatile
  3496  0082' EF00' F000'        	goto	i2u135_41
  3497  0086' EF00' F000'        	goto	i2u135_40
  3498  008A'                    i2u135_41:
  3499  008A' EF00' F000'        	goto	i2l726
  3500  008E'                    i2u135_40:
  3501  008E'                    
  3502                           ;mcc_generated_files/interrupt_manager.c: 68:         {;mcc_generated_files/interrupt_ma
      +                          nager.c: 69:             EUSART2_RxDefaultInterruptHandler();
  3503  008E' D802               	call	i2u136_48
  3504  0090' EF00' F000'        	goto	i2u136_49
  3505  0094'                    i2u136_48:
  3506  0094' 0005               	push	
  3507  0096' 0100               	movlb	0	; () banked
  3508  0098' 6EFA               	movwf	pclath,c
  3509  009A' 5100'              	movf	_EUSART2_RxDefaultInterruptHandler& (0+255),w,b
  3510  009C' 6EFD               	movwf	tosl,c
  3511  009E' 5100'              	movf	(_EUSART2_RxDefaultInterruptHandler+1)& (0+255),w,b
  3512  00A0' 6EFE               	movwf	tosh,c
  3513  00A2' 50F8               	movf	tblptru,w,c
  3514  00A4' 6EFF               	movwf	tosu,c
  3515  00A6' 50FA               	movf	pclath,w,c
  3516  00A8' 0012               	return		;indir
  3517  00AA'                    i2u136_49:
  3518                           
  3519                           ;mcc_generated_files/interrupt_manager.c: 70:         }
  3520  00AA' EF00' F000'        	goto	i2l733
  3521  00AE'                    i2l726:
  3522  00AE' A6A0               	btfss	160,3,c	;volatile
  3523  00B0' EF00' F000'        	goto	i2u137_41
  3524  00B4' EF00' F000'        	goto	i2u137_40
  3525  00B8'                    i2u137_41:
  3526  00B8' EF00' F000'        	goto	i2l728
  3527  00BC'                    i2u137_40:
  3528  00BC' A6A1               	btfss	161,3,c	;volatile
  3529  00BE' EF00' F000'        	goto	i2u138_41
  3530  00C2' EF00' F000'        	goto	i2u138_40
  3531  00C6'                    i2u138_41:
  3532  00C6' EF00' F000'        	goto	i2l728
  3533  00CA'                    i2u138_40:
  3534  00CA'                    i2l3391:
  3535                           
  3536                           ;mcc_generated_files/interrupt_manager.c: 72:         {;mcc_generated_files/interrupt_ma
      +                          nager.c: 73:             MSSP1_InterruptHandler();
  3537  00CA' D802               	call	i2u139_48
  3538  00CC' EF00' F000'        	goto	i2u139_49
  3539  00D0'                    i2u139_48:
  3540  00D0' 0005               	push	
  3541  00D2' 6EFA               	movwf	pclath,c
  3542  00D4' 5000'              	movf	_MSSP1_InterruptHandler^0,w,c
  3543  00D6' 6EFD               	movwf	tosl,c
  3544  00D8' 5000'              	movf	(_MSSP1_InterruptHandler+1)^0,w,c
  3545  00DA' 6EFE               	movwf	tosh,c
  3546  00DC' 50F8               	movf	tblptru,w,c
  3547  00DE' 6EFF               	movwf	tosu,c
  3548  00E0' 50FA               	movf	pclath,w,c
  3549  00E2' 0012               	return		;indir
  3550  00E4'                    i2u139_49:
  3551                           
  3552                           ;mcc_generated_files/interrupt_manager.c: 74:         }
  3553  00E4' EF00' F000'        	goto	i2l733
  3554  00E8'                    i2l728:
  3555  00E8' A69D               	btfss	157,3,c	;volatile
  3556  00EA' EF00' F000'        	goto	i2u140_41
  3557  00EE' EF00' F000'        	goto	i2u140_40
  3558  00F2'                    i2u140_41:
  3559  00F2' EF00' F000'        	goto	i2l727
  3560  00F6'                    i2u140_40:
  3561  00F6' A69E               	btfss	158,3,c	;volatile
  3562  00F8' EF00' F000'        	goto	i2u141_41
  3563  00FC' EF00' F000'        	goto	i2u141_40
  3564  0100'                    i2u141_41:
  3565  0100' EF00' F000'        	goto	i2l727
  3566  0104'                    i2u141_40:
  3567  0104' EF00' F000'        	goto	i2l3391
  3568  0108'                    i2l727:
  3569  0108'                    i2l733:
  3570  0108' C016' FFF5         	movff	??_INTERRUPT_InterruptManager+9,tablat
  3571  010C' C015' FFF8         	movff	??_INTERRUPT_InterruptManager+8,tblptru
  3572  0110' C014' FFF7         	movff	??_INTERRUPT_InterruptManager+7,tblptrh
  3573  0114' C013' FFF6         	movff	??_INTERRUPT_InterruptManager+6,tblptrl
  3574  0118' C012' FFF4         	movff	??_INTERRUPT_InterruptManager+5,prodh
  3575  011C' C011' FFF3         	movff	??_INTERRUPT_InterruptManager+4,prodl
  3576  0120' C010' FFDA         	movff	??_INTERRUPT_InterruptManager+3,fsr2h
  3577  0124' C00F' FFD9         	movff	??_INTERRUPT_InterruptManager+2,fsr2l
  3578  0128' C00E' FFFB         	movff	??_INTERRUPT_InterruptManager+1,pclatu
  3579  012C' C00D' FFFA         	movff	??_INTERRUPT_InterruptManager,pclath
  3580  0130' 9200'              	bcf	int$flags,1,c	;clear compiler interrupt flag (level 2)
  3581  0132' 0011               	retfie		f
  3582  0134'                    __end_of_INTERRUPT_InterruptManager:
  3583                           	callstack 0
  3584                           
  3585 ;; *************** function _I2C1_MasterIsr *****************
  3586 ;; Defined at:
  3587 ;;		line 318 in file "mcc_generated_files/i2c1_master.c"
  3588 ;; Parameters:    Size  Location     Type
  3589 ;;		None
  3590 ;; Auto vars:     Size  Location     Type
  3591 ;;		None
  3592 ;; Return value:  Size  Location     Type
  3593 ;;                  1    wreg      void 
  3594 ;; Registers used:
  3595 ;;		wreg, fsr2l, fsr2h, status,2, status,0, pcl, pclath, pclatu, tosl, tblptrl, tblptrh, tblptru, prodl, prodh, cstack
  3596 ;; Tracked objects:
  3597 ;;		On entry : 0/0
  3598 ;;		On exit  : 0/0
  3599 ;;		Unchanged: 0/0
  3600 ;; Data sizes:     COMRAM   BANK0   BANK1   BANK2   BANK3   BANK4   BANK5   BANK6   BANK7   BANK8   BANK9  BANK10  BANK1
      +1  BANK12  BANK13  BANK14
  3601 ;;      Params:         0       0       0       0       0       0       0       0       0       0       0       0       
      +0       0       0       0
  3602 ;;      Locals:         0       0       0       0       0       0       0       0       0       0       0       0       
      +0       0       0       0
  3603 ;;      Temps:          0       0       0       0       0       0       0       0       0       0       0       0       
      +0       0       0       0
  3604 ;;      Totals:         0       0       0       0       0       0       0       0       0       0       0       0       
      +0       0       0       0
  3605 ;;Total ram usage:        0 bytes
  3606 ;; Hardware stack levels used: 1
  3607 ;; Hardware stack levels required when called: 5
  3608 ;; This function calls:
  3609 ;;		_I2C1_MasterFsm
  3610 ;; This function is called by:
  3611 ;;		_I2C1_Open
  3612 ;;		_INTERRUPT_InterruptManager
  3613 ;; This function uses a non-reentrant model
  3614 ;;
  3615                           
  3616                           	psect	text38
  3617  0000'                    __ptext38:
  3618                           	callstack 0
  3619  0000'                    _I2C1_MasterIsr:
  3620                           	callstack 18
  3621  0000'                    
  3622                           ;mcc_generated_files/i2c1_master.c: 320:     I2C1_MasterFsm();
  3623  0000' EC00' F000'        	call	_I2C1_MasterFsm	;wreg free
  3624  0004' 0012               	return		;funcret
  3625  0006'                    __end_of_I2C1_MasterIsr:
  3626                           	callstack 0
  3627                           
  3628 ;; *************** function _I2C1_MasterFsm *****************
  3629 ;; Defined at:
  3630 ;;		line 323 in file "mcc_generated_files/i2c1_master.c"
  3631 ;; Parameters:    Size  Location     Type
  3632 ;;		None
  3633 ;; Auto vars:     Size  Location     Type
  3634 ;;		None
  3635 ;; Return value:  Size  Location     Type
  3636 ;;                  1    wreg      void 
  3637 ;; Registers used:
  3638 ;;		wreg, fsr2l, fsr2h, status,2, status,0, pcl, pclath, pclatu, tosl, tblptrl, tblptrh, tblptru, prodl, prodh, cstack
  3639 ;; Tracked objects:
  3640 ;;		On entry : 0/0
  3641 ;;		On exit  : 0/0
  3642 ;;		Unchanged: 0/0
  3643 ;; Data sizes:     COMRAM   BANK0   BANK1   BANK2   BANK3   BANK4   BANK5   BANK6   BANK7   BANK8   BANK9  BANK10  BANK1
      +1  BANK12  BANK13  BANK14
  3644 ;;      Params:         0       0       0       0       0       0       0       0       0       0       0       0       
      +0       0       0       0
  3645 ;;      Locals:         0       0       0       0       0       0       0       0       0       0       0       0       
      +0       0       0       0
  3646 ;;      Temps:          0       0       0       0       0       0       0       0       0       0       0       0       
      +0       0       0       0
  3647 ;;      Totals:         0       0       0       0       0       0       0       0       0       0       0       0       
      +0       0       0       0
  3648 ;;Total ram usage:        0 bytes
  3649 ;; Hardware stack levels used: 1
  3650 ;; Hardware stack levels required when called: 4
  3651 ;; This function calls:
  3652 ;;		_I2C1_DO_ADDRESS_NACK
  3653 ;;		_I2C1_DO_IDLE
  3654 ;;		_I2C1_DO_RCEN
  3655 ;;		_I2C1_DO_RESET
  3656 ;;		_I2C1_DO_RX
  3657 ;;		_I2C1_DO_RX_ACK
  3658 ;;		_I2C1_DO_RX_NACK_RESTART
  3659 ;;		_I2C1_DO_RX_NACK_STOP
  3660 ;;		_I2C1_DO_SEND_ADR_READ
  3661 ;;		_I2C1_DO_SEND_ADR_WRITE
  3662 ;;		_I2C1_DO_SEND_RESTART
  3663 ;;		_I2C1_DO_SEND_RESTART_READ
  3664 ;;		_I2C1_DO_SEND_RESTART_WRITE
  3665 ;;		_I2C1_DO_SEND_STOP
  3666 ;;		_I2C1_DO_TX
  3667 ;;		_I2C1_DO_TX_EMPTY
  3668 ;;		_I2C1_MasterIsNack
  3669 ;;		i2_I2C1_MasterClearIrq
  3670 ;; This function is called by:
  3671 ;;		_I2C1_MasterIsr
  3672 ;; This function uses a non-reentrant model
  3673 ;;
  3674                           
  3675                           	psect	text39
  3676  0000'                    __ptext39:
  3677                           	callstack 0
  3678  0000'                    _I2C1_MasterFsm:
  3679                           	callstack 18
  3680  0000'                    
  3681                           ;mcc_generated_files/i2c1_master.c: 325:     I2C1_MasterClearIrq();
  3682  0000' EC00' F000'        	call	i2_I2C1_MasterClearIrq	;wreg free
  3683  0004'                    
  3684                           ;mcc_generated_files/i2c1_master.c: 327:     if(I2C1_Status.addressNackCheck && I2C1_Mas
      +                          terIsNack())
  3685  0004' 0100               	movlb	0	; () banked
  3686  0006' A100'              	btfss	(_I2C1_Status+35)& (0+255),0,b
  3687  0008' EF00' F000'        	goto	i2u100_41
  3688  000C' EF00' F000'        	goto	i2u100_40
  3689  0010'                    i2u100_41:
  3690  0010' EF00' F000'        	goto	i2l3145
  3691  0014'                    i2u100_40:
  3692  0014'                    
  3693                           ; BSR set to: 0
  3694  0014' EC00' F000'        	call	_I2C1_MasterIsNack	;wreg free
  3695  0018' 0900               	iorlw	0
  3696  001A' B4D8               	btfsc	status,2,c
  3697  001C' EF00' F000'        	goto	i2u101_41
  3698  0020' EF00' F000'        	goto	i2u101_40
  3699  0024'                    i2u101_41:
  3700  0024' EF00' F000'        	goto	i2l3145
  3701  0028'                    i2u101_40:
  3702  0028'                    
  3703                           ;mcc_generated_files/i2c1_master.c: 328:     {;mcc_generated_files/i2c1_master.c: 329:  
      +                                 I2C1_Status.state = I2C1_ADDRESS_NACK;
  3704  0028' 0E0F               	movlw	15
  3705  002A' 0100               	movlb	0	; () banked
  3706  002C' 6F00'              	movwf	(_I2C1_Status+33)& (0+255),b
  3707  002E'                    i2l3145:
  3708                           
  3709                           ;mcc_generated_files/i2c1_master.c: 331:     I2C1_Status.state = i2c1_fsmStateTable[I2C1
      +                          _Status.state]();
  3710  002E' 0100               	movlb	0	; () banked
  3711  0030' 5100'              	movf	(_I2C1_Status+33)& (0+255),w,b
  3712  0032' 0D02               	mullw	2
  3713  0034' 0E00'              	movlw	low _i2c1_fsmStateTable
  3714  0036' 24F3               	addwf	243,w,c
  3715  0038' 6EF6               	movwf	tblptrl,c
  3716  003A' 0E00'              	movlw	high _i2c1_fsmStateTable
  3717  003C' 20F4               	addwfc	244,w,c
  3718  003E' 6EF7               	movwf	tblptrh,c
  3719  0040'                    	if	0	;There are less than 3 active tblptr bytes
  3720  0040'                    	endif
  3721  0040' D802               	call	i2u102_48
  3722  0042' EF00' F000'        	goto	i2u102_49
  3723  0046'                    i2u102_48:
  3724  0046' 0005               	push	
  3725  0048' 6EFA               	movwf	pclath,c
  3726  004A' 0009               	tblrd		*+
  3727  004C' 50F5               	movf	tablat,w,c
  3728  004E' 6EFD               	movwf	tosl,c
  3729  0050' 0009               	tblrd		*+
  3730  0052' 50F5               	movf	tablat,w,c
  3731  0054' 6EFE               	movwf	tosh,c
  3732  0056' 50F8               	movf	tblptru,w,c
  3733  0058' 6EFF               	movwf	tosu,c
  3734  005A' 50FA               	movf	pclath,w,c
  3735  005C' 0012               	return		;indir
  3736  005E'                    i2u102_49:
  3737  005E' 0100               	movlb	0	; () banked
  3738  0060' 6F00'              	movwf	(_I2C1_Status+33)& (0+255),b
  3739  0062'                    
  3740                           ; BSR set to: 0
  3741  0062' 0012               	return		;funcret
  3742  0064'                    __end_of_I2C1_MasterFsm:
  3743                           	callstack 0
  3744                           
  3745 ;; *************** function i2_I2C1_MasterClearIrq *****************
  3746 ;; Defined at:
  3747 ;;		line 642 in file "mcc_generated_files/i2c1_master.c"
  3748 ;; Parameters:    Size  Location     Type
  3749 ;;		None
  3750 ;; Auto vars:     Size  Location     Type
  3751 ;;		None
  3752 ;; Return value:  Size  Location     Type
  3753 ;;                  1    wreg      void 
  3754 ;; Registers used:
  3755 ;;		None
  3756 ;; Tracked objects:
  3757 ;;		On entry : 0/0
  3758 ;;		On exit  : 0/0
  3759 ;;		Unchanged: 0/0
  3760 ;; Data sizes:     COMRAM   BANK0   BANK1   BANK2   BANK3   BANK4   BANK5   BANK6   BANK7   BANK8   BANK9  BANK10  BANK1
      +1  BANK12  BANK13  BANK14
  3761 ;;      Params:         0       0       0       0       0       0       0       0       0       0       0       0       
      +0       0       0       0
  3762 ;;      Locals:         0       0       0       0       0       0       0       0       0       0       0       0       
      +0       0       0       0
  3763 ;;      Temps:          0       0       0       0       0       0       0       0       0       0       0       0       
      +0       0       0       0
  3764 ;;      Totals:         0       0       0       0       0       0       0       0       0       0       0       0       
      +0       0       0       0
  3765 ;;Total ram usage:        0 bytes
  3766 ;; Hardware stack levels used: 1
  3767 ;; This function calls:
  3768 ;;		Nothing
  3769 ;; This function is called by:
  3770 ;;		_I2C1_MasterFsm
  3771 ;; This function uses a non-reentrant model
  3772 ;;
  3773                           
  3774                           	psect	text40
  3775  0000'                    __ptext40:
  3776                           	callstack 0
  3777  0000'                    i2_I2C1_MasterClearIrq:
  3778                           	callstack 21
  3779  0000'                    
  3780                           ;mcc_generated_files/i2c1_master.c: 644:     PIR1bits.SSP1IF = 0;
  3781  0000' 969E               	bcf	158,3,c	;volatile
  3782  0002' 0012               	return		;funcret
  3783  0004'                    __end_ofi2_I2C1_MasterClearIrq:
  3784                           	callstack 0
  3785                           
  3786 ;; *************** function _I2C1_DO_ADDRESS_NACK *****************
  3787 ;; Defined at:
  3788 ;;		line 501 in file "mcc_generated_files/i2c1_master.c"
  3789 ;; Parameters:    Size  Location     Type
  3790 ;;		None
  3791 ;; Auto vars:     Size  Location     Type
  3792 ;;		None
  3793 ;; Return value:  Size  Location     Type
  3794 ;;                  1    wreg      enum E6655
  3795 ;; Registers used:
  3796 ;;		wreg, fsr2l, fsr2h, status,2, status,0, pcl, pclath, pclatu, tosl, prodl, prodh, cstack
  3797 ;; Tracked objects:
  3798 ;;		On entry : 0/0
  3799 ;;		On exit  : 0/0
  3800 ;;		Unchanged: 0/0
  3801 ;; Data sizes:     COMRAM   BANK0   BANK1   BANK2   BANK3   BANK4   BANK5   BANK6   BANK7   BANK8   BANK9  BANK10  BANK1
      +1  BANK12  BANK13  BANK14
  3802 ;;      Params:         0       0       0       0       0       0       0       0       0       0       0       0       
      +0       0       0       0
  3803 ;;      Locals:         0       0       0       0       0       0       0       0       0       0       0       0       
      +0       0       0       0
  3804 ;;      Temps:          2       0       0       0       0       0       0       0       0       0       0       0       
      +0       0       0       0
  3805 ;;      Totals:         2       0       0       0       0       0       0       0       0       0       0       0       
      +0       0       0       0
  3806 ;;Total ram usage:        2 bytes
  3807 ;; Hardware stack levels used: 1
  3808 ;; Hardware stack levels required when called: 3
  3809 ;; This function calls:
  3810 ;;		Absolute function
  3811 ;;		_I2C1_CallbackReturnReset
  3812 ;;		_I2C1_CallbackReturnStop
  3813 ;;		_I2C1_DO_SEND_RESTART
  3814 ;;		_I2C1_DO_SEND_STOP
  3815 ;;		_rd1RegCompleteHandler
  3816 ;;		_rd2RegCompleteHandler
  3817 ;;		_rdBlkRegCompleteHandler
  3818 ;;		_wr1RegCompleteHandler
  3819 ;;		_wr2RegCompleteHandler
  3820 ;; This function is called by:
  3821 ;;		_I2C1_MasterFsm
  3822 ;; This function uses a non-reentrant model
  3823 ;;
  3824                           
  3825                           	psect	text41
  3826  0000'                    __ptext41:
  3827                           	callstack 0
  3828  0000'                    _I2C1_DO_ADDRESS_NACK:
  3829                           	callstack 18
  3830  0000'                    
  3831                           ;mcc_generated_files/i2c1_master.c: 503:     I2C1_Status.addressNackCheck = 0;
  3832  0000' 0100               	movlb	0	; () banked
  3833  0002' 9100'              	bcf	(_I2C1_Status+35)& (0+255),0,b
  3834  0004'                    
  3835                           ; BSR set to: 0
  3836                           ;mcc_generated_files/i2c1_master.c: 504:     I2C1_Status.error = I2C1_FAIL;
  3837  0004' 0E02               	movlw	2
  3838  0006' 6F00'              	movwf	(_I2C1_Status+34)& (0+255),b
  3839                           
  3840                           ;mcc_generated_files/i2c1_master.c: 505:     switch(I2C1_Status.callbackTable[I2C1_ADDR_
      +                          NACK](I2C1_Status.callbackPayload[I2C1_ADDR_NACK]))
  3841  0008' EF00' F000'        	goto	i2l2987
  3842  000C'                    i2l2977:
  3843                           
  3844                           ;mcc_generated_files/i2c1_master.c: 509:             return I2C1_DO_SEND_RESTART();
  3845  000C' EC00' F000'        	call	_I2C1_DO_SEND_RESTART	;wreg free
  3846  0010' EF00' F000'        	goto	i2l543
  3847  0014'                    i2l2981:
  3848                           
  3849                           ;mcc_generated_files/i2c1_master.c: 511:             return I2C1_DO_SEND_STOP();
  3850  0014' EC00' F000'        	call	_I2C1_DO_SEND_STOP	;wreg free
  3851  0018' EF00' F000'        	goto	i2l543
  3852  001C'                    i2l2987:
  3853                           
  3854                           ; BSR set to: 0
  3855  001C' C010' F009'        	movff	_I2C1_Status+16,I2C1_CallbackReturnReset@funPtr
  3856  0020' C011' F00A'        	movff	_I2C1_Status+17,I2C1_CallbackReturnReset@funPtr+1
  3857  0024' EE20' F000'        	lfsr	2,_I2C1_Status+4
  3858  0028' D802               	call	i2u94_48
  3859  002A' EF00' F000'        	goto	i2u94_49
  3860  002E'                    i2u94_48:
  3861  002E' 0005               	push	
  3862  0030' 6EFA               	movwf	pclath,c
  3863  0032' 50DE               	movf	postinc2,w,c
  3864  0034' 6EFD               	movwf	tosl,c
  3865  0036' 50DE               	movf	postinc2,w,c
  3866  0038' 6EFE               	movwf	tosh,c
  3867  003A' 50F8               	movf	tblptru,w,c
  3868  003C' 6EFF               	movwf	tosu,c
  3869  003E' 50FA               	movf	pclath,w,c
  3870  0040' 0012               	return		;indir
  3871  0042'                    i2u94_49:
  3872  0042' 6E00'              	movwf	??_I2C1_DO_ADDRESS_NACK^0,c
  3873  0044' 6A00'              	clrf	(??_I2C1_DO_ADDRESS_NACK+1)^0,c
  3874                           
  3875                           ; Switch on 2 bytes has been partitioned into a top level switch of size 1, and 1 sub-sw
      +                          itches
  3876                           ; Switch size 1, requested type "simple"
  3877                           ; Number of cases is 1, Range of values is 0 to 0
  3878                           ; switch strategies available:
  3879                           ; Name         Instructions Cycles
  3880                           ; simple_byte            4     3 (average)
  3881                           ;	Chosen strategy is simple_byte
  3882  0046' 5000'              	movf	(??_I2C1_DO_ADDRESS_NACK+1)^0,w,c
  3883  0048' 0A00               	xorlw	0	; case 0
  3884  004A' B4D8               	btfsc	status,2,c
  3885  004C' EF00' F000'        	goto	i2l4025
  3886  0050' EF00' F000'        	goto	i2l2981
  3887  0054'                    i2l4025:
  3888                           
  3889                           ; Switch size 1, requested type "simple"
  3890                           ; Number of cases is 2, Range of values is 2 to 3
  3891                           ; switch strategies available:
  3892                           ; Name         Instructions Cycles
  3893                           ; simple_byte            7     4 (average)
  3894                           ;	Chosen strategy is simple_byte
  3895  0054' 5000'              	movf	??_I2C1_DO_ADDRESS_NACK^0,w,c
  3896  0056' 0A02               	xorlw	2	; case 2
  3897  0058' B4D8               	btfsc	status,2,c
  3898  005A' EF00' F000'        	goto	i2l2977
  3899  005E' 0A01               	xorlw	1	; case 3
  3900  0060' B4D8               	btfsc	status,2,c
  3901  0062' EF00' F000'        	goto	i2l2977
  3902  0066' EF00' F000'        	goto	i2l2981
  3903  006A'                    i2l543:
  3904  006A' 0012               	return		;funcret
  3905  006C'                    __end_of_I2C1_DO_ADDRESS_NACK:
  3906                           	callstack 0
  3907                           
  3908 ;; *************** function _I2C1_DO_RESET *****************
  3909 ;; Defined at:
  3910 ;;		line 495 in file "mcc_generated_files/i2c1_master.c"
  3911 ;; Parameters:    Size  Location     Type
  3912 ;;		None
  3913 ;; Auto vars:     Size  Location     Type
  3914 ;;		None
  3915 ;; Return value:  Size  Location     Type
  3916 ;;                  1    wreg      enum E6655
  3917 ;; Registers used:
  3918 ;;		wreg, status,2
  3919 ;; Tracked objects:
  3920 ;;		On entry : 0/0
  3921 ;;		On exit  : 0/0
  3922 ;;		Unchanged: 0/0
  3923 ;; Data sizes:     COMRAM   BANK0   BANK1   BANK2   BANK3   BANK4   BANK5   BANK6   BANK7   BANK8   BANK9  BANK10  BANK1
      +1  BANK12  BANK13  BANK14
  3924 ;;      Params:         0       0       0       0       0       0       0       0       0       0       0       0       
      +0       0       0       0
  3925 ;;      Locals:         0       0       0       0       0       0       0       0       0       0       0       0       
      +0       0       0       0
  3926 ;;      Temps:          0       0       0       0       0       0       0       0       0       0       0       0       
      +0       0       0       0
  3927 ;;      Totals:         0       0       0       0       0       0       0       0       0       0       0       0       
      +0       0       0       0
  3928 ;;Total ram usage:        0 bytes
  3929 ;; Hardware stack levels used: 1
  3930 ;; This function calls:
  3931 ;;		Nothing
  3932 ;; This function is called by:
  3933 ;;		_I2C1_MasterFsm
  3934 ;; This function uses a non-reentrant model
  3935 ;;
  3936                           
  3937                           	psect	text42
  3938  0000'                    __ptext42:
  3939                           	callstack 0
  3940  0000'                    _I2C1_DO_RESET:
  3941                           	callstack 21
  3942  0000'                    
  3943                           ;mcc_generated_files/i2c1_master.c: 497:     I2C1_Status.busy = 0;
  3944  0000' 0100               	movlb	0	; () banked
  3945  0002' 9300'              	bcf	(_I2C1_Status+35)& (0+255),1,b
  3946  0004'                    
  3947                           ; BSR set to: 0
  3948                           ;mcc_generated_files/i2c1_master.c: 498:     I2C1_Status.error = I2C1_NOERR;
  3949  0004' 0E00               	movlw	0
  3950  0006' 6F00'              	movwf	(_I2C1_Status+34)& (0+255),b
  3951  0008'                    
  3952                           ; BSR set to: 0
  3953                           ;mcc_generated_files/i2c1_master.c: 499:     return I2C1_RESET;
  3954  0008' 0E0E               	movlw	14
  3955  000A'                    
  3956                           ; BSR set to: 0
  3957  000A' 0012               	return		;funcret
  3958  000C'                    __end_of_I2C1_DO_RESET:
  3959                           	callstack 0
  3960                           
  3961 ;; *************** function _I2C1_DO_RX_NACK_RESTART *****************
  3962 ;; Defined at:
  3963 ;;		line 489 in file "mcc_generated_files/i2c1_master.c"
  3964 ;; Parameters:    Size  Location     Type
  3965 ;;		None
  3966 ;; Auto vars:     Size  Location     Type
  3967 ;;		None
  3968 ;; Return value:  Size  Location     Type
  3969 ;;                  1    wreg      enum E6655
  3970 ;; Registers used:
  3971 ;;		wreg, cstack
  3972 ;; Tracked objects:
  3973 ;;		On entry : 0/0
  3974 ;;		On exit  : 0/0
  3975 ;;		Unchanged: 0/0
  3976 ;; Data sizes:     COMRAM   BANK0   BANK1   BANK2   BANK3   BANK4   BANK5   BANK6   BANK7   BANK8   BANK9  BANK10  BANK1
      +1  BANK12  BANK13  BANK14
  3977 ;;      Params:         0       0       0       0       0       0       0       0       0       0       0       0       
      +0       0       0       0
  3978 ;;      Locals:         0       0       0       0       0       0       0       0       0       0       0       0       
      +0       0       0       0
  3979 ;;      Temps:          0       0       0       0       0       0       0       0       0       0       0       0       
      +0       0       0       0
  3980 ;;      Totals:         0       0       0       0       0       0       0       0       0       0       0       0       
      +0       0       0       0
  3981 ;;Total ram usage:        0 bytes
  3982 ;; Hardware stack levels used: 1
  3983 ;; Hardware stack levels required when called: 1
  3984 ;; This function calls:
  3985 ;;		_I2C1_MasterSendNack
  3986 ;; This function is called by:
  3987 ;;		_I2C1_DO_RX
  3988 ;;		_I2C1_MasterFsm
  3989 ;; This function uses a non-reentrant model
  3990 ;;
  3991                           
  3992                           	psect	text43
  3993  0000'                    __ptext43:
  3994                           	callstack 0
  3995  0000'                    _I2C1_DO_RX_NACK_RESTART:
  3996                           	callstack 20
  3997  0000'                    
  3998                           ;mcc_generated_files/i2c1_master.c: 491:     I2C1_MasterSendNack();
  3999  0000' EC00' F000'        	call	_I2C1_MasterSendNack	;wreg free
  4000  0004'                    
  4001                           ;mcc_generated_files/i2c1_master.c: 492:     return I2C1_SEND_RESTART;
  4002  0004' 0E09               	movlw	9
  4003  0006' 0012               	return		;funcret
  4004  0008'                    __end_of_I2C1_DO_RX_NACK_RESTART:
  4005                           	callstack 0
  4006                           
  4007 ;; *************** function _I2C1_DO_RX_NACK_STOP *****************
  4008 ;; Defined at:
  4009 ;;		line 483 in file "mcc_generated_files/i2c1_master.c"
  4010 ;; Parameters:    Size  Location     Type
  4011 ;;		None
  4012 ;; Auto vars:     Size  Location     Type
  4013 ;;		None
  4014 ;; Return value:  Size  Location     Type
  4015 ;;                  1    wreg      enum E6655
  4016 ;; Registers used:
  4017 ;;		wreg, cstack
  4018 ;; Tracked objects:
  4019 ;;		On entry : 0/0
  4020 ;;		On exit  : 0/0
  4021 ;;		Unchanged: 0/0
  4022 ;; Data sizes:     COMRAM   BANK0   BANK1   BANK2   BANK3   BANK4   BANK5   BANK6   BANK7   BANK8   BANK9  BANK10  BANK1
      +1  BANK12  BANK13  BANK14
  4023 ;;      Params:         0       0       0       0       0       0       0       0       0       0       0       0       
      +0       0       0       0
  4024 ;;      Locals:         0       0       0       0       0       0       0       0       0       0       0       0       
      +0       0       0       0
  4025 ;;      Temps:          0       0       0       0       0       0       0       0       0       0       0       0       
      +0       0       0       0
  4026 ;;      Totals:         0       0       0       0       0       0       0       0       0       0       0       0       
      +0       0       0       0
  4027 ;;Total ram usage:        0 bytes
  4028 ;; Hardware stack levels used: 1
  4029 ;; Hardware stack levels required when called: 1
  4030 ;; This function calls:
  4031 ;;		_I2C1_MasterSendNack
  4032 ;; This function is called by:
  4033 ;;		_I2C1_DO_RX
  4034 ;;		_I2C1_MasterFsm
  4035 ;; This function uses a non-reentrant model
  4036 ;;
  4037                           
  4038                           	psect	text44
  4039  0000'                    __ptext44:
  4040                           	callstack 0
  4041  0000'                    _I2C1_DO_RX_NACK_STOP:
  4042                           	callstack 20
  4043  0000'                    
  4044                           ;mcc_generated_files/i2c1_master.c: 485:     I2C1_MasterSendNack();
  4045  0000' EC00' F000'        	call	_I2C1_MasterSendNack	;wreg free
  4046  0004'                    
  4047                           ;mcc_generated_files/i2c1_master.c: 486:     return I2C1_SEND_STOP;
  4048  0004' 0E0A               	movlw	10
  4049  0006' 0012               	return		;funcret
  4050  0008'                    __end_of_I2C1_DO_RX_NACK_STOP:
  4051                           	callstack 0
  4052                           
  4053 ;; *************** function _I2C1_DO_RX_ACK *****************
  4054 ;; Defined at:
  4055 ;;		line 476 in file "mcc_generated_files/i2c1_master.c"
  4056 ;; Parameters:    Size  Location     Type
  4057 ;;		None
  4058 ;; Auto vars:     Size  Location     Type
  4059 ;;		None
  4060 ;; Return value:  Size  Location     Type
  4061 ;;                  1    wreg      enum E6655
  4062 ;; Registers used:
  4063 ;;		wreg, cstack
  4064 ;; Tracked objects:
  4065 ;;		On entry : 0/0
  4066 ;;		On exit  : 0/0
  4067 ;;		Unchanged: 0/0
  4068 ;; Data sizes:     COMRAM   BANK0   BANK1   BANK2   BANK3   BANK4   BANK5   BANK6   BANK7   BANK8   BANK9  BANK10  BANK1
      +1  BANK12  BANK13  BANK14
  4069 ;;      Params:         0       0       0       0       0       0       0       0       0       0       0       0       
      +0       0       0       0
  4070 ;;      Locals:         0       0       0       0       0       0       0       0       0       0       0       0       
      +0       0       0       0
  4071 ;;      Temps:          0       0       0       0       0       0       0       0       0       0       0       0       
      +0       0       0       0
  4072 ;;      Totals:         0       0       0       0       0       0       0       0       0       0       0       0       
      +0       0       0       0
  4073 ;;Total ram usage:        0 bytes
  4074 ;; Hardware stack levels used: 1
  4075 ;; Hardware stack levels required when called: 1
  4076 ;; This function calls:
  4077 ;;		_I2C1_MasterSendAck
  4078 ;; This function is called by:
  4079 ;;		_I2C1_MasterFsm
  4080 ;; This function uses a non-reentrant model
  4081 ;;
  4082                           
  4083                           	psect	text45
  4084  0000'                    __ptext45:
  4085                           	callstack 0
  4086  0000'                    _I2C1_DO_RX_ACK:
  4087                           	callstack 20
  4088  0000'                    
  4089                           ;mcc_generated_files/i2c1_master.c: 478:     I2C1_MasterSendAck();
  4090  0000' EC00' F000'        	call	_I2C1_MasterSendAck	;wreg free
  4091  0004'                    
  4092                           ;mcc_generated_files/i2c1_master.c: 479:     return I2C1_RCEN;
  4093  0004' 0E05               	movlw	5
  4094  0006' 0012               	return		;funcret
  4095  0008'                    __end_of_I2C1_DO_RX_ACK:
  4096                           	callstack 0
  4097                           
  4098 ;; *************** function _I2C1_DO_SEND_STOP *****************
  4099 ;; Defined at:
  4100 ;;		line 470 in file "mcc_generated_files/i2c1_master.c"
  4101 ;; Parameters:    Size  Location     Type
  4102 ;;		None
  4103 ;; Auto vars:     Size  Location     Type
  4104 ;;		None
  4105 ;; Return value:  Size  Location     Type
  4106 ;;                  1    wreg      enum E6655
  4107 ;; Registers used:
  4108 ;;		wreg, cstack
  4109 ;; Tracked objects:
  4110 ;;		On entry : 0/0
  4111 ;;		On exit  : 0/0
  4112 ;;		Unchanged: 0/0
  4113 ;; Data sizes:     COMRAM   BANK0   BANK1   BANK2   BANK3   BANK4   BANK5   BANK6   BANK7   BANK8   BANK9  BANK10  BANK1
      +1  BANK12  BANK13  BANK14
  4114 ;;      Params:         0       0       0       0       0       0       0       0       0       0       0       0       
      +0       0       0       0
  4115 ;;      Locals:         0       0       0       0       0       0       0       0       0       0       0       0       
      +0       0       0       0
  4116 ;;      Temps:          0       0       0       0       0       0       0       0       0       0       0       0       
      +0       0       0       0
  4117 ;;      Totals:         0       0       0       0       0       0       0       0       0       0       0       0       
      +0       0       0       0
  4118 ;;Total ram usage:        0 bytes
  4119 ;; Hardware stack levels used: 1
  4120 ;; Hardware stack levels required when called: 1
  4121 ;; This function calls:
  4122 ;;		_I2C1_MasterStop
  4123 ;; This function is called by:
  4124 ;;		_I2C1_DO_TX
  4125 ;;		_I2C1_DO_TX_EMPTY
  4126 ;;		_I2C1_DO_ADDRESS_NACK
  4127 ;;		_I2C1_MasterFsm
  4128 ;; This function uses a non-reentrant model
  4129 ;;
  4130                           
  4131                           	psect	text46
  4132  0000'                    __ptext46:
  4133                           	callstack 0
  4134  0000'                    _I2C1_DO_SEND_STOP:
  4135                           	callstack 19
  4136  0000'                    
  4137                           ;mcc_generated_files/i2c1_master.c: 472:     I2C1_MasterStop();
  4138  0000' EC00' F000'        	call	_I2C1_MasterStop	;wreg free
  4139  0004'                    
  4140                           ;mcc_generated_files/i2c1_master.c: 473:     return I2C1_IDLE;
  4141  0004' 0E00               	movlw	0
  4142  0006' 0012               	return		;funcret
  4143  0008'                    __end_of_I2C1_DO_SEND_STOP:
  4144                           	callstack 0
  4145                           
  4146 ;; *************** function _I2C1_DO_SEND_RESTART *****************
  4147 ;; Defined at:
  4148 ;;		line 464 in file "mcc_generated_files/i2c1_master.c"
  4149 ;; Parameters:    Size  Location     Type
  4150 ;;		None
  4151 ;; Auto vars:     Size  Location     Type
  4152 ;;		None
  4153 ;; Return value:  Size  Location     Type
  4154 ;;                  1    wreg      enum E6655
  4155 ;; Registers used:
  4156 ;;		wreg, cstack
  4157 ;; Tracked objects:
  4158 ;;		On entry : 0/0
  4159 ;;		On exit  : 0/0
  4160 ;;		Unchanged: 0/0
  4161 ;; Data sizes:     COMRAM   BANK0   BANK1   BANK2   BANK3   BANK4   BANK5   BANK6   BANK7   BANK8   BANK9  BANK10  BANK1
      +1  BANK12  BANK13  BANK14
  4162 ;;      Params:         0       0       0       0       0       0       0       0       0       0       0       0       
      +0       0       0       0
  4163 ;;      Locals:         0       0       0       0       0       0       0       0       0       0       0       0       
      +0       0       0       0
  4164 ;;      Temps:          0       0       0       0       0       0       0       0       0       0       0       0       
      +0       0       0       0
  4165 ;;      Totals:         0       0       0       0       0       0       0       0       0       0       0       0       
      +0       0       0       0
  4166 ;;Total ram usage:        0 bytes
  4167 ;; Hardware stack levels used: 1
  4168 ;; Hardware stack levels required when called: 1
  4169 ;; This function calls:
  4170 ;;		_I2C1_MasterEnableRestart
  4171 ;; This function is called by:
  4172 ;;		_I2C1_DO_TX_EMPTY
  4173 ;;		_I2C1_DO_ADDRESS_NACK
  4174 ;;		_I2C1_MasterFsm
  4175 ;; This function uses a non-reentrant model
  4176 ;;
  4177                           
  4178                           	psect	text47
  4179  0000'                    __ptext47:
  4180                           	callstack 0
  4181  0000'                    _I2C1_DO_SEND_RESTART:
  4182                           	callstack 19
  4183  0000'                    
  4184                           ;mcc_generated_files/i2c1_master.c: 466:     I2C1_MasterEnableRestart();
  4185  0000' EC00' F000'        	call	_I2C1_MasterEnableRestart	;wreg free
  4186  0004'                    
  4187                           ;mcc_generated_files/i2c1_master.c: 467:     return I2C1_SEND_ADR_READ;
  4188  0004' 0E01               	movlw	1
  4189  0006' 0012               	return		;funcret
  4190  0008'                    __end_of_I2C1_DO_SEND_RESTART:
  4191                           	callstack 0
  4192                           
  4193 ;; *************** function _I2C1_DO_SEND_RESTART_WRITE *****************
  4194 ;; Defined at:
  4195 ;;		line 457 in file "mcc_generated_files/i2c1_master.c"
  4196 ;; Parameters:    Size  Location     Type
  4197 ;;		None
  4198 ;; Auto vars:     Size  Location     Type
  4199 ;;		None
  4200 ;; Return value:  Size  Location     Type
  4201 ;;                  1    wreg      enum E6655
  4202 ;; Registers used:
  4203 ;;		wreg, cstack
  4204 ;; Tracked objects:
  4205 ;;		On entry : 0/0
  4206 ;;		On exit  : 0/0
  4207 ;;		Unchanged: 0/0
  4208 ;; Data sizes:     COMRAM   BANK0   BANK1   BANK2   BANK3   BANK4   BANK5   BANK6   BANK7   BANK8   BANK9  BANK10  BANK1
      +1  BANK12  BANK13  BANK14
  4209 ;;      Params:         0       0       0       0       0       0       0       0       0       0       0       0       
      +0       0       0       0
  4210 ;;      Locals:         0       0       0       0       0       0       0       0       0       0       0       0       
      +0       0       0       0
  4211 ;;      Temps:          0       0       0       0       0       0       0       0       0       0       0       0       
      +0       0       0       0
  4212 ;;      Totals:         0       0       0       0       0       0       0       0       0       0       0       0       
      +0       0       0       0
  4213 ;;Total ram usage:        0 bytes
  4214 ;; Hardware stack levels used: 1
  4215 ;; Hardware stack levels required when called: 1
  4216 ;; This function calls:
  4217 ;;		_I2C1_MasterEnableRestart
  4218 ;; This function is called by:
  4219 ;;		_I2C1_DO_TX
  4220 ;;		_I2C1_MasterFsm
  4221 ;; This function uses a non-reentrant model
  4222 ;;
  4223                           
  4224                           	psect	text48
  4225  0000'                    __ptext48:
  4226                           	callstack 0
  4227  0000'                    _I2C1_DO_SEND_RESTART_WRITE:
  4228                           	callstack 19
  4229  0000'                    
  4230                           ;mcc_generated_files/i2c1_master.c: 459:     I2C1_MasterEnableRestart();
  4231  0000' EC00' F000'        	call	_I2C1_MasterEnableRestart	;wreg free
  4232  0004'                    
  4233                           ;mcc_generated_files/i2c1_master.c: 460:     return I2C1_SEND_ADR_WRITE;
  4234  0004' 0E02               	movlw	2
  4235  0006' 0012               	return		;funcret
  4236  0008'                    __end_of_I2C1_DO_SEND_RESTART_WRITE:
  4237                           	callstack 0
  4238                           
  4239 ;; *************** function _I2C1_DO_SEND_RESTART_READ *****************
  4240 ;; Defined at:
  4241 ;;		line 451 in file "mcc_generated_files/i2c1_master.c"
  4242 ;; Parameters:    Size  Location     Type
  4243 ;;		None
  4244 ;; Auto vars:     Size  Location     Type
  4245 ;;		None
  4246 ;; Return value:  Size  Location     Type
  4247 ;;                  1    wreg      enum E6655
  4248 ;; Registers used:
  4249 ;;		wreg, cstack
  4250 ;; Tracked objects:
  4251 ;;		On entry : 0/0
  4252 ;;		On exit  : 0/0
  4253 ;;		Unchanged: 0/0
  4254 ;; Data sizes:     COMRAM   BANK0   BANK1   BANK2   BANK3   BANK4   BANK5   BANK6   BANK7   BANK8   BANK9  BANK10  BANK1
      +1  BANK12  BANK13  BANK14
  4255 ;;      Params:         0       0       0       0       0       0       0       0       0       0       0       0       
      +0       0       0       0
  4256 ;;      Locals:         0       0       0       0       0       0       0       0       0       0       0       0       
      +0       0       0       0
  4257 ;;      Temps:          0       0       0       0       0       0       0       0       0       0       0       0       
      +0       0       0       0
  4258 ;;      Totals:         0       0       0       0       0       0       0       0       0       0       0       0       
      +0       0       0       0
  4259 ;;Total ram usage:        0 bytes
  4260 ;; Hardware stack levels used: 1
  4261 ;; Hardware stack levels required when called: 1
  4262 ;; This function calls:
  4263 ;;		_I2C1_MasterEnableRestart
  4264 ;; This function is called by:
  4265 ;;		_I2C1_DO_TX
  4266 ;;		_I2C1_MasterFsm
  4267 ;; This function uses a non-reentrant model
  4268 ;;
  4269                           
  4270                           	psect	text49
  4271  0000'                    __ptext49:
  4272                           	callstack 0
  4273  0000'                    _I2C1_DO_SEND_RESTART_READ:
  4274                           	callstack 19
  4275  0000'                    
  4276                           ;mcc_generated_files/i2c1_master.c: 453:     I2C1_MasterEnableRestart();
  4277  0000' EC00' F000'        	call	_I2C1_MasterEnableRestart	;wreg free
  4278  0004'                    
  4279                           ;mcc_generated_files/i2c1_master.c: 454:     return I2C1_SEND_ADR_READ;
  4280  0004' 0E01               	movlw	1
  4281  0006' 0012               	return		;funcret
  4282  0008'                    __end_of_I2C1_DO_SEND_RESTART_READ:
  4283                           	callstack 0
  4284                           
  4285 ;; *************** function _I2C1_DO_RCEN *****************
  4286 ;; Defined at:
  4287 ;;		line 404 in file "mcc_generated_files/i2c1_master.c"
  4288 ;; Parameters:    Size  Location     Type
  4289 ;;		None
  4290 ;; Auto vars:     Size  Location     Type
  4291 ;;		None
  4292 ;; Return value:  Size  Location     Type
  4293 ;;                  1    wreg      enum E6655
  4294 ;; Registers used:
  4295 ;;		wreg, cstack
  4296 ;; Tracked objects:
  4297 ;;		On entry : 0/0
  4298 ;;		On exit  : 0/0
  4299 ;;		Unchanged: 0/0
  4300 ;; Data sizes:     COMRAM   BANK0   BANK1   BANK2   BANK3   BANK4   BANK5   BANK6   BANK7   BANK8   BANK9  BANK10  BANK1
      +1  BANK12  BANK13  BANK14
  4301 ;;      Params:         0       0       0       0       0       0       0       0       0       0       0       0       
      +0       0       0       0
  4302 ;;      Locals:         0       0       0       0       0       0       0       0       0       0       0       0       
      +0       0       0       0
  4303 ;;      Temps:          0       0       0       0       0       0       0       0       0       0       0       0       
      +0       0       0       0
  4304 ;;      Totals:         0       0       0       0       0       0       0       0       0       0       0       0       
      +0       0       0       0
  4305 ;;Total ram usage:        0 bytes
  4306 ;; Hardware stack levels used: 1
  4307 ;; Hardware stack levels required when called: 1
  4308 ;; This function calls:
  4309 ;;		_I2C1_MasterStartRx
  4310 ;; This function is called by:
  4311 ;;		_I2C1_MasterFsm
  4312 ;; This function uses a non-reentrant model
  4313 ;;
  4314                           
  4315                           	psect	text50
  4316  0000'                    __ptext50:
  4317                           	callstack 0
  4318  0000'                    _I2C1_DO_RCEN:
  4319                           	callstack 20
  4320  0000'                    
  4321                           ;mcc_generated_files/i2c1_master.c: 406:     I2C1_Status.addressNackCheck = 0;
  4322  0000' 0100               	movlb	0	; () banked
  4323  0002' 9100'              	bcf	(_I2C1_Status+35)& (0+255),0,b
  4324  0004'                    
  4325                           ; BSR set to: 0
  4326                           ;mcc_generated_files/i2c1_master.c: 407:     I2C1_MasterStartRx();
  4327  0004' EC00' F000'        	call	_I2C1_MasterStartRx	;wreg free
  4328  0008'                    
  4329                           ;mcc_generated_files/i2c1_master.c: 408:     return I2C1_RX;
  4330  0008' 0E04               	movlw	4
  4331  000A' 0012               	return		;funcret
  4332  000C'                    __end_of_I2C1_DO_RCEN:
  4333                           	callstack 0
  4334                           
  4335 ;; *************** function _I2C1_DO_RX *****************
  4336 ;; Defined at:
  4337 ;;		line 380 in file "mcc_generated_files/i2c1_master.c"
  4338 ;; Parameters:    Size  Location     Type
  4339 ;;		None
  4340 ;; Auto vars:     Size  Location     Type
  4341 ;;		None
  4342 ;; Return value:  Size  Location     Type
  4343 ;;                  1    wreg      enum E6655
  4344 ;; Registers used:
  4345 ;;		wreg, fsr2l, fsr2h, status,2, status,0, pcl, pclath, pclatu, tosl, prodl, prodh, cstack
  4346 ;; Tracked objects:
  4347 ;;		On entry : 0/0
  4348 ;;		On exit  : 0/0
  4349 ;;		Unchanged: 0/0
  4350 ;; Data sizes:     COMRAM   BANK0   BANK1   BANK2   BANK3   BANK4   BANK5   BANK6   BANK7   BANK8   BANK9  BANK10  BANK1
      +1  BANK12  BANK13  BANK14
  4351 ;;      Params:         0       0       0       0       0       0       0       0       0       0       0       0       
      +0       0       0       0
  4352 ;;      Locals:         0       0       0       0       0       0       0       0       0       0       0       0       
      +0       0       0       0
  4353 ;;      Temps:          2       0       0       0       0       0       0       0       0       0       0       0       
      +0       0       0       0
  4354 ;;      Totals:         2       0       0       0       0       0       0       0       0       0       0       0       
      +0       0       0       0
  4355 ;;Total ram usage:        2 bytes
  4356 ;; Hardware stack levels used: 1
  4357 ;; Hardware stack levels required when called: 3
  4358 ;; This function calls:
  4359 ;;		Absolute function
  4360 ;;		_I2C1_CallbackReturnReset
  4361 ;;		_I2C1_CallbackReturnStop
  4362 ;;		_I2C1_DO_RX_NACK_RESTART
  4363 ;;		_I2C1_DO_RX_NACK_STOP
  4364 ;;		_I2C1_MasterGetRxData
  4365 ;;		_I2C1_MasterSendAck
  4366 ;;		_rd1RegCompleteHandler
  4367 ;;		_rd2RegCompleteHandler
  4368 ;;		_rdBlkRegCompleteHandler
  4369 ;;		_wr1RegCompleteHandler
  4370 ;;		_wr2RegCompleteHandler
  4371 ;; This function is called by:
  4372 ;;		_I2C1_MasterFsm
  4373 ;; This function uses a non-reentrant model
  4374 ;;
  4375                           
  4376                           	psect	text51
  4377  0000'                    __ptext51:
  4378                           	callstack 0
  4379  0000'                    _I2C1_DO_RX:
  4380                           	callstack 18
  4381  0000'                    
  4382                           ;mcc_generated_files/i2c1_master.c: 382:     *I2C1_Status.data_ptr++ = I2C1_MasterGetRxD
      +                          ata();
  4383  0000' EC00' F000'        	call	_I2C1_MasterGetRxData	;wreg free
  4384  0004' C01D' FFD9         	movff	_I2C1_Status+29,fsr2l
  4385  0008' C01E' FFDA         	movff	_I2C1_Status+30,fsr2h
  4386  000C' 6EDF               	movwf	indf2,c
  4387  000E' 0100               	movlb	0	; () banked
  4388  0010' 4B00'              	infsnz	(_I2C1_Status+29)& (0+255),f,b
  4389  0012' 2B00'              	incf	(_I2C1_Status+30)& (0+255),f,b
  4390  0014'                    
  4391                           ; BSR set to: 0
  4392                           ;mcc_generated_files/i2c1_master.c: 383:     if(--I2C1_Status.data_length)
  4393  0014' 0700'              	decf	(_I2C1_Status+31)& (0+255),f,b
  4394  0016' A0D8               	btfss	status,0,c
  4395  0018' 0700'              	decf	(_I2C1_Status+32)& (0+255),f,b
  4396  001A' 5100'              	movf	(_I2C1_Status+31)& (0+255),w,b
  4397  001C' 1100'              	iorwf	(_I2C1_Status+32)& (0+255),w,b
  4398  001E' B4D8               	btfsc	status,2,c
  4399  0020' EF00' F000'        	goto	i2u91_41
  4400  0024' EF00' F000'        	goto	i2u91_40
  4401  0028'                    i2u91_41:
  4402  0028' EF00' F000'        	goto	i2l480
  4403  002C'                    i2u91_40:
  4404  002C'                    
  4405                           ; BSR set to: 0
  4406                           ;mcc_generated_files/i2c1_master.c: 384:     {;mcc_generated_files/i2c1_master.c: 385:  
      +                                 I2C1_MasterSendAck();
  4407  002C' EC00' F000'        	call	_I2C1_MasterSendAck	;wreg free
  4408  0030'                    
  4409                           ;mcc_generated_files/i2c1_master.c: 386:         return I2C1_RCEN;
  4410  0030' 0E05               	movlw	5
  4411  0032' EF00' F000'        	goto	i2l481
  4412  0036'                    i2l480:
  4413                           
  4414                           ; BSR set to: 0
  4415                           ;mcc_generated_files/i2c1_master.c: 389:     {;mcc_generated_files/i2c1_master.c: 390:  
      +                                 I2C1_Status.bufferFree = 1;
  4416  0036' 8700'              	bsf	(_I2C1_Status+35)& (0+255),3,b
  4417                           
  4418                           ;mcc_generated_files/i2c1_master.c: 391:         switch(I2C1_Status.callbackTable[I2C1_D
      +                          ATA_COMPLETE](I2C1_Status.callbackPayload[I2C1_DATA_COMPLETE]))
  4419  0038' EF00' F000'        	goto	i2l2921
  4420  003C'                    i2l2911:
  4421                           
  4422                           ;mcc_generated_files/i2c1_master.c: 395:                 return I2C1_DO_RX_NACK_RESTART(
      +                          );
  4423  003C' EC00' F000'        	call	_I2C1_DO_RX_NACK_RESTART	;wreg free
  4424  0040' EF00' F000'        	goto	i2l481
  4425  0044'                    i2l2915:
  4426                           
  4427                           ;mcc_generated_files/i2c1_master.c: 399:                 return I2C1_DO_RX_NACK_STOP();
  4428  0044' EC00' F000'        	call	_I2C1_DO_RX_NACK_STOP	;wreg free
  4429  0048' EF00' F000'        	goto	i2l481
  4430  004C'                    i2l2921:
  4431                           
  4432                           ; BSR set to: 0
  4433  004C' C00C' F009'        	movff	_I2C1_Status+12,I2C1_CallbackReturnReset@funPtr
  4434  0050' C00D' F00A'        	movff	_I2C1_Status+13,I2C1_CallbackReturnReset@funPtr+1
  4435  0054' D802               	call	i2u92_48
  4436  0056' EF00' F000'        	goto	i2u92_49
  4437  005A'                    i2u92_48:
  4438  005A' 0005               	push	
  4439  005C' 6EFA               	movwf	pclath,c
  4440  005E' 5100'              	movf	_I2C1_Status& (0+255),w,b
  4441  0060' 6EFD               	movwf	tosl,c
  4442  0062' 5100'              	movf	(_I2C1_Status+1)& (0+255),w,b
  4443  0064' 6EFE               	movwf	tosh,c
  4444  0066' 50F8               	movf	tblptru,w,c
  4445  0068' 6EFF               	movwf	tosu,c
  4446  006A' 50FA               	movf	pclath,w,c
  4447  006C' 0012               	return		;indir
  4448  006E'                    i2u92_49:
  4449  006E' 6E00'              	movwf	??_I2C1_DO_RX^0,c
  4450  0070' 6A00'              	clrf	(??_I2C1_DO_RX+1)^0,c
  4451                           
  4452                           ; Switch on 2 bytes has been partitioned into a top level switch of size 1, and 1 sub-sw
      +                          itches
  4453                           ; Switch size 1, requested type "simple"
  4454                           ; Number of cases is 1, Range of values is 0 to 0
  4455                           ; switch strategies available:
  4456                           ; Name         Instructions Cycles
  4457                           ; simple_byte            4     3 (average)
  4458                           ;	Chosen strategy is simple_byte
  4459  0072' 5000'              	movf	(??_I2C1_DO_RX+1)^0,w,c
  4460  0074' 0A00               	xorlw	0	; case 0
  4461  0076' B4D8               	btfsc	status,2,c
  4462  0078' EF00' F000'        	goto	i2l4027
  4463  007C' EF00' F000'        	goto	i2l2915
  4464  0080'                    i2l4027:
  4465                           
  4466                           ; Switch size 1, requested type "simple"
  4467                           ; Number of cases is 4, Range of values is 1 to 4
  4468                           ; switch strategies available:
  4469                           ; Name         Instructions Cycles
  4470                           ; simple_byte           13     7 (average)
  4471                           ;	Chosen strategy is simple_byte
  4472  0080' 5000'              	movf	??_I2C1_DO_RX^0,w,c
  4473  0082' 0A01               	xorlw	1	; case 1
  4474  0084' B4D8               	btfsc	status,2,c
  4475  0086' EF00' F000'        	goto	i2l2915
  4476  008A' 0A03               	xorlw	3	; case 2
  4477  008C' B4D8               	btfsc	status,2,c
  4478  008E' EF00' F000'        	goto	i2l2911
  4479  0092' 0A01               	xorlw	1	; case 3
  4480  0094' B4D8               	btfsc	status,2,c
  4481  0096' EF00' F000'        	goto	i2l2911
  4482  009A' 0A07               	xorlw	7	; case 4
  4483  009C' B4D8               	btfsc	status,2,c
  4484  009E' EF00' F000'        	goto	i2l2915
  4485  00A2' EF00' F000'        	goto	i2l2915
  4486  00A6'                    i2l481:
  4487  00A6' 0012               	return		;funcret
  4488  00A8'                    __end_of_I2C1_DO_RX:
  4489                           	callstack 0
  4490                           
  4491 ;; *************** function _I2C1_DO_TX *****************
  4492 ;; Defined at:
  4493 ;;		line 356 in file "mcc_generated_files/i2c1_master.c"
  4494 ;; Parameters:    Size  Location     Type
  4495 ;;		None
  4496 ;; Auto vars:     Size  Location     Type
  4497 ;;		None
  4498 ;; Return value:  Size  Location     Type
  4499 ;;                  1    wreg      enum E6655
  4500 ;; Registers used:
  4501 ;;		wreg, fsr2l, fsr2h, status,2, status,0, pcl, pclath, pclatu, tosl, prodl, prodh, cstack
  4502 ;; Tracked objects:
  4503 ;;		On entry : 0/0
  4504 ;;		On exit  : 0/0
  4505 ;;		Unchanged: 0/0
  4506 ;; Data sizes:     COMRAM   BANK0   BANK1   BANK2   BANK3   BANK4   BANK5   BANK6   BANK7   BANK8   BANK9  BANK10  BANK1
      +1  BANK12  BANK13  BANK14
  4507 ;;      Params:         0       0       0       0       0       0       0       0       0       0       0       0       
      +0       0       0       0
  4508 ;;      Locals:         0       0       0       0       0       0       0       0       0       0       0       0       
      +0       0       0       0
  4509 ;;      Temps:          2       0       0       0       0       0       0       0       0       0       0       0       
      +0       0       0       0
  4510 ;;      Totals:         2       0       0       0       0       0       0       0       0       0       0       0       
      +0       0       0       0
  4511 ;;Total ram usage:        2 bytes
  4512 ;; Hardware stack levels used: 1
  4513 ;; Hardware stack levels required when called: 3
  4514 ;; This function calls:
  4515 ;;		Absolute function
  4516 ;;		_I2C1_CallbackReturnReset
  4517 ;;		_I2C1_CallbackReturnStop
  4518 ;;		_I2C1_DO_SEND_RESTART_READ
  4519 ;;		_I2C1_DO_SEND_RESTART_WRITE
  4520 ;;		_I2C1_DO_SEND_STOP
  4521 ;;		_I2C1_MasterIsNack
  4522 ;;		_I2C1_MasterSendTxData
  4523 ;;		_rd1RegCompleteHandler
  4524 ;;		_rd2RegCompleteHandler
  4525 ;;		_rdBlkRegCompleteHandler
  4526 ;;		_wr1RegCompleteHandler
  4527 ;;		_wr2RegCompleteHandler
  4528 ;; This function is called by:
  4529 ;;		_I2C1_MasterFsm
  4530 ;; This function uses a non-reentrant model
  4531 ;;
  4532                           
  4533                           	psect	text52
  4534  0000'                    __ptext52:
  4535                           	callstack 0
  4536  0000'                    _I2C1_DO_TX:
  4537                           	callstack 18
  4538  0000'                    
  4539                           ;mcc_generated_files/i2c1_master.c: 358:     if(I2C1_MasterIsNack())
  4540  0000' EC00' F000'        	call	_I2C1_MasterIsNack	;wreg free
  4541  0004' 0900               	iorlw	0
  4542  0006' B4D8               	btfsc	status,2,c
  4543  0008' EF00' F000'        	goto	i2u88_41
  4544  000C' EF00' F000'        	goto	i2u88_40
  4545  0010'                    i2u88_41:
  4546  0010' EF00' F000'        	goto	i2l464
  4547  0014'                    i2u88_40:
  4548  0014' EF00' F000'        	goto	i2l2881
  4549  0018'                    i2l2867:
  4550                           
  4551                           ;mcc_generated_files/i2c1_master.c: 363:                 return I2C1_DO_SEND_RESTART_REA
      +                          D();
  4552  0018' EC00' F000'        	call	_I2C1_DO_SEND_RESTART_READ	;wreg free
  4553  001C' EF00' F000'        	goto	i2l467
  4554  0020'                    i2l2871:
  4555                           
  4556                           ;mcc_generated_files/i2c1_master.c: 365:                   return I2C1_DO_SEND_RESTART_W
      +                          RITE();
  4557  0020' EC00' F000'        	call	_I2C1_DO_SEND_RESTART_WRITE	;wreg free
  4558  0024' EF00' F000'        	goto	i2l467
  4559  0028'                    i2l2875:
  4560                           
  4561                           ;mcc_generated_files/i2c1_master.c: 369:                 return I2C1_DO_SEND_STOP();
  4562  0028' EC00' F000'        	call	_I2C1_DO_SEND_STOP	;wreg free
  4563  002C' EF00' F000'        	goto	i2l467
  4564  0030'                    i2l2881:
  4565  0030' C012' F009'        	movff	_I2C1_Status+18,I2C1_CallbackReturnReset@funPtr
  4566  0034' C013' F00A'        	movff	_I2C1_Status+19,I2C1_CallbackReturnReset@funPtr+1
  4567  0038' EE20' F000'        	lfsr	2,_I2C1_Status+6
  4568  003C' D802               	call	i2u89_48
  4569  003E' EF00' F000'        	goto	i2u89_49
  4570  0042'                    i2u89_48:
  4571  0042' 0005               	push	
  4572  0044' 6EFA               	movwf	pclath,c
  4573  0046' 50DE               	movf	postinc2,w,c
  4574  0048' 6EFD               	movwf	tosl,c
  4575  004A' 50DE               	movf	postinc2,w,c
  4576  004C' 6EFE               	movwf	tosh,c
  4577  004E' 50F8               	movf	tblptru,w,c
  4578  0050' 6EFF               	movwf	tosu,c
  4579  0052' 50FA               	movf	pclath,w,c
  4580  0054' 0012               	return		;indir
  4581  0056'                    i2u89_49:
  4582  0056' 6E00'              	movwf	??_I2C1_DO_TX^0,c
  4583  0058' 6A00'              	clrf	(??_I2C1_DO_TX+1)^0,c
  4584                           
  4585                           ; Switch on 2 bytes has been partitioned into a top level switch of size 1, and 1 sub-sw
      +                          itches
  4586                           ; Switch size 1, requested type "simple"
  4587                           ; Number of cases is 1, Range of values is 0 to 0
  4588                           ; switch strategies available:
  4589                           ; Name         Instructions Cycles
  4590                           ; simple_byte            4     3 (average)
  4591                           ;	Chosen strategy is simple_byte
  4592  005A' 5000'              	movf	(??_I2C1_DO_TX+1)^0,w,c
  4593  005C' 0A00               	xorlw	0	; case 0
  4594  005E' B4D8               	btfsc	status,2,c
  4595  0060' EF00' F000'        	goto	i2l4029
  4596  0064' EF00' F000'        	goto	i2l2875
  4597  0068'                    i2l4029:
  4598                           
  4599                           ; Switch size 1, requested type "simple"
  4600                           ; Number of cases is 4, Range of values is 1 to 4
  4601                           ; switch strategies available:
  4602                           ; Name         Instructions Cycles
  4603                           ; simple_byte           13     7 (average)
  4604                           ;	Chosen strategy is simple_byte
  4605  0068' 5000'              	movf	??_I2C1_DO_TX^0,w,c
  4606  006A' 0A01               	xorlw	1	; case 1
  4607  006C' B4D8               	btfsc	status,2,c
  4608  006E' EF00' F000'        	goto	i2l2875
  4609  0072' 0A03               	xorlw	3	; case 2
  4610  0074' B4D8               	btfsc	status,2,c
  4611  0076' EF00' F000'        	goto	i2l2867
  4612  007A' 0A01               	xorlw	1	; case 3
  4613  007C' B4D8               	btfsc	status,2,c
  4614  007E' EF00' F000'        	goto	i2l2871
  4615  0082' 0A07               	xorlw	7	; case 4
  4616  0084' B4D8               	btfsc	status,2,c
  4617  0086' EF00' F000'        	goto	i2l2875
  4618  008A' EF00' F000'        	goto	i2l2875
  4619  008E'                    i2l464:
  4620                           
  4621                           ;mcc_generated_files/i2c1_master.c: 373:     {;mcc_generated_files/i2c1_master.c: 374:  
      +                                 I2C1_Status.addressNackCheck = 0;
  4622  008E' 0100               	movlb	0	; () banked
  4623  0090' 9100'              	bcf	(_I2C1_Status+35)& (0+255),0,b
  4624  0092'                    
  4625                           ; BSR set to: 0
  4626                           ;mcc_generated_files/i2c1_master.c: 375:         I2C1_MasterSendTxData(*I2C1_Status.data
      +                          _ptr++);
  4627  0092' C01D' FFD9         	movff	_I2C1_Status+29,fsr2l
  4628  0096' C01E' FFDA         	movff	_I2C1_Status+30,fsr2h
  4629  009A' 4B00'              	infsnz	(_I2C1_Status+29)& (0+255),f,b
  4630  009C' 2B00'              	incf	(_I2C1_Status+30)& (0+255),f,b
  4631  009E' 50DF               	movf	indf2,w,c
  4632  00A0' EC00' F000'        	call	_I2C1_MasterSendTxData
  4633  00A4'                    
  4634                           ;mcc_generated_files/i2c1_master.c: 376:         return (--I2C1_Status.data_length)?I2C1
      +                          _TX:I2C1_TX_EMPTY;
  4635  00A4' 0100               	movlb	0	; () banked
  4636  00A6' 0700'              	decf	(_I2C1_Status+31)& (0+255),f,b
  4637  00A8' A0D8               	btfss	status,0,c
  4638  00AA' 0700'              	decf	(_I2C1_Status+32)& (0+255),f,b
  4639  00AC' 5100'              	movf	(_I2C1_Status+31)& (0+255),w,b
  4640  00AE' 1100'              	iorwf	(_I2C1_Status+32)& (0+255),w,b
  4641  00B0' A4D8               	btfss	status,2,c
  4642  00B2' EF00' F000'        	goto	i2u90_41
  4643  00B6' EF00' F000'        	goto	i2u90_40
  4644  00BA'                    i2u90_41:
  4645  00BA' EF00' F000'        	goto	i2l2889
  4646  00BE'                    i2u90_40:
  4647  00BE'                    
  4648                           ; BSR set to: 0
  4649  00BE' 0E06               	movlw	6
  4650  00C0' EF00' F000'        	goto	i2l467
  4651  00C4'                    i2l2889:
  4652                           
  4653                           ; BSR set to: 0
  4654  00C4' 0E03               	movlw	3
  4655  00C6'                    i2l467:
  4656  00C6' 0012               	return		;funcret
  4657  00C8'                    __end_of_I2C1_DO_TX:
  4658                           	callstack 0
  4659                           
  4660 ;; *************** function _I2C1_DO_SEND_ADR_WRITE *****************
  4661 ;; Defined at:
  4662 ;;		line 349 in file "mcc_generated_files/i2c1_master.c"
  4663 ;; Parameters:    Size  Location     Type
  4664 ;;		None
  4665 ;; Auto vars:     Size  Location     Type
  4666 ;;		None
  4667 ;; Return value:  Size  Location     Type
  4668 ;;                  1    wreg      enum E6655
  4669 ;; Registers used:
  4670 ;;		wreg, status,2, status,0, cstack
  4671 ;; Tracked objects:
  4672 ;;		On entry : 0/0
  4673 ;;		On exit  : 0/0
  4674 ;;		Unchanged: 0/0
  4675 ;; Data sizes:     COMRAM   BANK0   BANK1   BANK2   BANK3   BANK4   BANK5   BANK6   BANK7   BANK8   BANK9  BANK10  BANK1
      +1  BANK12  BANK13  BANK14
  4676 ;;      Params:         0       0       0       0       0       0       0       0       0       0       0       0       
      +0       0       0       0
  4677 ;;      Locals:         0       0       0       0       0       0       0       0       0       0       0       0       
      +0       0       0       0
  4678 ;;      Temps:          0       0       0       0       0       0       0       0       0       0       0       0       
      +0       0       0       0
  4679 ;;      Totals:         0       0       0       0       0       0       0       0       0       0       0       0       
      +0       0       0       0
  4680 ;;Total ram usage:        0 bytes
  4681 ;; Hardware stack levels used: 1
  4682 ;; Hardware stack levels required when called: 1
  4683 ;; This function calls:
  4684 ;;		_I2C1_MasterSendTxData
  4685 ;; This function is called by:
  4686 ;;		_I2C1_MasterFsm
  4687 ;; This function uses a non-reentrant model
  4688 ;;
  4689                           
  4690                           	psect	text53
  4691  0000'                    __ptext53:
  4692                           	callstack 0
  4693  0000'                    _I2C1_DO_SEND_ADR_WRITE:
  4694                           	callstack 20
  4695  0000'                    
  4696                           ;mcc_generated_files/i2c1_master.c: 351:     I2C1_Status.addressNackCheck = 1;
  4697  0000' 0100               	movlb	0	; () banked
  4698  0002' 8100'              	bsf	(_I2C1_Status+35)& (0+255),0,b
  4699  0004'                    
  4700                           ; BSR set to: 0
  4701                           ;mcc_generated_files/i2c1_master.c: 352:     I2C1_MasterSendTxData((uint8_t) (I2C1_Statu
      +                          s.address << 1));
  4702  0004' 5100'              	movf	(_I2C1_Status+28)& (0+255),w,b
  4703  0006' 2500'              	addwf	(_I2C1_Status+28)& (0+255),w,b
  4704  0008' EC00' F000'        	call	_I2C1_MasterSendTxData
  4705  000C'                    
  4706                           ;mcc_generated_files/i2c1_master.c: 353:     return I2C1_TX;
  4707  000C' 0E03               	movlw	3
  4708  000E' 0012               	return		;funcret
  4709  0010'                    __end_of_I2C1_DO_SEND_ADR_WRITE:
  4710                           	callstack 0
  4711                           
  4712 ;; *************** function _I2C1_DO_SEND_ADR_READ *****************
  4713 ;; Defined at:
  4714 ;;		line 342 in file "mcc_generated_files/i2c1_master.c"
  4715 ;; Parameters:    Size  Location     Type
  4716 ;;		None
  4717 ;; Auto vars:     Size  Location     Type
  4718 ;;		None
  4719 ;; Return value:  Size  Location     Type
  4720 ;;                  1    wreg      enum E6655
  4721 ;; Registers used:
  4722 ;;		wreg, status,0, cstack
  4723 ;; Tracked objects:
  4724 ;;		On entry : 0/0
  4725 ;;		On exit  : 0/0
  4726 ;;		Unchanged: 0/0
  4727 ;; Data sizes:     COMRAM   BANK0   BANK1   BANK2   BANK3   BANK4   BANK5   BANK6   BANK7   BANK8   BANK9  BANK10  BANK1
      +1  BANK12  BANK13  BANK14
  4728 ;;      Params:         0       0       0       0       0       0       0       0       0       0       0       0       
      +0       0       0       0
  4729 ;;      Locals:         0       0       0       0       0       0       0       0       0       0       0       0       
      +0       0       0       0
  4730 ;;      Temps:          0       0       0       0       0       0       0       0       0       0       0       0       
      +0       0       0       0
  4731 ;;      Totals:         0       0       0       0       0       0       0       0       0       0       0       0       
      +0       0       0       0
  4732 ;;Total ram usage:        0 bytes
  4733 ;; Hardware stack levels used: 1
  4734 ;; Hardware stack levels required when called: 1
  4735 ;; This function calls:
  4736 ;;		_I2C1_MasterSendTxData
  4737 ;; This function is called by:
  4738 ;;		_I2C1_MasterFsm
  4739 ;; This function uses a non-reentrant model
  4740 ;;
  4741                           
  4742                           	psect	text54
  4743  0000'                    __ptext54:
  4744                           	callstack 0
  4745  0000'                    _I2C1_DO_SEND_ADR_READ:
  4746                           	callstack 20
  4747  0000'                    
  4748                           ;mcc_generated_files/i2c1_master.c: 344:     I2C1_Status.addressNackCheck = 1;
  4749  0000' 0100               	movlb	0	; () banked
  4750  0002' 8100'              	bsf	(_I2C1_Status+35)& (0+255),0,b
  4751  0004'                    
  4752                           ; BSR set to: 0
  4753                           ;mcc_generated_files/i2c1_master.c: 345:     I2C1_MasterSendTxData((uint8_t) (I2C1_Statu
      +                          s.address << 1 | 1));
  4754  0004' 80D8               	bsf	status,0,c
  4755  0006' 3500'              	rlcf	(_I2C1_Status+28)& (0+255),w,b
  4756  0008' EC00' F000'        	call	_I2C1_MasterSendTxData
  4757  000C'                    
  4758                           ;mcc_generated_files/i2c1_master.c: 346:     return I2C1_RCEN;
  4759  000C' 0E05               	movlw	5
  4760  000E' 0012               	return		;funcret
  4761  0010'                    __end_of_I2C1_DO_SEND_ADR_READ:
  4762                           	callstack 0
  4763                           
  4764 ;; *************** function _I2C1_DO_IDLE *****************
  4765 ;; Defined at:
  4766 ;;		line 335 in file "mcc_generated_files/i2c1_master.c"
  4767 ;; Parameters:    Size  Location     Type
  4768 ;;		None
  4769 ;; Auto vars:     Size  Location     Type
  4770 ;;		None
  4771 ;; Return value:  Size  Location     Type
  4772 ;;                  1    wreg      enum E6655
  4773 ;; Registers used:
  4774 ;;		wreg, status,2
  4775 ;; Tracked objects:
  4776 ;;		On entry : 0/0
  4777 ;;		On exit  : 0/0
  4778 ;;		Unchanged: 0/0
  4779 ;; Data sizes:     COMRAM   BANK0   BANK1   BANK2   BANK3   BANK4   BANK5   BANK6   BANK7   BANK8   BANK9  BANK10  BANK1
      +1  BANK12  BANK13  BANK14
  4780 ;;      Params:         0       0       0       0       0       0       0       0       0       0       0       0       
      +0       0       0       0
  4781 ;;      Locals:         0       0       0       0       0       0       0       0       0       0       0       0       
      +0       0       0       0
  4782 ;;      Temps:          0       0       0       0       0       0       0       0       0       0       0       0       
      +0       0       0       0
  4783 ;;      Totals:         0       0       0       0       0       0       0       0       0       0       0       0       
      +0       0       0       0
  4784 ;;Total ram usage:        0 bytes
  4785 ;; Hardware stack levels used: 1
  4786 ;; This function calls:
  4787 ;;		Nothing
  4788 ;; This function is called by:
  4789 ;;		_I2C1_MasterFsm
  4790 ;; This function uses a non-reentrant model
  4791 ;;
  4792                           
  4793                           	psect	text55
  4794  0000'                    __ptext55:
  4795                           	callstack 0
  4796  0000'                    _I2C1_DO_IDLE:
  4797                           	callstack 21
  4798  0000'                    
  4799                           ;mcc_generated_files/i2c1_master.c: 337:     I2C1_Status.busy = 0;
  4800  0000' 0100               	movlb	0	; () banked
  4801  0002' 9300'              	bcf	(_I2C1_Status+35)& (0+255),1,b
  4802  0004'                    
  4803                           ; BSR set to: 0
  4804                           ;mcc_generated_files/i2c1_master.c: 338:     I2C1_Status.error = I2C1_NOERR;
  4805  0004' 0E00               	movlw	0
  4806  0006' 6F00'              	movwf	(_I2C1_Status+34)& (0+255),b
  4807  0008'                    
  4808                           ; BSR set to: 0
  4809                           ;mcc_generated_files/i2c1_master.c: 339:     return I2C1_RESET;
  4810  0008' 0E0E               	movlw	14
  4811  000A'                    
  4812                           ; BSR set to: 0
  4813  000A' 0012               	return		;funcret
  4814  000C'                    __end_of_I2C1_DO_IDLE:
  4815                           	callstack 0
  4816                           
  4817 ;; *************** function _I2C1_DO_TX_EMPTY *****************
  4818 ;; Defined at:
  4819 ;;		line 411 in file "mcc_generated_files/i2c1_master.c"
  4820 ;; Parameters:    Size  Location     Type
  4821 ;;		None
  4822 ;; Auto vars:     Size  Location     Type
  4823 ;;		None
  4824 ;; Return value:  Size  Location     Type
  4825 ;;                  1    wreg      enum E6655
  4826 ;; Registers used:
  4827 ;;		wreg, fsr2l, fsr2h, status,2, status,0, pcl, pclath, pclatu, tosl, prodl, prodh, cstack
  4828 ;; Tracked objects:
  4829 ;;		On entry : 0/0
  4830 ;;		On exit  : 0/0
  4831 ;;		Unchanged: 0/0
  4832 ;; Data sizes:     COMRAM   BANK0   BANK1   BANK2   BANK3   BANK4   BANK5   BANK6   BANK7   BANK8   BANK9  BANK10  BANK1
      +1  BANK12  BANK13  BANK14
  4833 ;;      Params:         0       0       0       0       0       0       0       0       0       0       0       0       
      +0       0       0       0
  4834 ;;      Locals:         0       0       0       0       0       0       0       0       0       0       0       0       
      +0       0       0       0
  4835 ;;      Temps:          2       0       0       0       0       0       0       0       0       0       0       0       
      +0       0       0       0
  4836 ;;      Totals:         2       0       0       0       0       0       0       0       0       0       0       0       
      +0       0       0       0
  4837 ;;Total ram usage:        2 bytes
  4838 ;; Hardware stack levels used: 1
  4839 ;; Hardware stack levels required when called: 3
  4840 ;; This function calls:
  4841 ;;		Absolute function
  4842 ;;		_I2C1_CallbackReturnReset
  4843 ;;		_I2C1_CallbackReturnStop
  4844 ;;		_I2C1_DO_SEND_RESTART
  4845 ;;		_I2C1_DO_SEND_STOP
  4846 ;;		_I2C1_MasterSetIrq
  4847 ;;		_rd1RegCompleteHandler
  4848 ;;		_rd2RegCompleteHandler
  4849 ;;		_rdBlkRegCompleteHandler
  4850 ;;		_wr1RegCompleteHandler
  4851 ;;		_wr2RegCompleteHandler
  4852 ;; This function is called by:
  4853 ;;		_I2C1_MasterFsm
  4854 ;; This function uses a non-reentrant model
  4855 ;;
  4856                           
  4857                           	psect	text56
  4858  0000'                    __ptext56:
  4859                           	callstack 0
  4860  0000'                    _I2C1_DO_TX_EMPTY:
  4861                           	callstack 18
  4862  0000'                    
  4863                           ;mcc_generated_files/i2c1_master.c: 413:     I2C1_Status.bufferFree = 1;
  4864  0000' 0100               	movlb	0	; () banked
  4865  0002' 8700'              	bsf	(_I2C1_Status+35)& (0+255),3,b
  4866                           
  4867                           ;mcc_generated_files/i2c1_master.c: 414:     switch(I2C1_Status.callbackTable[I2C1_DATA_
      +                          COMPLETE](I2C1_Status.callbackPayload[I2C1_DATA_COMPLETE]))
  4868  0004' EF00' F000'        	goto	i2l2953
  4869  0008'                    i2l2937:
  4870                           
  4871                           ;mcc_generated_files/i2c1_master.c: 418:             return I2C1_DO_SEND_RESTART();
  4872  0008' EC00' F000'        	call	_I2C1_DO_SEND_RESTART	;wreg free
  4873  000C' EF00' F000'        	goto	i2l498
  4874  0010'                    i2l2941:
  4875                           
  4876                           ;mcc_generated_files/i2c1_master.c: 420:             I2C1_MasterSetIrq();
  4877  0010' EC00' F000'        	call	_I2C1_MasterSetIrq	;wreg free
  4878  0014'                    
  4879                           ;mcc_generated_files/i2c1_master.c: 421:             return I2C1_TX;
  4880  0014' 0E03               	movlw	3
  4881  0016' EF00' F000'        	goto	i2l498
  4882  001A'                    i2l2947:
  4883                           
  4884                           ;mcc_generated_files/i2c1_master.c: 424:             return I2C1_DO_SEND_STOP();
  4885  001A' EC00' F000'        	call	_I2C1_DO_SEND_STOP	;wreg free
  4886  001E' EF00' F000'        	goto	i2l498
  4887  0022'                    i2l2953:
  4888                           
  4889                           ; BSR set to: 0
  4890  0022' C00C' F009'        	movff	_I2C1_Status+12,I2C1_CallbackReturnReset@funPtr
  4891  0026' C00D' F00A'        	movff	_I2C1_Status+13,I2C1_CallbackReturnReset@funPtr+1
  4892  002A' D802               	call	i2u93_48
  4893  002C' EF00' F000'        	goto	i2u93_49
  4894  0030'                    i2u93_48:
  4895  0030' 0005               	push	
  4896  0032' 6EFA               	movwf	pclath,c
  4897  0034' 5100'              	movf	_I2C1_Status& (0+255),w,b
  4898  0036' 6EFD               	movwf	tosl,c
  4899  0038' 5100'              	movf	(_I2C1_Status+1)& (0+255),w,b
  4900  003A' 6EFE               	movwf	tosh,c
  4901  003C' 50F8               	movf	tblptru,w,c
  4902  003E' 6EFF               	movwf	tosu,c
  4903  0040' 50FA               	movf	pclath,w,c
  4904  0042' 0012               	return		;indir
  4905  0044'                    i2u93_49:
  4906  0044' 6E00'              	movwf	??_I2C1_DO_TX_EMPTY^0,c
  4907  0046' 6A00'              	clrf	(??_I2C1_DO_TX_EMPTY+1)^0,c
  4908                           
  4909                           ; Switch on 2 bytes has been partitioned into a top level switch of size 1, and 1 sub-sw
      +                          itches
  4910                           ; Switch size 1, requested type "simple"
  4911                           ; Number of cases is 1, Range of values is 0 to 0
  4912                           ; switch strategies available:
  4913                           ; Name         Instructions Cycles
  4914                           ; simple_byte            4     3 (average)
  4915                           ;	Chosen strategy is simple_byte
  4916  0048' 5000'              	movf	(??_I2C1_DO_TX_EMPTY+1)^0,w,c
  4917  004A' 0A00               	xorlw	0	; case 0
  4918  004C' B4D8               	btfsc	status,2,c
  4919  004E' EF00' F000'        	goto	i2l4031
  4920  0052' EF00' F000'        	goto	i2l2947
  4921  0056'                    i2l4031:
  4922                           
  4923                           ; Switch size 1, requested type "simple"
  4924                           ; Number of cases is 4, Range of values is 1 to 4
  4925                           ; switch strategies available:
  4926                           ; Name         Instructions Cycles
  4927                           ; simple_byte           13     7 (average)
  4928                           ;	Chosen strategy is simple_byte
  4929  0056' 5000'              	movf	??_I2C1_DO_TX_EMPTY^0,w,c
  4930  0058' 0A01               	xorlw	1	; case 1
  4931  005A' B4D8               	btfsc	status,2,c
  4932  005C' EF00' F000'        	goto	i2l2947
  4933  0060' 0A03               	xorlw	3	; case 2
  4934  0062' B4D8               	btfsc	status,2,c
  4935  0064' EF00' F000'        	goto	i2l2937
  4936  0068' 0A01               	xorlw	1	; case 3
  4937  006A' B4D8               	btfsc	status,2,c
  4938  006C' EF00' F000'        	goto	i2l2937
  4939  0070' 0A07               	xorlw	7	; case 4
  4940  0072' B4D8               	btfsc	status,2,c
  4941  0074' EF00' F000'        	goto	i2l2941
  4942  0078' EF00' F000'        	goto	i2l2947
  4943  007C'                    i2l498:
  4944  007C' 0012               	return		;funcret
  4945  007E'                    __end_of_I2C1_DO_TX_EMPTY:
  4946                           	callstack 0
  4947                           
  4948 ;; *************** function _I2C1_MasterSetIrq *****************
  4949 ;; Defined at:
  4950 ;;		line 647 in file "mcc_generated_files/i2c1_master.c"
  4951 ;; Parameters:    Size  Location     Type
  4952 ;;		None
  4953 ;; Auto vars:     Size  Location     Type
  4954 ;;		None
  4955 ;; Return value:  Size  Location     Type
  4956 ;;                  1    wreg      void 
  4957 ;; Registers used:
  4958 ;;		None
  4959 ;; Tracked objects:
  4960 ;;		On entry : 0/0
  4961 ;;		On exit  : 0/0
  4962 ;;		Unchanged: 0/0
  4963 ;; Data sizes:     COMRAM   BANK0   BANK1   BANK2   BANK3   BANK4   BANK5   BANK6   BANK7   BANK8   BANK9  BANK10  BANK1
      +1  BANK12  BANK13  BANK14
  4964 ;;      Params:         0       0       0       0       0       0       0       0       0       0       0       0       
      +0       0       0       0
  4965 ;;      Locals:         0       0       0       0       0       0       0       0       0       0       0       0       
      +0       0       0       0
  4966 ;;      Temps:          0       0       0       0       0       0       0       0       0       0       0       0       
      +0       0       0       0
  4967 ;;      Totals:         0       0       0       0       0       0       0       0       0       0       0       0       
      +0       0       0       0
  4968 ;;Total ram usage:        0 bytes
  4969 ;; Hardware stack levels used: 1
  4970 ;; This function calls:
  4971 ;;		Nothing
  4972 ;; This function is called by:
  4973 ;;		_I2C1_DO_TX_EMPTY
  4974 ;; This function uses a non-reentrant model
  4975 ;;
  4976                           
  4977                           	psect	text57
  4978  0000'                    __ptext57:
  4979                           	callstack 0
  4980  0000'                    _I2C1_MasterSetIrq:
  4981                           	callstack 20
  4982  0000'                    
  4983                           ;mcc_generated_files/i2c1_master.c: 649:     PIR1bits.SSP1IF = 1;
  4984  0000' 869E               	bsf	158,3,c	;volatile
  4985  0002' 0012               	return		;funcret
  4986  0004'                    __end_of_I2C1_MasterSetIrq:
  4987                           	callstack 0
  4988                           
  4989 ;; *************** function _I2C1_MasterIsNack *****************
  4990 ;; Defined at:
  4991 ;;		line 599 in file "mcc_generated_files/i2c1_master.c"
  4992 ;; Parameters:    Size  Location     Type
  4993 ;;		None
  4994 ;; Auto vars:     Size  Location     Type
  4995 ;;		None
  4996 ;; Return value:  Size  Location     Type
  4997 ;;                  1    wreg      _Bool 
  4998 ;; Registers used:
  4999 ;;		wreg
  5000 ;; Tracked objects:
  5001 ;;		On entry : 0/0
  5002 ;;		On exit  : 0/0
  5003 ;;		Unchanged: 0/0
  5004 ;; Data sizes:     COMRAM   BANK0   BANK1   BANK2   BANK3   BANK4   BANK5   BANK6   BANK7   BANK8   BANK9  BANK10  BANK1
      +1  BANK12  BANK13  BANK14
  5005 ;;      Params:         0       0       0       0       0       0       0       0       0       0       0       0       
      +0       0       0       0
  5006 ;;      Locals:         0       0       0       0       0       0       0       0       0       0       0       0       
      +0       0       0       0
  5007 ;;      Temps:          0       0       0       0       0       0       0       0       0       0       0       0       
      +0       0       0       0
  5008 ;;      Totals:         0       0       0       0       0       0       0       0       0       0       0       0       
      +0       0       0       0
  5009 ;;Total ram usage:        0 bytes
  5010 ;; Hardware stack levels used: 1
  5011 ;; This function calls:
  5012 ;;		Nothing
  5013 ;; This function is called by:
  5014 ;;		_I2C1_MasterFsm
  5015 ;;		_I2C1_DO_TX
  5016 ;; This function uses a non-reentrant model
  5017 ;;
  5018                           
  5019                           	psect	text58
  5020  0000'                    __ptext58:
  5021                           	callstack 0
  5022  0000'                    _I2C1_MasterIsNack:
  5023                           	callstack 21
  5024  0000'                    
  5025                           ;mcc_generated_files/i2c1_master.c: 601:     return SSP1CON2bits.ACKSTAT;
  5026  0000' BCC5               	btfsc	197,6,c	;volatile
  5027  0002' EF00' F000'        	goto	i2u78_41
  5028  0006' EF00' F000'        	goto	i2u78_40
  5029  000A'                    i2u78_41:
  5030  000A' 0E01               	movlw	1
  5031  000C' EF00' F000'        	goto	i2u78_46
  5032  0010'                    i2u78_40:
  5033  0010' 0E00               	movlw	0
  5034  0012'                    i2u78_46:
  5035  0012' 0012               	return		;funcret
  5036  0014'                    __end_of_I2C1_MasterIsNack:
  5037                           	callstack 0
  5038                           
  5039 ;; *************** function _I2C1_MasterSendTxData *****************
  5040 ;; Defined at:
  5041 ;;		line 569 in file "mcc_generated_files/i2c1_master.c"
  5042 ;; Parameters:    Size  Location     Type
  5043 ;;  data            1    wreg     unsigned char 
  5044 ;; Auto vars:     Size  Location     Type
  5045 ;;  data            1    0[COMRAM] unsigned char 
  5046 ;; Return value:  Size  Location     Type
  5047 ;;                  1    wreg      void 
  5048 ;; Registers used:
  5049 ;;		wreg
  5050 ;; Tracked objects:
  5051 ;;		On entry : 0/0
  5052 ;;		On exit  : 0/0
  5053 ;;		Unchanged: 0/0
  5054 ;; Data sizes:     COMRAM   BANK0   BANK1   BANK2   BANK3   BANK4   BANK5   BANK6   BANK7   BANK8   BANK9  BANK10  BANK1
      +1  BANK12  BANK13  BANK14
  5055 ;;      Params:         0       0       0       0       0       0       0       0       0       0       0       0       
      +0       0       0       0
  5056 ;;      Locals:         1       0       0       0       0       0       0       0       0       0       0       0       
      +0       0       0       0
  5057 ;;      Temps:          0       0       0       0       0       0       0       0       0       0       0       0       
      +0       0       0       0
  5058 ;;      Totals:         1       0       0       0       0       0       0       0       0       0       0       0       
      +0       0       0       0
  5059 ;;Total ram usage:        1 bytes
  5060 ;; Hardware stack levels used: 1
  5061 ;; This function calls:
  5062 ;;		Nothing
  5063 ;; This function is called by:
  5064 ;;		_I2C1_DO_SEND_ADR_READ
  5065 ;;		_I2C1_DO_SEND_ADR_WRITE
  5066 ;;		_I2C1_DO_TX
  5067 ;; This function uses a non-reentrant model
  5068 ;;
  5069                           
  5070                           	psect	text59
  5071  0000'                    __ptext59:
  5072                           	callstack 0
  5073  0000'                    _I2C1_MasterSendTxData:
  5074                           	callstack 20
  5075                           
  5076                           ;incstack = 0
  5077                           ;I2C1_MasterSendTxData@data stored from wreg
  5078  0000' 6E00'              	movwf	I2C1_MasterSendTxData@data^0,c
  5079  0002'                    
  5080                           ;mcc_generated_files/i2c1_master.c: 569: static __attribute__((inline)) void I2C1_Master
      +                          SendTxData(uint8_t data);mcc_generated_files/i2c1_master.c: 570: {;mcc_generated_files/i
      +                          2c1_master.c: 571:     SSP1BUF = data;
  5081  0002' C000' FFC9         	movff	I2C1_MasterSendTxData@data,4041	;volatile
  5082  0006' 0012               	return		;funcret
  5083  0008'                    __end_of_I2C1_MasterSendTxData:
  5084                           	callstack 0
  5085                           
  5086 ;; *************** function _I2C1_MasterSendAck *****************
  5087 ;; Defined at:
  5088 ;;		line 604 in file "mcc_generated_files/i2c1_master.c"
  5089 ;; Parameters:    Size  Location     Type
  5090 ;;		None
  5091 ;; Auto vars:     Size  Location     Type
  5092 ;;		None
  5093 ;; Return value:  Size  Location     Type
  5094 ;;                  1    wreg      void 
  5095 ;; Registers used:
  5096 ;;		None
  5097 ;; Tracked objects:
  5098 ;;		On entry : 0/0
  5099 ;;		On exit  : 0/0
  5100 ;;		Unchanged: 0/0
  5101 ;; Data sizes:     COMRAM   BANK0   BANK1   BANK2   BANK3   BANK4   BANK5   BANK6   BANK7   BANK8   BANK9  BANK10  BANK1
      +1  BANK12  BANK13  BANK14
  5102 ;;      Params:         0       0       0       0       0       0       0       0       0       0       0       0       
      +0       0       0       0
  5103 ;;      Locals:         0       0       0       0       0       0       0       0       0       0       0       0       
      +0       0       0       0
  5104 ;;      Temps:          0       0       0       0       0       0       0       0       0       0       0       0       
      +0       0       0       0
  5105 ;;      Totals:         0       0       0       0       0       0       0       0       0       0       0       0       
      +0       0       0       0
  5106 ;;Total ram usage:        0 bytes
  5107 ;; Hardware stack levels used: 1
  5108 ;; This function calls:
  5109 ;;		Nothing
  5110 ;; This function is called by:
  5111 ;;		_I2C1_DO_RX
  5112 ;;		_I2C1_DO_RX_ACK
  5113 ;; This function uses a non-reentrant model
  5114 ;;
  5115                           
  5116                           	psect	text60
  5117  0000'                    __ptext60:
  5118                           	callstack 0
  5119  0000'                    _I2C1_MasterSendAck:
  5120                           	callstack 20
  5121  0000'                    
  5122                           ;mcc_generated_files/i2c1_master.c: 606:     SSP1CON2bits.ACKDT = 0;
  5123  0000' 9AC5               	bcf	197,5,c	;volatile
  5124                           
  5125                           ;mcc_generated_files/i2c1_master.c: 607:     SSP1CON2bits.ACKEN = 1;
  5126  0002' 88C5               	bsf	197,4,c	;volatile
  5127  0004' 0012               	return		;funcret
  5128  0006'                    __end_of_I2C1_MasterSendAck:
  5129                           	callstack 0
  5130                           
  5131 ;; *************** function _I2C1_MasterGetRxData *****************
  5132 ;; Defined at:
  5133 ;;		line 564 in file "mcc_generated_files/i2c1_master.c"
  5134 ;; Parameters:    Size  Location     Type
  5135 ;;		None
  5136 ;; Auto vars:     Size  Location     Type
  5137 ;;		None
  5138 ;; Return value:  Size  Location     Type
  5139 ;;                  1    wreg      unsigned char 
  5140 ;; Registers used:
  5141 ;;		wreg, status,2
  5142 ;; Tracked objects:
  5143 ;;		On entry : 0/0
  5144 ;;		On exit  : 0/0
  5145 ;;		Unchanged: 0/0
  5146 ;; Data sizes:     COMRAM   BANK0   BANK1   BANK2   BANK3   BANK4   BANK5   BANK6   BANK7   BANK8   BANK9  BANK10  BANK1
      +1  BANK12  BANK13  BANK14
  5147 ;;      Params:         0       0       0       0       0       0       0       0       0       0       0       0       
      +0       0       0       0
  5148 ;;      Locals:         0       0       0       0       0       0       0       0       0       0       0       0       
      +0       0       0       0
  5149 ;;      Temps:          0       0       0       0       0       0       0       0       0       0       0       0       
      +0       0       0       0
  5150 ;;      Totals:         0       0       0       0       0       0       0       0       0       0       0       0       
      +0       0       0       0
  5151 ;;Total ram usage:        0 bytes
  5152 ;; Hardware stack levels used: 1
  5153 ;; This function calls:
  5154 ;;		Nothing
  5155 ;; This function is called by:
  5156 ;;		_I2C1_DO_RX
  5157 ;; This function uses a non-reentrant model
  5158 ;;
  5159                           
  5160                           	psect	text61
  5161  0000'                    __ptext61:
  5162                           	callstack 0
  5163  0000'                    _I2C1_MasterGetRxData:
  5164                           	callstack 20
  5165  0000'                    
  5166                           ;mcc_generated_files/i2c1_master.c: 566:     return SSP1BUF;
  5167  0000' 50C9               	movf	201,w,c	;volatile
  5168  0002' 0012               	return		;funcret
  5169  0004'                    __end_of_I2C1_MasterGetRxData:
  5170                           	callstack 0
  5171                           
  5172 ;; *************** function _I2C1_MasterSendNack *****************
  5173 ;; Defined at:
  5174 ;;		line 610 in file "mcc_generated_files/i2c1_master.c"
  5175 ;; Parameters:    Size  Location     Type
  5176 ;;		None
  5177 ;; Auto vars:     Size  Location     Type
  5178 ;;		None
  5179 ;; Return value:  Size  Location     Type
  5180 ;;                  1    wreg      void 
  5181 ;; Registers used:
  5182 ;;		None
  5183 ;; Tracked objects:
  5184 ;;		On entry : 0/0
  5185 ;;		On exit  : 0/0
  5186 ;;		Unchanged: 0/0
  5187 ;; Data sizes:     COMRAM   BANK0   BANK1   BANK2   BANK3   BANK4   BANK5   BANK6   BANK7   BANK8   BANK9  BANK10  BANK1
      +1  BANK12  BANK13  BANK14
  5188 ;;      Params:         0       0       0       0       0       0       0       0       0       0       0       0       
      +0       0       0       0
  5189 ;;      Locals:         0       0       0       0       0       0       0       0       0       0       0       0       
      +0       0       0       0
  5190 ;;      Temps:          0       0       0       0       0       0       0       0       0       0       0       0       
      +0       0       0       0
  5191 ;;      Totals:         0       0       0       0       0       0       0       0       0       0       0       0       
      +0       0       0       0
  5192 ;;Total ram usage:        0 bytes
  5193 ;; Hardware stack levels used: 1
  5194 ;; This function calls:
  5195 ;;		Nothing
  5196 ;; This function is called by:
  5197 ;;		_I2C1_DO_RX_NACK_STOP
  5198 ;;		_I2C1_DO_RX_NACK_RESTART
  5199 ;; This function uses a non-reentrant model
  5200 ;;
  5201                           
  5202                           	psect	text62
  5203  0000'                    __ptext62:
  5204                           	callstack 0
  5205  0000'                    _I2C1_MasterSendNack:
  5206                           	callstack 20
  5207  0000'                    
  5208                           ;mcc_generated_files/i2c1_master.c: 612:     SSP1CON2bits.ACKDT = 1;
  5209  0000' 8AC5               	bsf	197,5,c	;volatile
  5210                           
  5211                           ;mcc_generated_files/i2c1_master.c: 613:     SSP1CON2bits.ACKEN = 1;
  5212  0002' 88C5               	bsf	197,4,c	;volatile
  5213  0004' 0012               	return		;funcret
  5214  0006'                    __end_of_I2C1_MasterSendNack:
  5215                           	callstack 0
  5216                           
  5217 ;; *************** function _I2C1_MasterStartRx *****************
  5218 ;; Defined at:
  5219 ;;		line 584 in file "mcc_generated_files/i2c1_master.c"
  5220 ;; Parameters:    Size  Location     Type
  5221 ;;		None
  5222 ;; Auto vars:     Size  Location     Type
  5223 ;;		None
  5224 ;; Return value:  Size  Location     Type
  5225 ;;                  1    wreg      void 
  5226 ;; Registers used:
  5227 ;;		None
  5228 ;; Tracked objects:
  5229 ;;		On entry : 0/0
  5230 ;;		On exit  : 0/0
  5231 ;;		Unchanged: 0/0
  5232 ;; Data sizes:     COMRAM   BANK0   BANK1   BANK2   BANK3   BANK4   BANK5   BANK6   BANK7   BANK8   BANK9  BANK10  BANK1
      +1  BANK12  BANK13  BANK14
  5233 ;;      Params:         0       0       0       0       0       0       0       0       0       0       0       0       
      +0       0       0       0
  5234 ;;      Locals:         0       0       0       0       0       0       0       0       0       0       0       0       
      +0       0       0       0
  5235 ;;      Temps:          0       0       0       0       0       0       0       0       0       0       0       0       
      +0       0       0       0
  5236 ;;      Totals:         0       0       0       0       0       0       0       0       0       0       0       0       
      +0       0       0       0
  5237 ;;Total ram usage:        0 bytes
  5238 ;; Hardware stack levels used: 1
  5239 ;; This function calls:
  5240 ;;		Nothing
  5241 ;; This function is called by:
  5242 ;;		_I2C1_DO_RCEN
  5243 ;; This function uses a non-reentrant model
  5244 ;;
  5245                           
  5246                           	psect	text63
  5247  0000'                    __ptext63:
  5248                           	callstack 0
  5249  0000'                    _I2C1_MasterStartRx:
  5250                           	callstack 20
  5251  0000'                    
  5252                           ;mcc_generated_files/i2c1_master.c: 586:     SSP1CON2bits.RCEN = 1;
  5253  0000' 86C5               	bsf	197,3,c	;volatile
  5254  0002' 0012               	return		;funcret
  5255  0004'                    __end_of_I2C1_MasterStartRx:
  5256                           	callstack 0
  5257                           
  5258 ;; *************** function _I2C1_CallbackReturnReset *****************
  5259 ;; Defined at:
  5260 ;;		line 526 in file "mcc_generated_files/i2c1_master.c"
  5261 ;; Parameters:    Size  Location     Type
  5262 ;;  funPtr          2    9[COMRAM] PTR void 
  5263 ;;		 -> I2C1_ReadDataBlock@bufferBlock(4), I2C1_Write2ByteRegister@data(2), I2C1_Write1ByteRegister@data(1), I2C1_Read2B
      +yteRegister@returnValue(2), 
  5264 ;;		 -> NULL(0), I2C1_Read1ByteRegister@returnValue(1), 
  5265 ;; Auto vars:     Size  Location     Type
  5266 ;;		None
  5267 ;; Return value:  Size  Location     Type
  5268 ;;                  1    wreg      enum E360
  5269 ;; Registers used:
  5270 ;;		wreg
  5271 ;; Tracked objects:
  5272 ;;		On entry : 0/0
  5273 ;;		On exit  : 0/0
  5274 ;;		Unchanged: 0/0
  5275 ;; Data sizes:     COMRAM   BANK0   BANK1   BANK2   BANK3   BANK4   BANK5   BANK6   BANK7   BANK8   BANK9  BANK10  BANK1
      +1  BANK12  BANK13  BANK14
  5276 ;;      Params:         2       0       0       0       0       0       0       0       0       0       0       0       
      +0       0       0       0
  5277 ;;      Locals:         0       0       0       0       0       0       0       0       0       0       0       0       
      +0       0       0       0
  5278 ;;      Temps:          0       0       0       0       0       0       0       0       0       0       0       0       
      +0       0       0       0
  5279 ;;      Totals:         2       0       0       0       0       0       0       0       0       0       0       0       
      +0       0       0       0
  5280 ;;Total ram usage:        2 bytes
  5281 ;; Hardware stack levels used: 1
  5282 ;; This function calls:
  5283 ;;		Nothing
  5284 ;; This function is called by:
  5285 ;;		_I2C1_Open
  5286 ;;		_I2C1_DO_TX
  5287 ;;		_I2C1_DO_RX
  5288 ;;		_I2C1_DO_TX_EMPTY
  5289 ;;		_I2C1_DO_ADDRESS_NACK
  5290 ;;		_I2C1_DO_RX_EMPTY
  5291 ;; This function uses a non-reentrant model
  5292 ;;
  5293                           
  5294                           	psect	text64
  5295  0000'                    __ptext64:
  5296                           	callstack 0
  5297  0000'                    _I2C1_CallbackReturnReset:
  5298                           	callstack 20
  5299  0000'                    
  5300                           ;mcc_generated_files/i2c1_master.c: 526: i2c1_operations_t I2C1_CallbackReturnReset(void
      +                           *funPtr);mcc_generated_files/i2c1_master.c: 527: {;mcc_generated_files/i2c1_master.c: 5
      +                          28:     return I2C1_RESET_LINK;
  5301  0000' 0E05               	movlw	5
  5302  0002' 0012               	return		;funcret
  5303  0004'                    __end_of_I2C1_CallbackReturnReset:
  5304                           	callstack 0
  5305                           
  5306 ;; *************** function _I2C1_CallbackReturnStop *****************
  5307 ;; Defined at:
  5308 ;;		line 521 in file "mcc_generated_files/i2c1_master.c"
  5309 ;; Parameters:    Size  Location     Type
  5310 ;;  funPtr          2    9[COMRAM] PTR void 
  5311 ;;		 -> I2C1_ReadDataBlock@bufferBlock(4), I2C1_Write2ByteRegister@data(2), I2C1_Write1ByteRegister@data(1), I2C1_Read2B
      +yteRegister@returnValue(2), 
  5312 ;;		 -> NULL(0), I2C1_Read1ByteRegister@returnValue(1), 
  5313 ;; Auto vars:     Size  Location     Type
  5314 ;;		None
  5315 ;; Return value:  Size  Location     Type
  5316 ;;                  1    wreg      enum E360
  5317 ;; Registers used:
  5318 ;;		wreg
  5319 ;; Tracked objects:
  5320 ;;		On entry : 0/0
  5321 ;;		On exit  : 0/0
  5322 ;;		Unchanged: 0/0
  5323 ;; Data sizes:     COMRAM   BANK0   BANK1   BANK2   BANK3   BANK4   BANK5   BANK6   BANK7   BANK8   BANK9  BANK10  BANK1
      +1  BANK12  BANK13  BANK14
  5324 ;;      Params:         2       0       0       0       0       0       0       0       0       0       0       0       
      +0       0       0       0
  5325 ;;      Locals:         0       0       0       0       0       0       0       0       0       0       0       0       
      +0       0       0       0
  5326 ;;      Temps:          0       0       0       0       0       0       0       0       0       0       0       0       
      +0       0       0       0
  5327 ;;      Totals:         2       0       0       0       0       0       0       0       0       0       0       0       
      +0       0       0       0
  5328 ;;Total ram usage:        2 bytes
  5329 ;; Hardware stack levels used: 1
  5330 ;; This function calls:
  5331 ;;		Nothing
  5332 ;; This function is called by:
  5333 ;;		_I2C1_Open
  5334 ;;		_I2C1_SetCallback
  5335 ;;		i2_I2C1_SetCallback
  5336 ;;		_I2C1_DO_TX
  5337 ;;		_I2C1_DO_RX
  5338 ;;		_I2C1_DO_TX_EMPTY
  5339 ;;		_I2C1_DO_ADDRESS_NACK
  5340 ;;		_I2C1_DO_RX_EMPTY
  5341 ;; This function uses a non-reentrant model
  5342 ;;
  5343                           
  5344                           	psect	text65
  5345  0000'                    __ptext65:
  5346                           	callstack 0
  5347  0000'                    _I2C1_CallbackReturnStop:
  5348                           	callstack 20
  5349  0000'                    
  5350                           ;mcc_generated_files/i2c1_master.c: 521: i2c1_operations_t I2C1_CallbackReturnStop(void 
      +                          *funPtr);mcc_generated_files/i2c1_master.c: 522: {;mcc_generated_files/i2c1_master.c: 52
      +                          3:     return I2C1_STOP;
  5351  0000' 0E01               	movlw	1
  5352  0002' 0012               	return		;funcret
  5353  0004'                    __end_of_I2C1_CallbackReturnStop:
  5354                           	callstack 0
  5355                           
  5356 ;; *************** function _rdBlkRegCompleteHandler *****************
  5357 ;; Defined at:
  5358 ;;		line 170 in file "mcc_generated_files/examples/i2c1_master_example.c"
  5359 ;; Parameters:    Size  Location     Type
  5360 ;;  ptr             2    9[COMRAM] PTR void 
  5361 ;;		 -> I2C1_ReadDataBlock@bufferBlock(4), I2C1_Write2ByteRegister@data(2), I2C1_Write1ByteRegister@data(1), I2C1_Read2B
      +yteRegister@returnValue(2), 
  5362 ;;		 -> NULL(0), I2C1_Read1ByteRegister@returnValue(1), 
  5363 ;; Auto vars:     Size  Location     Type
  5364 ;;		None
  5365 ;; Return value:  Size  Location     Type
  5366 ;;                  1    wreg      enum E360
  5367 ;; Registers used:
  5368 ;;		wreg, fsr2l, fsr2h, status,2, status,0, prodl, prodh, cstack
  5369 ;; Tracked objects:
  5370 ;;		On entry : 0/0
  5371 ;;		On exit  : 0/0
  5372 ;;		Unchanged: 0/0
  5373 ;; Data sizes:     COMRAM   BANK0   BANK1   BANK2   BANK3   BANK4   BANK5   BANK6   BANK7   BANK8   BANK9  BANK10  BANK1
      +1  BANK12  BANK13  BANK14
  5374 ;;      Params:         2       0       0       0       0       0       0       0       0       0       0       0       
      +0       0       0       0
  5375 ;;      Locals:         0       0       0       0       0       0       0       0       0       0       0       0       
      +0       0       0       0
  5376 ;;      Temps:          0       0       0       0       0       0       0       0       0       0       0       0       
      +0       0       0       0
  5377 ;;      Totals:         2       0       0       0       0       0       0       0       0       0       0       0       
      +0       0       0       0
  5378 ;;Total ram usage:        2 bytes
  5379 ;; Hardware stack levels used: 1
  5380 ;; Hardware stack levels required when called: 2
  5381 ;; This function calls:
  5382 ;;		i2_I2C1_SetBuffer
  5383 ;;		i2_I2C1_SetDataCompleteCallback
  5384 ;; This function is called by:
  5385 ;;		_I2C1_ReadDataBlock
  5386 ;;		_I2C1_DO_TX
  5387 ;;		_I2C1_DO_RX
  5388 ;;		_I2C1_DO_TX_EMPTY
  5389 ;;		_I2C1_DO_ADDRESS_NACK
  5390 ;;		_I2C1_DO_RX_EMPTY
  5391 ;; This function uses a non-reentrant model
  5392 ;;
  5393                           
  5394                           	psect	text66
  5395  0000'                    __ptext66:
  5396                           	callstack 0
  5397  0000'                    _rdBlkRegCompleteHandler:
  5398                           	callstack 18
  5399  0000'                    
  5400                           ;mcc_generated_files/examples/i2c1_master_example.c: 170: static i2c1_operations_t rdBlk
      +                          RegCompleteHandler(void *ptr);mcc_generated_files/examples/i2c1_master_example.c: 171: {
      +                          ;mcc_generated_files/examples/i2c1_master_example.c: 172:     I2C1_SetBuffer(((i2c1_buff
      +                          er_t *)ptr)->data,((i2c1_buffer_t*)ptr)->len);
  5401  0000' EE20 F002          	lfsr	2,2
  5402  0004' 5000'              	movf	rdBlkRegCompleteHandler@ptr^0,w,c
  5403  0006' 26D9               	addwf	fsr2l,f,c
  5404  0008' 5000'              	movf	(rdBlkRegCompleteHandler@ptr+1)^0,w,c
  5405  000A' 22DA               	addwfc	fsr2h,f,c
  5406  000C' CFDE F000'         	movff	postinc2,i2I2C1_SetBuffer@buffer
  5407  0010' CFDD F001'         	movff	postdec2,i2I2C1_SetBuffer@buffer+1
  5408  0014' C009' FFD9         	movff	rdBlkRegCompleteHandler@ptr,fsr2l
  5409  0018' C00A' FFDA         	movff	rdBlkRegCompleteHandler@ptr+1,fsr2h
  5410  001C' CFDE F002'         	movff	postinc2,i2I2C1_SetBuffer@bufferSize
  5411  0020' CFDD F003'         	movff	postdec2,i2I2C1_SetBuffer@bufferSize+1
  5412  0024' EC00' F000'        	call	i2_I2C1_SetBuffer	;wreg free
  5413  0028'                    
  5414                           ;mcc_generated_files/examples/i2c1_master_example.c: 173:     I2C1_SetDataCompleteCallba
      +                          ck(((void*)0),((void*)0));
  5415  0028' 0E00               	movlw	0
  5416  002A' 6E00'              	movwf	i2I2C1_SetDataCompleteCallback@cb^0,c
  5417  002C' 0E00               	movlw	0
  5418  002E' 6E00'              	movwf	(i2I2C1_SetDataCompleteCallback@cb+1)^0,c
  5419  0030' 0E00               	movlw	0
  5420  0032' 6E00'              	movwf	i2I2C1_SetDataCompleteCallback@ptr^0,c
  5421  0034' 0E00               	movlw	0
  5422  0036' 6E00'              	movwf	(i2I2C1_SetDataCompleteCallback@ptr+1)^0,c
  5423  0038' EC00' F000'        	call	i2_I2C1_SetDataCompleteCallback	;wreg free
  5424  003C'                    
  5425                           ;mcc_generated_files/examples/i2c1_master_example.c: 174:     return I2C1_RESTART_READ;
  5426  003C' 0E02               	movlw	2
  5427  003E' 0012               	return		;funcret
  5428  0040'                    __end_of_rdBlkRegCompleteHandler:
  5429                           	callstack 0
  5430                           
  5431 ;; *************** function _wr1RegCompleteHandler *****************
  5432 ;; Defined at:
  5433 ;;		line 156 in file "mcc_generated_files/examples/i2c1_master_example.c"
  5434 ;; Parameters:    Size  Location     Type
  5435 ;;  ptr             2    9[COMRAM] PTR void 
  5436 ;;		 -> I2C1_ReadDataBlock@bufferBlock(4), I2C1_Write2ByteRegister@data(2), I2C1_Write1ByteRegister@data(1), I2C1_Read2B
      +yteRegister@returnValue(2), 
  5437 ;;		 -> NULL(0), I2C1_Read1ByteRegister@returnValue(1), 
  5438 ;; Auto vars:     Size  Location     Type
  5439 ;;		None
  5440 ;; Return value:  Size  Location     Type
  5441 ;;                  1    wreg      enum E360
  5442 ;; Registers used:
  5443 ;;		wreg, fsr2l, fsr2h, status,2, status,0, prodl, prodh, cstack
  5444 ;; Tracked objects:
  5445 ;;		On entry : 0/0
  5446 ;;		On exit  : 0/0
  5447 ;;		Unchanged: 0/0
  5448 ;; Data sizes:     COMRAM   BANK0   BANK1   BANK2   BANK3   BANK4   BANK5   BANK6   BANK7   BANK8   BANK9  BANK10  BANK1
      +1  BANK12  BANK13  BANK14
  5449 ;;      Params:         2       0       0       0       0       0       0       0       0       0       0       0       
      +0       0       0       0
  5450 ;;      Locals:         0       0       0       0       0       0       0       0       0       0       0       0       
      +0       0       0       0
  5451 ;;      Temps:          0       0       0       0       0       0       0       0       0       0       0       0       
      +0       0       0       0
  5452 ;;      Totals:         2       0       0       0       0       0       0       0       0       0       0       0       
      +0       0       0       0
  5453 ;;Total ram usage:        2 bytes
  5454 ;; Hardware stack levels used: 1
  5455 ;; Hardware stack levels required when called: 2
  5456 ;; This function calls:
  5457 ;;		i2_I2C1_SetBuffer
  5458 ;;		i2_I2C1_SetDataCompleteCallback
  5459 ;; This function is called by:
  5460 ;;		_I2C1_Write1ByteRegister
  5461 ;;		_I2C1_DO_TX
  5462 ;;		_I2C1_DO_RX
  5463 ;;		_I2C1_DO_TX_EMPTY
  5464 ;;		_I2C1_DO_ADDRESS_NACK
  5465 ;;		_I2C1_DO_RX_EMPTY
  5466 ;; This function uses a non-reentrant model
  5467 ;;
  5468                           
  5469                           	psect	text67
  5470  0000'                    __ptext67:
  5471                           	callstack 0
  5472  0000'                    _wr1RegCompleteHandler:
  5473                           	callstack 18
  5474  0000'                    
  5475                           ;mcc_generated_files/examples/i2c1_master_example.c: 156: static i2c1_operations_t wr1Re
      +                          gCompleteHandler(void *ptr);mcc_generated_files/examples/i2c1_master_example.c: 157: {;m
      +                          cc_generated_files/examples/i2c1_master_example.c: 158:     I2C1_SetBuffer(ptr,1);
  5476  0000' C009' F000'        	movff	wr1RegCompleteHandler@ptr,i2I2C1_SetBuffer@buffer
  5477  0004' C00A' F001'        	movff	wr1RegCompleteHandler@ptr+1,i2I2C1_SetBuffer@buffer+1
  5478  0008' 0E00               	movlw	0
  5479  000A' 6E00'              	movwf	(i2I2C1_SetBuffer@bufferSize+1)^0,c
  5480  000C' 0E01               	movlw	1
  5481  000E' 6E00'              	movwf	i2I2C1_SetBuffer@bufferSize^0,c
  5482  0010' EC00' F000'        	call	i2_I2C1_SetBuffer	;wreg free
  5483  0014'                    
  5484                           ;mcc_generated_files/examples/i2c1_master_example.c: 159:     I2C1_SetDataCompleteCallba
      +                          ck(((void*)0),((void*)0));
  5485  0014' 0E00               	movlw	0
  5486  0016' 6E00'              	movwf	i2I2C1_SetDataCompleteCallback@cb^0,c
  5487  0018' 0E00               	movlw	0
  5488  001A' 6E00'              	movwf	(i2I2C1_SetDataCompleteCallback@cb+1)^0,c
  5489  001C' 0E00               	movlw	0
  5490  001E' 6E00'              	movwf	i2I2C1_SetDataCompleteCallback@ptr^0,c
  5491  0020' 0E00               	movlw	0
  5492  0022' 6E00'              	movwf	(i2I2C1_SetDataCompleteCallback@ptr+1)^0,c
  5493  0024' EC00' F000'        	call	i2_I2C1_SetDataCompleteCallback	;wreg free
  5494  0028'                    
  5495                           ;mcc_generated_files/examples/i2c1_master_example.c: 160:     return I2C1_CONTINUE;
  5496  0028' 0E04               	movlw	4
  5497  002A' 0012               	return		;funcret
  5498  002C'                    __end_of_wr1RegCompleteHandler:
  5499                           	callstack 0
  5500                           
  5501 ;; *************** function _rd2RegCompleteHandler *****************
  5502 ;; Defined at:
  5503 ;;		line 149 in file "mcc_generated_files/examples/i2c1_master_example.c"
  5504 ;; Parameters:    Size  Location     Type
  5505 ;;  ptr             2    9[COMRAM] PTR void 
  5506 ;;		 -> I2C1_ReadDataBlock@bufferBlock(4), I2C1_Write2ByteRegister@data(2), I2C1_Write1ByteRegister@data(1), I2C1_Read2B
      +yteRegister@returnValue(2), 
  5507 ;;		 -> NULL(0), I2C1_Read1ByteRegister@returnValue(1), 
  5508 ;; Auto vars:     Size  Location     Type
  5509 ;;		None
  5510 ;; Return value:  Size  Location     Type
  5511 ;;                  1    wreg      enum E360
  5512 ;; Registers used:
  5513 ;;		wreg, fsr2l, fsr2h, status,2, status,0, prodl, prodh, cstack
  5514 ;; Tracked objects:
  5515 ;;		On entry : 0/0
  5516 ;;		On exit  : 0/0
  5517 ;;		Unchanged: 0/0
  5518 ;; Data sizes:     COMRAM   BANK0   BANK1   BANK2   BANK3   BANK4   BANK5   BANK6   BANK7   BANK8   BANK9  BANK10  BANK1
      +1  BANK12  BANK13  BANK14
  5519 ;;      Params:         2       0       0       0       0       0       0       0       0       0       0       0       
      +0       0       0       0
  5520 ;;      Locals:         0       0       0       0       0       0       0       0       0       0       0       0       
      +0       0       0       0
  5521 ;;      Temps:          0       0       0       0       0       0       0       0       0       0       0       0       
      +0       0       0       0
  5522 ;;      Totals:         2       0       0       0       0       0       0       0       0       0       0       0       
      +0       0       0       0
  5523 ;;Total ram usage:        2 bytes
  5524 ;; Hardware stack levels used: 1
  5525 ;; Hardware stack levels required when called: 2
  5526 ;; This function calls:
  5527 ;;		i2_I2C1_SetBuffer
  5528 ;;		i2_I2C1_SetDataCompleteCallback
  5529 ;; This function is called by:
  5530 ;;		_I2C1_Read2ByteRegister
  5531 ;;		_I2C1_DO_TX
  5532 ;;		_I2C1_DO_RX
  5533 ;;		_I2C1_DO_TX_EMPTY
  5534 ;;		_I2C1_DO_ADDRESS_NACK
  5535 ;;		_I2C1_DO_RX_EMPTY
  5536 ;; This function uses a non-reentrant model
  5537 ;;
  5538                           
  5539                           	psect	text68
  5540  0000'                    __ptext68:
  5541                           	callstack 0
  5542  0000'                    _rd2RegCompleteHandler:
  5543                           	callstack 18
  5544  0000'                    
  5545                           ;mcc_generated_files/examples/i2c1_master_example.c: 149: static i2c1_operations_t rd2Re
      +                          gCompleteHandler(void *ptr);mcc_generated_files/examples/i2c1_master_example.c: 150: {;m
      +                          cc_generated_files/examples/i2c1_master_example.c: 151:     I2C1_SetBuffer(ptr,2);
  5546  0000' C009' F000'        	movff	rd2RegCompleteHandler@ptr,i2I2C1_SetBuffer@buffer
  5547  0004' C00A' F001'        	movff	rd2RegCompleteHandler@ptr+1,i2I2C1_SetBuffer@buffer+1
  5548  0008' 0E00               	movlw	0
  5549  000A' 6E00'              	movwf	(i2I2C1_SetBuffer@bufferSize+1)^0,c
  5550  000C' 0E02               	movlw	2
  5551  000E' 6E00'              	movwf	i2I2C1_SetBuffer@bufferSize^0,c
  5552  0010' EC00' F000'        	call	i2_I2C1_SetBuffer	;wreg free
  5553  0014'                    
  5554                           ;mcc_generated_files/examples/i2c1_master_example.c: 152:     I2C1_SetDataCompleteCallba
      +                          ck(((void*)0),((void*)0));
  5555  0014' 0E00               	movlw	0
  5556  0016' 6E00'              	movwf	i2I2C1_SetDataCompleteCallback@cb^0,c
  5557  0018' 0E00               	movlw	0
  5558  001A' 6E00'              	movwf	(i2I2C1_SetDataCompleteCallback@cb+1)^0,c
  5559  001C' 0E00               	movlw	0
  5560  001E' 6E00'              	movwf	i2I2C1_SetDataCompleteCallback@ptr^0,c
  5561  0020' 0E00               	movlw	0
  5562  0022' 6E00'              	movwf	(i2I2C1_SetDataCompleteCallback@ptr+1)^0,c
  5563  0024' EC00' F000'        	call	i2_I2C1_SetDataCompleteCallback	;wreg free
  5564  0028'                    
  5565                           ;mcc_generated_files/examples/i2c1_master_example.c: 153:     return I2C1_RESTART_READ;
  5566  0028' 0E02               	movlw	2
  5567  002A' 0012               	return		;funcret
  5568  002C'                    __end_of_rd2RegCompleteHandler:
  5569                           	callstack 0
  5570                           
  5571 ;; *************** function _rd1RegCompleteHandler *****************
  5572 ;; Defined at:
  5573 ;;		line 142 in file "mcc_generated_files/examples/i2c1_master_example.c"
  5574 ;; Parameters:    Size  Location     Type
  5575 ;;  ptr             2    9[COMRAM] PTR void 
  5576 ;;		 -> I2C1_ReadDataBlock@bufferBlock(4), I2C1_Write2ByteRegister@data(2), I2C1_Write1ByteRegister@data(1), I2C1_Read2B
      +yteRegister@returnValue(2), 
  5577 ;;		 -> NULL(0), I2C1_Read1ByteRegister@returnValue(1), 
  5578 ;; Auto vars:     Size  Location     Type
  5579 ;;		None
  5580 ;; Return value:  Size  Location     Type
  5581 ;;                  1    wreg      enum E360
  5582 ;; Registers used:
  5583 ;;		wreg, fsr2l, fsr2h, status,2, status,0, prodl, prodh, cstack
  5584 ;; Tracked objects:
  5585 ;;		On entry : 0/0
  5586 ;;		On exit  : 0/0
  5587 ;;		Unchanged: 0/0
  5588 ;; Data sizes:     COMRAM   BANK0   BANK1   BANK2   BANK3   BANK4   BANK5   BANK6   BANK7   BANK8   BANK9  BANK10  BANK1
      +1  BANK12  BANK13  BANK14
  5589 ;;      Params:         2       0       0       0       0       0       0       0       0       0       0       0       
      +0       0       0       0
  5590 ;;      Locals:         0       0       0       0       0       0       0       0       0       0       0       0       
      +0       0       0       0
  5591 ;;      Temps:          0       0       0       0       0       0       0       0       0       0       0       0       
      +0       0       0       0
  5592 ;;      Totals:         2       0       0       0       0       0       0       0       0       0       0       0       
      +0       0       0       0
  5593 ;;Total ram usage:        2 bytes
  5594 ;; Hardware stack levels used: 1
  5595 ;; Hardware stack levels required when called: 2
  5596 ;; This function calls:
  5597 ;;		i2_I2C1_SetBuffer
  5598 ;;		i2_I2C1_SetDataCompleteCallback
  5599 ;; This function is called by:
  5600 ;;		_I2C1_Read1ByteRegister
  5601 ;;		_I2C1_DO_TX
  5602 ;;		_I2C1_DO_RX
  5603 ;;		_I2C1_DO_TX_EMPTY
  5604 ;;		_I2C1_DO_ADDRESS_NACK
  5605 ;;		_I2C1_DO_RX_EMPTY
  5606 ;; This function uses a non-reentrant model
  5607 ;;
  5608                           
  5609                           	psect	text69
  5610  0000'                    __ptext69:
  5611                           	callstack 0
  5612  0000'                    _rd1RegCompleteHandler:
  5613                           	callstack 18
  5614  0000'                    
  5615                           ;mcc_generated_files/examples/i2c1_master_example.c: 142: static i2c1_operations_t rd1Re
      +                          gCompleteHandler(void *ptr);mcc_generated_files/examples/i2c1_master_example.c: 143: {;m
      +                          cc_generated_files/examples/i2c1_master_example.c: 144:     I2C1_SetBuffer(ptr,1);
  5616  0000' C009' F000'        	movff	rd1RegCompleteHandler@ptr,i2I2C1_SetBuffer@buffer
  5617  0004' C00A' F001'        	movff	rd1RegCompleteHandler@ptr+1,i2I2C1_SetBuffer@buffer+1
  5618  0008' 0E00               	movlw	0
  5619  000A' 6E00'              	movwf	(i2I2C1_SetBuffer@bufferSize+1)^0,c
  5620  000C' 0E01               	movlw	1
  5621  000E' 6E00'              	movwf	i2I2C1_SetBuffer@bufferSize^0,c
  5622  0010' EC00' F000'        	call	i2_I2C1_SetBuffer	;wreg free
  5623  0014'                    
  5624                           ;mcc_generated_files/examples/i2c1_master_example.c: 145:     I2C1_SetDataCompleteCallba
      +                          ck(((void*)0),((void*)0));
  5625  0014' 0E00               	movlw	0
  5626  0016' 6E00'              	movwf	i2I2C1_SetDataCompleteCallback@cb^0,c
  5627  0018' 0E00               	movlw	0
  5628  001A' 6E00'              	movwf	(i2I2C1_SetDataCompleteCallback@cb+1)^0,c
  5629  001C' 0E00               	movlw	0
  5630  001E' 6E00'              	movwf	i2I2C1_SetDataCompleteCallback@ptr^0,c
  5631  0020' 0E00               	movlw	0
  5632  0022' 6E00'              	movwf	(i2I2C1_SetDataCompleteCallback@ptr+1)^0,c
  5633  0024' EC00' F000'        	call	i2_I2C1_SetDataCompleteCallback	;wreg free
  5634  0028'                    
  5635                           ;mcc_generated_files/examples/i2c1_master_example.c: 146:     return I2C1_RESTART_READ;
  5636  0028' 0E02               	movlw	2
  5637  002A' 0012               	return		;funcret
  5638  002C'                    __end_of_rd1RegCompleteHandler:
  5639                           	callstack 0
  5640                           
  5641 ;; *************** function _wr2RegCompleteHandler *****************
  5642 ;; Defined at:
  5643 ;;		line 163 in file "mcc_generated_files/examples/i2c1_master_example.c"
  5644 ;; Parameters:    Size  Location     Type
  5645 ;;  ptr             2    9[COMRAM] PTR void 
  5646 ;;		 -> I2C1_ReadDataBlock@bufferBlock(4), I2C1_Write2ByteRegister@data(2), I2C1_Write1ByteRegister@data(1), I2C1_Read2B
      +yteRegister@returnValue(2), 
  5647 ;;		 -> NULL(0), I2C1_Read1ByteRegister@returnValue(1), 
  5648 ;; Auto vars:     Size  Location     Type
  5649 ;;		None
  5650 ;; Return value:  Size  Location     Type
  5651 ;;                  1    wreg      enum E360
  5652 ;; Registers used:
  5653 ;;		wreg, fsr2l, fsr2h, status,2, status,0, prodl, prodh, cstack
  5654 ;; Tracked objects:
  5655 ;;		On entry : 0/0
  5656 ;;		On exit  : 0/0
  5657 ;;		Unchanged: 0/0
  5658 ;; Data sizes:     COMRAM   BANK0   BANK1   BANK2   BANK3   BANK4   BANK5   BANK6   BANK7   BANK8   BANK9  BANK10  BANK1
      +1  BANK12  BANK13  BANK14
  5659 ;;      Params:         2       0       0       0       0       0       0       0       0       0       0       0       
      +0       0       0       0
  5660 ;;      Locals:         0       0       0       0       0       0       0       0       0       0       0       0       
      +0       0       0       0
  5661 ;;      Temps:          0       0       0       0       0       0       0       0       0       0       0       0       
      +0       0       0       0
  5662 ;;      Totals:         2       0       0       0       0       0       0       0       0       0       0       0       
      +0       0       0       0
  5663 ;;Total ram usage:        2 bytes
  5664 ;; Hardware stack levels used: 1
  5665 ;; Hardware stack levels required when called: 2
  5666 ;; This function calls:
  5667 ;;		i2_I2C1_SetBuffer
  5668 ;;		i2_I2C1_SetDataCompleteCallback
  5669 ;; This function is called by:
  5670 ;;		_I2C1_Write2ByteRegister
  5671 ;;		_I2C1_DO_TX
  5672 ;;		_I2C1_DO_RX
  5673 ;;		_I2C1_DO_TX_EMPTY
  5674 ;;		_I2C1_DO_ADDRESS_NACK
  5675 ;;		_I2C1_DO_RX_EMPTY
  5676 ;; This function uses a non-reentrant model
  5677 ;;
  5678                           
  5679                           	psect	text70
  5680  0000'                    __ptext70:
  5681                           	callstack 0
  5682  0000'                    _wr2RegCompleteHandler:
  5683                           	callstack 18
  5684  0000'                    
  5685                           ;mcc_generated_files/examples/i2c1_master_example.c: 163: static i2c1_operations_t wr2Re
      +                          gCompleteHandler(void *ptr);mcc_generated_files/examples/i2c1_master_example.c: 164: {;m
      +                          cc_generated_files/examples/i2c1_master_example.c: 165:     I2C1_SetBuffer(ptr,2);
  5686  0000' C009' F000'        	movff	wr2RegCompleteHandler@ptr,i2I2C1_SetBuffer@buffer
  5687  0004' C00A' F001'        	movff	wr2RegCompleteHandler@ptr+1,i2I2C1_SetBuffer@buffer+1
  5688  0008' 0E00               	movlw	0
  5689  000A' 6E00'              	movwf	(i2I2C1_SetBuffer@bufferSize+1)^0,c
  5690  000C' 0E02               	movlw	2
  5691  000E' 6E00'              	movwf	i2I2C1_SetBuffer@bufferSize^0,c
  5692  0010' EC00' F000'        	call	i2_I2C1_SetBuffer	;wreg free
  5693  0014'                    
  5694                           ;mcc_generated_files/examples/i2c1_master_example.c: 166:     I2C1_SetDataCompleteCallba
      +                          ck(((void*)0),((void*)0));
  5695  0014' 0E00               	movlw	0
  5696  0016' 6E00'              	movwf	i2I2C1_SetDataCompleteCallback@cb^0,c
  5697  0018' 0E00               	movlw	0
  5698  001A' 6E00'              	movwf	(i2I2C1_SetDataCompleteCallback@cb+1)^0,c
  5699  001C' 0E00               	movlw	0
  5700  001E' 6E00'              	movwf	i2I2C1_SetDataCompleteCallback@ptr^0,c
  5701  0020' 0E00               	movlw	0
  5702  0022' 6E00'              	movwf	(i2I2C1_SetDataCompleteCallback@ptr+1)^0,c
  5703  0024' EC00' F000'        	call	i2_I2C1_SetDataCompleteCallback	;wreg free
  5704  0028'                    
  5705                           ;mcc_generated_files/examples/i2c1_master_example.c: 167:     return I2C1_CONTINUE;
  5706  0028' 0E04               	movlw	4
  5707  002A' 0012               	return		;funcret
  5708  002C'                    __end_of_wr2RegCompleteHandler:
  5709                           	callstack 0
  5710                           
  5711 ;; *************** function i2_I2C1_SetDataCompleteCallback *****************
  5712 ;; Defined at:
  5713 ;;		line 274 in file "mcc_generated_files/i2c1_master.c"
  5714 ;; Parameters:    Size  Location     Type
  5715 ;;  cb              2    5[COMRAM] PTR FTN(PTR void ,)enum 
  5716 ;;		 -> Absolute function(1), rdBlkRegCompleteHandler(1), wr2RegCompleteHandler(1), wr1RegCompleteHandler(1), 
  5717 ;;		 -> rd2RegCompleteHandler(1), rd1RegCompleteHandler(1), 
  5718 ;;  ptr             2    7[COMRAM] PTR void 
  5719 ;;		 -> I2C1_ReadDataBlock@bufferBlock(4), I2C1_Write2ByteRegister@data(2), I2C1_Write1ByteRegister@data(1), I2C1_Read2B
      +yteRegister@returnValue(2), 
  5720 ;;		 -> NULL(0), I2C1_Read1ByteRegister@returnValue(1), 
  5721 ;; Auto vars:     Size  Location     Type
  5722 ;;		None
  5723 ;; Return value:  Size  Location     Type
  5724 ;;                  1    wreg      void 
  5725 ;; Registers used:
  5726 ;;		wreg, fsr2l, fsr2h, status,2, status,0, prodl, prodh, cstack
  5727 ;; Tracked objects:
  5728 ;;		On entry : 0/0
  5729 ;;		On exit  : 0/0
  5730 ;;		Unchanged: 0/0
  5731 ;; Data sizes:     COMRAM   BANK0   BANK1   BANK2   BANK3   BANK4   BANK5   BANK6   BANK7   BANK8   BANK9  BANK10  BANK1
      +1  BANK12  BANK13  BANK14
  5732 ;;      Params:         4       0       0       0       0       0       0       0       0       0       0       0       
      +0       0       0       0
  5733 ;;      Locals:         0       0       0       0       0       0       0       0       0       0       0       0       
      +0       0       0       0
  5734 ;;      Temps:          0       0       0       0       0       0       0       0       0       0       0       0       
      +0       0       0       0
  5735 ;;      Totals:         4       0       0       0       0       0       0       0       0       0       0       0       
      +0       0       0       0
  5736 ;;Total ram usage:        4 bytes
  5737 ;; Hardware stack levels used: 1
  5738 ;; Hardware stack levels required when called: 1
  5739 ;; This function calls:
  5740 ;;		i2_I2C1_SetCallback
  5741 ;; This function is called by:
  5742 ;;		_rd1RegCompleteHandler
  5743 ;;		_rd2RegCompleteHandler
  5744 ;;		_wr1RegCompleteHandler
  5745 ;;		_wr2RegCompleteHandler
  5746 ;;		_rdBlkRegCompleteHandler
  5747 ;; This function uses a non-reentrant model
  5748 ;;
  5749                           
  5750                           	psect	text71
  5751  0000'                    __ptext71:
  5752                           	callstack 0
  5753  0000'                    i2_I2C1_SetDataCompleteCallback:
  5754                           	callstack 18
  5755  0000'                    
  5756                           ;mcc_generated_files/i2c1_master.c: 274: void I2C1_SetDataCompleteCallback(i2c1_callback
      +                          _t cb, void *ptr);mcc_generated_files/i2c1_master.c: 275: {;mcc_generated_files/i2c1_mas
      +                          ter.c: 276:     I2C1_SetCallback(I2C1_DATA_COMPLETE, cb, ptr);
  5757  0000' C005' F000'        	movff	i2I2C1_SetDataCompleteCallback@cb,i2I2C1_SetCallback@cb
  5758  0004' C006' F001'        	movff	i2I2C1_SetDataCompleteCallback@cb+1,i2I2C1_SetCallback@cb+1
  5759  0008' C007' F002'        	movff	i2I2C1_SetDataCompleteCallback@ptr,i2I2C1_SetCallback@ptr
  5760  000C' C008' F003'        	movff	i2I2C1_SetDataCompleteCallback@ptr+1,i2I2C1_SetCallback@ptr+1
  5761  0010' 0E00               	movlw	0
  5762  0012' EC00' F000'        	call	i2_I2C1_SetCallback
  5763  0016' 0012               	return		;funcret
  5764  0018'                    __end_ofi2_I2C1_SetDataCompleteCallback:
  5765                           	callstack 0
  5766                           
  5767 ;; *************** function i2_I2C1_SetCallback *****************
  5768 ;; Defined at:
  5769 ;;		line 304 in file "mcc_generated_files/i2c1_master.c"
  5770 ;; Parameters:    Size  Location     Type
  5771 ;;  idx             1    wreg     enum E6673
  5772 ;;  cb              2    0[COMRAM] PTR FTN(PTR void ,)enum 
  5773 ;;		 -> Absolute function(1), rdBlkRegCompleteHandler(1), wr2RegCompleteHandler(1), wr1RegCompleteHandler(1), 
  5774 ;;		 -> rd2RegCompleteHandler(1), rd1RegCompleteHandler(1), 
  5775 ;;  ptr             2    2[COMRAM] PTR void 
  5776 ;;		 -> I2C1_ReadDataBlock@bufferBlock(4), I2C1_Write2ByteRegister@data(2), I2C1_Write1ByteRegister@data(1), I2C1_Read2B
      +yteRegister@returnValue(2), 
  5777 ;;		 -> NULL(0), I2C1_Read1ByteRegister@returnValue(1), 
  5778 ;; Auto vars:     Size  Location     Type
  5779 ;;  idx             1    4[COMRAM] enum E6673
  5780 ;; Return value:  Size  Location     Type
  5781 ;;                  1    wreg      void 
  5782 ;; Registers used:
  5783 ;;		wreg, fsr2l, fsr2h, status,2, status,0, prodl, prodh
  5784 ;; Tracked objects:
  5785 ;;		On entry : 0/0
  5786 ;;		On exit  : 0/0
  5787 ;;		Unchanged: 0/0
  5788 ;; Data sizes:     COMRAM   BANK0   BANK1   BANK2   BANK3   BANK4   BANK5   BANK6   BANK7   BANK8   BANK9  BANK10  BANK1
      +1  BANK12  BANK13  BANK14
  5789 ;;      Params:         4       0       0       0       0       0       0       0       0       0       0       0       
      +0       0       0       0
  5790 ;;      Locals:         1       0       0       0       0       0       0       0       0       0       0       0       
      +0       0       0       0
  5791 ;;      Temps:          0       0       0       0       0       0       0       0       0       0       0       0       
      +0       0       0       0
  5792 ;;      Totals:         5       0       0       0       0       0       0       0       0       0       0       0       
      +0       0       0       0
  5793 ;;Total ram usage:        5 bytes
  5794 ;; Hardware stack levels used: 1
  5795 ;; This function calls:
  5796 ;;		Nothing
  5797 ;; This function is called by:
  5798 ;;		i2_I2C1_SetDataCompleteCallback
  5799 ;; This function uses a non-reentrant model
  5800 ;;
  5801                           
  5802                           	psect	text72
  5803  0000'                    __ptext72:
  5804                           	callstack 0
  5805  0000'                    i2_I2C1_SetCallback:
  5806                           	callstack 18
  5807                           
  5808                           ;incstack = 0
  5809                           ;i2I2C1_SetCallback@idx stored from wreg
  5810  0000' 6E00'              	movwf	i2I2C1_SetCallback@idx^0,c
  5811  0002'                    
  5812                           ;mcc_generated_files/i2c1_master.c: 304: static void I2C1_SetCallback(i2c1_callbackIndex
      +                          _t idx, i2c1_callback_t cb, void *ptr);mcc_generated_files/i2c1_master.c: 305: {;mcc_gen
      +                          erated_files/i2c1_master.c: 306:     if(cb)
  5813  0002' 5000'              	movf	i2I2C1_SetCallback@cb^0,w,c
  5814  0004' 1000'              	iorwf	(i2I2C1_SetCallback@cb+1)^0,w,c
  5815  0006' B4D8               	btfsc	status,2,c
  5816  0008' EF00' F000'        	goto	i2u76_41
  5817  000C' EF00' F000'        	goto	i2u76_40
  5818  0010'                    i2u76_41:
  5819  0010' EF00' F000'        	goto	i2l2641
  5820  0014'                    i2u76_40:
  5821  0014'                    
  5822                           ;mcc_generated_files/i2c1_master.c: 307:     {;mcc_generated_files/i2c1_master.c: 308:  
      +                                 I2C1_Status.callbackTable[idx] = cb;
  5823  0014' 5000'              	movf	i2I2C1_SetCallback@idx^0,w,c
  5824  0016' 0D02               	mullw	2
  5825  0018' 0E00'              	movlw	low _I2C1_Status
  5826  001A' 24F3               	addwf	243,w,c
  5827  001C' 6ED9               	movwf	fsr2l,c
  5828  001E' 0E00'              	movlw	high _I2C1_Status
  5829  0020' 20F4               	addwfc	prodh,w,c
  5830  0022' 6EDA               	movwf	fsr2h,c
  5831  0024' C000' FFDE         	movff	i2I2C1_SetCallback@cb,postinc2
  5832  0028' C001' FFDD         	movff	i2I2C1_SetCallback@cb+1,postdec2
  5833                           
  5834                           ;mcc_generated_files/i2c1_master.c: 309:         I2C1_Status.callbackPayload[idx] = ptr;
  5835  002C' 5000'              	movf	i2I2C1_SetCallback@idx^0,w,c
  5836  002E' 0D02               	mullw	2
  5837  0030' 0E00'              	movlw	low (_I2C1_Status+12)
  5838  0032' 24F3               	addwf	243,w,c
  5839  0034' 6ED9               	movwf	fsr2l,c
  5840  0036' 0E00'              	movlw	high (_I2C1_Status+12)
  5841  0038' 20F4               	addwfc	prodh,w,c
  5842  003A' 6EDA               	movwf	fsr2h,c
  5843  003C' C002' FFDE         	movff	i2I2C1_SetCallback@ptr,postinc2
  5844  0040' C003' FFDD         	movff	i2I2C1_SetCallback@ptr+1,postdec2
  5845                           
  5846                           ;mcc_generated_files/i2c1_master.c: 310:     }
  5847  0044' EF00' F000'        	goto	i2l445
  5848  0048'                    i2l2641:
  5849                           
  5850                           ;mcc_generated_files/i2c1_master.c: 312:     {;mcc_generated_files/i2c1_master.c: 313:  
      +                                 I2C1_Status.callbackTable[idx] = I2C1_CallbackReturnStop;
  5851  0048' 5000'              	movf	i2I2C1_SetCallback@idx^0,w,c
  5852  004A' 0D02               	mullw	2
  5853  004C' 0E00'              	movlw	low _I2C1_Status
  5854  004E' 24F3               	addwf	243,w,c
  5855  0050' 6ED9               	movwf	fsr2l,c
  5856  0052' 0E00'              	movlw	high _I2C1_Status
  5857  0054' 20F4               	addwfc	prodh,w,c
  5858  0056' 6EDA               	movwf	fsr2h,c
  5859  0058' 0E00'              	movlw	low _I2C1_CallbackReturnStop
  5860  005A' 6EDE               	movwf	postinc2,c
  5861  005C' 0E00'              	movlw	high _I2C1_CallbackReturnStop
  5862  005E' 6EDD               	movwf	postdec2,c
  5863                           
  5864                           ;mcc_generated_files/i2c1_master.c: 314:         I2C1_Status.callbackPayload[idx] = ((vo
      +                          id*)0);
  5865  0060' 5000'              	movf	i2I2C1_SetCallback@idx^0,w,c
  5866  0062' 0D02               	mullw	2
  5867  0064' 0E00'              	movlw	low (_I2C1_Status+12)
  5868  0066' 24F3               	addwf	243,w,c
  5869  0068' 6ED9               	movwf	fsr2l,c
  5870  006A' 0E00'              	movlw	high (_I2C1_Status+12)
  5871  006C' 20F4               	addwfc	prodh,w,c
  5872  006E' 6EDA               	movwf	fsr2h,c
  5873  0070' 0E00               	movlw	0
  5874  0072' 6EDE               	movwf	postinc2,c
  5875  0074' 0E00               	movlw	0
  5876  0076' 6EDD               	movwf	postdec2,c
  5877  0078'                    i2l445:
  5878  0078' 0012               	return		;funcret
  5879  007A'                    __end_ofi2_I2C1_SetCallback:
  5880                           	callstack 0
  5881                           
  5882 ;; *************** function i2_I2C1_SetBuffer *****************
  5883 ;; Defined at:
  5884 ;;		line 264 in file "mcc_generated_files/i2c1_master.c"
  5885 ;; Parameters:    Size  Location     Type
  5886 ;;  buffer          2    0[COMRAM] PTR void 
  5887 ;;		 -> I2C1_Read1ByteRegister@returnValue.data(3), I2C1_Read2ByteRegister@returnValue.data(3), I2C1_Write1ByteRegister@
      +data.data(3), I2C1_Write2ByteRegister@data.data(3), 
  5888 ;;		 -> I2C1_ReadDataBlock@reg(1), I2C1_ReadDataBlock@bufferBlock(4), bufferBlock.data(3), I2C1_Write2ByteRegister@reg(1
      +), 
  5889 ;;		 -> I2C1_Write2ByteRegister@data(2), I2C1_Write1ByteRegister@reg(1), I2C1_Write1ByteRegister@data(1), I2C1_Read2Byte
      +Register@reg(1), 
  5890 ;;		 -> I2C1_Read2ByteRegister@returnValue(2), NULL(0), I2C1_Read1ByteRegister@reg(1), I2C1_Read1ByteRegister@returnValu
      +e(1), 
  5891 ;;  bufferSize      2    2[COMRAM] unsigned int 
  5892 ;; Auto vars:     Size  Location     Type
  5893 ;;		None
  5894 ;; Return value:  Size  Location     Type
  5895 ;;                  1    wreg      void 
  5896 ;; Registers used:
  5897 ;;		wreg, status,2, status,0
  5898 ;; Tracked objects:
  5899 ;;		On entry : 0/0
  5900 ;;		On exit  : 0/0
  5901 ;;		Unchanged: 0/0
  5902 ;; Data sizes:     COMRAM   BANK0   BANK1   BANK2   BANK3   BANK4   BANK5   BANK6   BANK7   BANK8   BANK9  BANK10  BANK1
      +1  BANK12  BANK13  BANK14
  5903 ;;      Params:         4       0       0       0       0       0       0       0       0       0       0       0       
      +0       0       0       0
  5904 ;;      Locals:         0       0       0       0       0       0       0       0       0       0       0       0       
      +0       0       0       0
  5905 ;;      Temps:          0       0       0       0       0       0       0       0       0       0       0       0       
      +0       0       0       0
  5906 ;;      Totals:         4       0       0       0       0       0       0       0       0       0       0       0       
      +0       0       0       0
  5907 ;;Total ram usage:        4 bytes
  5908 ;; Hardware stack levels used: 1
  5909 ;; This function calls:
  5910 ;;		Nothing
  5911 ;; This function is called by:
  5912 ;;		_rd1RegCompleteHandler
  5913 ;;		_rd2RegCompleteHandler
  5914 ;;		_wr1RegCompleteHandler
  5915 ;;		_wr2RegCompleteHandler
  5916 ;;		_rdBlkRegCompleteHandler
  5917 ;; This function uses a non-reentrant model
  5918 ;;
  5919                           
  5920                           	psect	text73
  5921  0000'                    __ptext73:
  5922                           	callstack 0
  5923  0000'                    i2_I2C1_SetBuffer:
  5924                           	callstack 19
  5925  0000'                    
  5926                           ;mcc_generated_files/i2c1_master.c: 264: void I2C1_SetBuffer(void *buffer, size_t buffer
      +                          Size);mcc_generated_files/i2c1_master.c: 265: {;mcc_generated_files/i2c1_master.c: 266: 
      +                              if(I2C1_Status.bufferFree)
  5927  0000' 0100               	movlb	0	; () banked
  5928  0002' A700'              	btfss	(_I2C1_Status+35)& (0+255),3,b
  5929  0004' EF00' F000'        	goto	i2u77_41
  5930  0008' EF00' F000'        	goto	i2u77_40
  5931  000C'                    i2u77_41:
  5932  000C' EF00' F000'        	goto	i2l422
  5933  0010'                    i2u77_40:
  5934  0010'                    
  5935                           ; BSR set to: 0
  5936                           ;mcc_generated_files/i2c1_master.c: 267:     {;mcc_generated_files/i2c1_master.c: 268:  
      +                                 I2C1_Status.data_ptr = buffer;
  5937  0010' C000' F01D'        	movff	i2I2C1_SetBuffer@buffer,_I2C1_Status+29
  5938  0014' C001' F01E'        	movff	i2I2C1_SetBuffer@buffer+1,_I2C1_Status+30
  5939  0018'                    
  5940                           ; BSR set to: 0
  5941                           ;mcc_generated_files/i2c1_master.c: 269:         I2C1_Status.data_length = bufferSize;
  5942  0018' C002' F01F'        	movff	i2I2C1_SetBuffer@bufferSize,_I2C1_Status+31
  5943  001C' C003' F020'        	movff	i2I2C1_SetBuffer@bufferSize+1,_I2C1_Status+32
  5944  0020'                    
  5945                           ; BSR set to: 0
  5946                           ;mcc_generated_files/i2c1_master.c: 270:         I2C1_Status.bufferFree = 0;
  5947  0020' 9700'              	bcf	(_I2C1_Status+35)& (0+255),3,b
  5948  0022'                    i2l422:
  5949                           
  5950                           ; BSR set to: 0
  5951  0022' 0012               	return		;funcret
  5952  0024'                    __end_ofi2_I2C1_SetBuffer:
  5953                           	callstack 0
  5954                           
  5955 ;; *************** function _I2C1_MasterStop *****************
  5956 ;; Defined at:
  5957 ;;		line 594 in file "mcc_generated_files/i2c1_master.c"
  5958 ;; Parameters:    Size  Location     Type
  5959 ;;		None
  5960 ;; Auto vars:     Size  Location     Type
  5961 ;;		None
  5962 ;; Return value:  Size  Location     Type
  5963 ;;                  1    wreg      void 
  5964 ;; Registers used:
  5965 ;;		None
  5966 ;; Tracked objects:
  5967 ;;		On entry : 0/0
  5968 ;;		On exit  : 0/0
  5969 ;;		Unchanged: 0/0
  5970 ;; Data sizes:     COMRAM   BANK0   BANK1   BANK2   BANK3   BANK4   BANK5   BANK6   BANK7   BANK8   BANK9  BANK10  BANK1
      +1  BANK12  BANK13  BANK14
  5971 ;;      Params:         0       0       0       0       0       0       0       0       0       0       0       0       
      +0       0       0       0
  5972 ;;      Locals:         0       0       0       0       0       0       0       0       0       0       0       0       
      +0       0       0       0
  5973 ;;      Temps:          0       0       0       0       0       0       0       0       0       0       0       0       
      +0       0       0       0
  5974 ;;      Totals:         0       0       0       0       0       0       0       0       0       0       0       0       
      +0       0       0       0
  5975 ;;Total ram usage:        0 bytes
  5976 ;; Hardware stack levels used: 1
  5977 ;; This function calls:
  5978 ;;		Nothing
  5979 ;; This function is called by:
  5980 ;;		_I2C1_DO_SEND_STOP
  5981 ;; This function uses a non-reentrant model
  5982 ;;
  5983                           
  5984                           	psect	text74
  5985  0000'                    __ptext74:
  5986                           	callstack 0
  5987  0000'                    _I2C1_MasterStop:
  5988                           	callstack 19
  5989  0000'                    
  5990                           ;mcc_generated_files/i2c1_master.c: 596:     SSP1CON2bits.PEN = 1;
  5991  0000' 84C5               	bsf	197,2,c	;volatile
  5992  0002' 0012               	return		;funcret
  5993  0004'                    __end_of_I2C1_MasterStop:
  5994                           	callstack 0
  5995                           
  5996 ;; *************** function _I2C1_MasterEnableRestart *****************
  5997 ;; Defined at:
  5998 ;;		line 574 in file "mcc_generated_files/i2c1_master.c"
  5999 ;; Parameters:    Size  Location     Type
  6000 ;;		None
  6001 ;; Auto vars:     Size  Location     Type
  6002 ;;		None
  6003 ;; Return value:  Size  Location     Type
  6004 ;;                  1    wreg      void 
  6005 ;; Registers used:
  6006 ;;		None
  6007 ;; Tracked objects:
  6008 ;;		On entry : 0/0
  6009 ;;		On exit  : 0/0
  6010 ;;		Unchanged: 0/0
  6011 ;; Data sizes:     COMRAM   BANK0   BANK1   BANK2   BANK3   BANK4   BANK5   BANK6   BANK7   BANK8   BANK9  BANK10  BANK1
      +1  BANK12  BANK13  BANK14
  6012 ;;      Params:         0       0       0       0       0       0       0       0       0       0       0       0       
      +0       0       0       0
  6013 ;;      Locals:         0       0       0       0       0       0       0       0       0       0       0       0       
      +0       0       0       0
  6014 ;;      Temps:          0       0       0       0       0       0       0       0       0       0       0       0       
      +0       0       0       0
  6015 ;;      Totals:         0       0       0       0       0       0       0       0       0       0       0       0       
      +0       0       0       0
  6016 ;;Total ram usage:        0 bytes
  6017 ;; Hardware stack levels used: 1
  6018 ;; This function calls:
  6019 ;;		Nothing
  6020 ;; This function is called by:
  6021 ;;		_I2C1_DO_SEND_RESTART_READ
  6022 ;;		_I2C1_DO_SEND_RESTART_WRITE
  6023 ;;		_I2C1_DO_SEND_RESTART
  6024 ;;		_I2C1_DO_RX_EMPTY
  6025 ;; This function uses a non-reentrant model
  6026 ;;
  6027                           
  6028                           	psect	text75
  6029  0000'                    __ptext75:
  6030                           	callstack 0
  6031  0000'                    _I2C1_MasterEnableRestart:
  6032                           	callstack 19
  6033  0000'                    
  6034                           ;mcc_generated_files/i2c1_master.c: 576:     SSP1CON2bits.RSEN = 1;
  6035  0000' 82C5               	bsf	197,1,c	;volatile
  6036  0002' 0012               	return		;funcret
  6037  0004'                    __end_of_I2C1_MasterEnableRestart:
  6038                           	callstack 0
  6039                           
  6040 ;; *************** function _EUSART2_Transmit_ISR *****************
  6041 ;; Defined at:
  6042 ;;		line 206 in file "mcc_generated_files/eusart2.c"
  6043 ;; Parameters:    Size  Location     Type
  6044 ;;		None
  6045 ;; Auto vars:     Size  Location     Type
  6046 ;;		None
  6047 ;; Return value:  Size  Location     Type
  6048 ;;                  1    wreg      void 
  6049 ;; Registers used:
  6050 ;;		wreg, fsr2l, fsr2h, status,2, status,0
  6051 ;; Tracked objects:
  6052 ;;		On entry : 0/0
  6053 ;;		On exit  : 0/0
  6054 ;;		Unchanged: 0/0
  6055 ;; Data sizes:     COMRAM   BANK0   BANK1   BANK2   BANK3   BANK4   BANK5   BANK6   BANK7   BANK8   BANK9  BANK10  BANK1
      +1  BANK12  BANK13  BANK14
  6056 ;;      Params:         0       0       0       0       0       0       0       0       0       0       0       0       
      +0       0       0       0
  6057 ;;      Locals:         0       0       0       0       0       0       0       0       0       0       0       0       
      +0       0       0       0
  6058 ;;      Temps:          0       0       0       0       0       0       0       0       0       0       0       0       
      +0       0       0       0
  6059 ;;      Totals:         0       0       0       0       0       0       0       0       0       0       0       0       
      +0       0       0       0
  6060 ;;Total ram usage:        0 bytes
  6061 ;; Hardware stack levels used: 1
  6062 ;; This function calls:
  6063 ;;		Nothing
  6064 ;; This function is called by:
  6065 ;;		_EUSART2_Initialize
  6066 ;;		_INTERRUPT_InterruptManager
  6067 ;; This function uses a non-reentrant model
  6068 ;;
  6069                           
  6070                           	psect	text76
  6071  0000'                    __ptext76:
  6072                           	callstack 0
  6073  0000'                    _EUSART2_Transmit_ISR:
  6074                           	callstack 23
  6075  0000'                    
  6076                           ;mcc_generated_files/eusart2.c: 210:     if(sizeof(eusart2TxBuffer) > eusart2TxBufferRem
      +                          aining)
  6077  0000' 0E08               	movlw	8
  6078  0002' 6000'              	cpfslt	_eusart2TxBufferRemaining^0,c	;volatile
  6079  0004' EF00' F000'        	goto	i2u108_41
  6080  0008' EF00' F000'        	goto	i2u108_40
  6081  000C'                    i2u108_41:
  6082  000C' EF00' F000'        	goto	i2l216
  6083  0010'                    i2u108_40:
  6084  0010'                    
  6085                           ;mcc_generated_files/eusart2.c: 211:     {;mcc_generated_files/eusart2.c: 212:         T
      +                          XREG2 = eusart2TxBuffer[eusart2TxTail++];
  6086  0010' 0E00'              	movlw	low _eusart2TxBuffer
  6087  0012' 2400'              	addwf	_eusart2TxTail^0,w,c	;volatile
  6088  0014' 6ED9               	movwf	fsr2l,c
  6089  0016' 6ADA               	clrf	fsr2h,c
  6090  0018' 0E00'              	movlw	high _eusart2TxBuffer
  6091  001A' 22DA               	addwfc	fsr2h,f,c
  6092  001C' 50DF               	movf	indf2,w,c
  6093  001E' 6EA9               	movwf	169,c	;volatile
  6094  0020' 2A00'              	incf	_eusart2TxTail^0,f,c	;volatile
  6095  0022'                    
  6096                           ;mcc_generated_files/eusart2.c: 213:         if(sizeof(eusart2TxBuffer) <= eusart2TxTail
      +                          )
  6097  0022' 0E07               	movlw	7
  6098  0024' 6400'              	cpfsgt	_eusart2TxTail^0,c	;volatile
  6099  0026' EF00' F000'        	goto	i2u109_41
  6100  002A' EF00' F000'        	goto	i2u109_40
  6101  002E'                    i2u109_41:
  6102  002E' EF00' F000'        	goto	i2l3201
  6103  0032'                    i2u109_40:
  6104  0032'                    
  6105                           ;mcc_generated_files/eusart2.c: 214:         {;mcc_generated_files/eusart2.c: 215:      
      +                                 eusart2TxTail = 0;
  6106  0032' 0E00               	movlw	0
  6107  0034' 6E00'              	movwf	_eusart2TxTail^0,c	;volatile
  6108  0036'                    i2l3201:
  6109                           
  6110                           ;mcc_generated_files/eusart2.c: 217:         eusart2TxBufferRemaining++;
  6111  0036' 2A00'              	incf	_eusart2TxBufferRemaining^0,f,c	;volatile
  6112                           
  6113                           ;mcc_generated_files/eusart2.c: 218:     }
  6114  0038' EF00' F000'        	goto	i2l219
  6115  003C'                    i2l216:
  6116                           
  6117                           ;mcc_generated_files/eusart2.c: 220:     {;mcc_generated_files/eusart2.c: 221:         P
      +                          IE3bits.TX2IE = 0;
  6118  003C' 98A3               	bcf	163,4,c	;volatile
  6119  003E'                    i2l219:
  6120  003E' 0012               	return		;funcret
  6121  0040'                    __end_of_EUSART2_Transmit_ISR:
  6122                           	callstack 0
  6123                           
  6124 ;; *************** function _EUSART2_Receive_ISR *****************
  6125 ;; Defined at:
  6126 ;;		line 225 in file "mcc_generated_files/eusart2.c"
  6127 ;; Parameters:    Size  Location     Type
  6128 ;;		None
  6129 ;; Auto vars:     Size  Location     Type
  6130 ;;		None
  6131 ;; Return value:  Size  Location     Type
  6132 ;;                  1    wreg      void 
  6133 ;; Registers used:
  6134 ;;		wreg, fsr2l, fsr2h, status,2, status,0, pcl, pclath, pclatu, tosl, cstack
  6135 ;; Tracked objects:
  6136 ;;		On entry : 0/0
  6137 ;;		On exit  : 0/0
  6138 ;;		Unchanged: 0/0
  6139 ;; Data sizes:     COMRAM   BANK0   BANK1   BANK2   BANK3   BANK4   BANK5   BANK6   BANK7   BANK8   BANK9  BANK10  BANK1
      +1  BANK12  BANK13  BANK14
  6140 ;;      Params:         0       0       0       0       0       0       0       0       0       0       0       0       
      +0       0       0       0
  6141 ;;      Locals:         0       0       0       0       0       0       0       0       0       0       0       0       
      +0       0       0       0
  6142 ;;      Temps:          0       0       0       0       0       0       0       0       0       0       0       0       
      +0       0       0       0
  6143 ;;      Totals:         0       0       0       0       0       0       0       0       0       0       0       0       
      +0       0       0       0
  6144 ;;Total ram usage:        0 bytes
  6145 ;; Hardware stack levels used: 1
  6146 ;; Hardware stack levels required when called: 2
  6147 ;; This function calls:
  6148 ;;		Absolute function
  6149 ;;		_EUSART2_DefaultErrorHandler
  6150 ;;		_EUSART2_DefaultFramingErrorHandler
  6151 ;;		_EUSART2_DefaultOverrunErrorHandler
  6152 ;;		_EUSART2_RxDataHandler
  6153 ;; This function is called by:
  6154 ;;		_EUSART2_Initialize
  6155 ;;		_INTERRUPT_InterruptManager
  6156 ;; This function uses a non-reentrant model
  6157 ;;
  6158                           
  6159                           	psect	text77
  6160  0000'                    __ptext77:
  6161                           	callstack 0
  6162  0000'                    _EUSART2_Receive_ISR:
  6163                           	callstack 21
  6164  0000'                    
  6165                           ;mcc_generated_files/eusart2.c: 228:     eusart2RxStatusBuffer[eusart2RxHead].status = 0
      +                          ;
  6166  0000' 0E00'              	movlw	low _eusart2RxStatusBuffer
  6167  0002' 2400'              	addwf	_eusart2RxHead^0,w,c	;volatile
  6168  0004' 6ED9               	movwf	fsr2l,c
  6169  0006' 6ADA               	clrf	fsr2h,c
  6170  0008' 0E00'              	movlw	high _eusart2RxStatusBuffer
  6171  000A' 22DA               	addwfc	fsr2h,f,c
  6172  000C' 0E00               	movlw	0
  6173  000E' 6EDF               	movwf	indf2,c
  6174  0010'                    
  6175                           ;mcc_generated_files/eusart2.c: 230:     if(RCSTA2bits.FERR){
  6176  0010' A49C               	btfss	156,2,c	;volatile
  6177  0012' EF00' F000'        	goto	i2u110_41
  6178  0016' EF00' F000'        	goto	i2u110_40
  6179  001A'                    i2u110_41:
  6180  001A' EF00' F000'        	goto	i2l3211
  6181  001E'                    i2u110_40:
  6182  001E'                    
  6183                           ;mcc_generated_files/eusart2.c: 231:         eusart2RxStatusBuffer[eusart2RxHead].ferr =
      +                           1;
  6184  001E' 0E00'              	movlw	low _eusart2RxStatusBuffer
  6185  0020' 2400'              	addwf	_eusart2RxHead^0,w,c	;volatile
  6186  0022' 6ED9               	movwf	fsr2l,c
  6187  0024' 6ADA               	clrf	fsr2h,c
  6188  0026' 0E00'              	movlw	high _eusart2RxStatusBuffer
  6189  0028' 22DA               	addwfc	fsr2h,f,c
  6190  002A' 82DF               	bsf	indf2,1,c
  6191  002C'                    
  6192                           ;mcc_generated_files/eusart2.c: 232:         EUSART2_FramingErrorHandler();
  6193  002C' D802               	call	i2u111_48
  6194  002E' EF00' F000'        	goto	i2u111_49
  6195  0032'                    i2u111_48:
  6196  0032' 0005               	push	
  6197  0034' 0100               	movlb	0	; () banked
  6198  0036' 6EFA               	movwf	pclath,c
  6199  0038' 5100'              	movf	_EUSART2_FramingErrorHandler& (0+255),w,b
  6200  003A' 6EFD               	movwf	tosl,c
  6201  003C' 5100'              	movf	(_EUSART2_FramingErrorHandler+1)& (0+255),w,b
  6202  003E' 6EFE               	movwf	tosh,c
  6203  0040' 50F8               	movf	tblptru,w,c
  6204  0042' 6EFF               	movwf	tosu,c
  6205  0044' 50FA               	movf	pclath,w,c
  6206  0046' 0012               	return		;indir
  6207  0048'                    i2u111_49:
  6208  0048'                    i2l3211:
  6209                           
  6210                           ;mcc_generated_files/eusart2.c: 235:     if(RCSTA2bits.OERR){
  6211  0048' A29C               	btfss	156,1,c	;volatile
  6212  004A' EF00' F000'        	goto	i2u112_41
  6213  004E' EF00' F000'        	goto	i2u112_40
  6214  0052'                    i2u112_41:
  6215  0052' EF00' F000'        	goto	i2l3217
  6216  0056'                    i2u112_40:
  6217  0056'                    
  6218                           ;mcc_generated_files/eusart2.c: 236:         eusart2RxStatusBuffer[eusart2RxHead].oerr =
      +                           1;
  6219  0056' 0E00'              	movlw	low _eusart2RxStatusBuffer
  6220  0058' 2400'              	addwf	_eusart2RxHead^0,w,c	;volatile
  6221  005A' 6ED9               	movwf	fsr2l,c
  6222  005C' 6ADA               	clrf	fsr2h,c
  6223  005E' 0E00'              	movlw	high _eusart2RxStatusBuffer
  6224  0060' 22DA               	addwfc	fsr2h,f,c
  6225  0062' 84DF               	bsf	indf2,2,c
  6226  0064'                    
  6227                           ;mcc_generated_files/eusart2.c: 237:         EUSART2_OverrunErrorHandler();
  6228  0064' D802               	call	i2u113_48
  6229  0066' EF00' F000'        	goto	i2u113_49
  6230  006A'                    i2u113_48:
  6231  006A' 0005               	push	
  6232  006C' 0100               	movlb	0	; () banked
  6233  006E' 6EFA               	movwf	pclath,c
  6234  0070' 5100'              	movf	_EUSART2_OverrunErrorHandler& (0+255),w,b
  6235  0072' 6EFD               	movwf	tosl,c
  6236  0074' 5100'              	movf	(_EUSART2_OverrunErrorHandler+1)& (0+255),w,b
  6237  0076' 6EFE               	movwf	tosh,c
  6238  0078' 50F8               	movf	tblptru,w,c
  6239  007A' 6EFF               	movwf	tosu,c
  6240  007C' 50FA               	movf	pclath,w,c
  6241  007E' 0012               	return		;indir
  6242  0080'                    i2u113_49:
  6243  0080'                    i2l3217:
  6244                           
  6245                           ;mcc_generated_files/eusart2.c: 240:     if(eusart2RxStatusBuffer[eusart2RxHead].status)
      +                          {
  6246  0080' 0E00'              	movlw	low _eusart2RxStatusBuffer
  6247  0082' 2400'              	addwf	_eusart2RxHead^0,w,c	;volatile
  6248  0084' 6ED9               	movwf	fsr2l,c
  6249  0086' 6ADA               	clrf	fsr2h,c
  6250  0088' 0E00'              	movlw	high _eusart2RxStatusBuffer
  6251  008A' 22DA               	addwfc	fsr2h,f,c
  6252  008C' 50DF               	movf	indf2,w,c
  6253  008E' B4D8               	btfsc	status,2,c
  6254  0090' EF00' F000'        	goto	i2u114_41
  6255  0094' EF00' F000'        	goto	i2u114_40
  6256  0098'                    i2u114_41:
  6257  0098' EF00' F000'        	goto	i2l3221
  6258  009C'                    i2u114_40:
  6259  009C'                    
  6260                           ;mcc_generated_files/eusart2.c: 241:         EUSART2_ErrorHandler();
  6261  009C' D802               	call	i2u115_48
  6262  009E' EF00' F000'        	goto	i2u115_49
  6263  00A2'                    i2u115_48:
  6264  00A2' 0005               	push	
  6265  00A4' 0100               	movlb	0	; () banked
  6266  00A6' 6EFA               	movwf	pclath,c
  6267  00A8' 5100'              	movf	_EUSART2_ErrorHandler& (0+255),w,b
  6268  00AA' 6EFD               	movwf	tosl,c
  6269  00AC' 5100'              	movf	(_EUSART2_ErrorHandler+1)& (0+255),w,b
  6270  00AE' 6EFE               	movwf	tosh,c
  6271  00B0' 50F8               	movf	tblptru,w,c
  6272  00B2' 6EFF               	movwf	tosu,c
  6273  00B4' 50FA               	movf	pclath,w,c
  6274  00B6' 0012               	return		;indir
  6275  00B8'                    i2u115_49:
  6276                           
  6277                           ;mcc_generated_files/eusart2.c: 242:     } else {
  6278  00B8' EF00' F000'        	goto	i2l226
  6279  00BC'                    i2l3221:
  6280                           
  6281                           ;mcc_generated_files/eusart2.c: 243:         EUSART2_RxDataHandler();
  6282  00BC' EC00' F000'        	call	_EUSART2_RxDataHandler	;wreg free
  6283  00C0'                    i2l226:
  6284  00C0' 0012               	return		;funcret
  6285  00C2'                    __end_of_EUSART2_Receive_ISR:
  6286                           	callstack 0
  6287                           
  6288 ;; *************** function _EUSART2_DefaultOverrunErrorHandler *****************
  6289 ;; Defined at:
  6290 ;;		line 261 in file "mcc_generated_files/eusart2.c"
  6291 ;; Parameters:    Size  Location     Type
  6292 ;;		None
  6293 ;; Auto vars:     Size  Location     Type
  6294 ;;		None
  6295 ;; Return value:  Size  Location     Type
  6296 ;;                  1    wreg      void 
  6297 ;; Registers used:
  6298 ;;		None
  6299 ;; Tracked objects:
  6300 ;;		On entry : 0/0
  6301 ;;		On exit  : 0/0
  6302 ;;		Unchanged: 0/0
  6303 ;; Data sizes:     COMRAM   BANK0   BANK1   BANK2   BANK3   BANK4   BANK5   BANK6   BANK7   BANK8   BANK9  BANK10  BANK1
      +1  BANK12  BANK13  BANK14
  6304 ;;      Params:         0       0       0       0       0       0       0       0       0       0       0       0       
      +0       0       0       0
  6305 ;;      Locals:         0       0       0       0       0       0       0       0       0       0       0       0       
      +0       0       0       0
  6306 ;;      Temps:          0       0       0       0       0       0       0       0       0       0       0       0       
      +0       0       0       0
  6307 ;;      Totals:         0       0       0       0       0       0       0       0       0       0       0       0       
      +0       0       0       0
  6308 ;;Total ram usage:        0 bytes
  6309 ;; Hardware stack levels used: 1
  6310 ;; This function calls:
  6311 ;;		Nothing
  6312 ;; This function is called by:
  6313 ;;		_EUSART2_Initialize
  6314 ;;		_EUSART2_Receive_ISR
  6315 ;; This function uses a non-reentrant model
  6316 ;;
  6317                           
  6318                           	psect	text78
  6319  0000'                    __ptext78:
  6320                           	callstack 0
  6321  0000'                    _EUSART2_DefaultOverrunErrorHandler:
  6322                           	callstack 22
  6323  0000'                    
  6324                           ;mcc_generated_files/eusart2.c: 264:     RCSTA2bits.CREN = 0;
  6325  0000' 989C               	bcf	156,4,c	;volatile
  6326                           
  6327                           ;mcc_generated_files/eusart2.c: 265:     RCSTA2bits.CREN = 1;
  6328  0002' 889C               	bsf	156,4,c	;volatile
  6329  0004' 0012               	return		;funcret
  6330  0006'                    __end_of_EUSART2_DefaultOverrunErrorHandler:
  6331                           	callstack 0
  6332                           
  6333 ;; *************** function _EUSART2_DefaultFramingErrorHandler *****************
  6334 ;; Defined at:
  6335 ;;		line 259 in file "mcc_generated_files/eusart2.c"
  6336 ;; Parameters:    Size  Location     Type
  6337 ;;		None
  6338 ;; Auto vars:     Size  Location     Type
  6339 ;;		None
  6340 ;; Return value:  Size  Location     Type
  6341 ;;                  1    wreg      void 
  6342 ;; Registers used:
  6343 ;;		None
  6344 ;; Tracked objects:
  6345 ;;		On entry : 0/0
  6346 ;;		On exit  : 0/0
  6347 ;;		Unchanged: 0/0
  6348 ;; Data sizes:     COMRAM   BANK0   BANK1   BANK2   BANK3   BANK4   BANK5   BANK6   BANK7   BANK8   BANK9  BANK10  BANK1
      +1  BANK12  BANK13  BANK14
  6349 ;;      Params:         0       0       0       0       0       0       0       0       0       0       0       0       
      +0       0       0       0
  6350 ;;      Locals:         0       0       0       0       0       0       0       0       0       0       0       0       
      +0       0       0       0
  6351 ;;      Temps:          0       0       0       0       0       0       0       0       0       0       0       0       
      +0       0       0       0
  6352 ;;      Totals:         0       0       0       0       0       0       0       0       0       0       0       0       
      +0       0       0       0
  6353 ;;Total ram usage:        0 bytes
  6354 ;; Hardware stack levels used: 1
  6355 ;; This function calls:
  6356 ;;		Nothing
  6357 ;; This function is called by:
  6358 ;;		_EUSART2_Initialize
  6359 ;;		_EUSART2_Receive_ISR
  6360 ;; This function uses a non-reentrant model
  6361 ;;
  6362                           
  6363                           	psect	text79
  6364  0000'                    __ptext79:
  6365                           	callstack 0
  6366  0000'                    _EUSART2_DefaultFramingErrorHandler:
  6367                           	callstack 22
  6368  0000' 0012               	return		;funcret
  6369  0002'                    __end_of_EUSART2_DefaultFramingErrorHandler:
  6370                           	callstack 0
  6371                           
  6372 ;; *************** function _EUSART2_DefaultErrorHandler *****************
  6373 ;; Defined at:
  6374 ;;		line 269 in file "mcc_generated_files/eusart2.c"
  6375 ;; Parameters:    Size  Location     Type
  6376 ;;		None
  6377 ;; Auto vars:     Size  Location     Type
  6378 ;;		None
  6379 ;; Return value:  Size  Location     Type
  6380 ;;                  1    wreg      void 
  6381 ;; Registers used:
  6382 ;;		wreg, fsr2l, fsr2h, status,2, status,0, cstack
  6383 ;; Tracked objects:
  6384 ;;		On entry : 0/0
  6385 ;;		On exit  : 0/0
  6386 ;;		Unchanged: 0/0
  6387 ;; Data sizes:     COMRAM   BANK0   BANK1   BANK2   BANK3   BANK4   BANK5   BANK6   BANK7   BANK8   BANK9  BANK10  BANK1
      +1  BANK12  BANK13  BANK14
  6388 ;;      Params:         0       0       0       0       0       0       0       0       0       0       0       0       
      +0       0       0       0
  6389 ;;      Locals:         0       0       0       0       0       0       0       0       0       0       0       0       
      +0       0       0       0
  6390 ;;      Temps:          0       0       0       0       0       0       0       0       0       0       0       0       
      +0       0       0       0
  6391 ;;      Totals:         0       0       0       0       0       0       0       0       0       0       0       0       
      +0       0       0       0
  6392 ;;Total ram usage:        0 bytes
  6393 ;; Hardware stack levels used: 1
  6394 ;; Hardware stack levels required when called: 1
  6395 ;; This function calls:
  6396 ;;		_EUSART2_RxDataHandler
  6397 ;; This function is called by:
  6398 ;;		_EUSART2_Initialize
  6399 ;;		_EUSART2_Receive_ISR
  6400 ;; This function uses a non-reentrant model
  6401 ;;
  6402                           
  6403                           	psect	text80
  6404  0000'                    __ptext80:
  6405                           	callstack 0
  6406  0000'                    _EUSART2_DefaultErrorHandler:
  6407                           	callstack 21
  6408  0000'                    
  6409                           ;mcc_generated_files/eusart2.c: 270:     EUSART2_RxDataHandler();
  6410  0000' EC00' F000'        	call	_EUSART2_RxDataHandler	;wreg free
  6411  0004' 0012               	return		;funcret
  6412  0006'                    __end_of_EUSART2_DefaultErrorHandler:
  6413                           	callstack 0
  6414                           
  6415 ;; *************** function _EUSART2_RxDataHandler *****************
  6416 ;; Defined at:
  6417 ;;		line 249 in file "mcc_generated_files/eusart2.c"
  6418 ;; Parameters:    Size  Location     Type
  6419 ;;		None
  6420 ;; Auto vars:     Size  Location     Type
  6421 ;;		None
  6422 ;; Return value:  Size  Location     Type
  6423 ;;                  1    wreg      void 
  6424 ;; Registers used:
  6425 ;;		wreg, fsr2l, fsr2h, status,2, status,0
  6426 ;; Tracked objects:
  6427 ;;		On entry : 0/0
  6428 ;;		On exit  : 0/0
  6429 ;;		Unchanged: 0/0
  6430 ;; Data sizes:     COMRAM   BANK0   BANK1   BANK2   BANK3   BANK4   BANK5   BANK6   BANK7   BANK8   BANK9  BANK10  BANK1
      +1  BANK12  BANK13  BANK14
  6431 ;;      Params:         0       0       0       0       0       0       0       0       0       0       0       0       
      +0       0       0       0
  6432 ;;      Locals:         0       0       0       0       0       0       0       0       0       0       0       0       
      +0       0       0       0
  6433 ;;      Temps:          0       0       0       0       0       0       0       0       0       0       0       0       
      +0       0       0       0
  6434 ;;      Totals:         0       0       0       0       0       0       0       0       0       0       0       0       
      +0       0       0       0
  6435 ;;Total ram usage:        0 bytes
  6436 ;; Hardware stack levels used: 1
  6437 ;; This function calls:
  6438 ;;		Nothing
  6439 ;; This function is called by:
  6440 ;;		_EUSART2_Receive_ISR
  6441 ;;		_EUSART2_DefaultErrorHandler
  6442 ;; This function uses a non-reentrant model
  6443 ;;
  6444                           
  6445                           	psect	text81
  6446  0000'                    __ptext81:
  6447                           	callstack 0
  6448  0000'                    _EUSART2_RxDataHandler:
  6449                           	callstack 22
  6450  0000'                    
  6451                           ;mcc_generated_files/eusart2.c: 251:     eusart2RxBuffer[eusart2RxHead++] = RCREG2;
  6452  0000' 0E00'              	movlw	low _eusart2RxBuffer
  6453  0002' 2400'              	addwf	_eusart2RxHead^0,w,c	;volatile
  6454  0004' 6ED9               	movwf	fsr2l,c
  6455  0006' 6ADA               	clrf	fsr2h,c
  6456  0008' 0E00'              	movlw	high _eusart2RxBuffer
  6457  000A' 22DA               	addwfc	fsr2h,f,c
  6458  000C' CFAA FFDF          	movff	4010,indf2	;volatile
  6459  0010' 2A00'              	incf	_eusart2RxHead^0,f,c	;volatile
  6460  0012'                    
  6461                           ;mcc_generated_files/eusart2.c: 252:     if(sizeof(eusart2RxBuffer) <= eusart2RxHead)
  6462  0012' 0E07               	movlw	7
  6463  0014' 6400'              	cpfsgt	_eusart2RxHead^0,c	;volatile
  6464  0016' EF00' F000'        	goto	i2u83_41
  6465  001A' EF00' F000'        	goto	i2u83_40
  6466  001E'                    i2u83_41:
  6467  001E' EF00' F000'        	goto	i2l2793
  6468  0022'                    i2u83_40:
  6469  0022'                    
  6470                           ;mcc_generated_files/eusart2.c: 253:     {;mcc_generated_files/eusart2.c: 254:         e
      +                          usart2RxHead = 0;
  6471  0022' 0E00               	movlw	0
  6472  0024' 6E00'              	movwf	_eusart2RxHead^0,c	;volatile
  6473  0026'                    i2l2793:
  6474                           
  6475                           ;mcc_generated_files/eusart2.c: 256:     eusart2RxCount++;
  6476  0026' 2A00'              	incf	_eusart2RxCount^0,f,c	;volatile
  6477  0028' 0012               	return		;funcret
  6478  002A'                    __end_of_EUSART2_RxDataHandler:
  6479                           	callstack 0
  6480                           
  6481                           	psect	text82
  6482  0000'                    __ptext82:
  6483                           	callstack 0
  6484  0000'                    
  6485                           	psect	rparam
  6486  0000                     
  6487                           	psect	temp
  6488  0000'                    btemp:
  6489                           	callstack 0
  6490  0000'                    	ds	1
  6491  0000                     int$flags	set	btemp
  6492  0000                     wtemp8	set	btemp+1
  6493  0000                     ttemp5	set	btemp+1
  6494  0000                     ttemp6	set	btemp+4
  6495  0000                     ttemp7	set	btemp+8
  6496                           
  6497                           	psect	config
  6498                           
  6499                           ;Config register CONFIG1L @ 0xFFF8
  6500                           ;	Watchdog Timer
  6501                           ;	WDTEN = OFF, Disabled - Controlled by SWDTEN bit
  6502                           ;	PLL Prescaler Selection
  6503                           ;	PLLDIV = 2, Divide by 2 (8 MHz oscillator input)
  6504                           ;	PLL Enable Configuration Bit
  6505                           ;	CFGPLLEN = ON, PLL Enabled
  6506                           ;	Stack Overflow/Underflow Reset
  6507                           ;	STVREN = ON, Enabled
  6508                           ;	Extended Instruction Set
  6509                           ;	XINST = OFF, Disabled
  6510  FFF8                     	org	65528
  6511  FFF8  AC                 	db	172
  6512                           
  6513                           ;Config register CONFIG1H @ 0xFFF9
  6514                           ;	CPU System Clock Postscaler
  6515                           ;	CPUDIV = OSC1, No CPU system clock divide
  6516                           ;	Code Protect
  6517                           ;	CP0 = OFF, Program memory is not code-protected
  6518  FFF9                     	org	65529
  6519  FFF9  F7                 	db	247
  6520                           
  6521                           ;Config register CONFIG2L @ 0xFFFA
  6522                           ;	Oscillator
  6523                           ;	OSC = INTOSCPLL, INTOSCPLL
  6524                           ;	T1OSC/SOSC Power Selection Bits
  6525                           ;	SOSCSEL = DIG, Digital (SCLKI) mode selected
  6526                           ;	EC Clock Out Enable Bit
  6527                           ;	CLKOEC = OFF, CLKO output disabled on the RA6 pin
  6528                           ;	Fail-Safe Clock Monitor
  6529                           ;	FCMEN = ON, Enabled
  6530                           ;	Internal External Oscillator Switch Over Mode
  6531                           ;	IESO = ON, Enabled
  6532  FFFA                     	org	65530
  6533  FFFA  D2                 	db	210
  6534                           
  6535                           ;Config register CONFIG2H @ 0xFFFB
  6536                           ;	Watchdog Postscaler
  6537                           ;	WDTPS = 32768, 1:32768
  6538  FFFB                     	org	65531
  6539  FFFB  FF                 	db	255
  6540                           
  6541                           ;Config register CONFIG3L @ 0xFFFC
  6542                           ;	DSWDT Clock Select
  6543                           ;	DSWDTOSC = INTOSCREF, DSWDT uses INTRC
  6544                           ;	RTCC Clock Select
  6545                           ;	RTCOSC = T1OSCREF, RTCC uses T1OSC/T1CKI
  6546                           ;	Deep Sleep BOR
  6547                           ;	DSBOREN = ON, Enabled
  6548                           ;	Deep Sleep Watchdog Timer
  6549                           ;	DSWDTEN = ON, Enabled
  6550                           ;	Deep Sleep Watchdog Postscaler
  6551                           ;	DSWDTPS = G2, 1:2,147,483,648 (25.7 days)
  6552  FFFC                     	org	65532
  6553  FFFC  FF                 	db	255
  6554                           
  6555                           ;Config register CONFIG3H @ 0xFFFD
  6556                           ;	IOLOCK One-Way Set Enable bit
  6557                           ;	IOL1WAY = ON, The IOLOCK bit (PPSCON<0>) can be set once
  6558                           ;	ADC 10 or 12 Bit Select
  6559                           ;	ADCSEL = BIT10, 10 - Bit ADC Enabled
  6560                           ;	MSSP address masking
  6561                           ;	MSSP7B_EN = MSK7, 7 Bit address masking mode
  6562  FFFD                     	org	65533
  6563  FFFD  FB                 	db	251
  6564                           
  6565                           ;Config register CONFIG4L @ 0xFFFE
  6566                           ;	Write/Erase Protect Page Start/End Location
  6567                           ;	WPFP = PAGE_63, Write Protect Program Flash Page 63
  6568                           ;	Write/Erase Protect Configuration Region
  6569                           ;	WPCFG = OFF, Configuration Words page not erase/write-protected
  6570  FFFE                     	org	65534
  6571  FFFE  BF                 	db	191
  6572                           
  6573                           ;Config register CONFIG4H @ 0xFFFF
  6574                           ;	Write Protect Disable bit
  6575                           ;	WPDIS = OFF, WPFP<6:0>/WPEND region ignored
  6576                           ;	Write/Erase Protect Region Select bit (valid when WPDIS = 0)
  6577                           ;	WPEND = PAGE_WPFP, Pages WPFP<6:0> through Configuration Words erase/write protected
  6578                           ;	Low Speed USB mode with 48 MHz system clock bit
  6579                           ;	LS48MHZ = SYS48X8, System clock at 48 MHz USB CLKEN divide-by is set to 8
  6580  FFFF                     	org	65535
  6581  FFFF  FB                 	db	251
  6582                           tosu	equ	0xFFF
  6583                           tosh	equ	0xFFE
  6584                           tosl	equ	0xFFD
  6585                           stkptr	equ	0xFFC
  6586                           pclatu	equ	0xFFB
  6587                           pclath	equ	0xFFA
  6588                           pcl	equ	0xFF9
  6589                           tblptru	equ	0xFF8
  6590                           tblptrh	equ	0xFF7
  6591                           tblptrl	equ	0xFF6
  6592                           tablat	equ	0xFF5
  6593                           prodh	equ	0xFF4
  6594                           prodl	equ	0xFF3
  6595                           indf0	equ	0xFEF
  6596                           postinc0	equ	0xFEE
  6597                           postdec0	equ	0xFED
  6598                           preinc0	equ	0xFEC
  6599                           plusw0	equ	0xFEB
  6600                           fsr0h	equ	0xFEA
  6601                           fsr0l	equ	0xFE9
  6602                           wreg	equ	0xFE8
  6603                           indf1	equ	0xFE7
  6604                           postinc1	equ	0xFE6
  6605                           postdec1	equ	0xFE5
  6606                           preinc1	equ	0xFE4
  6607                           plusw1	equ	0xFE3
  6608                           fsr1h	equ	0xFE2
  6609                           fsr1l	equ	0xFE1
  6610                           bsr	equ	0xFE0
  6611                           indf2	equ	0xFDF
  6612                           postinc2	equ	0xFDE
  6613                           postdec2	equ	0xFDD
  6614                           preinc2	equ	0xFDC
  6615                           plusw2	equ	0xFDB
  6616                           fsr2h	equ	0xFDA
  6617                           fsr2l	equ	0xFD9
  6618                           status	equ	0xFD8

Data Sizes:
    Strings     8
    Constant    32
    Data        0
    BSS         110
    Persistent  13
    Stack       0

Auto Spaces:
    Space          Size  Autos    Used
    COMRAM           94     32      71
    BANK0           160     24     108
    BANK1           256      0       0
    BANK2           256      0       0
    BANK3           256      0       0
    BANK4           256      0       0
    BANK5           256      0       0
    BANK6           256      0       0
    BANK7           256      0       0
    BANK8           256      0       0
    BANK9           256      0       0
    BANK10          256      0       0
    BANK11          256      0       0
    BANK12          256      0       0
    BANK13          256      0       0
    BANK14          176      0       0

Pointer List with Targets:

    I2C1_Read1ByteRegister@returnValue.data	PTR unsigned char  size(2) Largest target is 0

    I2C1_Read2ByteRegister@returnValue.data	PTR unsigned char  size(2) Largest target is 0

    I2C1_Write1ByteRegister@data.data	PTR unsigned char  size(2) Largest target is 0

    I2C1_Write2ByteRegister@data.data	PTR unsigned char  size(2) Largest target is 0

    I2C1_DO_TX$3105$0	PTR void  size(2) Largest target is 5
		 -> I2C1_ReadDataBlock@bufferBlock(COMRAM[4]), I2C1_Write2ByteRegister@data(COMRAM[2]), I2C1_Write1ByteRegister@data(BANK0[1]), I2C1_Read2ByteRegister@returnValue(COMRAM[2]), 
		 -> NULL(NULL[0]), I2C1_Read1ByteRegister@returnValue(COMRAM[1]), 

    I2C1_DO_RX$3111$0	PTR void  size(2) Largest target is 5
		 -> I2C1_ReadDataBlock@bufferBlock(COMRAM[4]), I2C1_Write2ByteRegister@data(COMRAM[2]), I2C1_Write1ByteRegister@data(BANK0[1]), I2C1_Read2ByteRegister@returnValue(COMRAM[2]), 
		 -> NULL(NULL[0]), I2C1_Read1ByteRegister@returnValue(COMRAM[1]), 

    I2C1_DO_TX_EMPTY$3117$0	PTR void  size(2) Largest target is 5
		 -> I2C1_ReadDataBlock@bufferBlock(COMRAM[4]), I2C1_Write2ByteRegister@data(COMRAM[2]), I2C1_Write1ByteRegister@data(BANK0[1]), I2C1_Read2ByteRegister@returnValue(COMRAM[2]), 
		 -> NULL(NULL[0]), I2C1_Read1ByteRegister@returnValue(COMRAM[1]), 

    I2C1_DO_RX_EMPTY$3123$0	PTR void  size(2) Largest target is 5
		 -> I2C1_ReadDataBlock@bufferBlock(COMRAM[4]), I2C1_Write2ByteRegister@data(COMRAM[2]), I2C1_Write1ByteRegister@data(BANK0[1]), I2C1_Read2ByteRegister@returnValue(COMRAM[2]), 
		 -> NULL(NULL[0]), I2C1_Read1ByteRegister@returnValue(COMRAM[1]), 

    I2C1_DO_TX_EMPTY$3122	PTR void  size(2) Largest target is 5
		 -> I2C1_ReadDataBlock@bufferBlock(COMRAM[4]), I2C1_Write2ByteRegister@data(COMRAM[2]), I2C1_Write1ByteRegister@data(BANK0[1]), I2C1_Read2ByteRegister@returnValue(COMRAM[2]), 
		 -> NULL(NULL[0]), I2C1_Read1ByteRegister@returnValue(COMRAM[1]), 

    I2C1_DO_TX_EMPTY$3117	PTR FTN(PTR void ,)enum E360 size(2) Largest target is 1
		 -> I2C1_CallbackReturnReset(), I2C1_CallbackReturnStop(), Absolute function(), rdBlkRegCompleteHandler(), 
		 -> wr2RegCompleteHandler(), wr1RegCompleteHandler(), rd2RegCompleteHandler(), rd1RegCompleteHandler(), 

    I2C1_DO_RX$3116	PTR void  size(2) Largest target is 5
		 -> I2C1_ReadDataBlock@bufferBlock(COMRAM[4]), I2C1_Write2ByteRegister@data(COMRAM[2]), I2C1_Write1ByteRegister@data(BANK0[1]), I2C1_Read2ByteRegister@returnValue(COMRAM[2]), 
		 -> NULL(NULL[0]), I2C1_Read1ByteRegister@returnValue(COMRAM[1]), 

    I2C1_DO_RX$3111	PTR FTN(PTR void ,)enum E360 size(2) Largest target is 1
		 -> I2C1_CallbackReturnReset(), I2C1_CallbackReturnStop(), Absolute function(), rdBlkRegCompleteHandler(), 
		 -> wr2RegCompleteHandler(), wr1RegCompleteHandler(), rd2RegCompleteHandler(), rd1RegCompleteHandler(), 

    I2C1_DO_TX$3110	PTR void  size(2) Largest target is 5
		 -> I2C1_ReadDataBlock@bufferBlock(COMRAM[4]), I2C1_Write2ByteRegister@data(COMRAM[2]), I2C1_Write1ByteRegister@data(BANK0[1]), I2C1_Read2ByteRegister@returnValue(COMRAM[2]), 
		 -> NULL(NULL[0]), I2C1_Read1ByteRegister@returnValue(COMRAM[1]), 

    I2C1_DO_TX$3105	PTR FTN(PTR void ,)enum E360 size(2) Largest target is 1
		 -> I2C1_CallbackReturnReset(), I2C1_CallbackReturnStop(), Absolute function(), rdBlkRegCompleteHandler(), 
		 -> wr2RegCompleteHandler(), wr1RegCompleteHandler(), rd2RegCompleteHandler(), rd1RegCompleteHandler(), 

    I2C1_MasterFsm$3104	const PTR FTN()enum E6655 size(2) Largest target is 1
		 -> I2C1_DO_ADDRESS_NACK(), I2C1_DO_RESET(), I2C1_DO_RX_NACK_RESTART(), I2C1_DO_RX_NACK_STOP(), 
		 -> I2C1_DO_RX_ACK(), I2C1_DO_SEND_STOP(), I2C1_DO_SEND_RESTART(), I2C1_DO_SEND_RESTART_WRITE(), 
		 -> I2C1_DO_SEND_RESTART_READ(), I2C1_DO_TX_EMPTY(), I2C1_DO_RCEN(), I2C1_DO_RX(), 
		 -> I2C1_DO_TX(), I2C1_DO_SEND_ADR_WRITE(), I2C1_DO_SEND_ADR_READ(), I2C1_DO_IDLE(), 

    I2C1_CallbackReturnStop@funPtr	PTR void  size(2) Largest target is 5
		 -> I2C1_ReadDataBlock@bufferBlock(COMRAM[4]), I2C1_Write2ByteRegister@data(COMRAM[2]), I2C1_Write1ByteRegister@data(BANK0[1]), I2C1_Read2ByteRegister@returnValue(COMRAM[2]), 
		 -> NULL(NULL[0]), I2C1_Read1ByteRegister@returnValue(COMRAM[1]), 

    I2C1_CallbackReturnReset@funPtr	PTR void  size(2) Largest target is 5
		 -> I2C1_ReadDataBlock@bufferBlock(COMRAM[4]), I2C1_Write2ByteRegister@data(COMRAM[2]), I2C1_Write1ByteRegister@data(BANK0[1]), I2C1_Read2ByteRegister@returnValue(COMRAM[2]), 
		 -> NULL(NULL[0]), I2C1_Read1ByteRegister@returnValue(COMRAM[1]), 

    cb$0	PTR void  size(2) Largest target is 5
		 -> I2C1_ReadDataBlock@bufferBlock(COMRAM[4]), I2C1_Write2ByteRegister@data(COMRAM[2]), I2C1_Write1ByteRegister@data(BANK0[1]), I2C1_Read2ByteRegister@returnValue(COMRAM[2]), 
		 -> NULL(NULL[0]), I2C1_Read1ByteRegister@returnValue(COMRAM[1]), 

    Absolute function$0	PTR void  size(2) Largest target is 5
		 -> I2C1_ReadDataBlock@bufferBlock(COMRAM[4]), I2C1_Write2ByteRegister@data(COMRAM[2]), I2C1_Write1ByteRegister@data(BANK0[1]), I2C1_Read2ByteRegister@returnValue(COMRAM[2]), 
		 -> NULL(NULL[0]), I2C1_Read1ByteRegister@returnValue(COMRAM[1]), 

    cb$0	PTR void  size(2) Largest target is 5
		 -> I2C1_ReadDataBlock@bufferBlock(COMRAM[4]), I2C1_Write2ByteRegister@data(COMRAM[2]), I2C1_Write1ByteRegister@data(BANK0[1]), I2C1_Read2ByteRegister@returnValue(COMRAM[2]), 
		 -> NULL(NULL[0]), I2C1_Read1ByteRegister@returnValue(COMRAM[1]), 

    vfpfcnvrt@ap	PTR PTR void  size(2) Largest target is 2
		 -> printf@ap(BANK0[2]), 

    S605$0$0	PTR void  size(2) Largest target is 5
		 -> I2C1_ReadDataBlock@bufferBlock(COMRAM[4]), I2C1_Write2ByteRegister@data(COMRAM[2]), I2C1_Write1ByteRegister@data(BANK0[1]), I2C1_Read2ByteRegister@returnValue(COMRAM[2]), 
		 -> NULL(NULL[0]), I2C1_Read1ByteRegister@returnValue(COMRAM[1]), 

    ADC_InterruptHandler	PTR FTN()void  size(2) Largest target is 1
		 -> Absolute function(), 

    S2677$source	PTR const unsigned char  size(2) Largest target is 0

    fputc@fp...source	PTR const unsigned char  size(2) Largest target is 0

    S2677$buffer	PTR unsigned char  size(2) Largest target is 0

    fputc@fp...buffer	PTR unsigned char  size(2) Largest target is 0

    fputc@fp	PTR struct _IO_FILE size(2) Largest target is 0
		 -> NULL(NULL[0]), 

    vfprintf@ap	PTR PTR void  size(2) Largest target is 2
		 -> printf@ap(BANK0[2]), 

    vfprintf@fp	PTR struct _IO_FILE size(2) Largest target is 0
		 -> NULL(NULL[0]), 

    vfprintf@fmt	PTR const unsigned char  size(2) Largest target is 8
		 -> STR_1(CODE[8]), 

    vfprintf@cfmt	PTR unsigned char  size(2) Largest target is 8
		 -> STR_1(CODE[8]), 

    vfpfcnvrt@fp	PTR struct _IO_FILE size(2) Largest target is 0
		 -> NULL(NULL[0]), 

    vfpfcnvrt@fmt	PTR PTR unsigned char  size(2) Largest target is 2
		 -> vfprintf@cfmt(COMRAM[2]), 

    printf@fmt	PTR const unsigned char  size(2) Largest target is 8
		 -> STR_1(CODE[8]), 

    printf@ap	PTR void [1] size(2) Largest target is 2
		 -> ?_printf(BANK0[2]), 

    main@bufferPointer	PTR unsigned char  size(2) Largest target is 1
		 -> main@buffer(BANK0[1]), 

    I2C1_SetCallback@ptr	PTR void  size(2) Largest target is 5
		 -> I2C1_ReadDataBlock@bufferBlock(COMRAM[4]), I2C1_Write2ByteRegister@data(COMRAM[2]), I2C1_Write1ByteRegister@data(BANK0[1]), I2C1_Read2ByteRegister@returnValue(COMRAM[2]), 
		 -> NULL(NULL[0]), I2C1_Read1ByteRegister@returnValue(COMRAM[1]), 

    I2C1_SetCallback@cb	PTR FTN(PTR void ,)enum E360 size(2) Largest target is 1
		 -> Absolute function(), rdBlkRegCompleteHandler(), wr2RegCompleteHandler(), wr1RegCompleteHandler(), 
		 -> rd2RegCompleteHandler(), rd1RegCompleteHandler(), 

    I2C1_SetInterruptHandler@InterruptHandler	PTR FTN()void  size(2) Largest target is 1
		 -> I2C1_MasterIsr(), 

    MSSP1_InterruptHandler	PTR FTN()void  size(2) Largest target is 1
		 -> I2C1_MasterIsr(), Absolute function(), 

    I2C1_SetAddressNackCallback@ptr	PTR void  size(2) Largest target is 0
		 -> NULL(NULL[0]), 

    I2C1_SetAddressNackCallback@cb	PTR FTN(PTR void ,)enum E360 size(2) Largest target is 1
		 -> Absolute function(), 

    I2C1_SetDataCompleteCallback@ptr	PTR void  size(2) Largest target is 5
		 -> I2C1_ReadDataBlock@bufferBlock(COMRAM[4]), I2C1_Write2ByteRegister@data(COMRAM[2]), I2C1_Write1ByteRegister@data(BANK0[1]), I2C1_Read2ByteRegister@returnValue(COMRAM[2]), 
		 -> NULL(NULL[0]), I2C1_Read1ByteRegister@returnValue(COMRAM[1]), 

    I2C1_SetDataCompleteCallback@cb	PTR FTN(PTR void ,)enum E360 size(2) Largest target is 1
		 -> Absolute function(), rdBlkRegCompleteHandler(), wr2RegCompleteHandler(), wr1RegCompleteHandler(), 
		 -> rd2RegCompleteHandler(), rd1RegCompleteHandler(), 

    I2C1_SetBuffer@buffer	PTR void  size(2) Largest target is 5
		 -> I2C1_ReadDataBlock@reg(COMRAM[1]), I2C1_ReadDataBlock@bufferBlock(COMRAM[4]), I2C1_Write2ByteRegister@reg(COMRAM[1]), I2C1_Write2ByteRegister@data(COMRAM[2]), 
		 -> I2C1_Write1ByteRegister@reg(BANK0[1]), I2C1_Write1ByteRegister@data(BANK0[1]), I2C1_Read2ByteRegister@reg(COMRAM[1]), I2C1_Read2ByteRegister@returnValue(COMRAM[2]), 
		 -> NULL(NULL[0]), I2C1_Read1ByteRegister@reg(COMRAM[1]), I2C1_Read1ByteRegister@returnValue(COMRAM[1]), 

    S605$data_ptr	PTR unsigned char  size(2) Largest target is 5
		 -> I2C1_ReadDataBlock@reg(COMRAM[1]), I2C1_ReadDataBlock@bufferBlock(COMRAM[4]), I2C1_Write2ByteRegister@reg(COMRAM[1]), I2C1_Write2ByteRegister@data(COMRAM[2]), 
		 -> I2C1_Write1ByteRegister@reg(BANK0[1]), I2C1_Write1ByteRegister@data(BANK0[1]), I2C1_Read2ByteRegister@reg(COMRAM[1]), I2C1_Read2ByteRegister@returnValue(COMRAM[2]), 
		 -> NULL(NULL[0]), I2C1_Read1ByteRegister@reg(COMRAM[1]), I2C1_Read1ByteRegister@returnValue(COMRAM[1]), 

    I2C1_Status.data_ptr	PTR unsigned char  size(2) Largest target is 5
		 -> I2C1_Read1ByteRegister@returnValue.data(COMRAM[3]), I2C1_Read2ByteRegister@returnValue.data(COMRAM[3]), I2C1_Write1ByteRegister@data.data(COMRAM[3]), I2C1_Write2ByteRegister@data.data(COMRAM[3]), 
		 -> I2C1_ReadDataBlock@reg(COMRAM[1]), I2C1_ReadDataBlock@bufferBlock(COMRAM[4]), bufferBlock.data(COMRAM[3]), I2C1_Write2ByteRegister@reg(COMRAM[1]), 
		 -> I2C1_Write2ByteRegister@data(COMRAM[2]), I2C1_Write1ByteRegister@reg(BANK0[1]), I2C1_Write1ByteRegister@data(BANK0[1]), I2C1_Read2ByteRegister@reg(COMRAM[1]), 
		 -> I2C1_Read2ByteRegister@returnValue(COMRAM[2]), NULL(NULL[0]), I2C1_Read1ByteRegister@reg(COMRAM[1]), I2C1_Read1ByteRegister@returnValue(COMRAM[1]), 

    S605$callbackPayload	PTR void [6] size(2) Largest target is 5
		 -> I2C1_ReadDataBlock@bufferBlock(COMRAM[4]), I2C1_Write2ByteRegister@data(COMRAM[2]), I2C1_Write1ByteRegister@data(BANK0[1]), I2C1_Read2ByteRegister@returnValue(COMRAM[2]), 
		 -> NULL(NULL[0]), I2C1_Read1ByteRegister@returnValue(COMRAM[1]), 

    I2C1_Status.callbackPayload	PTR void [6] size(2) Largest target is 5
		 -> I2C1_ReadDataBlock@bufferBlock(COMRAM[4]), I2C1_Write2ByteRegister@data(COMRAM[2]), I2C1_Write1ByteRegister@data(BANK0[1]), I2C1_Read2ByteRegister@returnValue(COMRAM[2]), 
		 -> NULL(NULL[0]), I2C1_Read1ByteRegister@returnValue(COMRAM[1]), 

    S605$callbackTable	PTR FTN(PTR void ,)enum E360[6] size(2) Largest target is 1
		 -> I2C1_CallbackReturnReset(), I2C1_CallbackReturnStop(), Absolute function(), rdBlkRegCompleteHandler(), 
		 -> wr2RegCompleteHandler(), wr1RegCompleteHandler(), rd2RegCompleteHandler(), rd1RegCompleteHandler(), 

    I2C1_Status.callbackTable	PTR FTN(PTR void ,)enum E360[6] size(2) Largest target is 1
		 -> I2C1_CallbackReturnReset(), I2C1_CallbackReturnStop(), Absolute function(), rdBlkRegCompleteHandler(), 
		 -> wr2RegCompleteHandler(), wr1RegCompleteHandler(), rd2RegCompleteHandler(), rd1RegCompleteHandler(), 

    i2c1_fsmStateTable	const PTR FTN()enum E6655[16] size(2) Largest target is 1
		 -> I2C1_DO_ADDRESS_NACK(), I2C1_DO_RESET(), I2C1_DO_RX_NACK_RESTART(), I2C1_DO_RX_NACK_STOP(), 
		 -> I2C1_DO_RX_ACK(), I2C1_DO_SEND_STOP(), I2C1_DO_SEND_RESTART(), I2C1_DO_SEND_RESTART_WRITE(), 
		 -> I2C1_DO_SEND_RESTART_READ(), I2C1_DO_TX_EMPTY(), I2C1_DO_RCEN(), I2C1_DO_RX(), 
		 -> I2C1_DO_TX(), I2C1_DO_SEND_ADR_WRITE(), I2C1_DO_SEND_ADR_READ(), I2C1_DO_IDLE(), 

    EUSART2_SetRxInterruptHandler@interruptHandler	PTR FTN()void  size(2) Largest target is 1
		 -> EUSART2_Receive_ISR(), 

    EUSART2_RxDefaultInterruptHandler	PTR FTN()void  size(2) Largest target is 1
		 -> Absolute function(), EUSART2_Receive_ISR(), 

    EUSART2_SetTxInterruptHandler@interruptHandler	PTR FTN()void  size(2) Largest target is 1
		 -> EUSART2_Transmit_ISR(), 

    EUSART2_TxDefaultInterruptHandler	PTR FTN()void  size(2) Largest target is 1
		 -> Absolute function(), EUSART2_Transmit_ISR(), 

    EUSART2_SetErrorHandler@interruptHandler	PTR FTN()void  size(2) Largest target is 1
		 -> EUSART2_DefaultErrorHandler(), 

    EUSART2_SetOverrunErrorHandler@interruptHandler	PTR FTN()void  size(2) Largest target is 1
		 -> EUSART2_DefaultOverrunErrorHandler(), 

    EUSART2_SetFramingErrorHandler@interruptHandler	PTR FTN()void  size(2) Largest target is 1
		 -> EUSART2_DefaultFramingErrorHandler(), 

    EUSART2_ErrorHandler	PTR FTN()void  size(2) Largest target is 1
		 -> Absolute function(), EUSART2_DefaultErrorHandler(), 

    EUSART2_OverrunErrorHandler	PTR FTN()void  size(2) Largest target is 1
		 -> Absolute function(), EUSART2_DefaultOverrunErrorHandler(), 

    EUSART2_FramingErrorHandler	PTR FTN()void  size(2) Largest target is 1
		 -> Absolute function(), EUSART2_DefaultFramingErrorHandler(), 

    rdBlkRegCompleteHandler@ptr.data	PTR unsigned char  size(2) Largest target is 0

    rdBlkRegCompleteHandler@ptr	PTR void  size(2) Largest target is 5
		 -> I2C1_ReadDataBlock@bufferBlock(COMRAM[4]), I2C1_Write2ByteRegister@data(COMRAM[2]), I2C1_Write1ByteRegister@data(BANK0[1]), I2C1_Read2ByteRegister@returnValue(COMRAM[2]), 
		 -> NULL(NULL[0]), I2C1_Read1ByteRegister@returnValue(COMRAM[1]), 

    wr2RegCompleteHandler@ptr	PTR void  size(2) Largest target is 5
		 -> I2C1_ReadDataBlock@bufferBlock(COMRAM[4]), I2C1_Write2ByteRegister@data(COMRAM[2]), I2C1_Write1ByteRegister@data(BANK0[1]), I2C1_Read2ByteRegister@returnValue(COMRAM[2]), 
		 -> NULL(NULL[0]), I2C1_Read1ByteRegister@returnValue(COMRAM[1]), 

    wr1RegCompleteHandler@ptr	PTR void  size(2) Largest target is 5
		 -> I2C1_ReadDataBlock@bufferBlock(COMRAM[4]), I2C1_Write2ByteRegister@data(COMRAM[2]), I2C1_Write1ByteRegister@data(BANK0[1]), I2C1_Read2ByteRegister@returnValue(COMRAM[2]), 
		 -> NULL(NULL[0]), I2C1_Read1ByteRegister@returnValue(COMRAM[1]), 

    rd2RegCompleteHandler@ptr	PTR void  size(2) Largest target is 5
		 -> I2C1_ReadDataBlock@bufferBlock(COMRAM[4]), I2C1_Write2ByteRegister@data(COMRAM[2]), I2C1_Write1ByteRegister@data(BANK0[1]), I2C1_Read2ByteRegister@returnValue(COMRAM[2]), 
		 -> NULL(NULL[0]), I2C1_Read1ByteRegister@returnValue(COMRAM[1]), 

    rd1RegCompleteHandler@ptr	PTR void  size(2) Largest target is 5
		 -> I2C1_ReadDataBlock@bufferBlock(COMRAM[4]), I2C1_Write2ByteRegister@data(COMRAM[2]), I2C1_Write1ByteRegister@data(BANK0[1]), I2C1_Read2ByteRegister@returnValue(COMRAM[2]), 
		 -> NULL(NULL[0]), I2C1_Read1ByteRegister@returnValue(COMRAM[1]), 

    S97$data	PTR unsigned char  size(2) Largest target is 0

    bufferBlock.data	PTR unsigned char  size(2) Largest target is 0


Critical Paths under _main in COMRAM

    _printf->_vfprintf
    _vfpfcnvrt->_fputc
    _fputc->_putch
    _putch->_EUSART2_Write
    _SYSTEM_Initialize->_TMR1_Initialize
    _EUSART2_Initialize->_EUSART2_SetErrorHandler
    _EUSART2_Initialize->_EUSART2_SetFramingErrorHandler
    _EUSART2_Initialize->_EUSART2_SetOverrunErrorHandler
    _EUSART2_Initialize->_EUSART2_SetRxInterruptHandler
    _EUSART2_Initialize->_EUSART2_SetTxInterruptHandler
    _I2C1_Write1ByteRegister->_I2C1_SetAddressNackCallback
    _I2C1_Write1ByteRegister->_I2C1_SetDataCompleteCallback
    _I2C1_SetDataCompleteCallback->_I2C1_SetCallback
    _I2C1_SetAddressNackCallback->_I2C1_SetCallback
    _I2C1_Open->_I2C1_SetInterruptHandler
    _I2C1_MasterWrite->_I2C1_MasterOperation

Critical Paths under _INTERRUPT_InterruptManager in COMRAM

    _I2C1_MasterFsm->_I2C1_DO_ADDRESS_NACK
    _I2C1_MasterFsm->_I2C1_DO_RX
    _I2C1_MasterFsm->_I2C1_DO_TX
    _I2C1_MasterFsm->_I2C1_DO_TX_EMPTY
    _I2C1_DO_TX_EMPTY->_I2C1_CallbackReturnReset
    _I2C1_DO_TX_EMPTY->_I2C1_CallbackReturnStop
    _I2C1_DO_TX_EMPTY->_rd1RegCompleteHandler
    _I2C1_DO_TX_EMPTY->_rd2RegCompleteHandler
    _I2C1_DO_TX_EMPTY->_rdBlkRegCompleteHandler
    _I2C1_DO_TX_EMPTY->_wr1RegCompleteHandler
    _I2C1_DO_TX_EMPTY->_wr2RegCompleteHandler
    _I2C1_DO_TX->_I2C1_CallbackReturnReset
    _I2C1_DO_TX->_I2C1_CallbackReturnStop
    _I2C1_DO_TX->_rd1RegCompleteHandler
    _I2C1_DO_TX->_rd2RegCompleteHandler
    _I2C1_DO_TX->_rdBlkRegCompleteHandler
    _I2C1_DO_TX->_wr1RegCompleteHandler
    _I2C1_DO_TX->_wr2RegCompleteHandler
    _I2C1_DO_SEND_ADR_WRITE->_I2C1_MasterSendTxData
    _I2C1_DO_RX->_I2C1_CallbackReturnReset
    _I2C1_DO_RX->_I2C1_CallbackReturnStop
    _I2C1_DO_RX->_rd1RegCompleteHandler
    _I2C1_DO_RX->_rd2RegCompleteHandler
    _I2C1_DO_RX->_rdBlkRegCompleteHandler
    _I2C1_DO_RX->_wr1RegCompleteHandler
    _I2C1_DO_RX->_wr2RegCompleteHandler
    _I2C1_DO_ADDRESS_NACK->_I2C1_CallbackReturnReset
    _I2C1_DO_ADDRESS_NACK->_I2C1_CallbackReturnStop
    _I2C1_DO_ADDRESS_NACK->_rd1RegCompleteHandler
    _I2C1_DO_ADDRESS_NACK->_rd2RegCompleteHandler
    _I2C1_DO_ADDRESS_NACK->_rdBlkRegCompleteHandler
    _I2C1_DO_ADDRESS_NACK->_wr1RegCompleteHandler
    _I2C1_DO_ADDRESS_NACK->_wr2RegCompleteHandler
    _wr2RegCompleteHandler->i2_I2C1_SetDataCompleteCallback
    _wr1RegCompleteHandler->i2_I2C1_SetDataCompleteCallback
    _rdBlkRegCompleteHandler->i2_I2C1_SetDataCompleteCallback
    _rd2RegCompleteHandler->i2_I2C1_SetDataCompleteCallback
    _rd1RegCompleteHandler->i2_I2C1_SetDataCompleteCallback
    i2_I2C1_SetDataCompleteCallback->i2_I2C1_SetCallback

Critical Paths under _main in BANK0

    _main->_printf
    _printf->_vfprintf
    _vfprintf->_vfpfcnvrt
    _vfpfcnvrt->_fputc

Critical Paths under _INTERRUPT_InterruptManager in BANK0

    None.

Critical Paths under _main in BANK1

    None.

Critical Paths under _INTERRUPT_InterruptManager in BANK1

    None.

Critical Paths under _main in BANK2

    None.

Critical Paths under _INTERRUPT_InterruptManager in BANK2

    None.

Critical Paths under _main in BANK3

    None.

Critical Paths under _INTERRUPT_InterruptManager in BANK3

    None.

Critical Paths under _main in BANK4

    None.

Critical Paths under _INTERRUPT_InterruptManager in BANK4

    None.

Critical Paths under _main in BANK5

    None.

Critical Paths under _INTERRUPT_InterruptManager in BANK5

    None.

Critical Paths under _main in BANK6

    None.

Critical Paths under _INTERRUPT_InterruptManager in BANK6

    None.

Critical Paths under _main in BANK7

    None.

Critical Paths under _INTERRUPT_InterruptManager in BANK7

    None.

Critical Paths under _main in BANK8

    None.

Critical Paths under _INTERRUPT_InterruptManager in BANK8

    None.

Critical Paths under _main in BANK9

    None.

Critical Paths under _INTERRUPT_InterruptManager in BANK9

    None.

Critical Paths under _main in BANK10

    None.

Critical Paths under _INTERRUPT_InterruptManager in BANK10

    None.

Critical Paths under _main in BANK11

    None.

Critical Paths under _INTERRUPT_InterruptManager in BANK11

    None.

Critical Paths under _main in BANK12

    None.

Critical Paths under _INTERRUPT_InterruptManager in BANK12

    None.

Critical Paths under _main in BANK13

    None.

Critical Paths under _INTERRUPT_InterruptManager in BANK13

    None.

Critical Paths under _main in BANK14

    None.

Critical Paths under _INTERRUPT_InterruptManager in BANK14

    None.

Call Graph Tables:

 ---------------------------------------------------------------------------------
 (Depth) Function   	        Calls       Base Space   Used Autos Params    Refs
 ---------------------------------------------------------------------------------
 (0) _main                                                 7     7      0   10281
                                             21 BANK0      3     3      0
            _I2C1_Write1ByteRegister
                  _SYSTEM_Initialize
                        _ms8607_init
                _ms8607_is_connected
                             _printf
 ---------------------------------------------------------------------------------
 (1) _printf                                               6     4      2    2105
                                             17 BANK0      4     2      2
                           _vfprintf
 ---------------------------------------------------------------------------------
 (2) _vfprintf                                             8     2      6    1940
                                             29 COMRAM     2     2      0
                                             11 BANK0      6     0      6
                          _vfpfcnvrt
 ---------------------------------------------------------------------------------
 (3) _vfpfcnvrt                                           40    34      6    1479
                                              5 BANK0      6     0      6
                              _fputc
 ---------------------------------------------------------------------------------
 (4) _fputc                                                9     5      4     930
                                             25 COMRAM     4     0      4
                                              0 BANK0      5     5      0
                              _putch
 ---------------------------------------------------------------------------------
 (5) _putch                                                1     1      0      66
                                             24 COMRAM     1     1      0
                      _EUSART2_Write
 ---------------------------------------------------------------------------------
 (6) _EUSART2_Write                                        1     1      0      44
                                             23 COMRAM     1     1      0
 ---------------------------------------------------------------------------------
 (1) _ms8607_is_connected                                  0     0      0       0
 ---------------------------------------------------------------------------------
 (1) _ms8607_init                                          0     0      0       0
 ---------------------------------------------------------------------------------
 (1) _SYSTEM_Initialize                                    0     0      0     605
                     _ADC_Initialize
                 _EUSART2_Initialize
                    _I2C1_Initialize
               _INTERRUPT_Initialize
              _OSCILLATOR_Initialize
             _PIN_MANAGER_Initialize
                    _TMR1_Initialize
                    _TMR2_Initialize
 ---------------------------------------------------------------------------------
 (2) _TMR2_Initialize                                      0     0      0       0
 ---------------------------------------------------------------------------------
 (2) _TMR1_Initialize                                      2     2      0       0
                                             23 COMRAM     2     2      0
 ---------------------------------------------------------------------------------
 (2) _PIN_MANAGER_Initialize                               0     0      0       0
 ---------------------------------------------------------------------------------
 (2) _OSCILLATOR_Initialize                                0     0      0       0
 ---------------------------------------------------------------------------------
 (2) _INTERRUPT_Initialize                                 0     0      0       0
 ---------------------------------------------------------------------------------
 (2) _I2C1_Initialize                                      0     0      0       0
 ---------------------------------------------------------------------------------
 (2) _EUSART2_Initialize                                   0     0      0     605
            _EUSART2_SetErrorHandler
     _EUSART2_SetFramingErrorHandler
     _EUSART2_SetOverrunErrorHandler
      _EUSART2_SetRxInterruptHandler
      _EUSART2_SetTxInterruptHandler
 ---------------------------------------------------------------------------------
 (3) _EUSART2_SetTxInterruptHandler                        2     0      2     121
                                             23 COMRAM     2     0      2
 ---------------------------------------------------------------------------------
 (3) _EUSART2_SetRxInterruptHandler                        2     0      2     121
                                             23 COMRAM     2     0      2
 ---------------------------------------------------------------------------------
 (3) _EUSART2_SetOverrunErrorHandler                       2     0      2     121
                                             23 COMRAM     2     0      2
 ---------------------------------------------------------------------------------
 (3) _EUSART2_SetFramingErrorHandler                       2     0      2     121
                                             23 COMRAM     2     0      2
 ---------------------------------------------------------------------------------
 (3) _EUSART2_SetErrorHandler                              2     0      2     121
                                             23 COMRAM     2     0      2
 ---------------------------------------------------------------------------------
 (2) _ADC_Initialize                                       0     0      0       0
 ---------------------------------------------------------------------------------
 (1) _I2C1_Write1ByteRegister                              3     1      2    7531
                                              0 BANK0      3     1      2
                         _I2C1_Close
                   _I2C1_MasterWrite
                          _I2C1_Open
        _I2C1_SetAddressNackCallback
                     _I2C1_SetBuffer
       _I2C1_SetDataCompleteCallback
 ---------------------------------------------------------------------------------
 (2) _I2C1_SetDataCompleteCallback                         4     0      4    2629
                                             28 COMRAM     4     0      4
                   _I2C1_SetCallback
 ---------------------------------------------------------------------------------
 (2) _I2C1_SetBuffer                                       4     0      4    1872
                                             23 COMRAM     4     0      4
 ---------------------------------------------------------------------------------
 (2) _I2C1_SetAddressNackCallback                          4     0      4    2259
                                             28 COMRAM     4     0      4
                   _I2C1_SetCallback
 ---------------------------------------------------------------------------------
 (3) _I2C1_SetCallback                                     5     1      4    1117
                                             23 COMRAM     5     1      4
 ---------------------------------------------------------------------------------
 (2) _I2C1_Open                                            2     2      0     189
                                             25 COMRAM     2     2      0
                _I2C1_MasterClearIrq
               _I2C1_MasterEnableIrq
                    _I2C1_MasterOpen
           _I2C1_SetInterruptHandler
 ---------------------------------------------------------------------------------
 (3) _I2C1_SetInterruptHandler                             2     0      2     121
                                             23 COMRAM     2     0      2
 ---------------------------------------------------------------------------------
 (3) _I2C1_MasterOpen                                      0     0      0       0
 ---------------------------------------------------------------------------------
 (3) _I2C1_MasterEnableIrq                                 0     0      0       0
 ---------------------------------------------------------------------------------
 (2) _I2C1_MasterWrite                                     0     0      0      68
               _I2C1_MasterOperation
 ---------------------------------------------------------------------------------
 (3) _I2C1_MasterOperation                                 2     2      0      68
                                             23 COMRAM     2     2      0
                   _I2C1_MasterStart
 ---------------------------------------------------------------------------------
 (4) _I2C1_MasterStart                                     0     0      0       0
 ---------------------------------------------------------------------------------
 (2) _I2C1_Close                                           1     1      0      37
                                             23 COMRAM     1     1      0
                _I2C1_MasterClearIrq
                   _I2C1_MasterClose
              _I2C1_MasterDisableIrq
 ---------------------------------------------------------------------------------
 (3) _I2C1_MasterDisableIrq                                0     0      0       0
 ---------------------------------------------------------------------------------
 (3) _I2C1_MasterClose                                     0     0      0       0
 ---------------------------------------------------------------------------------
 (3) _I2C1_MasterClearIrq                                  0     0      0       0
 ---------------------------------------------------------------------------------
 Estimated maximum stack depth 6
 ---------------------------------------------------------------------------------
 (Depth) Function   	        Calls       Base Space   Used Autos Params    Refs
 ---------------------------------------------------------------------------------
 (7) _INTERRUPT_InterruptManager                          10    10      0   17934
                                             13 COMRAM    10    10      0
                   Absolute function *
                _EUSART2_Receive_ISR *
               _EUSART2_Transmit_ISR *
                     _I2C1_MasterIsr *
 ---------------------------------------------------------------------------------
 (8) _I2C1_MasterIsr                                       0     0      0   17934
                     _I2C1_MasterFsm
 ---------------------------------------------------------------------------------
 (9) _I2C1_MasterFsm                                       0     0      0   17934
               _I2C1_DO_ADDRESS_NACK *
                       _I2C1_DO_IDLE *
                       _I2C1_DO_RCEN *
                      _I2C1_DO_RESET *
                         _I2C1_DO_RX *
                     _I2C1_DO_RX_ACK *
            _I2C1_DO_RX_NACK_RESTART *
               _I2C1_DO_RX_NACK_STOP *
              _I2C1_DO_SEND_ADR_READ *
             _I2C1_DO_SEND_ADR_WRITE *
               _I2C1_DO_SEND_RESTART *
          _I2C1_DO_SEND_RESTART_READ *
         _I2C1_DO_SEND_RESTART_WRITE *
                  _I2C1_DO_SEND_STOP *
                         _I2C1_DO_TX *
                   _I2C1_DO_TX_EMPTY *
                  _I2C1_MasterIsNack
              i2_I2C1_MasterClearIrq
 ---------------------------------------------------------------------------------
 (10) i2_I2C1_MasterClearIrq                               0     0      0       0
 ---------------------------------------------------------------------------------
 (10) _I2C1_DO_TX_EMPTY                                    2     2      0    4467
                                             11 COMRAM     2     2      0
                   Absolute function *
           _I2C1_CallbackReturnReset *
            _I2C1_CallbackReturnStop *
               _I2C1_DO_SEND_RESTART
                  _I2C1_DO_SEND_STOP
                  _I2C1_MasterSetIrq
              _rd1RegCompleteHandler *
              _rd2RegCompleteHandler *
            _rdBlkRegCompleteHandler *
              _wr1RegCompleteHandler *
              _wr2RegCompleteHandler *
 ---------------------------------------------------------------------------------
 (11) _I2C1_MasterSetIrq                                   0     0      0       0
 ---------------------------------------------------------------------------------
 (10) _I2C1_DO_TX                                          2     2      0    4489
                                             11 COMRAM     2     2      0
                   Absolute function *
           _I2C1_CallbackReturnReset *
            _I2C1_CallbackReturnStop *
          _I2C1_DO_SEND_RESTART_READ
         _I2C1_DO_SEND_RESTART_WRITE
                  _I2C1_DO_SEND_STOP
                  _I2C1_MasterIsNack
              _I2C1_MasterSendTxData
              _rd1RegCompleteHandler *
              _rd2RegCompleteHandler *
            _rdBlkRegCompleteHandler *
              _wr1RegCompleteHandler *
              _wr2RegCompleteHandler *
 ---------------------------------------------------------------------------------
 (10) _I2C1_MasterIsNack                                   0     0      0       0
 ---------------------------------------------------------------------------------
 (11) _I2C1_DO_SEND_RESTART_WRITE                          0     0      0       0
           _I2C1_MasterEnableRestart
 ---------------------------------------------------------------------------------
 (11) _I2C1_DO_SEND_RESTART_READ                           0     0      0       0
           _I2C1_MasterEnableRestart
 ---------------------------------------------------------------------------------
 (10) _I2C1_DO_SEND_ADR_WRITE                              0     0      0      22
              _I2C1_MasterSendTxData
 ---------------------------------------------------------------------------------
 (10) _I2C1_DO_SEND_ADR_READ                               0     0      0      22
              _I2C1_MasterSendTxData
 ---------------------------------------------------------------------------------
 (11) _I2C1_MasterSendTxData                               1     1      0      22
                                              0 COMRAM     1     1      0
 ---------------------------------------------------------------------------------
 (10) _I2C1_DO_RX_ACK                                      0     0      0       0
                 _I2C1_MasterSendAck
 ---------------------------------------------------------------------------------
 (10) _I2C1_DO_RX                                          2     2      0    4467
                                             11 COMRAM     2     2      0
                   Absolute function *
           _I2C1_CallbackReturnReset *
            _I2C1_CallbackReturnStop *
            _I2C1_DO_RX_NACK_RESTART
               _I2C1_DO_RX_NACK_STOP
               _I2C1_MasterGetRxData
                 _I2C1_MasterSendAck
              _rd1RegCompleteHandler *
              _rd2RegCompleteHandler *
            _rdBlkRegCompleteHandler *
              _wr1RegCompleteHandler *
              _wr2RegCompleteHandler *
 ---------------------------------------------------------------------------------
 (11) _I2C1_MasterSendAck                                  0     0      0       0
 ---------------------------------------------------------------------------------
 (11) _I2C1_MasterGetRxData                                0     0      0       0
 ---------------------------------------------------------------------------------
 (10) _I2C1_DO_RX_NACK_STOP                                0     0      0       0
                _I2C1_MasterSendNack
 ---------------------------------------------------------------------------------
 (10) _I2C1_DO_RX_NACK_RESTART                             0     0      0       0
                _I2C1_MasterSendNack
 ---------------------------------------------------------------------------------
 (11) _I2C1_MasterSendNack                                 0     0      0       0
 ---------------------------------------------------------------------------------
 (10) _I2C1_DO_RESET                                       0     0      0       0
 ---------------------------------------------------------------------------------
 (10) _I2C1_DO_RCEN                                        0     0      0       0
                 _I2C1_MasterStartRx
 ---------------------------------------------------------------------------------
 (11) _I2C1_MasterStartRx                                  0     0      0       0
 ---------------------------------------------------------------------------------
 (10) _I2C1_DO_IDLE                                        0     0      0       0
 ---------------------------------------------------------------------------------
 (10) _I2C1_DO_ADDRESS_NACK                                2     2      0    4467
                                             11 COMRAM     2     2      0
                   Absolute function *
           _I2C1_CallbackReturnReset *
            _I2C1_CallbackReturnStop *
               _I2C1_DO_SEND_RESTART
                  _I2C1_DO_SEND_STOP
              _rd1RegCompleteHandler *
              _rd2RegCompleteHandler *
            _rdBlkRegCompleteHandler *
              _wr1RegCompleteHandler *
              _wr2RegCompleteHandler *
 ---------------------------------------------------------------------------------
 (11) _wr2RegCompleteHandler                               2     0      2     836
                                              9 COMRAM     2     0      2
                   i2_I2C1_SetBuffer
     i2_I2C1_SetDataCompleteCallback
 ---------------------------------------------------------------------------------
 (11) _wr1RegCompleteHandler                               2     0      2     836
                                              9 COMRAM     2     0      2
                   i2_I2C1_SetBuffer
     i2_I2C1_SetDataCompleteCallback
 ---------------------------------------------------------------------------------
 (11) _rdBlkRegCompleteHandler                             2     0      2     858
                                              9 COMRAM     2     0      2
                   i2_I2C1_SetBuffer
     i2_I2C1_SetDataCompleteCallback
 ---------------------------------------------------------------------------------
 (11) _rd2RegCompleteHandler                               2     0      2     836
                                              9 COMRAM     2     0      2
                   i2_I2C1_SetBuffer
     i2_I2C1_SetDataCompleteCallback
 ---------------------------------------------------------------------------------
 (11) _rd1RegCompleteHandler                               2     0      2     836
                                              9 COMRAM     2     0      2
                   i2_I2C1_SetBuffer
     i2_I2C1_SetDataCompleteCallback
 ---------------------------------------------------------------------------------
 (12) i2_I2C1_SetDataCompleteCallback                      4     0      4     510
                                              5 COMRAM     4     0      4
                 i2_I2C1_SetCallback
 ---------------------------------------------------------------------------------
 (13) i2_I2C1_SetCallback                                  5     1      4     206
                                              0 COMRAM     5     1      4
 ---------------------------------------------------------------------------------
 (12) i2_I2C1_SetBuffer                                    4     0      4     304
                                              0 COMRAM     4     0      4
 ---------------------------------------------------------------------------------
 (11) _I2C1_DO_SEND_STOP                                   0     0      0       0
                    _I2C1_MasterStop
 ---------------------------------------------------------------------------------
 (12) _I2C1_MasterStop                                     0     0      0       0
 ---------------------------------------------------------------------------------
 (11) _I2C1_DO_SEND_RESTART                                0     0      0       0
           _I2C1_MasterEnableRestart
 ---------------------------------------------------------------------------------
 (12) _I2C1_MasterEnableRestart                            0     0      0       0
 ---------------------------------------------------------------------------------
 (11) _I2C1_CallbackReturnStop                             2     0      2       0
                                              9 COMRAM     2     0      2
 ---------------------------------------------------------------------------------
 (11) _I2C1_CallbackReturnReset                            2     0      2     265
                                              9 COMRAM     2     0      2
 ---------------------------------------------------------------------------------
 (8) _EUSART2_Transmit_ISR                                 0     0      0       0
 ---------------------------------------------------------------------------------
 (8) _EUSART2_Receive_ISR                                  0     0      0       0
                   Absolute function *
        _EUSART2_DefaultErrorHandler *
 _EUSART2_DefaultFramingErrorHandler *
 _EUSART2_DefaultOverrunErrorHandler *
              _EUSART2_RxDataHandler
 ---------------------------------------------------------------------------------
 (9) _EUSART2_DefaultOverrunErrorHandler                   0     0      0       0
 ---------------------------------------------------------------------------------
 (9) _EUSART2_DefaultFramingErrorHandler                   0     0      0       0
 ---------------------------------------------------------------------------------
 (9) _EUSART2_DefaultErrorHandler                          0     0      0       0
              _EUSART2_RxDataHandler
 ---------------------------------------------------------------------------------
 (9) _EUSART2_RxDataHandler                                0     0      0       0
 ---------------------------------------------------------------------------------
 (11) Absolute function(Fake)                              2     0      2       0
 ---------------------------------------------------------------------------------
 Estimated maximum stack depth 13
 ---------------------------------------------------------------------------------

 Call Graph Graphs:

 _main (ROOT)
   _I2C1_Write1ByteRegister
     _I2C1_Close
       _I2C1_MasterClearIrq
       _I2C1_MasterClose
       _I2C1_MasterDisableIrq
     _I2C1_MasterWrite
       _I2C1_MasterOperation
         _I2C1_MasterStart
     _I2C1_Open
       _I2C1_MasterClearIrq
       _I2C1_MasterEnableIrq
       _I2C1_MasterOpen
       _I2C1_SetInterruptHandler
     _I2C1_SetAddressNackCallback
       _I2C1_SetCallback
     _I2C1_SetBuffer
     _I2C1_SetDataCompleteCallback
       _I2C1_SetCallback
   _SYSTEM_Initialize
     _ADC_Initialize
     _EUSART2_Initialize
       _EUSART2_SetErrorHandler
       _EUSART2_SetFramingErrorHandler
       _EUSART2_SetOverrunErrorHandler
       _EUSART2_SetRxInterruptHandler
       _EUSART2_SetTxInterruptHandler
     _I2C1_Initialize
     _INTERRUPT_Initialize
     _OSCILLATOR_Initialize
     _PIN_MANAGER_Initialize
     _TMR1_Initialize
     _TMR2_Initialize
   _ms8607_init
   _ms8607_is_connected
   _printf
     _vfprintf
       _vfpfcnvrt
         _fputc
           _putch
             _EUSART2_Write

 _INTERRUPT_InterruptManager (ROOT)
   Absolute function(Fake) *
   _EUSART2_Receive_ISR *
     Absolute function(Fake) *
     _EUSART2_DefaultErrorHandler *
       _EUSART2_RxDataHandler
     _EUSART2_DefaultFramingErrorHandler *
     _EUSART2_DefaultOverrunErrorHandler *
     _EUSART2_RxDataHandler *
   _EUSART2_Transmit_ISR *
   _I2C1_MasterIsr *
     _I2C1_MasterFsm
       _I2C1_DO_ADDRESS_NACK *
         Absolute function(Fake) *
         _I2C1_CallbackReturnReset *
         _I2C1_CallbackReturnStop *
         _I2C1_DO_SEND_RESTART *
           _I2C1_MasterEnableRestart
         _I2C1_DO_SEND_STOP *
           _I2C1_MasterStop
         _rd1RegCompleteHandler *
           i2_I2C1_SetBuffer
           i2_I2C1_SetDataCompleteCallback
             i2_I2C1_SetCallback
         _rd2RegCompleteHandler *
           i2_I2C1_SetBuffer
           i2_I2C1_SetDataCompleteCallback
         _rdBlkRegCompleteHandler *
           i2_I2C1_SetBuffer
           i2_I2C1_SetDataCompleteCallback
         _wr1RegCompleteHandler *
           i2_I2C1_SetBuffer
           i2_I2C1_SetDataCompleteCallback
         _wr2RegCompleteHandler *
           i2_I2C1_SetBuffer
           i2_I2C1_SetDataCompleteCallback
       _I2C1_DO_IDLE *
       _I2C1_DO_RCEN *
         _I2C1_MasterStartRx
       _I2C1_DO_RESET *
       _I2C1_DO_RX *
         Absolute function(Fake) *
         _I2C1_CallbackReturnReset *
         _I2C1_CallbackReturnStop *
         _I2C1_DO_RX_NACK_RESTART *
           _I2C1_MasterSendNack
         _I2C1_DO_RX_NACK_STOP *
           _I2C1_MasterSendNack
         _I2C1_MasterGetRxData *
         _I2C1_MasterSendAck *
         _rd1RegCompleteHandler *
         _rd2RegCompleteHandler *
         _rdBlkRegCompleteHandler *
         _wr1RegCompleteHandler *
         _wr2RegCompleteHandler *
       _I2C1_DO_RX_ACK *
         _I2C1_MasterSendAck
       _I2C1_DO_RX_NACK_RESTART *
       _I2C1_DO_RX_NACK_STOP *
       _I2C1_DO_SEND_ADR_READ *
         _I2C1_MasterSendTxData
       _I2C1_DO_SEND_ADR_WRITE *
         _I2C1_MasterSendTxData
       _I2C1_DO_SEND_RESTART *
       _I2C1_DO_SEND_RESTART_READ *
         _I2C1_MasterEnableRestart
       _I2C1_DO_SEND_RESTART_WRITE *
         _I2C1_MasterEnableRestart
       _I2C1_DO_SEND_STOP *
       _I2C1_DO_TX *
         Absolute function(Fake) *
         _I2C1_CallbackReturnReset *
         _I2C1_CallbackReturnStop *
         _I2C1_DO_SEND_RESTART_READ *
         _I2C1_DO_SEND_RESTART_WRITE *
         _I2C1_DO_SEND_STOP *
         _I2C1_MasterIsNack *
         _I2C1_MasterSendTxData *
         _rd1RegCompleteHandler *
         _rd2RegCompleteHandler *
         _rdBlkRegCompleteHandler *
         _wr1RegCompleteHandler *
         _wr2RegCompleteHandler *
       _I2C1_DO_TX_EMPTY *
         Absolute function(Fake) *
         _I2C1_CallbackReturnReset *
         _I2C1_CallbackReturnStop *
         _I2C1_DO_SEND_RESTART *
         _I2C1_DO_SEND_STOP *
         _I2C1_MasterSetIrq *
         _rd1RegCompleteHandler *
         _rd2RegCompleteHandler *
         _rdBlkRegCompleteHandler *
         _wr1RegCompleteHandler *
         _wr2RegCompleteHandler *
       _I2C1_MasterIsNack *
       i2_I2C1_MasterClearIrq *

 Address spaces:
Name               Size   Autos  Total    Cost      Usage
BIGRAM             EAF      0       0      52        0.0%
BITBANK13          100      0       0      29        0.0%
BANK13             100      0       0      30        0.0%
BITBANK12          100      0       0      27        0.0%
BANK12             100      0       0      28        0.0%
BITBANK11          100      0       0      25        0.0%
BANK11             100      0       0      26        0.0%
BITBANK10          100      0       0      23        0.0%
BANK10             100      0       0      24        0.0%
BITBANK9           100      0       0      21        0.0%
BANK9              100      0       0      22        0.0%
BITBANK8           100      0       0      19        0.0%
BANK8              100      0       0      20        0.0%
BITBANK7           100      0       0      17        0.0%
BANK7              100      0       0      18        0.0%
BITBANK6           100      0       0      15        0.0%
BANK6              100      0       0      16        0.0%
BITBANK5           100      0       0      13        0.0%
BANK5              100      0       0      14        0.0%
BITBANK4           100      0       0      11        0.0%
BANK4              100      0       0      12        0.0%
BITBANK3           100      0       0       9        0.0%
BANK3              100      0       0      10        0.0%
BITBANK2           100      0       0       7        0.0%
BANK2              100      0       0       8        0.0%
BITBANK1           100      0       0       5        0.0%
BANK1              100      0       0       6        0.0%
BITBANK14           B0      0       0      31        0.0%
BANK14              B0      0       0      32        0.0%
BITBANK0            A0      0       0       3        0.0%
BANK0               A0     18      6C       4       67.5%
BITCOMRAM           5E      0       0       0        0.0%
COMRAM              5E     20      47       1       75.5%
BITBIGSFRlllh       45      0       0      47        0.0%
BITBIGSFRllhh       32      0       0      44        0.0%
BITBIGSFRllllh      30      0       0      48        0.0%
BITBIGSFRhhhhl      1D      0       0      34        0.0%
BITBIGSFRhhhlll     15      0       0      36        0.0%
BITBIGSFRlllllh      D      0       0      49        0.0%
BITBIGSFRhhhhh       D      0       0      33        0.0%
BITBIGSFRlhll        9      0       0      43        0.0%
BITBIGSFRllllll      8      0       0      50        0.0%
BITBIGSFRlhlhhl      6      0       0      41        0.0%
BITBIGSFRllhlh       5      0       0      45        0.0%
BITBIGSFRlhlhhh      5      0       0      40        0.0%
BITBIGSFRhl          3      0       0      37        0.0%
BITBIGSFRhhhlhh      2      0       0      35        0.0%
BITBIGSFRllhll       2      0       0      46        0.0%
BITBIGSFRlhhh        1      0       0      38        0.0%
BITBIGSFRlhlhl       1      0       0      42        0.0%
BITBIGSFRlhhl        1      0       0      39        0.0%
BIGSFR               0      0       0     200        0.0%
BITSFR_2             0      0       0     200        0.0%
SFR_2                0      0       0     200        0.0%
BITSFR_1             0      0       0     200        0.0%
SFR_1                0      0       0     200        0.0%
BITSFR               0      0       0     200        0.0%
SFR                  0      0       0     200        0.0%
STACK                0      0       0       2        0.0%
NULL                 0      0       0       0        0.0%
ABS                  0      0      B3      51        0.0%
DATA                 0      0      B3      53        0.0%
CODE                 0      0       0       0        0.0%


Microchip Technology PIC18 Macro Assembler V2.35 build 20211206165544 
Symbol Table                                                                                   Wed Apr 20 14:48:55 2022

                        ?_EUSART2_RxDataHandler 000000                                              l53 000070  
                                           l203 000012                                             l204 000028  
                                           l213 000008                                             l207 000054  
                                           l242 000008                                             l403 00002A  
                                           l251 000008                                             l245 000008  
                                           l422 000022                                             l254 000008  
                                           l415 000006                                             l431 000016  
                                           l440 000008                                             l248 000008  
                                           l409 00003E                                             l425 000016  
                                           l179 000072                                             l283 000020  
                                           l612 000002                                             l445 000078  
                                           l606 000002                                             l286 000012  
                                           l615 000002                                             l395 000012  
                                           l564 000020                                             l718 000002  
                                           l567 000002                                             l399 00009C  
                                           l752 000028                                             l585 000002  
                                           l658 00003A                                             l674 00000E  
                                           l860 000082                                             l852 00002C  
                                           l855 00004A                                             l858 000066  
                                           l799 00001C                                             _PR2 000FCB  
                             ?i2_I2C1_SetBuffer 000000                           ?_I2C1_MasterOperation 000000  
        __end_of_EUSART2_SetFramingErrorHandler 00000A                  _EUSART2_SetFramingErrorHandler 000000  
                               _timer1ReloadVal 000000                                 _TMR2_Initialize 000000  
                                           prod 000FF3                                             tosl 000FFD  
                                           wreg 000FE8                          ?_I2C1_MasterSendTxData 000000  
                                    _TXSTA2bits 000FA8                            _I2C1_DO_RX_NACK_STOP 000000  
                     ?_I2C1_MasterEnableRestart 000000                        fp__I2C1_DO_SEND_ADR_READ 000000  
                            ??i2_I2C1_SetBuffer 000004                         fp__I2C1_DO_SEND_RESTART 000000  
                          I2C1_SetBuffer@buffer 000017                         ??_rd2RegCompleteHandler 00000B  
                                          l1544 000026                                            l1582 000058  
                                          l1583 000060                                            l3601 000014  
                                          l3521 00002A                                            l1577 0000EC  
                                          l3603 000048                                            l3523 00003A  
                                          l3531 000052                                            l3515 000002  
                                          l1595 000096                                            l3611 000042  
                                          l3701 000000                                            l3525 00003C  
                                          l3517 000002                                            l3533 000002  
                                          l3541 000024                                            l3613 000046  
                                          l3605 000000                                            l3711 000018  
                                          l3535 000000                                            l3551 000000  
                                          l3527 00004C                                            l3519 000020  
                                          l3543 00002E                                            l3631 0000DA  
                                          l3615 00006A                                            l3623 00009A  
                                          l3607 000024                                            l3713 000024  
                                          l3705 000000                                            l3561 000000  
                                          l3641 000016                                            l3553 000000  
                                          l3721 000002                                            l3801 000014  
                                          l3529 000050                                            l3545 00004C  
                                          l3537 000000                                            l3625 0000A8  
                                          l3617 000078                                            l3609 000032  
                                          l3563 000000                                            l3715 000028  
                                          l3707 000004                                            l3651 000024  
                                          l3643 00001A                                            l3555 000000  
                                          l3731 000028                                            l3723 00000E  
                                          l3803 000018                                            l3547 000084  
                                          l3539 000012                                            l3619 00008C  
                                          l3709 000014                                            l3581 000006  
                                          l3573 000000                                            l3565 000000  
                                          l3661 000046                                            l3653 00002C  
                                          l3645 00001C                                            l3637 000002  
                                          l3557 000000                                            l3741 000070  
                                          l3733 00002C                                            l3725 00001C  
                                          l3805 00001C                                            l3629 0000B6  
                                          l3575 000000                                            l3591 000034  
                                          l3583 000016                                            l3567 00000E  
                                          l3671 00006E                                            l3663 00004E  
                                          l3655 00002E                                            l3647 00001E  
                                          l3639 000006                                            l3559 000000  
                                          l3735 000030                                            l3727 000020  
                                          l3719 000000                                            l3743 000000  
                                          l3751 000022                                            l3807 000000  
                                          l3911 000006                                            l3577 000000  
                                          l3593 000038                                            l3585 000018  
                                          l3569 00001E                                            l3681 000092  
                                          l3673 000076                                            l3665 000056  
                                          l3657 000036                                            l3649 000020  
                                          l3737 00003C                                            l3729 000024  
                                          l3745 000000                                            l3753 000000  
                                          l3761 000000                                            l3809 00000A  
                                          l3921 00000E                                            l3913 000008  
                                          l3587 00001C                                            l3595 00003C  
                                          l3579 000002                                            l3683 000096  
                                          l3675 00007E                                            l3667 00005E  
                                          l3659 00003E                                            l3691 000000  
                                          l3755 000000                                            l3739 000048  
                                          l3747 000010                                            l3763 00000C  
                                          l3771 000008                                            l3931 000048  
                                          l3923 000014                                            l3915 00000A  
                                          l3907 000000                                            l3589 00002C  
                                          l3677 00008A                                            l3669 000066  
                                          l3685 00009A                                            l3693 000010  
                                          l3781 00001C                                            l3749 000000  
                                          l3765 00000E                                            l3757 000000  
                                          l3773 000014                                            l3941 0000BA  
                                          l3933 000064                                            l3925 000014  
                                          l3917 00000C                                            l3909 000004  
                                          l3679 00008E                                            l3599 000002  
                                          l3695 000018                                            l3783 000030  
                                          l3767 000024                                            l3759 000008  
                                          l3791 000000                                            l3775 00003C  
                                          l3935 000080                                            l3927 000018  
                                          l3919 00000E                                            l3697 000020  
                                          l3689 000000                                            l3785 000044  
                                          l3777 000004                                            l3793 000004  
                                          l3769 000000                                            l3937 00009C  
                                          l3929 00002E                                            l3699 000000  
                                          l3787 000058                                            l3779 000004  
                                          l3795 000008                                            l3939 0000AA  
                                          l3789 00005C                                            l3797 00000C  
                                          l3799 000010                                            STR_1 000021  
                                          u1500 00000E                                            u1501 00000A  
                                          _LATA 000F89                                            u1510 000016  
                                          u1430 000012                                            _LATB 000F8A  
                                          u1511 000012                                            u1431 00000E  
                                          _LATC 000F8B                                            u1520 00002C  
                                          u1600 00001C                                            u1440 000020  
                                          u1521 000028                                            u1601 000018  
                                          u1441 00001C                                            u1530 000014  
                                          u1610 000070                                            u1450 00004C  
                                          u1531 000010                                            u1611 00006C  
                                          u1451 000048                                            u1460 000012  
                                          u1540 000024                                            u1461 00000E  
                                          u1541 000020                                            u1470 000024  
                                          u1550 00006A                                            u1471 000020  
                                          u1551 000066                                            u1560 000016  
                                          u1480 00004C                                            u1561 000012  
                                          u1481 000048                                            u1570 000010  
                                          u1490 000084                                            u1571 00000C  
                                          u1491 000080                                            u1580 000014  
                                          u1740 00002C                                            u1581 000010  
                                          u1741 000028                                            u1590 000058  
                                          u1591 000054                                            u1757 00003A  
                                          u1767 000056                                            u1777 000072  
                                          u1787 00008E                                            i2l92 00002A  
                                          i2l95 00002A                                            i2l98 00002A  
                                          _TMR2 000FCC                           ??_EUSART2_Receive_ISR 000000  
                       ??_wr2RegCompleteHandler 00000B                                ??_I2C1_MasterFsm 00000D  
                              ??_I2C1_MasterIsr 00000D                                   _EUSART2_Write 000000  
                     ??_I2C1_CallbackReturnStop 00000B                                            _dbuf 000024  
                                          _main 000000                                            _prec 000014  
                                          _nout 000010                                            fsr1h 000FE2  
                                          fsr2h 000FDA                                            indf2 000FDF  
                                          fsr1l 000FE1                                            fsr2l 000FD9  
                                          btemp 000000                                            prodh 000FF4  
                                          prodl 000FF3                                            start 000000* 
                              ??_I2C1_SetBuffer 00001B                    __end_of_EUSART2_Transmit_ISR 000040  
                                  ___param_bank 000000                              i2_I2C1_SetCallback 000000  
                 I2C1_CallbackReturnStop@funPtr 000009                   __end_of_OSCILLATOR_Initialize 000014  
                           ?i2_I2C1_SetCallback 000000                               __end_of_I2C1_Open 00009E  
                                         ?_main 000000                                           _T1CON 000FCD  
                                         _T2CON 000FCA                                           i2l101 00002A  
                                         i2l104 00003E                                           i2l230 000028  
                                         i2l216 00003C                                           i2l233 000000  
                                         i2l226 0000C0                                           i2l219 00003E  
                                         i2l236 000004                                           i2l422 000022  
                                         i2l239 000004                                           i2l425 000016  
                                         i2l522 000006                                           i2l531 000006  
                                         i2l516 000006                                           i2l452 000062  
                                         i2l445 000078                                           i2l461 00000E  
                                         i2l525 000006                                           i2l534 000006  
                                         i2l551 000002                                           i2l455 00000A  
                                         i2l519 000006                                           i2l543 00006A  
                                         i2l615 000002                                           i2l464 00008E  
                                         i2l480 000036                                           i2l528 000006  
                                         i2l448 000004                                           i2l481 0000A6  
                                         i2l537 00000A                                           i2l554 000002  
                                         i2l570 000002                                           i2l618 000002  
                                         i2l458 00000E                                           i2l467 0000C6  
                                         i2l492 00000A                                           i2l724 000072  
                                         i2l573 000006                                           i2l733 000108  
                                         i2l582 000002                                           i2l726 0000AE  
                                         i2l591 000012                                           i2l727 000108  
                                         i2l576 000002                                           i2l728 0000E8  
                                         i2l594 000004                                           i2l498 00007C  
                                         i2l588 000002                                           i2l597 000004  
                    __end_of_i2c1_fsmStateTable 000021                                    vfpfcnvrt@fmt 000007  
                        ??_I2C1_MasterEnableIrq 000017                                           _TMR1H 000FCF  
                                         _TMR1L 000FCE                                           _RPOR6 000EC6  
                                         _TRISA 000F92                                           _TRISB 000F93  
                                         _TRISC 000F94                          ??_I2C1_MasterGetRxData 000000  
                         ?_I2C1_DO_RX_NACK_STOP 000000                      ??_I2C1_CallbackReturnReset 00000B  
                             ??_I2C1_MasterOpen 000017                               ??_I2C1_MasterStop 000000  
                             ??_I2C1_Initialize 000017                                           _flags 000016  
                                         _fputc 000000                                           _width 000012  
                                         _putch 000000                         __end_of_TMR1_Initialize 00002A  
                                ?_EUSART2_Write 000000                                           pclath 000FFA  
                                         pclatu 000FFB                                           tablat 000FF5  
                          ??i2_I2C1_SetCallback 000004                                           ttemp5 000001  
                                         ttemp6 000004                                           ttemp7 000008  
                                         status 000FD8                                           wtemp8 000001  
                                  ??_I2C1_DO_RX 00000B                                    ??_I2C1_DO_TX 00000B  
                        ??_I2C1_DO_ADDRESS_NACK 00000B                                    ??_I2C1_Close 000017  
         __end_of_EUSART2_SetTxInterruptHandler 00000A                   _EUSART2_SetTxInterruptHandler 000000  
                      fp__rd1RegCompleteHandler 000000                                 __initialization 000000  
                                  __end_of_main 0000D2                        fp__wr1RegCompleteHandler 000000  
                       __end_of_TMR2_Initialize 000010                     ?_INTERRUPT_InterruptManager 000000  
                  fp__I2C1_DO_SEND_RESTART_READ 000000                          ??_I2C1_MasterOperation 000017  
                                        ??_main 000015                                   __activetblptr 000002  
           __end_of_EUSART2_DefaultErrorHandler 000006                     _EUSART2_DefaultErrorHandler 000000  
                            __end_of_I2C1_DO_RX 0000A8                              __end_of_I2C1_DO_TX 0000C8  
                            __end_of_I2C1_Close 00002C                      __end_of_EUSART2_Initialize 000074  
                                        _ADCON0 000FC2                                          _ADCON1 000FC1  
                      _eusart2TxBufferRemaining 000004                                          ?_fputc 000019  
                                        _ADRESH 000FC4                                          _ADRESL 000FC3  
                                        _ANCON0 000F48                                          _ANCON1 000F49  
                                        ?_putch 000000                                          _T1GCON 000F9A  
                                        _ODCON1 000F42                                          _ODCON2 000F41  
                                        _ODCON3 000F40                                          i2l3201 000036  
                                        i2l3025 000000                                          i2l3211 000048  
                                        i2l3203 000000                                          i2l3133 000000  
                                        i2l3221 0000BC                                          i2l3213 000056  
                                        i2l3205 000010                                          i2l3141 000014  
                                        i2l3135 000000                                          i2l3215 000064  
                                        i2l3207 00001E                                          i2l4031 000056  
                                        i2l3143 000028                                          i2l3217 000080  
                                        i2l3209 00002C                                          i2l4025 000054  
                                        i2l3145 00002E                                          i2l3137 000000  
                                        i2l3219 00009C                                          i2l4027 000080  
                                        i2l3139 000004                                          i2l2701 000000  
                                        i2l4029 000068                                          i2l3191 000000  
                                        i2l3239 000000                                          i2l3193 000010  
                                        i2l2641 000048                                          i2l2705 000002  
                                        i2l2713 000000                                          i2l2721 000004  
                                        i2l3195 000020                                          i2l2643 000000  
                                        i2l2651 000010                                          i2l2707 000000  
                                        i2l2715 000004                                          i2l2731 000000  
                                        i2l3197 000022                                          i2l2645 000000  
                                        i2l2653 000018                                          i2l2637 000002  
                                        i2l2661 000014                                          i2l2725 000000  
                                        i2l2901 000014                                          i2l2709 000004  
                                        i2l2733 000004                                          i2l3381 000046  
                                        i2l3199 000032                                          i2l2655 000020  
                                        i2l2639 000014                                          i2l2663 000028  
                                        i2l2671 000028                                          i2l2743 000000  
                                        i2l2647 000000                                          i2l2751 000000  
                                        i2l2911 00003C                                          i2l2903 00002C  
                                        i2l2719 000000                                          i2l3391 0000CA  
                                        i2l3383 000054                                          i2l2649 000000  
                                        i2l2657 000000                                          i2l2753 000000  
                                        i2l2729 000000                                          i2l2841 000004  
                                        i2l2921 00004C                                          i2l2905 000030  
                                        i2l2745 000000                                          i2l2737 000000  
                                        i2l3393 0000F6                                          i2l3385 000080  
                                        i2l3377 00002A                                          i2l2683 000000  
                                        i2l2659 000000                                          i2l2667 000000  
                                        i2l2675 000000                                          i2l2691 000000  
                                        i2l2843 000008                                          i2l2851 00000C  
                                        i2l2915 000044                                          i2l2931 000008  
                                        i2l2747 000004                                          i2l2739 000004  
                                        i2l3387 00008E                                          i2l3379 000038  
                                        i2l2685 000014                                          i2l2669 000014  
                                        i2l2677 000014                                          i2l2693 000028  
                                        i2l2757 000000                                          i2l2941 000010  
                                        i2l3389 0000BC                                          i2l2791 000022  
                                        i2l2687 000028                                          i2l2679 000028  
                                        i2l2695 00003C                                          i2l2943 000014  
                                        i2l2935 000000                                          i2l2839 000000  
                                        i2l2847 000000                                          i2l2855 000000  
                                        i2l2871 000020                                          i2l2863 000000  
                                        i2l2927 000000                                          i2l2793 000026  
                                        i2l2785 000000                                          i2l2937 000008  
                                        i2l2953 000022                                          i2l2849 000004  
                                        i2l2857 000004                                          i2l2881 000030  
                                        i2l2929 000004                                          i2l2961 000004  
                                        i2l2787 000010                                          i2l2947 00001A  
                                        i2l2859 00000C                                          i2l2883 000092  
                                        i2l2875 000028                                          i2l2867 000018  
                                        i2l2789 000012                                          i2l2885 0000A4  
                                        i2l2965 000000                                          i2l2981 000014  
                                        i2l2973 000000                                          i2l2887 0000BE  
                                        i2l2959 000000                                          i2l2967 000004  
                                        i2l2975 000004                                          i2l2889 0000C4  
                                        i2l2897 000000                                          i2l2969 000008  
                                        i2l2977 00000C                                          i2l2899 00000E  
                                        i2l2987 00001C                                          _RCREG2 000FAA  
                                        _RCSTA2 000F9C                                          _OSCCON 000FD3  
                                        _SPBRG2 000FAB                               ?_I2C1_MasterClose 000000  
                                        _TXREG2 000FA9                                          _TXSTA2 000FA8  
                       ??_I2C1_MasterDisableIrq 000017                               ?_I2C1_MasterStart 000000  
                             ?_I2C1_MasterWrite 000000                              ??_I2C1_MasterClose 000017  
                              _I2C1_DO_TX_EMPTY 000000                              ??_I2C1_MasterStart 000017  
                            ??_I2C1_MasterWrite 000019                                    vfprintf@cfmt 00001D  
                      ?_I2C1_Write1ByteRegister 000000                                          clear_0 000006  
                                        clear_1 000012                                          isa$std 000001  
                   _EUSART2_FramingErrorHandler 000004                                          _printf 000000  
                      ??_I2C1_DO_SEND_ADR_WRITE 000001                               ?_I2C1_SetCallback 000017  
                        ??_I2C1_DO_RX_NACK_STOP 000000                __end_of_I2C1_SetInterruptHandler 00000A  
                         _I2C1_DO_SEND_ADR_READ 000000                                          fputc@c 000019  
                 ?_I2C1_SetDataCompleteCallback 00001C                              ??_I2C1_SetCallback 00001B  
                                  __mediumconst 000000*                                         tblptrh 000FF7  
                                        tblptrl 000FF6                                          tblptru 000FF8  
                          _EUSART2_Transmit_ISR 000000                                __end_of_vfprintf 000062  
                               ??_EUSART2_Write 000017        I2C1_SetInterruptHandler@InterruptHandler 000017  
                       _I2C1_DO_RX_NACK_RESTART 000000                      fp__I2C1_DO_RX_NACK_RESTART 000000  
                         i2_I2C1_MasterClearIrq 000000                                 _eusart2RxBuffer 000044  
                              ?_TMR1_Initialize 000000                               _SYSTEM_Initialize 000000  
                I2C1_SetDataCompleteCallback@cb 00001C                i2I2C1_SetDataCompleteCallback@cb 000005  
                               _eusart2TxBuffer 000008                                      __accesstop 000000* 
                       __end_of__initialization 000018                 I2C1_MasterOperation@returnValue 000018  
                            ?_SYSTEM_Initialize 000000                                   ___rparam_used 000001  
                       ??_EUSART2_RxDataHandler 000000                         _rdBlkRegCompleteHandler 000000  
                    fp__rdBlkRegCompleteHandler 000000                                  __pcstackCOMRAM 000000  
                           ??_SYSTEM_Initialize 000019                __end_of_I2C1_MasterEnableRestart 000004  
                                 __end_of_fputc 000098                  ?_EUSART2_SetTxInterruptHandler 000017  
                                 __end_of_putch 00000A                                ?_TMR2_Initialize 000000  
                  ??_I2C1_DO_SEND_RESTART_WRITE 000000                         ??_I2C1_MasterSendTxData 000000  
                      ?_EUSART2_SetErrorHandler 000017                           ?_EUSART2_Transmit_ISR 000000  
                         __end_of_I2C1_DO_RESET 00000C                                         ??_fputc 000000  
                     __end_of_SYSTEM_Initialize 000022                                         ??_putch 000018  
                                 _eusart2RxHead 00001F                                   _eusart2TxHead 000021  
                                    __pbssBANK0 000000                                   _eusart2RxTail 00001E  
                                 _eusart2TxTail 000020                                   ??_ms8607_init 000000  
                 __end_of_rd2RegCompleteHandler 00002C                            I2C1_Open@returnValue 00001A  
              ??_EUSART2_SetFramingErrorHandler 000019                 ?_EUSART2_SetFramingErrorHandler 000017  
                                    __pnvCOMRAM 000000                   __end_of_wr2RegCompleteHandler 00002C  
               __end_of_I2C1_Write1ByteRegister 000072                      i2I2C1_SetBuffer@bufferSize 000002  
                         _rd1RegCompleteHandler 000000                               _I2C1_DO_SEND_STOP 000000  
                         _wr1RegCompleteHandler 000000                        rd1RegCompleteHandler@ptr 000009  
                                 fp__I2C1_DO_RX 000000                                   fp__I2C1_DO_TX 000000  
                               fp__I2C1_DO_IDLE 000000                                 fp__I2C1_DO_RCEN 000000  
                       fp__I2C1_DO_ADDRESS_NACK 000000                              ?_I2C1_DO_SEND_STOP 000000  
                               _I2C1_MasterOpen 000000                                 _I2C1_MasterStop 000000  
                               _I2C1_Initialize 000000                                         _ADCTRIG 000EB8  
                             fp__I2C1_DO_RX_ACK 000000                                         ?_printf 000011  
                        ?_I2C1_DO_SEND_ADR_READ 000000                             ??_I2C1_DO_SEND_STOP 000000  
                         _eusart2RxStatusBuffer 000000                                         _REFOCON 000F3D  
                             _I2C1_MasterIsNack 000000                                         _OSCCON2 000F87  
                                     _I2C1_Open 000000                     __end_of_EUSART2_Receive_ISR 0000C2  
                     ??_I2C1_DO_RX_NACK_RESTART 000000                                         _OSCTUNE 000F9B  
                                       i2u90_40 0000BE                                         i2u90_41 0000BA  
                                       i2u83_40 000022                                         i2u91_40 00002C  
                                       i2u83_41 00001E                                         i2u91_41 000028  
                                       _SPBRGH2 000F7D                               _I2C1_MasterSetIrq 000000  
                                       i2u76_40 000014                                         i2u76_41 000010  
                                       i2u77_40 000010                                         i2u92_48 00005A  
                                       i2u77_41 00000C                                         i2u92_49 00006E  
                                       _RPINR16 000EF7                                         i2u78_40 000010  
                                       i2u93_48 000030                                         i2u78_41 00000A  
                                       i2u93_49 000044                                         i2u78_46 000012  
                                       i2u94_48 00002E                                         i2u94_49 000042  
                                       i2u88_40 000014                                         i2u88_41 000010  
                                       _SSP1ADD 000FC8                                         i2u89_48 000042  
                                       i2u89_49 000056                                         _SSP1BUF 000FC9  
                      _I2C1_SetInterruptHandler 000000                              ?_I2C1_MasterIsNack 000000  
                        ?i2_I2C1_MasterClearIrq 000000                      ?_I2C1_DO_SEND_RESTART_READ 000000  
                ??_I2C1_SetDataCompleteCallback 000020                              ?_I2C1_MasterSetIrq 000000  
                            _i2c1_fsmStateTable 000001                             ??_I2C1_MasterIsNack 000000  
                     __end_of_I2C1_DO_SEND_STOP 000008                       ??_rdBlkRegCompleteHandler 00000B  
                            I2C1_SetCallback@cb 000017                             ??_I2C1_MasterSetIrq 000000  
                          _ADC_InterruptHandler 000018                                         __Hparam 000000  
                                       __Lparam 000000                  fp__EUSART2_DefaultErrorHandler 000000  
                           fp__I2C1_DO_TX_EMPTY 000000                                       ?_vfprintf 00000B  
                                  __psmallconst 000000                                         __pcinit 000000  
               __end_of_EUSART2_SetErrorHandler 00000A                                   ?_I2C1_DO_IDLE 000000  
                                 ?_I2C1_DO_RCEN 000000                                         __ramtop 000000* 
                                       __ptext0 000000                                         __ptext1 000000  
                                       __ptext2 000000                                         __ptext3 000000  
                                       __ptext4 000000                                         __ptext5 000000  
                                       __ptext6 000000                                         __ptext7 000000  
                                       __ptext8 000000                                         __ptext9 000000  
                      _I2C1_MasterEnableRestart 000000                       __end_of_I2C1_MasterIsNack 000014  
                  ?_I2C1_SetAddressNackCallback 00001C                                       _T1CONbits 000FCD  
         fp__EUSART2_DefaultOverrunErrorHandler 000000      __end_of_EUSART2_DefaultOverrunErrorHandler 000006  
          ??_EUSART2_DefaultOverrunErrorHandler 000000             ?_EUSART2_DefaultOverrunErrorHandler 000000  
            _EUSART2_DefaultOverrunErrorHandler 000000                           _OSCILLATOR_Initialize 000000  
                        ??_EUSART2_Transmit_ISR 000000                                       _T2CONbits 000FCA  
                     __end_of_I2C1_MasterSetIrq 000004                        __end_of_I2C1_DO_TX_EMPTY 00007E  
                      ??_PIN_MANAGER_Initialize 000017                        wr1RegCompleteHandler@ptr 000009  
                                    ?_I2C1_Open 000000                         fp__I2C1_DO_RX_NACK_STOP 000000  
                      ?_I2C1_CallbackReturnStop 000009               __end_of_I2C1_DO_SEND_RESTART_READ 000008  
                          end_of_initialization 000018                      __end_of_I2C1_MasterSendAck 000006  
                           _I2C1_MasterClearIrq 000000          __end_ofi2_I2C1_SetDataCompleteCallback 000018  
                i2_I2C1_SetDataCompleteCallback 000000                                         fputc@fp 00001B  
                                 __Lmediumconst 000000*                     __end_of_I2C1_MasterStartRx 000004  
                        ?_rd1RegCompleteHandler 000009                          _I2C1_DO_SEND_ADR_WRITE 000000  
                  __end_of_I2C1_DO_SEND_RESTART 000008                         __end_of_I2C1_MasterOpen 000022  
                        ?_wr1RegCompleteHandler 000009                         __end_of_I2C1_MasterStop 000004  
                       __end_of_I2C1_Initialize 000014                       ?_I2C1_CallbackReturnReset 000009  
                            _EUSART2_Initialize 000000                   __end_of_I2C1_MasterDisableIrq 000004  
                                   _I2C1_Status 000000                        fp__rd2RegCompleteHandler 000000  
                             __end_of_vfpfcnvrt 0000EE                                         postdec2 000FDD  
                      fp__wr2RegCompleteHandler 000000                                         postinc0 000FEE  
                                       postinc1 000FE6                                         postinc2 000FDE  
                             fp__I2C1_MasterIsr 000000                             _I2C1_MasterSendNack 000000  
           __end_of_I2C1_SetAddressNackCallback 000018                     _I2C1_SetAddressNackCallback 000000  
                                    ??_vfprintf 00001D                            ?_I2C1_MasterClearIrq 000000  
                                ??_I2C1_DO_IDLE 000000                                  ??_I2C1_DO_RCEN 000000  
            __end_of_I2C1_DO_SEND_RESTART_WRITE 000008                      _I2C1_DO_SEND_RESTART_WRITE 000000  
                           ?_EUSART2_Initialize 000000                 __end_of_rdBlkRegCompleteHandler 000040  
                 ??_I2C1_SetAddressNackCallback 000020                 I2C1_SetDataCompleteCallback@ptr 00001E  
             i2I2C1_SetDataCompleteCallback@ptr 000007                     I2C1_Write1ByteRegister@data 000001  
                I2C1_CallbackReturnReset@funPtr 000009                            ?_I2C1_MasterSendNack 000000  
                          ??_EUSART2_Initialize 000019                                     _ms8607_init 000000* 
                    rdBlkRegCompleteHandler@ptr 000009                                      main@buffer 000017  
                              i2_I2C1_SetBuffer 000000                   __end_of_EUSART2_RxDataHandler 00002A  
                  __end_of_INTERRUPT_Initialize 000004                           ??_I2C1_MasterClearIrq 000017  
                                   vfpfcnvrt@ap 000009                                     vfpfcnvrt@fp 000005  
                                _I2C1_DO_RX_ACK 000000                                  _ADC_Initialize 000000  
                        ?_OSCILLATOR_Initialize 000000                 __end_of_I2C1_CallbackReturnStop 000004  
                                __end_of_printf 000028                   __end_of_I2C1_MasterSendTxData 000008  
                           start_initialization 000000                                     ??_I2C1_Open 000019  
                         ??_I2C1_MasterSendNack 000000   EUSART2_SetRxInterruptHandler@interruptHandler 000017  
 EUSART2_SetTxInterruptHandler@interruptHandler 000017                                     putch@txData 000018  
                         i2I2C1_SetCallback@idx 000004                           __end_of_EUSART2_Write 000056  
                         i2I2C1_SetCallback@ptr 000002                        I2C1_SetBuffer@bufferSize 000019  
                              ?_I2C1_MasterOpen 000000          __end_of_EUSART2_SetOverrunErrorHandler 00000A  
                _EUSART2_SetOverrunErrorHandler 000000                                ?_I2C1_MasterStop 000000  
                I2C1_Write1ByteRegister@address 000002                                ?_I2C1_Initialize 000000  
                                   vfprintf@fmt 00000D                          __end_of_I2C1_DO_RX_ACK 000008  
                       ??_I2C1_DO_SEND_ADR_READ 000000                          __end_of_ADC_Initialize 00001E  
                    ??_I2C1_SetInterruptHandler 000019                                        ??_printf 00001F  
                              I2C1_Open@address 000019                                  _eusart2RxCount 00001D  
                       ??i2_I2C1_MasterClearIrq 000000                                     __pbssCOMRAM 000000  
                          _I2C1_DO_SEND_RESTART 000000                                   __pcstackBANK0 000000  
                        i2I2C1_SetBuffer@buffer 000000                         fp__EUSART2_Transmit_ISR 000000  
                   ??_I2C1_DO_SEND_RESTART_READ 000000                             EUSART2_Write@txData 000017  
                          __end_of_I2C1_DO_IDLE 00000C                 ??_EUSART2_SetRxInterruptHandler 000019  
                          __end_of_I2C1_DO_RCEN 00000C                          fp__EUSART2_Receive_ISR 000000  
                 I2C1_SetAddressNackCallback@cb 00001C                                       __pnvBANK0 000000  
                         _rd2RegCompleteHandler 000000                       fp__I2C1_DO_SEND_ADR_WRITE 000000  
                        _PIN_MANAGER_Initialize 000000                           _wr2RegCompleteHandler 000000  
                        _MSSP1_InterruptHandler 00001A                      ??_I2C1_MasterEnableRestart 000000  
                      rd2RegCompleteHandler@ptr 000009                                       __pintcode 000000  
                                _I2C1_MasterFsm 000000                                  _I2C1_MasterIsr 000000  
                              fp__I2C1_DO_RESET 000000                                 ?_I2C1_DO_RX_ACK 000000  
                               ?_ADC_Initialize 000000               _EUSART2_TxDefaultInterruptHandler 000002  
                              _I2C1_MasterClose 000000                                  _I2C1_SetBuffer 000000  
                  ??_INTERRUPT_InterruptManager 00000D                                _I2C1_MasterStart 000000  
                              _I2C1_MasterWrite 000000                                     __smallconst 000000* 
                       _I2C1_Write1ByteRegister 000000                                        _BAUDCON2 000F7C  
                         ?_I2C1_DO_SEND_RESTART 000000                    ?_EUSART2_DefaultErrorHandler 000000  
                             ?_I2C1_DO_TX_EMPTY 000000                __end_of_I2C1_CallbackReturnReset 000004  
                            ??_I2C1_DO_TX_EMPTY 00000B                         ??_rd1RegCompleteHandler 00000B  
                       ?_I2C1_DO_SEND_ADR_WRITE 000000                       I2C1_MasterSendTxData@data 000000  
                          _INTERRUPT_Initialize 000000                         ??_wr1RegCompleteHandler 00000B  
                              _I2C1_SetCallback 000000                                        _LATAbits 000F89  
       EUSART2_SetErrorHandler@interruptHandler 000017                                        _LATCbits 000F8B  
                                    _I2C1_DO_RX 000000                                      _I2C1_DO_TX 000000  
                                      _PIE1bits 000F9D                                        _PIE2bits 000FA0  
                                      _PIE3bits 000FA3                                      _I2C1_Close 000000  
                        __end_of_I2C1_MasterFsm 000064                                        i2u100_40 000014  
                                      i2u100_41 000010                                        i2u101_40 000028  
                                      i2u101_41 000024                          __end_of_I2C1_MasterIsr 000006  
                                      i2u110_40 00001E                                        i2u110_41 00001A  
                                      i2u102_48 000046                                        i2u102_49 00005E  
                  __end_of_I2C1_MasterEnableIrq 000004                                        i2u112_40 000056  
                                      i2u111_48 000032                                        i2u112_41 000052  
                                      i2u111_49 000048                                        i2u114_40 00009C  
                                      i2u113_48 00006A                                        i2u130_40 000038  
                                      i2u114_41 000098                                        i2u113_49 000080  
                                      i2u130_41 000034                                        i2u131_40 000046  
                                      i2u131_41 000042                                        i2u115_48 0000A2  
                                      i2u108_40 000010                                        i2u140_40 0000F6  
                                      i2u132_40 000054                                        i2u115_49 0000B8  
                                      i2u108_41 00000C                                        i2u140_41 0000F2  
                                      i2u132_41 000050                                        i2u109_40 000032  
                                      i2u141_40 000104                                        i2u109_41 00002E  
                                      i2u141_41 000100                                        i2u134_40 000080  
                                      i2u133_48 00005A                                        i2u134_41 00007C  
                                      i2u133_49 00006E                                        i2u135_40 00008E  
                                      i2u135_41 00008A                    __end_of_I2C1_MasterGetRxData 000004  
                                      i2u137_40 0000BC                                        i2u136_48 000094  
                                      i2u137_41 0000B8                                        i2u136_49 0000AA  
                                      i2u138_40 0000CA                                        i2u138_41 0000C6  
                                      i2u139_48 0000D0                                        i2u139_49 0000E4  
                                      _PIR1bits 000F9E                                        _PIR2bits 000FA1  
                                      _PIR3bits 000FA4                                        _RCONbits 000FD0  
                            _I2C1_MasterSendAck 000000                       _I2C1_DO_SEND_RESTART_READ 000000  
                                      _SSP1CON1 000FC6                                        _SSP1CON2 000FC5  
                        __end_of_I2C1_SetBuffer 000024                                        _SSP1STAT 000FC7  
          __end_of_I2C1_SetDataCompleteCallback 000018                ??i2_I2C1_SetDataCompleteCallback 000009  
               ?i2_I2C1_SetDataCompleteCallback 000005                    _I2C1_SetDataCompleteCallback 000000  
                            _I2C1_MasterStartRx 000000                                       _vfpfcnvrt 000000  
                   ?_I2C1_DO_SEND_RESTART_WRITE 000000                               ??_TMR1_Initialize 000017  
                    I2C1_Write1ByteRegister@reg 000000                             ?_I2C1_MasterSendAck 000000  
                                    _ADCON0bits 000FC2                        ?_I2C1_DO_RX_NACK_RESTART 000000  
                      __end_ofi2_I2C1_SetBuffer 000024                            fp__I2C1_DO_SEND_STOP 000000  
                           ?_I2C1_MasterStartRx 000000                    __end_of_I2C1_DO_ADDRESS_NACK 00006C  
                      wr2RegCompleteHandler@ptr 000009                  __end_of_I2C1_DO_SEND_ADR_WRITE 000010  
                 ??_EUSART2_DefaultErrorHandler 000000                                   _I2C1_DO_RESET 000000  
                                   _INTCON2bits 000FF1                      __end_ofi2_I2C1_SetCallback 00007A  
                         ?_INTERRUPT_Initialize 000000                           I2C1_Close@returnValue 000017  
                      ?_rdBlkRegCompleteHandler 000009                             I2C1_SetCallback@idx 00001B  
                           I2C1_SetCallback@ptr 000019                         _EUSART2_SetErrorHandler 000000  
                          ??_I2C1_MasterSendAck 000000                                    ?_ms8607_init 000000  
                             ??_TMR2_Initialize 000017                          ?_rd2RegCompleteHandler 000009  
                   _EUSART2_OverrunErrorHandler 000002                            i2I2C1_SetCallback@cb 000000  
                  __end_of_I2C1_MasterOperation 000040                          ?_wr2RegCompleteHandler 000009  
                          ??_I2C1_MasterStartRx 000000                                        __Hrparam 000000* 
                               ?_I2C1_MasterFsm 000000                                 ?_I2C1_MasterIsr 000000  
         __end_of_EUSART2_SetRxInterruptHandler 00000A                   _EUSART2_SetRxInterruptHandler 000000  
                                    vfprintf@ap 00000F                                        __Lrparam 000000* 
                                    vfprintf@fp 00000B                           _I2C1_MasterDisableIrq 000000  
                       ??_OSCILLATOR_Initialize 000017                                 ?_I2C1_SetBuffer 000017  
                                    ?_vfpfcnvrt 000005                       ??_I2C1_Write1ByteRegister 000020  
                        ??_I2C1_DO_SEND_RESTART 000000                            _EUSART2_ErrorHandler 000000  
                                ?_I2C1_DO_RESET 000000                                        __ptext10 000000  
                                      __ptext11 000000                                        __ptext20 000000  
                                      __ptext12 000000                                        __ptext21 000000  
                                      __ptext13 000000                                      _T1GCONbits 000F9A  
                                      __ptext30 000000                                        __ptext22 000000  
                                      __ptext14 000000                                        __ptext31 000000  
                                      __ptext23 000000                                        __ptext15 000000  
                                      __ptext40 000000                                        __ptext32 000000  
                                      __ptext24 000000                                        __ptext16 000000  
                                      __ptext41 000000                                        __ptext33 000000  
                                      __ptext25 000000                                        __ptext17 000000  
                                      __ptext50 000000                                        __ptext42 000000  
                                      __ptext34 000000                                        __ptext26 000000  
                                      __ptext18 000000                                        __ptext51 000000  
                                      __ptext43 000000                                        __ptext35 000000  
                                      __ptext27 000000                                        __ptext19 000000  
                                      __ptext60 000000                                        __ptext52 000000  
                                      __ptext44 000000                                        __ptext36 000000  
                                      __ptext28 000000                                        __ptext61 000000  
                                      __ptext53 000000                                        __ptext45 000000  
                                      __ptext29 000000                                        __ptext70 000000  
                                      __ptext62 000000                                        __ptext54 000000  
                                      __ptext46 000000                                        __ptext38 000000  
                                      __ptext71 000000                                        __ptext63 000000  
                                      __ptext55 000000                                        __ptext47 000000  
                                      __ptext39 000000                                        __ptext80 000000  
                                      __ptext72 000000                                        __ptext64 000000  
                                      __ptext56 000000                                        __ptext48 000000  
                                      __ptext81 000000                                        __ptext73 000000  
                                      __ptext65 000000                                        __ptext57 000000  
                                      __ptext49 000000                                        __ptext82 000000  
                                      __ptext74 000000                                        __ptext66 000000  
                                      __ptext58 000000                                        __ptext75 000000  
                                      __ptext67 000000                                        __ptext59 000000  
                                      __ptext76 000000                                        __ptext68 000000  
                                      __ptext77 000000                                        __ptext69 000000  
                                      __ptext78 000000                                        __ptext79 000000  
                                  _SSP1CON1bits 000FC6                                    _SSP1CON2bits 000FC5  
                      _I2C1_CallbackReturnReset 000000                     fp__I2C1_CallbackReturnReset 000000  
                                   ?_I2C1_DO_RX 000000                                     ?_I2C1_DO_TX 000000  
         fp__EUSART2_DefaultFramingErrorHandler 000000      __end_of_EUSART2_DefaultFramingErrorHandler 000002  
          ??_EUSART2_DefaultFramingErrorHandler 000000             ?_EUSART2_DefaultFramingErrorHandler 000000  
            _EUSART2_DefaultFramingErrorHandler 000000                     __end_of_I2C1_MasterClearIrq 000004  
                  __end_of_I2C1_DO_RX_NACK_STOP 000008                                     ?_I2C1_Close 000000  
                           _ms8607_is_connected 000000* EUSART2_SetOverrunErrorHandler@interruptHandler 000017  
                                      isa$xinst 000000                                        int$flags 000000  
               __end_of_I2C1_DO_RX_NACK_RESTART 000008                        I2C1_MasterOperation@read 000017  
                                      _vfprintf 000000              __end_of_INTERRUPT_InterruptManager 000134  
                    _INTERRUPT_InterruptManager 000000                           _EUSART2_RxDataHandler 000000  
                                     printf@fmt 000011                                    _SSP1STATbits 000FC7  
                 __end_of_I2C1_DO_SEND_ADR_READ 000010                                    _I2C1_DO_IDLE 000000  
                                  _I2C1_DO_RCEN 000000                     __end_of_I2C1_MasterSendNack 000006  
              ??_EUSART2_SetOverrunErrorHandler 000019                 ?_EUSART2_SetOverrunErrorHandler 000017  
                                    _INTCONbits 000FF2                   fp__I2C1_DO_SEND_RESTART_WRITE 000000  
                          ?_ms8607_is_connected 000000                  I2C1_SetAddressNackCallback@ptr 00001E  
                          _I2C1_MasterEnableIrq 000000                            _I2C1_MasterGetRxData 000000  
                 __end_ofi2_I2C1_MasterClearIrq 000004                           _I2C1_MasterSendTxData 000000  
                        ??_INTERRUPT_Initialize 000017                       ??_EUSART2_SetErrorHandler 000019  
                                      intlevel2 000000*                       __end_of_I2C1_MasterClose 000004  
                       ?_PIN_MANAGER_Initialize 000000                        __end_of_I2C1_MasterStart 000004  
                      __end_of_I2C1_MasterWrite 000008                                ??_I2C1_DO_RX_ACK 000000  
                                    _RCSTA2bits 000F9C                         _I2C1_CallbackReturnStop 000000  
                    fp__I2C1_CallbackReturnStop 000000                                ??_ADC_Initialize 000017  
                          _I2C1_DO_ADDRESS_NACK 000000                          ?_I2C1_MasterDisableIrq 000000  
                                      printf@ap 000013  EUSART2_SetFramingErrorHandler@interruptHandler 000017  
                ?_EUSART2_SetRxInterruptHandler 000017                                     ??_vfpfcnvrt 00001D  
                           _EUSART2_Receive_ISR 000000                        __end_of_I2C1_SetCallback 00007A  
                               ??_I2C1_DO_RESET 000000                            _I2C1_MasterOperation 000000  
                         ??_ms8607_is_connected 000000                           ?_I2C1_MasterEnableIrq 000000  
                         ?_I2C1_MasterGetRxData 000000                  __end_of_PIN_MANAGER_Initialize 00003C  
               ??_EUSART2_SetTxInterruptHandler 000019                       ?_I2C1_SetInterruptHandler 000017  
                 __end_of_rd1RegCompleteHandler 00002C                            ?_EUSART2_Receive_ISR 000000  
                            _eusart2RxLastError 00001C                   __end_of_wr1RegCompleteHandler 00002C  
                               _TMR1_Initialize 000000               _EUSART2_RxDefaultInterruptHandler 000006  
                         ?_I2C1_DO_ADDRESS_NACK 000000  
