

Microchip MPLAB XC8 Assembler V2.35 build 20211206165544 
                                                                                               Thu Apr 21 12:44:51 2022

Microchip MPLAB XC8 C Compiler v2.35 (Free license) build 20211206165544 Og1 
     1                           	processor	18F26J53
     2                           	fnconf	rparam,??,?,0
     3                           	pagewidth 120
     4                           	opt	flic
     5                           	psect	idataCOMRAM,global,class=CODE,delta=1,noexec
     6                           	psect	smallconst,global,reloc=2,class=SMALLCONST,delta=1,noexec
     7                           	psect	nvCOMRAM,global,class=COMRAM,space=1,delta=1,lowdata,noexec
     8                           	psect	nvBANK0,global,class=BANK0,space=1,delta=1,lowdata,noexec
     9                           	psect	cinit,global,reloc=2,class=CODE,delta=1
    10                           	psect	bssCOMRAM,global,class=COMRAM,space=1,delta=1,lowdata,noexec
    11                           	psect	dataCOMRAM,global,class=COMRAM,space=1,delta=1,lowdata,noexec
    12                           	psect	bssBANK0,global,class=BANK0,space=1,delta=1,lowdata,noexec
    13                           	psect	cstackBANK1,global,class=BANK1,space=1,delta=1,lowdata,noexec
    14                           	psect	cstackBANK0,global,class=BANK0,space=1,delta=1,lowdata,noexec
    15                           	psect	cstackCOMRAM,global,class=COMRAM,space=1,delta=1,lowdata,noexec
    16                           	psect	text0,global,reloc=2,class=CODE,delta=1
    17                           	psect	text1,global,reloc=2,class=CODE,delta=1,group=3
    18                           	psect	text2,global,reloc=2,class=CODE,delta=1,group=1
    19                           	psect	text3,global,reloc=2,class=CODE,delta=1,group=1
    20                           	psect	text4,global,reloc=2,class=CODE,delta=1,group=1
    21                           	psect	text5,global,reloc=2,class=CODE,delta=1,group=1
    22                           	psect	text6,global,reloc=2,class=CODE,delta=1,group=3
    23                           	psect	text7,global,reloc=2,class=CODE,delta=1,group=3
    24                           	psect	text8,global,reloc=2,class=CODE,delta=1,group=3
    25                           	psect	text9,global,reloc=2,class=CODE,delta=1
    26                           	psect	text10,global,reloc=2,class=CODE,delta=1
    27                           	psect	text11,global,reloc=2,class=CODE,delta=1,group=3
    28                           	psect	text12,global,reloc=2,class=CODE,delta=1,group=2
    29                           	psect	text13,global,reloc=2,class=CODE,delta=1,group=2
    30                           	psect	text14,global,reloc=2,class=CODE,delta=1
    31                           	psect	text15,global,reloc=2,class=CODE,delta=1
    32                           	psect	text16,global,reloc=2,class=CODE,delta=1
    33                           	psect	text17,global,reloc=2,class=CODE,delta=1
    34                           	psect	text18,global,reloc=2,class=CODE,delta=1
    35                           	psect	text19,global,reloc=2,class=CODE,delta=1
    36                           	psect	text20,global,reloc=2,class=CODE,delta=1
    37                           	psect	text21,global,reloc=2,class=CODE,delta=1
    38                           	psect	text22,global,reloc=2,class=CODE,delta=1
    39                           	psect	text23,global,reloc=2,class=CODE,delta=1
    40                           	psect	text24,global,reloc=2,class=CODE,delta=1
    41                           	psect	text25,global,reloc=2,class=CODE,delta=1
    42                           	psect	text26,global,reloc=2,class=CODE,delta=1
    43                           	psect	text27,global,reloc=2,class=CODE,delta=1
    44                           	psect	text28,global,reloc=2,class=CODE,delta=1
    45                           	psect	intcode,global,reloc=2,class=CODE,delta=1
    46                           	psect	text30,global,reloc=2,class=CODE,delta=1
    47                           	psect	text31,global,reloc=2,class=CODE,delta=1,inline
    48                           	psect	text32,global,reloc=2,class=CODE,delta=1,inline
    49                           	psect	text33,global,reloc=2,class=CODE,delta=1
    50                           	psect	text34,global,reloc=2,class=CODE,delta=1
    51                           	psect	text35,global,reloc=2,class=CODE,delta=1
    52                           	psect	text36,global,reloc=2,class=CODE,delta=1
    53                           	psect	text37,global,reloc=2,class=CODE,delta=1
    54                           	psect	text38,global,reloc=2,class=CODE,delta=1
    55                           	psect	text39,global,reloc=2,class=CODE,delta=1
    56                           	psect	text40,global,reloc=2,class=CODE,delta=1
    57                           	psect	text41,global,reloc=2,class=CODE,delta=1
    58                           	psect	text42,global,reloc=2,class=CODE,delta=1
    59                           	psect	text43,global,reloc=2,class=CODE,delta=1
    60                           	psect	text44,global,reloc=2,class=CODE,delta=1
    61                           	psect	text45,global,reloc=2,class=CODE,delta=1
    62                           	psect	text46,global,reloc=2,class=CODE,delta=1
    63                           	psect	text47,global,reloc=2,class=CODE,delta=1
    64                           	psect	text48,global,reloc=2,class=CODE,delta=1
    65                           	psect	text49,global,reloc=2,class=CODE,delta=1,inline
    66                           	psect	text50,global,reloc=2,class=CODE,delta=1,inline
    67                           	psect	text51,global,reloc=2,class=CODE,delta=1,inline
    68                           	psect	text52,global,reloc=2,class=CODE,delta=1,inline
    69                           	psect	text53,global,reloc=2,class=CODE,delta=1,inline
    70                           	psect	text54,global,reloc=2,class=CODE,delta=1,inline
    71                           	psect	text55,global,reloc=2,class=CODE,delta=1,inline
    72                           	psect	text56,global,reloc=2,class=CODE,delta=1
    73                           	psect	text57,global,reloc=2,class=CODE,delta=1
    74                           	psect	text58,global,reloc=2,class=CODE,delta=1
    75                           	psect	text59,global,reloc=2,class=CODE,delta=1
    76                           	psect	text60,global,reloc=2,class=CODE,delta=1
    77                           	psect	text61,global,reloc=2,class=CODE,delta=1
    78                           	psect	text62,global,reloc=2,class=CODE,delta=1
    79                           	psect	text63,global,reloc=2,class=CODE,delta=1
    80                           	psect	text64,global,reloc=2,class=CODE,delta=1
    81                           	psect	text65,global,reloc=2,class=CODE,delta=1
    82                           	psect	text66,global,reloc=2,class=CODE,delta=1,inline
    83                           	psect	text67,global,reloc=2,class=CODE,delta=1,inline
    84                           	psect	text68,global,reloc=2,class=CODE,delta=1
    85                           	psect	text69,global,reloc=2,class=CODE,delta=1
    86                           	psect	text70,global,reloc=2,class=CODE,delta=1
    87                           	psect	text71,global,reloc=2,class=CODE,delta=1
    88                           	psect	text72,global,reloc=2,class=CODE,delta=1
    89                           	psect	text73,global,reloc=2,class=CODE,delta=1
    90                           	psect	intsave_regs,global,class=BIGRAM,space=1,delta=1,noexec
    91                           	psect	text74,global,reloc=2,class=CODE,delta=1
    92                           	psect	rparam,global,class=COMRAM,space=1,delta=1,noexec
    93                           	psect	temp,global,ovrld,common,class=COMRAM,space=1,delta=1
    94                           	psect	config,global,abs,ovrld,class=CONFIG,space=4,delta=1,noexec
    95  0000                     
    96                           ; Version 2.40
    97                           ; Generated 17/11/2021 GMT
    98                           ; 
    99                           ; Copyright © 2021, Microchip Technology Inc. and its subsidiaries ("Microchip")
   100                           ; All rights reserved.
   101                           ; 
   102                           ; This software is developed by Microchip Technology Inc. and its subsidiaries ("Microch
      +                          ip").
   103                           ; 
   104                           ; Redistribution and use in source and binary forms, with or without modification, are
   105                           ; permitted provided that the following conditions are met:
   106                           ; 
   107                           ;     1. Redistributions of source code must retain the above copyright notice, this lis
      +                          t of
   108                           ;        conditions and the following disclaimer.
   109                           ; 
   110                           ;     2. Redistributions in binary form must reproduce the above copyright notice, this 
      +                          list
   111                           ;        of conditions and the following disclaimer in the documentation and/or other
   112                           ;        materials provided with the distribution. Publication is not required when
   113                           ;        this file is used in an embedded application.
   114                           ; 
   115                           ;     3. Microchip's name may not be used to endorse or promote products derived from th
      +                          is
   116                           ;        software without specific prior written permission.
   117                           ; 
   118                           ; THIS SOFTWARE IS PROVIDED BY MICROCHIP "AS IS" AND ANY EXPRESS OR IMPLIED WARRANTIES,
   119                           ; INCLUDING, BUT NOT LIMITED TO, THE IMPLIED WARRANTIES OF MERCHANTABILITY AND FITNESS F
      +                          OR
   120                           ; PURPOSE ARE DISCLAIMED.  IN NO EVENT SHALL MICROCHIP BE LIABLE FOR ANY DIRECT, INDIREC
      +                          T,
   121                           ; INCIDENTAL, SPECIAL, EXEMPLARY, OR CONSEQUENTIAL DAMAGES (INCLUDING BUT NOT LIMITED TO
   122                           ; PROCUREMENT OF SUBSTITUTE GOODS OR SERVICES; LOSS OF USE, DATA OR PROFITS; OR BUSINESS
   123                           ; INTERRUPTION) HOWSOEVER CAUSED AND ON ANY THEORY OF LIABILITY, WHETHER IN CONTRACT, ST
      +                          RICT
   124                           ; LIABILITY, OR TORT (INCLUDING NEGLIGENCE OR OTHERWISE) ARISING IN ANY WAY OUT OF THE U
      +                          SE OF
   125                           ; THIS SOFTWARE, EVEN IF ADVISED OF THE POSSIBILITY OF SUCH DAMAGE.
   126                           ; 
   127                           ; 
   128                           ; Code-generator required, PIC18F26J53 Definitions
   129                           ; 
   130                           ; SFR Addresses
   131  0000                     
   132                           	psect	idataCOMRAM
   133  00227E                     __pidataCOMRAM:
   134                           	callstack 0
   135                           
   136                           ;initializer for _scale
   137  00227E  0000               	dw	0
   138  002280  3F80               	dw	16256
   139                           
   140                           	psect	smallconst
   141  000F00                     __psmallconst:
   142                           	callstack 0
   143  000F00  00                 	db	0
   144  000F01                     _i2c1_fsmStateTable:
   145                           	callstack 0
   146  000F01  D8                 	db	low _I2C1_DO_IDLE
   147  000F02  21                 	db	high _I2C1_DO_IDLE
   148  000F03  B0                 	db	low _I2C1_DO_SEND_ADR_READ
   149  000F04  21                 	db	high _I2C1_DO_SEND_ADR_READ
   150  000F05  A0                 	db	low _I2C1_DO_SEND_ADR_WRITE
   151  000F06  21                 	db	high _I2C1_DO_SEND_ADR_WRITE
   152  000F07  82                 	db	low _I2C1_DO_TX
   153  000F08  17                 	db	high _I2C1_DO_TX
   154  000F09  0C                 	db	low _I2C1_DO_RX
   155  000F0A  19                 	db	high _I2C1_DO_RX
   156  000F0B  CC                 	db	low _I2C1_DO_RCEN
   157  000F0C  21                 	db	high _I2C1_DO_RCEN
   158  000F0D  4A                 	db	low _I2C1_DO_TX_EMPTY
   159  000F0E  1A                 	db	high _I2C1_DO_TX_EMPTY
   160  000F0F  50                 	db	low _I2C1_DO_SEND_RESTART_READ
   161  000F10  22                 	db	high _I2C1_DO_SEND_RESTART_READ
   162  000F11  48                 	db	low _I2C1_DO_SEND_RESTART_WRITE
   163  000F12  22                 	db	high _I2C1_DO_SEND_RESTART_WRITE
   164  000F13  40                 	db	low _I2C1_DO_SEND_RESTART
   165  000F14  22                 	db	high _I2C1_DO_SEND_RESTART
   166  000F15  38                 	db	low _I2C1_DO_SEND_STOP
   167  000F16  22                 	db	high _I2C1_DO_SEND_STOP
   168  000F17  30                 	db	low _I2C1_DO_RX_ACK
   169  000F18  22                 	db	high _I2C1_DO_RX_ACK
   170  000F19  28                 	db	low _I2C1_DO_RX_NACK_STOP
   171  000F1A  22                 	db	high _I2C1_DO_RX_NACK_STOP
   172  000F1B  20                 	db	low _I2C1_DO_RX_NACK_RESTART
   173  000F1C  22                 	db	high _I2C1_DO_RX_NACK_RESTART
   174  000F1D  C0                 	db	low _I2C1_DO_RESET
   175  000F1E  21                 	db	high _I2C1_DO_RESET
   176  000F1F  30                 	db	low _I2C1_DO_ADDRESS_NACK
   177  000F20  1C                 	db	high _I2C1_DO_ADDRESS_NACK
   178  000F21                     __end_of_i2c1_fsmStateTable:
   179                           	callstack 0
   180  0000                     _ADCON0	set	4034
   181  0000                     _ADRESH	set	4036
   182  0000                     _ADRESL	set	4035
   183  0000                     _T1CON	set	4045
   184  0000                     _TMR1L	set	4046
   185  0000                     _TMR1H	set	4047
   186  0000                     _RCONbits	set	4048
   187  0000                     _T2CON	set	4042
   188  0000                     _TMR2	set	4044
   189  0000                     _PR2	set	4043
   190  0000                     _SSP1BUF	set	4041
   191  0000                     _SSP1ADD	set	4040
   192  0000                     _RCREG2	set	4010
   193  0000                     _TXREG2	set	4009
   194  0000                     _SPBRG2	set	4011
   195  000F21                     STR_1:
   196  000F21  56                 	db	86	;'V'
   197  000F22  61                 	db	97	;'a'
   198  000F23  6C                 	db	108	;'l'
   199  000F24  75                 	db	117	;'u'
   200  000F25  65                 	db	101	;'e'
   201  000F26  20                 	db	32
   202  000F27  3D                 	db	61	;'='
   203  000F28  20                 	db	32
   204  000F29  25                 	db	37
   205  000F2A  64                 	db	100	;'d'
   206  000F2B  20                 	db	32
   207  000F2C  0D                 	db	13
   208  000F2D  0A                 	db	10
   209  000F2E  00                 	db	0
   210  000F2F  00                 	db	0	; dummy byte at the end
   211  0000                     
   212                           	psect	nvCOMRAM
   213  000045                     __pnvCOMRAM:
   214                           	callstack 0
   215  000045                     _timer1ReloadVal:
   216                           	callstack 0
   217  000045                     	ds	2
   218  000047                     _eusart2TxBufferRemaining:
   219                           	callstack 0
   220  000047                     	ds	1
   221                           
   222                           	psect	nvBANK0
   223  0000F6                     __pnvBANK0:
   224                           	callstack 0
   225  0000F6                     _EUSART2_ErrorHandler:
   226                           	callstack 0
   227  0000F6                     	ds	2
   228  0000F8                     _EUSART2_OverrunErrorHandler:
   229                           	callstack 0
   230  0000F8                     	ds	2
   231  0000FA                     _EUSART2_FramingErrorHandler:
   232                           	callstack 0
   233  0000FA                     	ds	2
   234  0000FC                     _EUSART2_RxDefaultInterruptHandler:
   235                           	callstack 0
   236  0000FC                     	ds	2
   237  0000FE                     _EUSART2_TxDefaultInterruptHandler:
   238                           	callstack 0
   239  0000FE                     	ds	2
   240  0000                     _LATCbits	set	3979
   241  0000                     _LATAbits	set	3977
   242  0000                     _ADCON0bits	set	4034
   243  0000                     _T1GCONbits	set	3994
   244  0000                     _T1CONbits	set	4045
   245  0000                     _T2CONbits	set	4042
   246  0000                     _SSP1STATbits	set	4039
   247  0000                     _SSP1CON2bits	set	4037
   248  0000                     _SSP1CON1bits	set	4038
   249  0000                     _RCSTA2bits	set	3996
   250  0000                     _TXSTA2bits	set	4008
   251  0000                     _ADCTRIG	set	3768
   252  0000                     _RPOR17	set	3793
   253  0000                     _RPINR16	set	3831
   254  0000                     _REFOCON	set	3901
   255  0000                     _BAUDCON2	set	3964
   256  0000                     _PIE3bits	set	4003
   257  0000                     _PIR3bits	set	4004
   258  0000                     _TXSTA2	set	4008
   259  0000                     _OSCCON2	set	3975
   260  0000                     _OSCTUNE	set	3995
   261  0000                     _SPBRGH2	set	3965
   262  0000                     _RCSTA2	set	3996
   263  0000                     _PIE2bits	set	4000
   264  0000                     _PIR1bits	set	3998
   265  0000                     _PIE1bits	set	3997
   266  0000                     _PIR2bits	set	4001
   267  0000                     _ADCON1	set	4033
   268  0000                     _SSP1CON2	set	4037
   269  0000                     _SSP1CON1	set	4038
   270  0000                     _SSP1STAT	set	4039
   271  0000                     _OSCCON	set	4051
   272  0000                     _INTCON2bits	set	4081
   273  0000                     _ODCON3	set	3904
   274  0000                     _ODCON2	set	3905
   275  0000                     _ODCON1	set	3906
   276  0000                     _ANCON0	set	3912
   277  0000                     _LATA	set	3977
   278  0000                     _TRISA	set	3986
   279  0000                     _LATC	set	3979
   280  0000                     _LATB	set	3978
   281  0000                     _T1GCON	set	3994
   282  0000                     _TRISC	set	3988
   283  0000                     _TRISB	set	3987
   284  0000                     _ANCON1	set	3913
   285  0000                     _INTCONbits	set	4082
   286                           
   287                           ; #config settings
   288                           
   289                           	psect	cinit
   290  001DB8                     __pcinit:
   291                           	callstack 0
   292  001DB8                     start_initialization:
   293                           	callstack 0
   294  001DB8                     __initialization:
   295                           	callstack 0
   296                           
   297                           ; Initialize objects allocated to COMRAM (4 bytes)
   298                           ; load TBLPTR registers with __pidataCOMRAM
   299  001DB8  0E7E               	movlw	low __pidataCOMRAM
   300  001DBA  6EF6               	movwf	tblptrl,c
   301  001DBC  0E22               	movlw	high __pidataCOMRAM
   302  001DBE  6EF7               	movwf	tblptrh,c
   303  001DC0  0E00               	movlw	low (__pidataCOMRAM shr (0+16))
   304  001DC2  6EF8               	movwf	tblptru,c
   305  001DC4  EE00  F041         	lfsr	0,__pdataCOMRAM
   306  001DC8  EE10 F004          	lfsr	1,4
   307  001DCC                     copy_data0:
   308  001DCC  0009               	tblrd		*+
   309  001DCE  CFF5 FFEE          	movff	tablat,postinc0
   310  001DD2  50E5               	movf	postdec1,w,c
   311  001DD4  50E1               	movf	fsr1l,w,c
   312  001DD6  E1FA               	bnz	copy_data0
   313                           
   314                           ; Clear objects allocated to BANK0 (94 bytes)
   315  001DD8  EE00  F060         	lfsr	0,__pbssBANK0
   316  001DDC  0E5E               	movlw	94
   317  001DDE                     clear_0:
   318  001DDE  6AEE               	clrf	postinc0,c
   319  001DE0  06E8               	decf	wreg,f,c
   320  001DE2  E1FD               	bnz	clear_0
   321                           
   322                           ; Clear objects allocated to COMRAM (16 bytes)
   323  001DE4  EE00  F031         	lfsr	0,__pbssCOMRAM
   324  001DE8  0E10               	movlw	16
   325  001DEA                     clear_1:
   326  001DEA  6AEE               	clrf	postinc0,c
   327  001DEC  06E8               	decf	wreg,f,c
   328  001DEE  E1FD               	bnz	clear_1
   329  001DF0                     end_of_initialization:
   330                           	callstack 0
   331  001DF0                     __end_of__initialization:
   332                           	callstack 0
   333  001DF0  9048               	bcf	int$flags,0,c	;clear compiler interrupt flag (level 1)
   334  001DF2  9248               	bcf	int$flags,1,c	;clear compiler interrupt flag (level 2)
   335  001DF4  0E00               	movlw	low (__Lmediumconst shr (0+16))
   336  001DF6  6EF8               	movwf	tblptru,c
   337  001DF8  0100               	movlb	0
   338  001DFA  EF64  F00D         	goto	_main	;jump to C main() function
   339                           
   340                           	psect	bssCOMRAM
   341  000031                     __pbssCOMRAM:
   342                           	callstack 0
   343  000031                     _width:
   344                           	callstack 0
   345  000031                     	ds	2
   346  000033                     _prec:
   347                           	callstack 0
   348  000033                     	ds	2
   349  000035                     _flags:
   350                           	callstack 0
   351  000035                     	ds	2
   352  000037                     _ADC_InterruptHandler:
   353                           	callstack 0
   354  000037                     	ds	2
   355  000039                     _MSSP1_InterruptHandler:
   356                           	callstack 0
   357  000039                     	ds	2
   358  00003B                     _eusart2RxLastError:
   359                           	callstack 0
   360  00003B                     	ds	1
   361  00003C                     _eusart2RxCount:
   362                           	callstack 0
   363  00003C                     	ds	1
   364  00003D                     _eusart2RxTail:
   365                           	callstack 0
   366  00003D                     	ds	1
   367  00003E                     _eusart2RxHead:
   368                           	callstack 0
   369  00003E                     	ds	1
   370  00003F                     _eusart2TxTail:
   371                           	callstack 0
   372  00003F                     	ds	1
   373  000040                     _eusart2TxHead:
   374                           	callstack 0
   375  000040                     	ds	1
   376                           
   377                           	psect	dataCOMRAM
   378  000041                     __pdataCOMRAM:
   379                           	callstack 0
   380  000041                     _scale:
   381                           	callstack 0
   382  000041                     	ds	4
   383                           
   384                           	psect	bssBANK0
   385  000060                     __pbssBANK0:
   386                           	callstack 0
   387  000060                     _I2C1_Status:
   388                           	callstack 0
   389  000060                     	ds	36
   390  000084                     _eusart2RxStatusBuffer:
   391                           	callstack 0
   392  000084                     	ds	8
   393  00008C                     _eusart2RxBuffer:
   394                           	callstack 0
   395  00008C                     	ds	8
   396  000094                     _eusart2TxBuffer:
   397                           	callstack 0
   398  000094                     	ds	8
   399  00009C                     _nout:
   400                           	callstack 0
   401  00009C                     	ds	2
   402  00009E                     _dbuf:
   403                           	callstack 0
   404  00009E                     	ds	32
   405                           
   406                           	psect	cstackBANK1
   407  000100                     __pcstackBANK1:
   408                           	callstack 0
   409  000100                     vfpfcnvrt@ll:
   410                           	callstack 0
   411                           
   412                           ; 8 bytes @ 0x0
   413  000100                     	ds	8
   414  000108                     ?_vfprintf:
   415                           	callstack 0
   416  000108                     vfprintf@fp:
   417                           	callstack 0
   418                           
   419                           ; 2 bytes @ 0x8
   420  000108                     	ds	2
   421  00010A                     vfprintf@fmt:
   422                           	callstack 0
   423                           
   424                           ; 2 bytes @ 0xA
   425  00010A                     	ds	2
   426  00010C                     vfprintf@ap:
   427                           	callstack 0
   428                           
   429                           ; 2 bytes @ 0xC
   430  00010C                     	ds	2
   431  00010E                     ?_printf:
   432                           	callstack 0
   433  00010E                     printf@fmt:
   434                           	callstack 0
   435                           
   436                           ; 2 bytes @ 0xE
   437  00010E                     	ds	6
   438  000114                     printf@ap:
   439                           	callstack 0
   440                           
   441                           ; 2 bytes @ 0x14
   442  000114                     	ds	2
   443  000116                     ??_main:
   444                           
   445                           ; 1 bytes @ 0x16
   446  000116                     	ds	1
   447  000117                     main@convertedValue:
   448                           	callstack 0
   449                           
   450                           ; 4 bytes @ 0x17
   451  000117                     	ds	4
   452                           
   453                           	psect	cstackBANK0
   454  0000BE                     __pcstackBANK0:
   455                           	callstack 0
   456  0000BE                     ___aodiv@counter:
   457                           	callstack 0
   458  0000BE                     pad@i:
   459                           	callstack 0
   460                           
   461                           ; 2 bytes @ 0x0
   462  0000BE                     	ds	1
   463  0000BF                     ___aodiv@sign:
   464                           	callstack 0
   465                           
   466                           ; 1 bytes @ 0x1
   467  0000BF                     	ds	1
   468  0000C0                     pad@w:
   469                           	callstack 0
   470  0000C0                     ___aodiv@quotient:
   471                           	callstack 0
   472                           
   473                           ; 8 bytes @ 0x2
   474  0000C0                     	ds	8
   475  0000C8                     ?_dtoa:
   476                           	callstack 0
   477  0000C8                     dtoa@fp:
   478                           	callstack 0
   479                           
   480                           ; 2 bytes @ 0xA
   481  0000C8                     	ds	2
   482  0000CA                     dtoa@d:
   483                           	callstack 0
   484                           
   485                           ; 8 bytes @ 0xC
   486  0000CA                     	ds	8
   487  0000D2                     ??_dtoa:
   488                           
   489                           ; 1 bytes @ 0x14
   490  0000D2                     	ds	8
   491  0000DA                     _dtoa$2744:
   492                           	callstack 0
   493                           
   494                           ; 2 bytes @ 0x1C
   495  0000DA                     	ds	2
   496  0000DC                     dtoa@p:
   497                           	callstack 0
   498                           
   499                           ; 2 bytes @ 0x1E
   500  0000DC                     	ds	2
   501  0000DE                     dtoa@w:
   502                           	callstack 0
   503                           
   504                           ; 2 bytes @ 0x20
   505  0000DE                     	ds	2
   506  0000E0                     dtoa@s:
   507                           	callstack 0
   508                           
   509                           ; 2 bytes @ 0x22
   510  0000E0                     	ds	2
   511  0000E2                     dtoa@n:
   512                           	callstack 0
   513                           
   514                           ; 8 bytes @ 0x24
   515  0000E2                     	ds	8
   516  0000EA                     dtoa@i:
   517                           	callstack 0
   518                           
   519                           ; 2 bytes @ 0x2C
   520  0000EA                     	ds	2
   521  0000EC                     ?_vfpfcnvrt:
   522                           	callstack 0
   523  0000EC                     vfpfcnvrt@fp:
   524                           	callstack 0
   525                           
   526                           ; 2 bytes @ 0x2E
   527  0000EC                     	ds	2
   528  0000EE                     vfpfcnvrt@fmt:
   529                           	callstack 0
   530                           
   531                           ; 2 bytes @ 0x30
   532  0000EE                     	ds	2
   533  0000F0                     vfpfcnvrt@ap:
   534                           	callstack 0
   535                           
   536                           ; 2 bytes @ 0x32
   537  0000F0                     	ds	2
   538  0000F2                     ??_vfpfcnvrt:
   539                           
   540                           ; 1 bytes @ 0x34
   541  0000F2                     	ds	2
   542  0000F4                     vfprintf@cfmt:
   543                           	callstack 0
   544                           
   545                           ; 2 bytes @ 0x36
   546  0000F4                     	ds	2
   547                           
   548                           	psect	cstackCOMRAM
   549  000001                     __pcstackCOMRAM:
   550                           	callstack 0
   551  000001                     I2C1_MasterSendTxData@data:
   552                           	callstack 0
   553  000001                     I2C1_SetBuffer@buffer:
   554                           	callstack 0
   555  000001                     I2C1_SetCallback@cb:
   556                           	callstack 0
   557                           
   558                           ; 2 bytes @ 0x0
   559  000001                     	ds	1
   560  000002                     
   561                           ; 1 bytes @ 0x1
   562  000002                     	ds	1
   563  000003                     I2C1_SetBuffer@bufferSize:
   564                           	callstack 0
   565  000003                     I2C1_SetCallback@ptr:
   566                           	callstack 0
   567                           
   568                           ; 2 bytes @ 0x2
   569  000003                     	ds	2
   570  000005                     I2C1_SetCallback@idx:
   571                           	callstack 0
   572                           
   573                           ; 1 bytes @ 0x4
   574  000005                     	ds	1
   575  000006                     I2C1_SetDataCompleteCallback@cb:
   576                           	callstack 0
   577                           
   578                           ; 2 bytes @ 0x5
   579  000006                     	ds	2
   580  000008                     I2C1_SetDataCompleteCallback@ptr:
   581                           	callstack 0
   582                           
   583                           ; 2 bytes @ 0x7
   584  000008                     	ds	2
   585  00000A                     rd1RegCompleteHandler@ptr:
   586                           	callstack 0
   587  00000A                     rd2RegCompleteHandler@ptr:
   588                           	callstack 0
   589  00000A                     wr1RegCompleteHandler@ptr:
   590                           	callstack 0
   591  00000A                     wr2RegCompleteHandler@ptr:
   592                           	callstack 0
   593  00000A                     rdBlkRegCompleteHandler@ptr:
   594                           	callstack 0
   595  00000A                     I2C1_CallbackReturnReset@funPtr:
   596                           	callstack 0
   597                           
   598                           ; 2 bytes @ 0x9
   599  00000A                     	ds	2
   600  00000C                     ??_I2C1_DO_TX:
   601  00000C                     ??_I2C1_DO_RX:
   602  00000C                     ??_I2C1_DO_TX_EMPTY:
   603  00000C                     ??_I2C1_DO_ADDRESS_NACK:
   604  00000C                     
   605                           ; 1 bytes @ 0xB
   606  00000C                     	ds	2
   607  00000E                     ??_INTERRUPT_InterruptManager:
   608                           
   609                           ; 1 bytes @ 0xD
   610  00000E                     	ds	10
   611  000018                     ??_TMR1_Initialize:
   612  000018                     ?_strlen:
   613                           	callstack 0
   614  000018                     ?_ADC_GetConversion:
   615                           	callstack 0
   616  000018                     ?___aodiv:
   617                           	callstack 0
   618  000018                     ?___aomod:
   619                           	callstack 0
   620  000018                     EUSART2_Write@txData:
   621                           	callstack 0
   622  000018                     EUSART2_SetFramingErrorHandler@interruptHandler:
   623                           	callstack 0
   624  000018                     EUSART2_SetOverrunErrorHandler@interruptHandler:
   625                           	callstack 0
   626  000018                     EUSART2_SetErrorHandler@interruptHandler:
   627                           	callstack 0
   628  000018                     EUSART2_SetTxInterruptHandler@interruptHandler:
   629                           	callstack 0
   630  000018                     EUSART2_SetRxInterruptHandler@interruptHandler:
   631                           	callstack 0
   632  000018                     strlen@s:
   633                           	callstack 0
   634  000018                     ___aodiv@dividend:
   635                           	callstack 0
   636  000018                     ___aomod@dividend:
   637                           	callstack 0
   638                           
   639                           ; 8 bytes @ 0x17
   640  000018                     	ds	1
   641  000019                     putch@txData:
   642                           	callstack 0
   643                           
   644                           ; 1 bytes @ 0x18
   645  000019                     	ds	1
   646  00001A                     ??_ADC_GetConversion:
   647  00001A                     fputc@c:
   648                           	callstack 0
   649  00001A                     strlen@a:
   650                           	callstack 0
   651                           
   652                           ; 2 bytes @ 0x19
   653  00001A                     	ds	2
   654  00001C                     ADC_GetConversion@channel:
   655                           	callstack 0
   656  00001C                     fputc@fp:
   657                           	callstack 0
   658                           
   659                           ; 2 bytes @ 0x1B
   660  00001C                     	ds	2
   661  00001E                     ??_fputc:
   662                           
   663                           ; 1 bytes @ 0x1D
   664  00001E                     	ds	2
   665  000020                     ___aodiv@divisor:
   666                           	callstack 0
   667  000020                     ___aomod@divisor:
   668                           	callstack 0
   669                           
   670                           ; 8 bytes @ 0x1F
   671  000020                     	ds	3
   672  000023                     fputs@s:
   673                           	callstack 0
   674                           
   675                           ; 2 bytes @ 0x22
   676  000023                     	ds	2
   677  000025                     fputs@fp:
   678                           	callstack 0
   679                           
   680                           ; 2 bytes @ 0x24
   681  000025                     	ds	2
   682  000027                     fputs@c:
   683                           	callstack 0
   684                           
   685                           ; 1 bytes @ 0x26
   686  000027                     	ds	1
   687  000028                     ___aomod@counter:
   688                           	callstack 0
   689  000028                     fputs@i:
   690                           	callstack 0
   691                           
   692                           ; 2 bytes @ 0x27
   693  000028                     	ds	1
   694  000029                     ___aomod@sign:
   695                           	callstack 0
   696                           
   697                           ; 1 bytes @ 0x28
   698  000029                     	ds	1
   699  00002A                     ?_abs:
   700                           	callstack 0
   701  00002A                     ?_pad:
   702                           	callstack 0
   703  00002A                     pad@fp:
   704                           	callstack 0
   705  00002A                     abs@a:
   706                           	callstack 0
   707                           
   708                           ; 2 bytes @ 0x29
   709  00002A                     	ds	2
   710  00002C                     ??_abs:
   711  00002C                     pad@buf:
   712                           	callstack 0
   713                           
   714                           ; 2 bytes @ 0x2B
   715  00002C                     	ds	2
   716  00002E                     pad@p:
   717                           	callstack 0
   718                           
   719                           ; 2 bytes @ 0x2D
   720  00002E                     	ds	2
   721  000030                     ??_pad:
   722                           
   723                           ; 1 bytes @ 0x2F
   724  000030                     	ds	1
   725  000031                     
   726                           ; 1 bytes @ 0x30
   727 ;;
   728 ;;Main: autosize = 0, tempsize = 1, incstack = 0, save=0
   729 ;;
   730 ;; *************** function _main *****************
   731 ;; Defined at:
   732 ;;		line 60 in file "main.c"
   733 ;; Parameters:    Size  Location     Type
   734 ;;		None
   735 ;; Auto vars:     Size  Location     Type
   736 ;;  convertedVal    4   23[BANK1 ] unsigned long 
   737 ;;  updateDelay     4    0        unsigned long 
   738 ;;  previousMill    4    0        unsigned long 
   739 ;;  currentMilli    4    0        unsigned long 
   740 ;;  tempTesting     2    0        int 
   741 ;; Return value:  Size  Location     Type
   742 ;;                  1    wreg      void 
   743 ;; Registers used:
   744 ;;		wreg, fsr1l, fsr1h, fsr2l, fsr2h, status,2, status,0, tblptrl, tblptrh, tblptru, cstack
   745 ;; Tracked objects:
   746 ;;		On entry : 0/0
   747 ;;		On exit  : 0/0
   748 ;;		Unchanged: 0/0
   749 ;; Data sizes:     COMRAM   BANK0   BANK1   BANK2   BANK3   BANK4   BANK5   BANK6   BANK7   BANK8   BANK9  BANK10  BANK1
      +1  BANK12  BANK13  BANK14
   750 ;;      Params:         0       0       0       0       0       0       0       0       0       0       0       0       
      +0       0       0       0
   751 ;;      Locals:         0       0       4       0       0       0       0       0       0       0       0       0       
      +0       0       0       0
   752 ;;      Temps:          0       0       1       0       0       0       0       0       0       0       0       0       
      +0       0       0       0
   753 ;;      Totals:         0       0       5       0       0       0       0       0       0       0       0       0       
      +0       0       0       0
   754 ;;Total ram usage:        5 bytes
   755 ;; Hardware stack levels required when called: 16
   756 ;; This function calls:
   757 ;;		_ADC_GetConversion
   758 ;;		_SYSTEM_Initialize
   759 ;;		_printf
   760 ;; This function is called by:
   761 ;;		Startup code after reset
   762 ;; This function uses a non-reentrant model
   763 ;;
   764                           
   765                           	psect	text0
   766  001AC8                     __ptext0:
   767                           	callstack 0
   768  001AC8                     _main:
   769                           	callstack 15
   770  001AC8                     
   771                           ;main.c: 63:     SYSTEM_Initialize();
   772  001AC8  EC7E  F010         	call	_SYSTEM_Initialize	;wreg free
   773  001ACC                     
   774                           ;main.c: 70:     (INTCONbits.GIE = 1);
   775  001ACC  8EF2               	bsf	242,7,c	;volatile
   776  001ACE                     
   777                           ;main.c: 76:     (INTCONbits.PEIE = 1);
   778  001ACE  8CF2               	bsf	242,6,c	;volatile
   779  001AD0  8E89               	bsf	137,7,c	;volatile
   780  001AD2  8C89               	bsf	137,6,c	;volatile
   781  001AD4  908B               	bcf	139,0,c	;volatile
   782  001AD6  808B               	bsf	139,0,c	;volatile
   783  001AD8                     l4348:
   784                           
   785                           ;main.c: 103:     {;main.c: 104:         convertedValue = ADC_GetConversion(HRIN);
   786  001AD8  0E01               	movlw	1
   787  001ADA  EC9E  F00F         	call	_ADC_GetConversion
   788  001ADE  C018  F117         	movff	?_ADC_GetConversion,main@convertedValue
   789  001AE2  C019  F118         	movff	?_ADC_GetConversion+1,main@convertedValue+1
   790  001AE6  0101               	movlb	1	; () banked
   791  001AE8  6B19               	clrf	(main@convertedValue+2)& (0+255),b
   792  001AEA  6B1A               	clrf	(main@convertedValue+3)& (0+255),b
   793  001AEC                     
   794                           ; BSR set to: 1
   795                           ;main.c: 105:         if (convertedValue >= 32000)
   796  001AEC  511A               	movf	(main@convertedValue+3)& (0+255),w,b
   797  001AEE  1119               	iorwf	(main@convertedValue+2)& (0+255),w,b
   798  001AF0  E109               	bnz	u2650
   799  001AF2  0E7D               	movlw	125
   800  001AF4  5D18               	subwf	(main@convertedValue+1)& (0+255),w,b
   801  001AF6  A0D8               	btfss	status,0,c
   802  001AF8  EF80  F00D         	goto	u2651
   803  001AFC  EF82  F00D         	goto	u2650
   804  001B00                     u2651:
   805  001B00  EF85  F00D         	goto	l856
   806  001B04                     u2650:
   807  001B04                     
   808                           ; BSR set to: 1
   809  001B04  9E89               	bcf	137,7,c	;volatile
   810  001B06  EF86  F00D         	goto	l4352
   811  001B0A                     l856:
   812                           
   813                           ; BSR set to: 1
   814  001B0A  8E89               	bsf	137,7,c	;volatile
   815  001B0C                     l4352:
   816                           
   817                           ; BSR set to: 1
   818                           ;main.c: 111:         printf("Value = %d \r\n",convertedValue);
   819  001B0C  0E21               	movlw	low STR_1
   820  001B0E  6F0E               	movwf	printf@fmt& (0+255),b
   821  001B10  0E0F               	movlw	high STR_1
   822  001B12  6F0F               	movwf	(printf@fmt+1)& (0+255),b
   823  001B14  C117  F110         	movff	main@convertedValue,?_printf+2
   824  001B18  C118  F111         	movff	main@convertedValue+1,?_printf+3
   825  001B1C  C119  F112         	movff	main@convertedValue+2,?_printf+4
   826  001B20  C11A  F113         	movff	main@convertedValue+3,?_printf+5
   827  001B24  EC58  F010         	call	_printf	;wreg free
   828  001B28                     
   829                           ;main.c: 113:         _delay((unsigned long)((1)*(48000000/4000.0)));
   830  001B28  0E10               	movlw	16
   831  001B2A  0101               	movlb	1	; () banked
   832  001B2C  6F16               	movwf	??_main& (0+255),b
   833  001B2E  0E94               	movlw	148
   834  001B30                     u2667:
   835  001B30  2EE8               	decfsz	wreg,f,c
   836  001B32  D7FE               	bra	u2667
   837  001B34  2F16               	decfsz	??_main& (0+255),f,b
   838  001B36  D7FC               	bra	u2667
   839  001B38  F000               	nop	
   840  001B3A  EF6C  F00D         	goto	l4348
   841  001B3E  EF9F  F000         	goto	start
   842  001B42                     __end_of_main:
   843                           	callstack 0
   844                           
   845 ;; *************** function _printf *****************
   846 ;; Defined at:
   847 ;;		line 5 in file "C:\Program Files\Microchip\xc8\v2.35\pic\sources\c99\common\printf.c"
   848 ;; Parameters:    Size  Location     Type
   849 ;;  fmt             2   14[BANK1 ] PTR const unsigned char 
   850 ;;		 -> STR_1(14), 
   851 ;; Auto vars:     Size  Location     Type
   852 ;;  ap              2   20[BANK1 ] PTR void [1]
   853 ;;		 -> ?_printf(2), 
   854 ;;  ret             2    0        int 
   855 ;; Return value:  Size  Location     Type
   856 ;;                  2   14[BANK1 ] int 
   857 ;; Registers used:
   858 ;;		wreg, fsr1l, fsr1h, fsr2l, fsr2h, status,2, status,0, tblptrl, tblptrh, tblptru, cstack
   859 ;; Tracked objects:
   860 ;;		On entry : 0/0
   861 ;;		On exit  : 0/0
   862 ;;		Unchanged: 0/0
   863 ;; Data sizes:     COMRAM   BANK0   BANK1   BANK2   BANK3   BANK4   BANK5   BANK6   BANK7   BANK8   BANK9  BANK10  BANK1
      +1  BANK12  BANK13  BANK14
   864 ;;      Params:         0       0       6       0       0       0       0       0       0       0       0       0       
      +0       0       0       0
   865 ;;      Locals:         0       0       2       0       0       0       0       0       0       0       0       0       
      +0       0       0       0
   866 ;;      Temps:          0       0       0       0       0       0       0       0       0       0       0       0       
      +0       0       0       0
   867 ;;      Totals:         0       0       8       0       0       0       0       0       0       0       0       0       
      +0       0       0       0
   868 ;;Total ram usage:        8 bytes
   869 ;; Hardware stack levels used: 1
   870 ;; Hardware stack levels required when called: 15
   871 ;; This function calls:
   872 ;;		_vfprintf
   873 ;; This function is called by:
   874 ;;		_main
   875 ;; This function uses a non-reentrant model
   876 ;;
   877                           
   878                           	psect	text1
   879  0020B0                     __ptext1:
   880                           	callstack 0
   881  0020B0                     _printf:
   882                           	callstack 15
   883  0020B0  0E10               	movlw	low (?_printf+2)
   884  0020B2  0101               	movlb	1	; () banked
   885  0020B4  6F14               	movwf	printf@ap& (0+255),b
   886  0020B6  0E01               	movlw	high (?_printf+2)
   887  0020B8  6F15               	movwf	(printf@ap+1)& (0+255),b
   888  0020BA                     
   889                           ; BSR set to: 1
   890  0020BA  0E00               	movlw	0
   891  0020BC  6F08               	movwf	vfprintf@fp& (0+255),b
   892  0020BE  0E00               	movlw	0
   893  0020C0  6F09               	movwf	(vfprintf@fp+1)& (0+255),b
   894  0020C2  C10E  F10A         	movff	printf@fmt,vfprintf@fmt
   895  0020C6  C10F  F10B         	movff	printf@fmt+1,vfprintf@fmt+1
   896  0020CA  0E14               	movlw	low printf@ap
   897  0020CC  6F0C               	movwf	vfprintf@ap& (0+255),b
   898  0020CE  0E01               	movlw	high printf@ap
   899  0020D0  6F0D               	movwf	(vfprintf@ap+1)& (0+255),b
   900  0020D2  EC80  F00E         	call	_vfprintf	;wreg free
   901  0020D6  0012               	return		;funcret
   902  0020D8                     __end_of_printf:
   903                           	callstack 0
   904                           
   905 ;; *************** function _vfprintf *****************
   906 ;; Defined at:
   907 ;;		line 1390 in file "C:\Program Files\Microchip\xc8\v2.35\pic\sources\c99\common\doprnt.c"
   908 ;; Parameters:    Size  Location     Type
   909 ;;  fp              2    8[BANK1 ] PTR struct _IO_FILE
   910 ;;		 -> NULL(0), 
   911 ;;  fmt             2   10[BANK1 ] PTR const unsigned char 
   912 ;;		 -> STR_1(14), 
   913 ;;  ap              2   12[BANK1 ] PTR PTR void 
   914 ;;		 -> printf@ap(2), 
   915 ;; Auto vars:     Size  Location     Type
   916 ;;  cfmt            2   54[BANK0 ] PTR unsigned char 
   917 ;;		 -> STR_1(14), 
   918 ;; Return value:  Size  Location     Type
   919 ;;                  2    8[BANK1 ] int 
   920 ;; Registers used:
   921 ;;		wreg, fsr1l, fsr1h, fsr2l, fsr2h, status,2, status,0, tblptrl, tblptrh, tblptru, cstack
   922 ;; Tracked objects:
   923 ;;		On entry : 0/0
   924 ;;		On exit  : 0/0
   925 ;;		Unchanged: 0/0
   926 ;; Data sizes:     COMRAM   BANK0   BANK1   BANK2   BANK3   BANK4   BANK5   BANK6   BANK7   BANK8   BANK9  BANK10  BANK1
      +1  BANK12  BANK13  BANK14
   927 ;;      Params:         0       0       6       0       0       0       0       0       0       0       0       0       
      +0       0       0       0
   928 ;;      Locals:         0       2       0       0       0       0       0       0       0       0       0       0       
      +0       0       0       0
   929 ;;      Temps:          0       0       0       0       0       0       0       0       0       0       0       0       
      +0       0       0       0
   930 ;;      Totals:         0       2       6       0       0       0       0       0       0       0       0       0       
      +0       0       0       0
   931 ;;Total ram usage:        8 bytes
   932 ;; Hardware stack levels used: 1
   933 ;; Hardware stack levels required when called: 14
   934 ;; This function calls:
   935 ;;		_vfpfcnvrt
   936 ;; This function is called by:
   937 ;;		_printf
   938 ;; This function uses a non-reentrant model
   939 ;;
   940                           
   941                           	psect	text2
   942  001D00                     __ptext2:
   943                           	callstack 0
   944  001D00                     _vfprintf:
   945                           	callstack 15
   946  001D00                     
   947                           ;C:\Program Files\Microchip\xc8\v2.35\pic\sources\c99\common\doprnt.c: 1390: int vfprint
      +                          f(FILE *fp, const char *fmt, va_list ap);C:\Program Files\Microchip\xc8\v2.35\pic\source
      +                          s\c99\common\doprnt.c: 1391: {;C:\Program Files\Microchip\xc8\v2.35\pic\sources\c99\comm
      +                          on\doprnt.c: 1393:     char *cfmt;;C:\Program Files\Microchip\xc8\v2.35\pic\sources\c99\
      +                          common\doprnt.c: 1395:     cfmt = (char *)fmt;
   948  001D00  C10A  F0F4         	movff	vfprintf@fmt,vfprintf@cfmt
   949  001D04  C10B  F0F5         	movff	vfprintf@fmt+1,vfprintf@cfmt+1
   950  001D08                     
   951                           ;C:\Program Files\Microchip\xc8\v2.35\pic\sources\c99\common\doprnt.c: 1396:     nout = 
      +                          0;
   952  001D08  0E00               	movlw	0
   953  001D0A  0100               	movlb	0	; () banked
   954  001D0C  6F9D               	movwf	(_nout+1)& (0+255),b
   955  001D0E  0E00               	movlw	0
   956  001D10  6F9C               	movwf	_nout& (0+255),b
   957                           
   958                           ;C:\Program Files\Microchip\xc8\v2.35\pic\sources\c99\common\doprnt.c: 1397:     while (
      +                          *cfmt) {
   959  001D12  EF9E  F00E         	goto	l4290
   960  001D16                     l4288:
   961                           
   962                           ; BSR set to: 0
   963                           ;C:\Program Files\Microchip\xc8\v2.35\pic\sources\c99\common\doprnt.c: 1398:         nou
      +                          t += vfpfcnvrt(fp, &cfmt, ap);
   964  001D16  C108  F0EC         	movff	vfprintf@fp,vfpfcnvrt@fp
   965  001D1A  C109  F0ED         	movff	vfprintf@fp+1,vfpfcnvrt@fp+1
   966  001D1E  0EF4               	movlw	low vfprintf@cfmt
   967  001D20  6FEE               	movwf	vfpfcnvrt@fmt& (0+255),b
   968  001D22  0E00               	movlw	high vfprintf@cfmt
   969  001D24  6FEF               	movwf	(vfpfcnvrt@fmt+1)& (0+255),b
   970  001D26  C10C  F0F0         	movff	vfprintf@ap,vfpfcnvrt@ap
   971  001D2A  C10D  F0F1         	movff	vfprintf@ap+1,vfpfcnvrt@ap+1
   972  001D2E  EC09  F009         	call	_vfpfcnvrt	;wreg free
   973  001D32  0100               	movlb	0	; () banked
   974  001D34  51EC               	movf	?_vfpfcnvrt& (0+255),w,b
   975  001D36  279C               	addwf	_nout& (0+255),f,b
   976  001D38  51ED               	movf	(?_vfpfcnvrt+1)& (0+255),w,b
   977  001D3A  239D               	addwfc	(_nout+1)& (0+255),f,b
   978  001D3C                     l4290:
   979                           
   980                           ; BSR set to: 0
   981                           ;C:\Program Files\Microchip\xc8\v2.35\pic\sources\c99\common\doprnt.c: 1397:     while (
      +                          *cfmt) {
   982  001D3C  C0F4  FFF6         	movff	vfprintf@cfmt,tblptrl
   983  001D40  C0F5  FFF7         	movff	vfprintf@cfmt+1,tblptrh
   984  001D44                     	if	0	;tblptru may be non-zero
   985  001D44                     	endif
   986  001D44                     	if	0	;tblptru may be non-zero
   987  001D44                     	endif
   988  001D44  0008               	tblrd		*
   989  001D46  50F5               	movf	tablat,w,c
   990  001D48  0900               	iorlw	0
   991  001D4A  A4D8               	btfss	status,2,c
   992  001D4C  EFAA  F00E         	goto	u2631
   993  001D50  EFAC  F00E         	goto	u2630
   994  001D54                     u2631:
   995  001D54  EF8B  F00E         	goto	l4288
   996  001D58                     u2630:
   997  001D58                     
   998                           ; BSR set to: 0
   999                           ;C:\Program Files\Microchip\xc8\v2.35\pic\sources\c99\common\doprnt.c: 1400:     return 
      +                          nout;
  1000  001D58  C09C  F108         	movff	_nout,?_vfprintf
  1001  001D5C  C09D  F109         	movff	_nout+1,?_vfprintf+1
  1002  001D60                     
  1003                           ; BSR set to: 0
  1004  001D60  0012               	return		;funcret
  1005  001D62                     __end_of_vfprintf:
  1006                           	callstack 0
  1007                           
  1008 ;; *************** function _vfpfcnvrt *****************
  1009 ;; Defined at:
  1010 ;;		line 692 in file "C:\Program Files\Microchip\xc8\v2.35\pic\sources\c99\common\doprnt.c"
  1011 ;; Parameters:    Size  Location     Type
  1012 ;;  fp              2   46[BANK0 ] PTR struct _IO_FILE
  1013 ;;		 -> NULL(0), 
  1014 ;;  fmt             2   48[BANK0 ] PTR PTR unsigned char 
  1015 ;;		 -> vfprintf@cfmt(2), 
  1016 ;;  ap              2   50[BANK0 ] PTR PTR void 
  1017 ;;		 -> printf@ap(2), 
  1018 ;; Auto vars:     Size  Location     Type
  1019 ;;  ll              8    0[BANK1 ] long long 
  1020 ;;  llu             8    0        unsigned long long 
  1021 ;;  f               4    0        unsigned long long 
  1022 ;;  vp              3    0        PTR void 
  1023 ;;  ct              3    0        unsigned char [3]
  1024 ;;  cp              3    0        PTR unsigned char 
  1025 ;;  i               2    0        int 
  1026 ;;  done            2    0        int 
  1027 ;;  c               1    0        unsigned char 
  1028 ;; Return value:  Size  Location     Type
  1029 ;;                  2   46[BANK0 ] int 
  1030 ;; Registers used:
  1031 ;;		wreg, fsr1l, fsr1h, fsr2l, fsr2h, status,2, status,0, tblptrl, tblptrh, tblptru, cstack
  1032 ;; Tracked objects:
  1033 ;;		On entry : 0/0
  1034 ;;		On exit  : 0/0
  1035 ;;		Unchanged: 0/0
  1036 ;; Data sizes:     COMRAM   BANK0   BANK1   BANK2   BANK3   BANK4   BANK5   BANK6   BANK7   BANK8   BANK9  BANK10  BANK1
      +1  BANK12  BANK13  BANK14
  1037 ;;      Params:         0       6       0       0       0       0       0       0       0       0       0       0       
      +0       0       0       0
  1038 ;;      Locals:         0       0       8       0       0       0       0       0       0       0       0       0       
      +0       0       0       0
  1039 ;;      Temps:          0       2       0       0       0       0       0       0       0       0       0       0       
      +0       0       0       0
  1040 ;;      Totals:         0       8       8       0       0       0       0       0       0       0       0       0       
      +0       0       0       0
  1041 ;;Total ram usage:       16 bytes
  1042 ;; Hardware stack levels used: 1
  1043 ;; Hardware stack levels required when called: 13
  1044 ;; This function calls:
  1045 ;;		_dtoa
  1046 ;;		_fputc
  1047 ;; This function is called by:
  1048 ;;		_vfprintf
  1049 ;; This function uses a non-reentrant model
  1050 ;;
  1051                           
  1052                           	psect	text3
  1053  001212                     __ptext3:
  1054                           	callstack 0
  1055  001212                     _vfpfcnvrt:
  1056                           	callstack 15
  1057  001212                     
  1058                           ;C:\Program Files\Microchip\xc8\v2.35\pic\sources\c99\common\doprnt.c: 692: static int v
      +                          fpfcnvrt(FILE *fp, char *fmt[], va_list ap);C:\Program Files\Microchip\xc8\v2.35\pic\sou
      +                          rces\c99\common\doprnt.c: 693: {;C:\Program Files\Microchip\xc8\v2.35\pic\sources\c99\co
      +                          mmon\doprnt.c: 694:     char c, *cp, ct[3];;C:\Program Files\Microchip\xc8\v2.35\pic\sou
      +                          rces\c99\common\doprnt.c: 695:     int done, i;;C:\Program Files\Microchip\xc8\v2.35\pic
      +                          \sources\c99\common\doprnt.c: 696:     long long ll;;C:\Program Files\Microchip\xc8\v2.3
      +                          5\pic\sources\c99\common\doprnt.c: 697:     unsigned long long llu;
  1059  001212  C0EE  FFD9         	movff	vfpfcnvrt@fmt,fsr2l
  1060  001216  C0EF  FFDA         	movff	vfpfcnvrt@fmt+1,fsr2h
  1061  00121A  CFDE FFF6          	movff	postinc2,tblptrl
  1062  00121E  CFDD FFF7          	movff	postdec2,tblptrh
  1063  001222                     	if	0	;tblptru may be non-zero
  1064  001222                     	endif
  1065  001222                     	if	0	;tblptru may be non-zero
  1066  001222                     	endif
  1067  001222  0008               	tblrd		*
  1068  001224  50F5               	movf	tablat,w,c
  1069  001226  0A25               	xorlw	37
  1070  001228  A4D8               	btfss	status,2,c
  1071  00122A  EF19  F009         	goto	u2591
  1072  00122E  EF1B  F009         	goto	u2590
  1073  001232                     u2591:
  1074  001232  EFC9  F009         	goto	l4224
  1075  001236                     u2590:
  1076  001236                     
  1077                           ;C:\Program Files\Microchip\xc8\v2.35\pic\sources\c99\common\doprnt.c: 703:         ++*f
      +                          mt;
  1078  001236  C0EE  FFD9         	movff	vfpfcnvrt@fmt,fsr2l
  1079  00123A  C0EF  FFDA         	movff	vfpfcnvrt@fmt+1,fsr2h
  1080  00123E  2ADE               	incf	postinc2,f,c
  1081  001240  0E00               	movlw	0
  1082  001242  22DD               	addwfc	postdec2,f,c
  1083  001244                     
  1084                           ;C:\Program Files\Microchip\xc8\v2.35\pic\sources\c99\common\doprnt.c: 705:         flag
      +                          s = width = 0;
  1085  001244  0E00               	movlw	0
  1086  001246  6E32               	movwf	(_width+1)^0,c
  1087  001248  0E00               	movlw	0
  1088  00124A  6E31               	movwf	_width^0,c
  1089  00124C  C031  F035         	movff	_width,_flags
  1090  001250  C032  F036         	movff	_width+1,_flags+1
  1091  001254                     
  1092                           ;C:\Program Files\Microchip\xc8\v2.35\pic\sources\c99\common\doprnt.c: 706:         prec
      +                           = -1;
  1093  001254  6833               	setf	_prec^0,c
  1094  001256  6834               	setf	(_prec+1)^0,c
  1095  001258                     
  1096                           ;C:\Program Files\Microchip\xc8\v2.35\pic\sources\c99\common\doprnt.c: 847:         if (
      +                          (*fmt[0] == 'd') || (*fmt[0] == 'i')) {
  1097  001258  C0EE  FFD9         	movff	vfpfcnvrt@fmt,fsr2l
  1098  00125C  C0EF  FFDA         	movff	vfpfcnvrt@fmt+1,fsr2h
  1099  001260  CFDE FFF6          	movff	postinc2,tblptrl
  1100  001264  CFDD FFF7          	movff	postdec2,tblptrh
  1101  001268                     	if	0	;tblptru may be non-zero
  1102  001268                     	endif
  1103  001268                     	if	0	;tblptru may be non-zero
  1104  001268                     	endif
  1105  001268  0008               	tblrd		*
  1106  00126A  50F5               	movf	tablat,w,c
  1107  00126C  0A64               	xorlw	100
  1108  00126E  B4D8               	btfsc	status,2,c
  1109  001270  EF3C  F009         	goto	u2601
  1110  001274  EF3E  F009         	goto	u2600
  1111  001278                     u2601:
  1112  001278  EF50  F009         	goto	l4202
  1113  00127C                     u2600:
  1114  00127C  C0EE  FFD9         	movff	vfpfcnvrt@fmt,fsr2l
  1115  001280  C0EF  FFDA         	movff	vfpfcnvrt@fmt+1,fsr2h
  1116  001284  CFDE FFF6          	movff	postinc2,tblptrl
  1117  001288  CFDD FFF7          	movff	postdec2,tblptrh
  1118  00128C                     	if	0	;tblptru may be non-zero
  1119  00128C                     	endif
  1120  00128C                     	if	0	;tblptru may be non-zero
  1121  00128C                     	endif
  1122  00128C  0008               	tblrd		*
  1123  00128E  50F5               	movf	tablat,w,c
  1124  001290  0A69               	xorlw	105
  1125  001292  A4D8               	btfss	status,2,c
  1126  001294  EF4E  F009         	goto	u2611
  1127  001298  EF50  F009         	goto	u2610
  1128  00129C                     u2611:
  1129  00129C  EF91  F009         	goto	l4208
  1130  0012A0                     u2610:
  1131  0012A0                     l4202:
  1132                           
  1133                           ;C:\Program Files\Microchip\xc8\v2.35\pic\sources\c99\common\doprnt.c: 849:             
      +                          ++*fmt;
  1134  0012A0  C0EE  FFD9         	movff	vfpfcnvrt@fmt,fsr2l
  1135  0012A4  C0EF  FFDA         	movff	vfpfcnvrt@fmt+1,fsr2h
  1136  0012A8  2ADE               	incf	postinc2,f,c
  1137  0012AA  0E00               	movlw	0
  1138  0012AC  22DD               	addwfc	postdec2,f,c
  1139                           
  1140                           ;C:\Program Files\Microchip\xc8\v2.35\pic\sources\c99\common\doprnt.c: 850:             
      +                          ll = (long long)(*(int *)__va_arg(*(int **)ap, (int)0));
  1141  0012AE  C0F0  FFD9         	movff	vfpfcnvrt@ap,fsr2l
  1142  0012B2  C0F1  FFDA         	movff	vfpfcnvrt@ap+1,fsr2h
  1143  0012B6  CFDF F0F2          	movff	indf2,??_vfpfcnvrt
  1144  0012BA  0E02               	movlw	2
  1145  0012BC  26DE               	addwf	postinc2,f,c
  1146  0012BE  CFDF F0F3          	movff	indf2,??_vfpfcnvrt+1
  1147  0012C2  0E00               	movlw	0
  1148  0012C4  22DD               	addwfc	postdec2,f,c
  1149  0012C6  C0F2  FFD9         	movff	??_vfpfcnvrt,fsr2l
  1150  0012CA  C0F3  FFDA         	movff	??_vfpfcnvrt+1,fsr2h
  1151  0012CE  CFDE F100          	movff	postinc2,vfpfcnvrt@ll
  1152  0012D2  CFDD F101          	movff	postdec2,vfpfcnvrt@ll+1
  1153  0012D6  0101               	movlb	1	; () banked
  1154  0012D8  0E00               	movlw	0
  1155  0012DA  BF01               	btfsc	(vfpfcnvrt@ll+1)& (0+255),7,b
  1156  0012DC  0EFF               	movlw	-1
  1157  0012DE  6F02               	movwf	(vfpfcnvrt@ll+2)& (0+255),b
  1158  0012E0  6F03               	movwf	(vfpfcnvrt@ll+3)& (0+255),b
  1159  0012E2  6F04               	movwf	(vfpfcnvrt@ll+4)& (0+255),b
  1160  0012E4  6F05               	movwf	(vfpfcnvrt@ll+5)& (0+255),b
  1161  0012E6  6F06               	movwf	(vfpfcnvrt@ll+6)& (0+255),b
  1162  0012E8  6F07               	movwf	(vfpfcnvrt@ll+7)& (0+255),b
  1163  0012EA                     
  1164                           ; BSR set to: 1
  1165                           ;C:\Program Files\Microchip\xc8\v2.35\pic\sources\c99\common\doprnt.c: 852:             
      +                          return dtoa(fp, ll);
  1166  0012EA  C0EC  F0C8         	movff	vfpfcnvrt@fp,dtoa@fp
  1167  0012EE  C0ED  F0C9         	movff	vfpfcnvrt@fp+1,dtoa@fp+1
  1168  0012F2  C100  F0CA         	movff	vfpfcnvrt@ll,dtoa@d
  1169  0012F6  C101  F0CB         	movff	vfpfcnvrt@ll+1,dtoa@d+1
  1170  0012FA  C102  F0CC         	movff	vfpfcnvrt@ll+2,dtoa@d+2
  1171  0012FE  C103  F0CD         	movff	vfpfcnvrt@ll+3,dtoa@d+3
  1172  001302  C104  F0CE         	movff	vfpfcnvrt@ll+4,dtoa@d+4
  1173  001306  C105  F0CF         	movff	vfpfcnvrt@ll+5,dtoa@d+5
  1174  00130A  C106  F0D0         	movff	vfpfcnvrt@ll+6,dtoa@d+6
  1175  00130E  C107  F0D1         	movff	vfpfcnvrt@ll+7,dtoa@d+7
  1176  001312  EC98  F007         	call	_dtoa	;wreg free
  1177  001316  C0C8  F0EC         	movff	?_dtoa,?_vfpfcnvrt
  1178  00131A  C0C9  F0ED         	movff	?_dtoa+1,?_vfpfcnvrt+1
  1179  00131E  EFE4  F009         	goto	l1606
  1180  001322                     l4208:
  1181                           
  1182                           ;C:\Program Files\Microchip\xc8\v2.35\pic\sources\c99\common\doprnt.c: 1372:         if 
      +                          ((*fmt)[0] == '%') {
  1183  001322  C0EE  FFD9         	movff	vfpfcnvrt@fmt,fsr2l
  1184  001326  C0EF  FFDA         	movff	vfpfcnvrt@fmt+1,fsr2h
  1185  00132A  CFDE FFF6          	movff	postinc2,tblptrl
  1186  00132E  CFDD FFF7          	movff	postdec2,tblptrh
  1187  001332                     	if	0	;tblptru may be non-zero
  1188  001332                     	endif
  1189  001332                     	if	0	;tblptru may be non-zero
  1190  001332                     	endif
  1191  001332  0008               	tblrd		*
  1192  001334  50F5               	movf	tablat,w,c
  1193  001336  0A25               	xorlw	37
  1194  001338  A4D8               	btfss	status,2,c
  1195  00133A  EFA1  F009         	goto	u2621
  1196  00133E  EFA3  F009         	goto	u2620
  1197  001342                     u2621:
  1198  001342  EFBB  F009         	goto	l4218
  1199  001346                     u2620:
  1200  001346                     
  1201                           ;C:\Program Files\Microchip\xc8\v2.35\pic\sources\c99\common\doprnt.c: 1373:            
      +                           ++*fmt;
  1202  001346  C0EE  FFD9         	movff	vfpfcnvrt@fmt,fsr2l
  1203  00134A  C0EF  FFDA         	movff	vfpfcnvrt@fmt+1,fsr2h
  1204  00134E  2ADE               	incf	postinc2,f,c
  1205  001350  0E00               	movlw	0
  1206  001352  22DD               	addwfc	postdec2,f,c
  1207  001354                     
  1208                           ;C:\Program Files\Microchip\xc8\v2.35\pic\sources\c99\common\doprnt.c: 1374:            
      +                           fputc((int)'%', fp);
  1209  001354  0E00               	movlw	0
  1210  001356  6E1B               	movwf	(fputc@c+1)^0,c
  1211  001358  0E25               	movlw	37
  1212  00135A  6E1A               	movwf	fputc@c^0,c
  1213  00135C  C0EC  F01C         	movff	vfpfcnvrt@fp,fputc@fp
  1214  001360  C0ED  F01D         	movff	vfpfcnvrt@fp+1,fputc@fp+1
  1215  001364  ECDA  F00C         	call	_fputc	;wreg free
  1216  001368                     l4214:
  1217                           
  1218                           ;C:\Program Files\Microchip\xc8\v2.35\pic\sources\c99\common\doprnt.c: 1375:            
      +                           return 1;
  1219  001368  0E00               	movlw	0
  1220  00136A  0100               	movlb	0	; () banked
  1221  00136C  6FED               	movwf	(?_vfpfcnvrt+1)& (0+255),b
  1222  00136E  0E01               	movlw	1
  1223  001370  6FEC               	movwf	?_vfpfcnvrt& (0+255),b
  1224  001372  EFE4  F009         	goto	l1606
  1225  001376                     l4218:
  1226                           
  1227                           ;C:\Program Files\Microchip\xc8\v2.35\pic\sources\c99\common\doprnt.c: 1379:         ++*
      +                          fmt;
  1228  001376  C0EE  FFD9         	movff	vfpfcnvrt@fmt,fsr2l
  1229  00137A  C0EF  FFDA         	movff	vfpfcnvrt@fmt+1,fsr2h
  1230  00137E  2ADE               	incf	postinc2,f,c
  1231  001380  0E00               	movlw	0
  1232  001382  22DD               	addwfc	postdec2,f,c
  1233  001384                     
  1234                           ;C:\Program Files\Microchip\xc8\v2.35\pic\sources\c99\common\doprnt.c: 1380:         ret
      +                          urn 0;
  1235  001384  0E00               	movlw	0
  1236  001386  0100               	movlb	0	; () banked
  1237  001388  6FED               	movwf	(?_vfpfcnvrt+1)& (0+255),b
  1238  00138A  0E00               	movlw	0
  1239  00138C  6FEC               	movwf	?_vfpfcnvrt& (0+255),b
  1240  00138E  EFE4  F009         	goto	l1606
  1241  001392                     l4224:
  1242                           
  1243                           ;C:\Program Files\Microchip\xc8\v2.35\pic\sources\c99\common\doprnt.c: 1384:     fputc((
      +                          int)(*fmt)[0], fp);
  1244  001392  C0EE  FFD9         	movff	vfpfcnvrt@fmt,fsr2l
  1245  001396  C0EF  FFDA         	movff	vfpfcnvrt@fmt+1,fsr2h
  1246  00139A  CFDE FFF6          	movff	postinc2,tblptrl
  1247  00139E  CFDD FFF7          	movff	postdec2,tblptrh
  1248  0013A2                     	if	0	;tblptru may be non-zero
  1249  0013A2                     	endif
  1250  0013A2                     	if	0	;tblptru may be non-zero
  1251  0013A2                     	endif
  1252  0013A2  0008               	tblrd		*
  1253  0013A4  50F5               	movf	tablat,w,c
  1254  0013A6  6E1A               	movwf	fputc@c^0,c
  1255  0013A8  6A1B               	clrf	(fputc@c+1)^0,c
  1256  0013AA  C0EC  F01C         	movff	vfpfcnvrt@fp,fputc@fp
  1257  0013AE  C0ED  F01D         	movff	vfpfcnvrt@fp+1,fputc@fp+1
  1258  0013B2  ECDA  F00C         	call	_fputc	;wreg free
  1259  0013B6                     
  1260                           ;C:\Program Files\Microchip\xc8\v2.35\pic\sources\c99\common\doprnt.c: 1385:     ++*fmt;
  1261  0013B6  C0EE  FFD9         	movff	vfpfcnvrt@fmt,fsr2l
  1262  0013BA  C0EF  FFDA         	movff	vfpfcnvrt@fmt+1,fsr2h
  1263  0013BE  2ADE               	incf	postinc2,f,c
  1264  0013C0  0E00               	movlw	0
  1265  0013C2  22DD               	addwfc	postdec2,f,c
  1266  0013C4  EFB4  F009         	goto	l4214
  1267  0013C8                     l1606:
  1268  0013C8  0012               	return		;funcret
  1269  0013CA                     __end_of_vfpfcnvrt:
  1270                           	callstack 0
  1271                           
  1272 ;; *************** function _dtoa *****************
  1273 ;; Defined at:
  1274 ;;		line 287 in file "C:\Program Files\Microchip\xc8\v2.35\pic\sources\c99\common\doprnt.c"
  1275 ;; Parameters:    Size  Location     Type
  1276 ;;  fp              2   10[BANK0 ] PTR struct _IO_FILE
  1277 ;;		 -> NULL(0), 
  1278 ;;  d               8   12[BANK0 ] long long 
  1279 ;; Auto vars:     Size  Location     Type
  1280 ;;  n               8   36[BANK0 ] long long 
  1281 ;;  i               2   44[BANK0 ] int 
  1282 ;;  s               2   34[BANK0 ] int 
  1283 ;;  w               2   32[BANK0 ] int 
  1284 ;;  p               2   30[BANK0 ] int 
  1285 ;; Return value:  Size  Location     Type
  1286 ;;                  2   10[BANK0 ] int 
  1287 ;; Registers used:
  1288 ;;		wreg, fsr1l, fsr1h, fsr2l, fsr2h, status,2, status,0, cstack
  1289 ;; Tracked objects:
  1290 ;;		On entry : 0/0
  1291 ;;		On exit  : 0/0
  1292 ;;		Unchanged: 0/0
  1293 ;; Data sizes:     COMRAM   BANK0   BANK1   BANK2   BANK3   BANK4   BANK5   BANK6   BANK7   BANK8   BANK9  BANK10  BANK1
      +1  BANK12  BANK13  BANK14
  1294 ;;      Params:         0      10       0       0       0       0       0       0       0       0       0       0       
      +0       0       0       0
  1295 ;;      Locals:         0      18       0       0       0       0       0       0       0       0       0       0       
      +0       0       0       0
  1296 ;;      Temps:          0       8       0       0       0       0       0       0       0       0       0       0       
      +0       0       0       0
  1297 ;;      Totals:         0      36       0       0       0       0       0       0       0       0       0       0       
      +0       0       0       0
  1298 ;;Total ram usage:       36 bytes
  1299 ;; Hardware stack levels used: 1
  1300 ;; Hardware stack levels required when called: 12
  1301 ;; This function calls:
  1302 ;;		___aodiv
  1303 ;;		___aomod
  1304 ;;		_abs
  1305 ;;		_pad
  1306 ;; This function is called by:
  1307 ;;		_vfpfcnvrt
  1308 ;; This function uses a non-reentrant model
  1309 ;;
  1310                           
  1311                           	psect	text4
  1312  000F30                     __ptext4:
  1313                           	callstack 0
  1314  000F30                     _dtoa:
  1315                           	callstack 15
  1316  000F30                     
  1317                           ;C:\Program Files\Microchip\xc8\v2.35\pic\sources\c99\common\doprnt.c: 287: static int d
      +                          toa(FILE *fp, long long d);C:\Program Files\Microchip\xc8\v2.35\pic\sources\c99\common\d
      +                          oprnt.c: 288: {;C:\Program Files\Microchip\xc8\v2.35\pic\sources\c99\common\doprnt.c: 28
      +                          9:     int i, p, s, w;;C:\Program Files\Microchip\xc8\v2.35\pic\sources\c99\common\doprn
      +                          t.c: 290:     long long n;;C:\Program Files\Microchip\xc8\v2.35\pic\sources\c99\common\d
      +                          oprnt.c: 293:     n = d;
  1318  000F30  C0CA  F0E2         	movff	dtoa@d,dtoa@n
  1319  000F34  C0CB  F0E3         	movff	dtoa@d+1,dtoa@n+1
  1320  000F38  C0CC  F0E4         	movff	dtoa@d+2,dtoa@n+2
  1321  000F3C  C0CD  F0E5         	movff	dtoa@d+3,dtoa@n+3
  1322  000F40  C0CE  F0E6         	movff	dtoa@d+4,dtoa@n+4
  1323  000F44  C0CF  F0E7         	movff	dtoa@d+5,dtoa@n+5
  1324  000F48  C0D0  F0E8         	movff	dtoa@d+6,dtoa@n+6
  1325  000F4C  C0D1  F0E9         	movff	dtoa@d+7,dtoa@n+7
  1326  000F50                     
  1327                           ;C:\Program Files\Microchip\xc8\v2.35\pic\sources\c99\common\doprnt.c: 294:     s = n < 
      +                          0 ? 1 : 0;
  1328  000F50  0100               	movlb	0	; () banked
  1329  000F52  BFE9               	btfsc	(dtoa@n+7)& (0+255),7,b
  1330  000F54  EFAE  F007         	goto	u2441
  1331  000F58  EFB1  F007         	goto	u2440
  1332  000F5C                     u2441:
  1333  000F5C  0E01               	movlw	1
  1334  000F5E  EFB2  F007         	goto	u2450
  1335  000F62                     u2440:
  1336  000F62  0E00               	movlw	0
  1337  000F64                     u2450:
  1338  000F64  6FE0               	movwf	dtoa@s& (0+255),b
  1339  000F66  6BE1               	clrf	(dtoa@s+1)& (0+255),b
  1340                           
  1341                           ;C:\Program Files\Microchip\xc8\v2.35\pic\sources\c99\common\doprnt.c: 295:     if (s) {
  1342  000F68  51E0               	movf	dtoa@s& (0+255),w,b
  1343  000F6A  11E1               	iorwf	(dtoa@s+1)& (0+255),w,b
  1344  000F6C  B4D8               	btfsc	status,2,c
  1345  000F6E  EFBB  F007         	goto	u2461
  1346  000F72  EFBD  F007         	goto	u2460
  1347  000F76                     u2461:
  1348  000F76  EFCD  F007         	goto	l4124
  1349  000F7A                     u2460:
  1350  000F7A                     
  1351                           ; BSR set to: 0
  1352                           ;C:\Program Files\Microchip\xc8\v2.35\pic\sources\c99\common\doprnt.c: 296:         n = 
      +                          -n;
  1353  000F7A  1FE9               	comf	(dtoa@n+7)& (0+255),f,b
  1354  000F7C  1FE8               	comf	(dtoa@n+6)& (0+255),f,b
  1355  000F7E  1FE7               	comf	(dtoa@n+5)& (0+255),f,b
  1356  000F80  1FE6               	comf	(dtoa@n+4)& (0+255),f,b
  1357  000F82  1FE5               	comf	(dtoa@n+3)& (0+255),f,b
  1358  000F84  1FE4               	comf	(dtoa@n+2)& (0+255),f,b
  1359  000F86  1FE3               	comf	(dtoa@n+1)& (0+255),f,b
  1360  000F88  6DE2               	negf	dtoa@n& (0+255),b
  1361  000F8A  0E00               	movlw	0
  1362  000F8C  23E3               	addwfc	(dtoa@n+1)& (0+255),f,b
  1363  000F8E  23E4               	addwfc	(dtoa@n+2)& (0+255),f,b
  1364  000F90  23E5               	addwfc	(dtoa@n+3)& (0+255),f,b
  1365  000F92  23E6               	addwfc	(dtoa@n+4)& (0+255),f,b
  1366  000F94  23E7               	addwfc	(dtoa@n+5)& (0+255),f,b
  1367  000F96  23E8               	addwfc	(dtoa@n+6)& (0+255),f,b
  1368  000F98  23E9               	addwfc	(dtoa@n+7)& (0+255),f,b
  1369  000F9A                     l4124:
  1370                           
  1371                           ; BSR set to: 0
  1372                           ;C:\Program Files\Microchip\xc8\v2.35\pic\sources\c99\common\doprnt.c: 300:     if (!(pr
      +                          ec < 0)) {
  1373  000F9A  BE34               	btfsc	(_prec+1)^0,7,c
  1374  000F9C  EFD2  F007         	goto	u2471
  1375  000FA0  EFD4  F007         	goto	u2470
  1376  000FA4                     u2471:
  1377  000FA4  EFD5  F007         	goto	l4128
  1378  000FA8                     u2470:
  1379  000FA8                     
  1380                           ; BSR set to: 0
  1381                           ;C:\Program Files\Microchip\xc8\v2.35\pic\sources\c99\common\doprnt.c: 301:         flag
      +                          s &= ~(1 << 1);
  1382  000FA8  9235               	bcf	_flags^0,1,c
  1383  000FAA                     l4128:
  1384                           
  1385                           ; BSR set to: 0
  1386                           ;C:\Program Files\Microchip\xc8\v2.35\pic\sources\c99\common\doprnt.c: 303:     p = (0 <
      +                           prec) ? prec : 1;
  1387  000FAA  BE34               	btfsc	(_prec+1)^0,7,c
  1388  000FAC  EFE2  F007         	goto	u2480
  1389  000FB0  5034               	movf	(_prec+1)^0,w,c
  1390  000FB2  E106               	bnz	u2481
  1391  000FB4  0433               	decf	_prec^0,w,c
  1392  000FB6  B0D8               	btfsc	status,0,c
  1393  000FB8  EFE0  F007         	goto	u2481
  1394  000FBC  EFE2  F007         	goto	u2480
  1395  000FC0                     u2481:
  1396  000FC0  EFE8  F007         	goto	l1579
  1397  000FC4                     u2480:
  1398  000FC4                     
  1399                           ; BSR set to: 0
  1400  000FC4  0E00               	movlw	0
  1401  000FC6  6FDD               	movwf	(dtoa@p+1)& (0+255),b
  1402  000FC8  0E01               	movlw	1
  1403  000FCA  6FDC               	movwf	dtoa@p& (0+255),b
  1404  000FCC  EFEC  F007         	goto	l1581
  1405  000FD0                     l1579:
  1406                           
  1407                           ; BSR set to: 0
  1408  000FD0  C033  F0DC         	movff	_prec,dtoa@p
  1409  000FD4  C034  F0DD         	movff	_prec+1,dtoa@p+1
  1410  000FD8                     l1581:
  1411                           
  1412                           ; BSR set to: 0
  1413                           ;C:\Program Files\Microchip\xc8\v2.35\pic\sources\c99\common\doprnt.c: 304:     w = widt
      +                          h;
  1414  000FD8  C031  F0DE         	movff	_width,dtoa@w
  1415  000FDC  C032  F0DF         	movff	_width+1,dtoa@w+1
  1416  000FE0                     
  1417                           ; BSR set to: 0
  1418                           ;C:\Program Files\Microchip\xc8\v2.35\pic\sources\c99\common\doprnt.c: 305:     if (s ||
      +                           (flags & (1 << 2))) {
  1419  000FE0  51E0               	movf	dtoa@s& (0+255),w,b
  1420  000FE2  11E1               	iorwf	(dtoa@s+1)& (0+255),w,b
  1421  000FE4  A4D8               	btfss	status,2,c
  1422  000FE6  EFF7  F007         	goto	u2491
  1423  000FEA  EFF9  F007         	goto	u2490
  1424  000FEE                     u2491:
  1425  000FEE  EF00  F008         	goto	l4136
  1426  000FF2                     u2490:
  1427  000FF2                     
  1428                           ; BSR set to: 0
  1429  000FF2  A435               	btfss	_flags^0,2,c
  1430  000FF4  EFFE  F007         	goto	u2501
  1431  000FF8  EF00  F008         	goto	u2500
  1432  000FFC                     u2501:
  1433  000FFC  EF03  F008         	goto	l4138
  1434  001000                     u2500:
  1435  001000                     l4136:
  1436                           
  1437                           ; BSR set to: 0
  1438                           ;C:\Program Files\Microchip\xc8\v2.35\pic\sources\c99\common\doprnt.c: 306:         --w;
  1439  001000  07DE               	decf	dtoa@w& (0+255),f,b
  1440  001002  A0D8               	btfss	status,0,c
  1441  001004  07DF               	decf	(dtoa@w+1)& (0+255),f,b
  1442  001006                     l4138:
  1443                           
  1444                           ; BSR set to: 0
  1445                           ;C:\Program Files\Microchip\xc8\v2.35\pic\sources\c99\common\doprnt.c: 310:     i = size
      +                          of(dbuf) - 1;
  1446  001006  0E00               	movlw	0
  1447  001008  6FEB               	movwf	(dtoa@i+1)& (0+255),b
  1448  00100A  0E1F               	movlw	31
  1449  00100C  6FEA               	movwf	dtoa@i& (0+255),b
  1450  00100E                     
  1451                           ; BSR set to: 0
  1452                           ;C:\Program Files\Microchip\xc8\v2.35\pic\sources\c99\common\doprnt.c: 311:     dbuf[i] 
      +                          = '\0';
  1453  00100E  0E00               	movlw	0
  1454  001010  6FBD               	movwf	(_dbuf+31)& (0+255),b
  1455                           
  1456                           ;C:\Program Files\Microchip\xc8\v2.35\pic\sources\c99\common\doprnt.c: 312:     while (!
      +                          (i < 1) && (n || (0 < p) || ((0 < w) && (flags & (1 << 1))))) {
  1457  001012  EF88  F008         	goto	l4152
  1458  001016                     l4142:
  1459                           
  1460                           ; BSR set to: 0
  1461                           ;C:\Program Files\Microchip\xc8\v2.35\pic\sources\c99\common\doprnt.c: 313:         --i;
  1462  001016  07EA               	decf	dtoa@i& (0+255),f,b
  1463  001018  A0D8               	btfss	status,0,c
  1464  00101A  07EB               	decf	(dtoa@i+1)& (0+255),f,b
  1465  00101C                     
  1466                           ; BSR set to: 0
  1467                           ;C:\Program Files\Microchip\xc8\v2.35\pic\sources\c99\common\doprnt.c: 314:         dbuf
      +                          [i] = (char)((int)'0' + abs(n % 10));
  1468  00101C  0E9E               	movlw	low _dbuf
  1469  00101E  25EA               	addwf	dtoa@i& (0+255),w,b
  1470  001020  6ED9               	movwf	fsr2l,c
  1471  001022  0E00               	movlw	high _dbuf
  1472  001024  21EB               	addwfc	(dtoa@i+1)& (0+255),w,b
  1473  001026  6EDA               	movwf	fsr2h,c
  1474  001028  C0E2  F018         	movff	dtoa@n,___aomod@dividend
  1475  00102C  C0E3  F019         	movff	dtoa@n+1,___aomod@dividend+1
  1476  001030  C0E4  F01A         	movff	dtoa@n+2,___aomod@dividend+2
  1477  001034  C0E5  F01B         	movff	dtoa@n+3,___aomod@dividend+3
  1478  001038  C0E6  F01C         	movff	dtoa@n+4,___aomod@dividend+4
  1479  00103C  C0E7  F01D         	movff	dtoa@n+5,___aomod@dividend+5
  1480  001040  C0E8  F01E         	movff	dtoa@n+6,___aomod@dividend+6
  1481  001044  C0E9  F01F         	movff	dtoa@n+7,___aomod@dividend+7
  1482  001048  0E0A               	movlw	10
  1483  00104A  6E20               	movwf	___aomod@divisor^0,c
  1484  00104C  0E00               	movlw	0
  1485  00104E  6E21               	movwf	(___aomod@divisor+1)^0,c
  1486  001050  0E00               	movlw	0
  1487  001052  6E22               	movwf	(___aomod@divisor+2)^0,c
  1488  001054  0E00               	movlw	0
  1489  001056  6E23               	movwf	(___aomod@divisor+3)^0,c
  1490  001058  0E00               	movlw	0
  1491  00105A  6E24               	movwf	(___aomod@divisor+4)^0,c
  1492  00105C  0E00               	movlw	0
  1493  00105E  6E25               	movwf	(___aomod@divisor+5)^0,c
  1494  001060  0E00               	movlw	0
  1495  001062  6E26               	movwf	(___aomod@divisor+6)^0,c
  1496  001064  0E00               	movlw	0
  1497  001066  6E27               	movwf	(___aomod@divisor+7)^0,c
  1498  001068  ECAA  F00A         	call	___aomod	;wreg free
  1499  00106C  C018  F0D2         	movff	?___aomod,??_dtoa
  1500  001070  C019  F0D3         	movff	?___aomod+1,??_dtoa+1
  1501  001074  C01A  F0D4         	movff	?___aomod+2,??_dtoa+2
  1502  001078  C01B  F0D5         	movff	?___aomod+3,??_dtoa+3
  1503  00107C  C01C  F0D6         	movff	?___aomod+4,??_dtoa+4
  1504  001080  C01D  F0D7         	movff	?___aomod+5,??_dtoa+5
  1505  001084  C01E  F0D8         	movff	?___aomod+6,??_dtoa+6
  1506  001088  C01F  F0D9         	movff	?___aomod+7,??_dtoa+7
  1507  00108C  C0D2  F02A         	movff	??_dtoa,abs@a
  1508  001090  C0D4  F02B         	movff	??_dtoa+2,abs@a+1
  1509  001094  EC21  F00F         	call	_abs	;wreg free
  1510  001098  502A               	movf	?_abs^0,w,c
  1511  00109A  0F30               	addlw	48
  1512  00109C  6EDF               	movwf	indf2,c
  1513  00109E                     
  1514                           ;C:\Program Files\Microchip\xc8\v2.35\pic\sources\c99\common\doprnt.c: 315:         --p;
  1515  00109E  0100               	movlb	0	; () banked
  1516  0010A0  07DC               	decf	dtoa@p& (0+255),f,b
  1517  0010A2  A0D8               	btfss	status,0,c
  1518  0010A4  07DD               	decf	(dtoa@p+1)& (0+255),f,b
  1519  0010A6                     
  1520                           ; BSR set to: 0
  1521                           ;C:\Program Files\Microchip\xc8\v2.35\pic\sources\c99\common\doprnt.c: 316:         --w;
  1522  0010A6  07DE               	decf	dtoa@w& (0+255),f,b
  1523  0010A8  A0D8               	btfss	status,0,c
  1524  0010AA  07DF               	decf	(dtoa@w+1)& (0+255),f,b
  1525  0010AC                     
  1526                           ; BSR set to: 0
  1527                           ;C:\Program Files\Microchip\xc8\v2.35\pic\sources\c99\common\doprnt.c: 317:         n = 
      +                          n / 10;
  1528  0010AC  C0E2  F018         	movff	dtoa@n,___aodiv@dividend
  1529  0010B0  C0E3  F019         	movff	dtoa@n+1,___aodiv@dividend+1
  1530  0010B4  C0E4  F01A         	movff	dtoa@n+2,___aodiv@dividend+2
  1531  0010B8  C0E5  F01B         	movff	dtoa@n+3,___aodiv@dividend+3
  1532  0010BC  C0E6  F01C         	movff	dtoa@n+4,___aodiv@dividend+4
  1533  0010C0  C0E7  F01D         	movff	dtoa@n+5,___aodiv@dividend+5
  1534  0010C4  C0E8  F01E         	movff	dtoa@n+6,___aodiv@dividend+6
  1535  0010C8  C0E9  F01F         	movff	dtoa@n+7,___aodiv@dividend+7
  1536  0010CC  0E0A               	movlw	10
  1537  0010CE  6E20               	movwf	___aodiv@divisor^0,c
  1538  0010D0  0E00               	movlw	0
  1539  0010D2  6E21               	movwf	(___aodiv@divisor+1)^0,c
  1540  0010D4  0E00               	movlw	0
  1541  0010D6  6E22               	movwf	(___aodiv@divisor+2)^0,c
  1542  0010D8  0E00               	movlw	0
  1543  0010DA  6E23               	movwf	(___aodiv@divisor+3)^0,c
  1544  0010DC  0E00               	movlw	0
  1545  0010DE  6E24               	movwf	(___aodiv@divisor+4)^0,c
  1546  0010E0  0E00               	movlw	0
  1547  0010E2  6E25               	movwf	(___aodiv@divisor+5)^0,c
  1548  0010E4  0E00               	movlw	0
  1549  0010E6  6E26               	movwf	(___aodiv@divisor+6)^0,c
  1550  0010E8  0E00               	movlw	0
  1551  0010EA  6E27               	movwf	(___aodiv@divisor+7)^0,c
  1552  0010EC  ECE5  F009         	call	___aodiv	;wreg free
  1553  0010F0  C018  F0E2         	movff	?___aodiv,dtoa@n
  1554  0010F4  C019  F0E3         	movff	?___aodiv+1,dtoa@n+1
  1555  0010F8  C01A  F0E4         	movff	?___aodiv+2,dtoa@n+2
  1556  0010FC  C01B  F0E5         	movff	?___aodiv+3,dtoa@n+3
  1557  001100  C01C  F0E6         	movff	?___aodiv+4,dtoa@n+4
  1558  001104  C01D  F0E7         	movff	?___aodiv+5,dtoa@n+5
  1559  001108  C01E  F0E8         	movff	?___aodiv+6,dtoa@n+6
  1560  00110C  C01F  F0E9         	movff	?___aodiv+7,dtoa@n+7
  1561  001110                     l4152:
  1562                           
  1563                           ;C:\Program Files\Microchip\xc8\v2.35\pic\sources\c99\common\doprnt.c: 312:     while (!
      +                          (i < 1) && (n || (0 < p) || ((0 < w) && (flags & (1 << 1))))) {
  1564  001110  0100               	movlb	0	; () banked
  1565  001112  BFEB               	btfsc	(dtoa@i+1)& (0+255),7,b
  1566  001114  EF94  F008         	goto	u2511
  1567  001118  51EB               	movf	(dtoa@i+1)& (0+255),w,b
  1568  00111A  E108               	bnz	u2510
  1569  00111C  05EA               	decf	dtoa@i& (0+255),w,b
  1570  00111E  A0D8               	btfss	status,0,c
  1571  001120  EF94  F008         	goto	u2511
  1572  001124  EF96  F008         	goto	u2510
  1573  001128                     u2511:
  1574  001128  EFC6  F008         	goto	l4162
  1575  00112C                     u2510:
  1576  00112C                     
  1577                           ; BSR set to: 0
  1578  00112C  51E2               	movf	dtoa@n& (0+255),w,b
  1579  00112E  11E3               	iorwf	(dtoa@n+1)& (0+255),w,b
  1580  001130  11E4               	iorwf	(dtoa@n+2)& (0+255),w,b
  1581  001132  11E5               	iorwf	(dtoa@n+3)& (0+255),w,b
  1582  001134  11E6               	iorwf	(dtoa@n+4)& (0+255),w,b
  1583  001136  11E7               	iorwf	(dtoa@n+5)& (0+255),w,b
  1584  001138  11E8               	iorwf	(dtoa@n+6)& (0+255),w,b
  1585  00113A  11E9               	iorwf	(dtoa@n+7)& (0+255),w,b
  1586  00113C  A4D8               	btfss	status,2,c
  1587  00113E  EFA3  F008         	goto	u2521
  1588  001142  EFA5  F008         	goto	u2520
  1589  001146                     u2521:
  1590  001146  EF0B  F008         	goto	l4142
  1591  00114A                     u2520:
  1592  00114A                     
  1593                           ; BSR set to: 0
  1594  00114A  BFDD               	btfsc	(dtoa@p+1)& (0+255),7,b
  1595  00114C  EFB2  F008         	goto	u2530
  1596  001150  51DD               	movf	(dtoa@p+1)& (0+255),w,b
  1597  001152  E106               	bnz	u2531
  1598  001154  05DC               	decf	dtoa@p& (0+255),w,b
  1599  001156  B0D8               	btfsc	status,0,c
  1600  001158  EFB0  F008         	goto	u2531
  1601  00115C  EFB2  F008         	goto	u2530
  1602  001160                     u2531:
  1603  001160  EF0B  F008         	goto	l4142
  1604  001164                     u2530:
  1605  001164                     
  1606                           ; BSR set to: 0
  1607  001164  BFDF               	btfsc	(dtoa@w+1)& (0+255),7,b
  1608  001166  EFBD  F008         	goto	u2541
  1609  00116A  51DF               	movf	(dtoa@w+1)& (0+255),w,b
  1610  00116C  E108               	bnz	u2540
  1611  00116E  05DE               	decf	dtoa@w& (0+255),w,b
  1612  001170  A0D8               	btfss	status,0,c
  1613  001172  EFBD  F008         	goto	u2541
  1614  001176  EFBF  F008         	goto	u2540
  1615  00117A                     u2541:
  1616  00117A  EFC6  F008         	goto	l4162
  1617  00117E                     u2540:
  1618  00117E                     
  1619                           ; BSR set to: 0
  1620  00117E  B235               	btfsc	_flags^0,1,c
  1621  001180  EFC4  F008         	goto	u2551
  1622  001184  EFC6  F008         	goto	u2550
  1623  001188                     u2551:
  1624  001188  EF0B  F008         	goto	l4142
  1625  00118C                     u2550:
  1626  00118C                     l4162:
  1627                           
  1628                           ; BSR set to: 0
  1629                           ;C:\Program Files\Microchip\xc8\v2.35\pic\sources\c99\common\doprnt.c: 321:     if (s ||
      +                           (flags & (1 << 2))) {
  1630  00118C  51E0               	movf	dtoa@s& (0+255),w,b
  1631  00118E  11E1               	iorwf	(dtoa@s+1)& (0+255),w,b
  1632  001190  A4D8               	btfss	status,2,c
  1633  001192  EFCD  F008         	goto	u2561
  1634  001196  EFCF  F008         	goto	u2560
  1635  00119A                     u2561:
  1636  00119A  EFD6  F008         	goto	l4166
  1637  00119E                     u2560:
  1638  00119E                     
  1639                           ; BSR set to: 0
  1640  00119E  A435               	btfss	_flags^0,2,c
  1641  0011A0  EFD4  F008         	goto	u2571
  1642  0011A4  EFD6  F008         	goto	u2570
  1643  0011A8                     u2571:
  1644  0011A8  EFF4  F008         	goto	l4176
  1645  0011AC                     u2570:
  1646  0011AC                     l4166:
  1647                           
  1648                           ; BSR set to: 0
  1649                           ;C:\Program Files\Microchip\xc8\v2.35\pic\sources\c99\common\doprnt.c: 322:         --i;
  1650  0011AC  07EA               	decf	dtoa@i& (0+255),f,b
  1651  0011AE  A0D8               	btfss	status,0,c
  1652  0011B0  07EB               	decf	(dtoa@i+1)& (0+255),f,b
  1653  0011B2                     
  1654                           ; BSR set to: 0
  1655                           ;C:\Program Files\Microchip\xc8\v2.35\pic\sources\c99\common\doprnt.c: 323:         dbuf
      +                          [i] = s ? '-' : '+';
  1656  0011B2  51E0               	movf	dtoa@s& (0+255),w,b
  1657  0011B4  11E1               	iorwf	(dtoa@s+1)& (0+255),w,b
  1658  0011B6  A4D8               	btfss	status,2,c
  1659  0011B8  EFE0  F008         	goto	u2581
  1660  0011BC  EFE2  F008         	goto	u2580
  1661  0011C0                     u2581:
  1662  0011C0  EFE8  F008         	goto	l4172
  1663  0011C4                     u2580:
  1664  0011C4                     
  1665                           ; BSR set to: 0
  1666  0011C4  0E00               	movlw	0
  1667  0011C6  6FDB               	movwf	(_dtoa$2744+1)& (0+255),b
  1668  0011C8  0E2B               	movlw	43
  1669  0011CA  6FDA               	movwf	_dtoa$2744& (0+255),b
  1670  0011CC  EFEC  F008         	goto	l4174
  1671  0011D0                     l4172:
  1672                           
  1673                           ; BSR set to: 0
  1674  0011D0  0E00               	movlw	0
  1675  0011D2  6FDB               	movwf	(_dtoa$2744+1)& (0+255),b
  1676  0011D4  0E2D               	movlw	45
  1677  0011D6  6FDA               	movwf	_dtoa$2744& (0+255),b
  1678  0011D8                     l4174:
  1679                           
  1680                           ; BSR set to: 0
  1681  0011D8  0E9E               	movlw	low _dbuf
  1682  0011DA  25EA               	addwf	dtoa@i& (0+255),w,b
  1683  0011DC  6ED9               	movwf	fsr2l,c
  1684  0011DE  0E00               	movlw	high _dbuf
  1685  0011E0  21EB               	addwfc	(dtoa@i+1)& (0+255),w,b
  1686  0011E2  6EDA               	movwf	fsr2h,c
  1687  0011E4  C0DA  FFDF         	movff	_dtoa$2744,indf2
  1688  0011E8                     l4176:
  1689                           
  1690                           ; BSR set to: 0
  1691                           ;C:\Program Files\Microchip\xc8\v2.35\pic\sources\c99\common\doprnt.c: 327:     return p
      +                          ad(fp, &dbuf[i], w);
  1692  0011E8  C0C8  F02A         	movff	dtoa@fp,pad@fp
  1693  0011EC  C0C9  F02B         	movff	dtoa@fp+1,pad@fp+1
  1694  0011F0  0E9E               	movlw	low _dbuf
  1695  0011F2  25EA               	addwf	dtoa@i& (0+255),w,b
  1696  0011F4  6E2C               	movwf	pad@buf^0,c
  1697  0011F6  0E00               	movlw	high _dbuf
  1698  0011F8  21EB               	addwfc	(dtoa@i+1)& (0+255),w,b
  1699  0011FA  6E2D               	movwf	(pad@buf+1)^0,c
  1700  0011FC  C0DE  F02E         	movff	dtoa@w,pad@p
  1701  001200  C0DF  F02F         	movff	dtoa@w+1,pad@p+1
  1702  001204  EC5C  F00B         	call	_pad	;wreg free
  1703  001208  C02A  F0C8         	movff	?_pad,?_dtoa
  1704  00120C  C02B  F0C9         	movff	?_pad+1,?_dtoa+1
  1705  001210  0012               	return		;funcret
  1706  001212                     __end_of_dtoa:
  1707                           	callstack 0
  1708                           
  1709 ;; *************** function _pad *****************
  1710 ;; Defined at:
  1711 ;;		line 72 in file "C:\Program Files\Microchip\xc8\v2.35\pic\sources\c99\common\doprnt.c"
  1712 ;; Parameters:    Size  Location     Type
  1713 ;;  fp              2   41[COMRAM] PTR struct _IO_FILE
  1714 ;;		 -> NULL(0), 
  1715 ;;  buf             2   43[COMRAM] PTR unsigned char 
  1716 ;;		 -> dbuf(32), 
  1717 ;;  p               2   45[COMRAM] int 
  1718 ;; Auto vars:     Size  Location     Type
  1719 ;;  w               2    2[BANK0 ] int 
  1720 ;;  i               2    0[BANK0 ] int 
  1721 ;; Return value:  Size  Location     Type
  1722 ;;                  2   41[COMRAM] int 
  1723 ;; Registers used:
  1724 ;;		wreg, fsr1l, fsr1h, fsr2l, fsr2h, status,2, status,0, cstack
  1725 ;; Tracked objects:
  1726 ;;		On entry : 0/0
  1727 ;;		On exit  : 0/0
  1728 ;;		Unchanged: 0/0
  1729 ;; Data sizes:     COMRAM   BANK0   BANK1   BANK2   BANK3   BANK4   BANK5   BANK6   BANK7   BANK8   BANK9  BANK10  BANK1
      +1  BANK12  BANK13  BANK14
  1730 ;;      Params:         6       0       0       0       0       0       0       0       0       0       0       0       
      +0       0       0       0
  1731 ;;      Locals:         0       4       0       0       0       0       0       0       0       0       0       0       
      +0       0       0       0
  1732 ;;      Temps:          1       0       0       0       0       0       0       0       0       0       0       0       
      +0       0       0       0
  1733 ;;      Totals:         7       4       0       0       0       0       0       0       0       0       0       0       
      +0       0       0       0
  1734 ;;Total ram usage:       11 bytes
  1735 ;; Hardware stack levels used: 1
  1736 ;; Hardware stack levels required when called: 11
  1737 ;; This function calls:
  1738 ;;		_fputc
  1739 ;;		_fputs
  1740 ;;		_strlen
  1741 ;; This function is called by:
  1742 ;;		_dtoa
  1743 ;; This function uses a non-reentrant model
  1744 ;;
  1745                           
  1746                           	psect	text5
  1747  0016B8                     __ptext5:
  1748                           	callstack 0
  1749  0016B8                     _pad:
  1750                           	callstack 15
  1751  0016B8                     
  1752                           ;C:\Program Files\Microchip\xc8\v2.35\pic\sources\c99\common\doprnt.c: 72: static int pa
      +                          d(FILE *fp, char *buf, int p);C:\Program Files\Microchip\xc8\v2.35\pic\sources\c99\commo
      +                          n\doprnt.c: 73: {;C:\Program Files\Microchip\xc8\v2.35\pic\sources\c99\common\doprnt.c: 
      +                          74:     int i, w;;C:\Program Files\Microchip\xc8\v2.35\pic\sources\c99\common\doprnt.c: 
      +                          77:     if (flags & (1 << 0)) {
  1753  0016B8  A035               	btfss	_flags^0,0,c
  1754  0016BA  EF61  F00B         	goto	u2391
  1755  0016BE  EF63  F00B         	goto	u2390
  1756  0016C2                     u2391:
  1757  0016C2  EF6D  F00B         	goto	l4096
  1758  0016C6                     u2390:
  1759  0016C6                     
  1760                           ;C:\Program Files\Microchip\xc8\v2.35\pic\sources\c99\common\doprnt.c: 78:         fputs
      +                          ((const char *)buf, fp);
  1761  0016C6  C02C  F023         	movff	pad@buf,fputs@s
  1762  0016CA  C02D  F024         	movff	pad@buf+1,fputs@s+1
  1763  0016CE  C02A  F025         	movff	pad@fp,fputs@fp
  1764  0016D2  C02B  F026         	movff	pad@fp+1,fputs@fp+1
  1765  0016D6  ECFF  F00E         	call	_fputs	;wreg free
  1766  0016DA                     l4096:
  1767                           
  1768                           ;C:\Program Files\Microchip\xc8\v2.35\pic\sources\c99\common\doprnt.c: 82:     w = (p < 
      +                          0) ? 0 : p;
  1769  0016DA  BE2F               	btfsc	(pad@p+1)^0,7,c
  1770  0016DC  EF72  F00B         	goto	u2401
  1771  0016E0  EF74  F00B         	goto	u2400
  1772  0016E4                     u2401:
  1773  0016E4  EF7A  F00B         	goto	l4100
  1774  0016E8                     u2400:
  1775  0016E8  C02E  F0C0         	movff	pad@p,pad@w
  1776  0016EC  C02F  F0C1         	movff	pad@p+1,pad@w+1
  1777  0016F0  EF7F  F00B         	goto	l1568
  1778  0016F4                     l4100:
  1779  0016F4  0E00               	movlw	0
  1780  0016F6  0100               	movlb	0	; () banked
  1781  0016F8  6FC1               	movwf	(pad@w+1)& (0+255),b
  1782  0016FA  0E00               	movlw	0
  1783  0016FC  6FC0               	movwf	pad@w& (0+255),b
  1784  0016FE                     l1568:
  1785                           
  1786                           ;C:\Program Files\Microchip\xc8\v2.35\pic\sources\c99\common\doprnt.c: 83:     i = 0;
  1787  0016FE  0E00               	movlw	0
  1788  001700  0100               	movlb	0	; () banked
  1789  001702  6FBF               	movwf	(pad@i+1)& (0+255),b
  1790  001704  0E00               	movlw	0
  1791  001706  6FBE               	movwf	pad@i& (0+255),b
  1792                           
  1793                           ;C:\Program Files\Microchip\xc8\v2.35\pic\sources\c99\common\doprnt.c: 84:     while (i 
      +                          < w) {
  1794  001708  EF93  F00B         	goto	l4106
  1795  00170C                     l4102:
  1796                           
  1797                           ; BSR set to: 0
  1798                           ;C:\Program Files\Microchip\xc8\v2.35\pic\sources\c99\common\doprnt.c: 85:         fputc
      +                          (' ', fp);
  1799  00170C  0E00               	movlw	0
  1800  00170E  6E1B               	movwf	(fputc@c+1)^0,c
  1801  001710  0E20               	movlw	32
  1802  001712  6E1A               	movwf	fputc@c^0,c
  1803  001714  C02A  F01C         	movff	pad@fp,fputc@fp
  1804  001718  C02B  F01D         	movff	pad@fp+1,fputc@fp+1
  1805  00171C  ECDA  F00C         	call	_fputc	;wreg free
  1806  001720                     
  1807                           ;C:\Program Files\Microchip\xc8\v2.35\pic\sources\c99\common\doprnt.c: 86:         ++i;
  1808  001720  0100               	movlb	0	; () banked
  1809  001722  4BBE               	infsnz	pad@i& (0+255),f,b
  1810  001724  2BBF               	incf	(pad@i+1)& (0+255),f,b
  1811  001726                     l4106:
  1812                           
  1813                           ; BSR set to: 0
  1814                           ;C:\Program Files\Microchip\xc8\v2.35\pic\sources\c99\common\doprnt.c: 84:     while (i 
      +                          < w) {
  1815  001726  51C0               	movf	pad@w& (0+255),w,b
  1816  001728  5DBE               	subwf	pad@i& (0+255),w,b
  1817  00172A  51BF               	movf	(pad@i+1)& (0+255),w,b
  1818  00172C  0A80               	xorlw	128
  1819  00172E  6E30               	movwf	??_pad^0,c
  1820  001730  51C1               	movf	(pad@w+1)& (0+255),w,b
  1821  001732  0A80               	xorlw	128
  1822  001734  5830               	subwfb	??_pad^0,w,c
  1823  001736  A0D8               	btfss	status,0,c
  1824  001738  EFA0  F00B         	goto	u2411
  1825  00173C  EFA2  F00B         	goto	u2410
  1826  001740                     u2411:
  1827  001740  EF86  F00B         	goto	l4102
  1828  001744                     u2410:
  1829  001744                     
  1830                           ; BSR set to: 0
  1831                           ;C:\Program Files\Microchip\xc8\v2.35\pic\sources\c99\common\doprnt.c: 90:     if (!(fla
      +                          gs & (1 << 0))) {
  1832  001744  B035               	btfsc	_flags^0,0,c
  1833  001746  EFA7  F00B         	goto	u2421
  1834  00174A  EFA9  F00B         	goto	u2420
  1835  00174E                     u2421:
  1836  00174E  EFB3  F00B         	goto	l4110
  1837  001752                     u2420:
  1838  001752                     
  1839                           ; BSR set to: 0
  1840                           ;C:\Program Files\Microchip\xc8\v2.35\pic\sources\c99\common\doprnt.c: 91:         fputs
      +                          ((const char *)buf, fp);
  1841  001752  C02C  F023         	movff	pad@buf,fputs@s
  1842  001756  C02D  F024         	movff	pad@buf+1,fputs@s+1
  1843  00175A  C02A  F025         	movff	pad@fp,fputs@fp
  1844  00175E  C02B  F026         	movff	pad@fp+1,fputs@fp+1
  1845  001762  ECFF  F00E         	call	_fputs	;wreg free
  1846  001766                     l4110:
  1847                           
  1848                           ;C:\Program Files\Microchip\xc8\v2.35\pic\sources\c99\common\doprnt.c: 94:     return (i
      +                          nt)(strlen(buf) + (size_t)w);
  1849  001766  C02C  F018         	movff	pad@buf,strlen@s
  1850  00176A  C02D  F019         	movff	pad@buf+1,strlen@s+1
  1851  00176E  ECBB  F00F         	call	_strlen	;wreg free
  1852  001772  0100               	movlb	0	; () banked
  1853  001774  51C0               	movf	pad@w& (0+255),w,b
  1854  001776  2418               	addwf	?_strlen^0,w,c
  1855  001778  6E2A               	movwf	?_pad^0,c
  1856  00177A  51C1               	movf	(pad@w+1)& (0+255),w,b
  1857  00177C  2019               	addwfc	(?_strlen+1)^0,w,c
  1858  00177E  6E2B               	movwf	(?_pad+1)^0,c
  1859  001780                     
  1860                           ; BSR set to: 0
  1861  001780  0012               	return		;funcret
  1862  001782                     __end_of_pad:
  1863                           	callstack 0
  1864                           
  1865 ;; *************** function _strlen *****************
  1866 ;; Defined at:
  1867 ;;		line 5 in file "C:\Program Files\Microchip\xc8\v2.35\pic\sources\c99\common\strlen.c"
  1868 ;; Parameters:    Size  Location     Type
  1869 ;;  s               2   23[COMRAM] PTR const unsigned char 
  1870 ;;		 -> dbuf(32), 
  1871 ;; Auto vars:     Size  Location     Type
  1872 ;;  a               2   25[COMRAM] PTR const unsigned char 
  1873 ;;		 -> dbuf(32), 
  1874 ;; Return value:  Size  Location     Type
  1875 ;;                  2   23[COMRAM] unsigned int 
  1876 ;; Registers used:
  1877 ;;		wreg, fsr2l, fsr2h, status,2, status,0
  1878 ;; Tracked objects:
  1879 ;;		On entry : 0/0
  1880 ;;		On exit  : 0/0
  1881 ;;		Unchanged: 0/0
  1882 ;; Data sizes:     COMRAM   BANK0   BANK1   BANK2   BANK3   BANK4   BANK5   BANK6   BANK7   BANK8   BANK9  BANK10  BANK1
      +1  BANK12  BANK13  BANK14
  1883 ;;      Params:         2       0       0       0       0       0       0       0       0       0       0       0       
      +0       0       0       0
  1884 ;;      Locals:         2       0       0       0       0       0       0       0       0       0       0       0       
      +0       0       0       0
  1885 ;;      Temps:          0       0       0       0       0       0       0       0       0       0       0       0       
      +0       0       0       0
  1886 ;;      Totals:         4       0       0       0       0       0       0       0       0       0       0       0       
      +0       0       0       0
  1887 ;;Total ram usage:        4 bytes
  1888 ;; Hardware stack levels used: 1
  1889 ;; Hardware stack levels required when called: 7
  1890 ;; This function calls:
  1891 ;;		Nothing
  1892 ;; This function is called by:
  1893 ;;		_pad
  1894 ;; This function uses a non-reentrant model
  1895 ;;
  1896                           
  1897                           	psect	text6
  1898  001F76                     __ptext6:
  1899                           	callstack 0
  1900  001F76                     _strlen:
  1901                           	callstack 18
  1902  001F76  C018  F01A         	movff	strlen@s,strlen@a
  1903  001F7A  C019  F01B         	movff	strlen@s+1,strlen@a+1
  1904  001F7E  EFC3  F00F         	goto	l4006
  1905  001F82                     l4004:
  1906  001F82  4A18               	infsnz	strlen@s^0,f,c
  1907  001F84  2A19               	incf	(strlen@s+1)^0,f,c
  1908  001F86                     l4006:
  1909  001F86  C018  FFD9         	movff	strlen@s,fsr2l
  1910  001F8A  C019  FFDA         	movff	strlen@s+1,fsr2h
  1911  001F8E  50DF               	movf	indf2,w,c
  1912  001F90  A4D8               	btfss	status,2,c
  1913  001F92  EFCD  F00F         	goto	u2251
  1914  001F96  EFCF  F00F         	goto	u2250
  1915  001F9A                     u2251:
  1916  001F9A  EFC1  F00F         	goto	l4004
  1917  001F9E                     u2250:
  1918  001F9E  501A               	movf	strlen@a^0,w,c
  1919  001FA0  5C18               	subwf	strlen@s^0,w,c
  1920  001FA2  6E18               	movwf	?_strlen^0,c
  1921  001FA4  501B               	movf	(strlen@a+1)^0,w,c
  1922  001FA6  5819               	subwfb	(strlen@s+1)^0,w,c
  1923  001FA8  6E19               	movwf	(?_strlen+1)^0,c
  1924  001FAA  0012               	return		;funcret
  1925  001FAC                     __end_of_strlen:
  1926                           	callstack 0
  1927                           
  1928 ;; *************** function _fputs *****************
  1929 ;; Defined at:
  1930 ;;		line 8 in file "C:\Program Files\Microchip\xc8\v2.35\pic\sources\c99\common\nf_fputs.c"
  1931 ;; Parameters:    Size  Location     Type
  1932 ;;  s               2   34[COMRAM] PTR const unsigned char 
  1933 ;;		 -> dbuf(32), 
  1934 ;;  fp              2   36[COMRAM] PTR struct _IO_FILE
  1935 ;;		 -> NULL(0), 
  1936 ;; Auto vars:     Size  Location     Type
  1937 ;;  i               2   39[COMRAM] int 
  1938 ;;  c               1   38[COMRAM] unsigned char 
  1939 ;; Return value:  Size  Location     Type
  1940 ;;                  2   34[COMRAM] int 
  1941 ;; Registers used:
  1942 ;;		wreg, fsr1l, fsr1h, fsr2l, fsr2h, status,2, status,0, cstack
  1943 ;; Tracked objects:
  1944 ;;		On entry : 0/0
  1945 ;;		On exit  : 0/0
  1946 ;;		Unchanged: 0/0
  1947 ;; Data sizes:     COMRAM   BANK0   BANK1   BANK2   BANK3   BANK4   BANK5   BANK6   BANK7   BANK8   BANK9  BANK10  BANK1
      +1  BANK12  BANK13  BANK14
  1948 ;;      Params:         4       0       0       0       0       0       0       0       0       0       0       0       
      +0       0       0       0
  1949 ;;      Locals:         3       0       0       0       0       0       0       0       0       0       0       0       
      +0       0       0       0
  1950 ;;      Temps:          0       0       0       0       0       0       0       0       0       0       0       0       
      +0       0       0       0
  1951 ;;      Totals:         7       0       0       0       0       0       0       0       0       0       0       0       
      +0       0       0       0
  1952 ;;Total ram usage:        7 bytes
  1953 ;; Hardware stack levels used: 1
  1954 ;; Hardware stack levels required when called: 10
  1955 ;; This function calls:
  1956 ;;		_fputc
  1957 ;; This function is called by:
  1958 ;;		_pad
  1959 ;; This function uses a non-reentrant model
  1960 ;;
  1961                           
  1962                           	psect	text7
  1963  001DFE                     __ptext7:
  1964                           	callstack 0
  1965  001DFE                     _fputs:
  1966                           	callstack 15
  1967  001DFE  0E00               	movlw	0
  1968  001E00  6E29               	movwf	(fputs@i+1)^0,c
  1969  001E02  0E00               	movlw	0
  1970  001E04  6E28               	movwf	fputs@i^0,c
  1971  001E06  EF10  F00F         	goto	l4000
  1972  001E0A                     l3996:
  1973  001E0A  C027  F01A         	movff	fputs@c,fputc@c
  1974  001E0E  6A1B               	clrf	(fputc@c+1)^0,c
  1975  001E10  C025  F01C         	movff	fputs@fp,fputc@fp
  1976  001E14  C026  F01D         	movff	fputs@fp+1,fputc@fp+1
  1977  001E18  ECDA  F00C         	call	_fputc	;wreg free
  1978  001E1C  4A28               	infsnz	fputs@i^0,f,c
  1979  001E1E  2A29               	incf	(fputs@i+1)^0,f,c
  1980  001E20                     l4000:
  1981  001E20  5028               	movf	fputs@i^0,w,c
  1982  001E22  2423               	addwf	fputs@s^0,w,c
  1983  001E24  6ED9               	movwf	fsr2l,c
  1984  001E26  5029               	movf	(fputs@i+1)^0,w,c
  1985  001E28  2024               	addwfc	(fputs@s+1)^0,w,c
  1986  001E2A  6EDA               	movwf	fsr2h,c
  1987  001E2C  50DF               	movf	indf2,w,c
  1988  001E2E  6E27               	movwf	fputs@c^0,c
  1989  001E30  5027               	movf	fputs@c^0,w,c
  1990  001E32  A4D8               	btfss	status,2,c
  1991  001E34  EF1E  F00F         	goto	u2241
  1992  001E38  EF20  F00F         	goto	u2240
  1993  001E3C                     u2241:
  1994  001E3C  EF05  F00F         	goto	l3996
  1995  001E40                     u2240:
  1996  001E40  0012               	return		;funcret
  1997  001E42                     __end_of_fputs:
  1998                           	callstack 0
  1999                           
  2000 ;; *************** function _fputc *****************
  2001 ;; Defined at:
  2002 ;;		line 8 in file "C:\Program Files\Microchip\xc8\v2.35\pic\sources\c99\common\nf_fputc.c"
  2003 ;; Parameters:    Size  Location     Type
  2004 ;;  c               2   25[COMRAM] int 
  2005 ;;  fp              2   27[COMRAM] PTR struct _IO_FILE
  2006 ;;		 -> NULL(0), 
  2007 ;; Auto vars:     Size  Location     Type
  2008 ;;		None
  2009 ;; Return value:  Size  Location     Type
  2010 ;;                  2   25[COMRAM] int 
  2011 ;; Registers used:
  2012 ;;		wreg, fsr1l, fsr1h, fsr2l, fsr2h, status,2, status,0, cstack
  2013 ;; Tracked objects:
  2014 ;;		On entry : 0/0
  2015 ;;		On exit  : 0/0
  2016 ;;		Unchanged: 0/0
  2017 ;; Data sizes:     COMRAM   BANK0   BANK1   BANK2   BANK3   BANK4   BANK5   BANK6   BANK7   BANK8   BANK9  BANK10  BANK1
      +1  BANK12  BANK13  BANK14
  2018 ;;      Params:         4       0       0       0       0       0       0       0       0       0       0       0       
      +0       0       0       0
  2019 ;;      Locals:         0       0       0       0       0       0       0       0       0       0       0       0       
      +0       0       0       0
  2020 ;;      Temps:          5       0       0       0       0       0       0       0       0       0       0       0       
      +0       0       0       0
  2021 ;;      Totals:         9       0       0       0       0       0       0       0       0       0       0       0       
      +0       0       0       0
  2022 ;;Total ram usage:        9 bytes
  2023 ;; Hardware stack levels used: 1
  2024 ;; Hardware stack levels required when called: 9
  2025 ;; This function calls:
  2026 ;;		_putch
  2027 ;; This function is called by:
  2028 ;;		_pad
  2029 ;;		_vfpfcnvrt
  2030 ;;		_fputs
  2031 ;; This function uses a non-reentrant model
  2032 ;;
  2033                           
  2034                           	psect	text8
  2035  0019B4                     __ptext8:
  2036                           	callstack 0
  2037  0019B4                     _fputc:
  2038                           	callstack 18
  2039  0019B4  501C               	movf	fputc@fp^0,w,c
  2040  0019B6  101D               	iorwf	(fputc@fp+1)^0,w,c
  2041  0019B8  B4D8               	btfsc	status,2,c
  2042  0019BA  EFE1  F00C         	goto	u2201
  2043  0019BE  EFE3  F00C         	goto	u2200
  2044  0019C2                     u2201:
  2045  0019C2  EFEC  F00C         	goto	l3984
  2046  0019C6                     u2200:
  2047  0019C6  501C               	movf	fputc@fp^0,w,c
  2048  0019C8  101D               	iorwf	(fputc@fp+1)^0,w,c
  2049  0019CA  A4D8               	btfss	status,2,c
  2050  0019CC  EFEA  F00C         	goto	u2211
  2051  0019D0  EFEC  F00C         	goto	u2210
  2052  0019D4                     u2211:
  2053  0019D4  EFF1  F00C         	goto	l3986
  2054  0019D8                     u2210:
  2055  0019D8                     l3984:
  2056  0019D8  501A               	movf	fputc@c^0,w,c
  2057  0019DA  ECF2  F010         	call	_putch
  2058  0019DE  EF24  F00D         	goto	l1632
  2059  0019E2                     l3986:
  2060  0019E2  EE20 F009          	lfsr	2,9
  2061  0019E6  501C               	movf	fputc@fp^0,w,c
  2062  0019E8  26D9               	addwf	fsr2l,f,c
  2063  0019EA  501D               	movf	(fputc@fp+1)^0,w,c
  2064  0019EC  22DA               	addwfc	fsr2h,f,c
  2065  0019EE  50DE               	movf	postinc2,w,c
  2066  0019F0  10DE               	iorwf	postinc2,w,c
  2067  0019F2  B4D8               	btfsc	status,2,c
  2068  0019F4  EFFE  F00C         	goto	u2221
  2069  0019F8  EF00  F00D         	goto	u2220
  2070  0019FC                     u2221:
  2071  0019FC  EF1B  F00D         	goto	l3990
  2072  001A00                     u2220:
  2073  001A00  EE20 F009          	lfsr	2,9
  2074  001A04  501C               	movf	fputc@fp^0,w,c
  2075  001A06  26D9               	addwf	fsr2l,f,c
  2076  001A08  501D               	movf	(fputc@fp+1)^0,w,c
  2077  001A0A  22DA               	addwfc	fsr2h,f,c
  2078  001A0C  EE10 F003          	lfsr	1,3
  2079  001A10  501C               	movf	fputc@fp^0,w,c
  2080  001A12  26E1               	addwf	fsr1l,f,c
  2081  001A14  501D               	movf	(fputc@fp+1)^0,w,c
  2082  001A16  22E2               	addwfc	fsr1h,f,c
  2083  001A18  50DE               	movf	postinc2,w,c
  2084  001A1A  5CE6               	subwf	postinc1,w,c
  2085  001A1C  50E6               	movf	postinc1,w,c
  2086  001A1E  0A80               	xorlw	128
  2087  001A20  6E22               	movwf	(??_fputc+4)^0,c
  2088  001A22  50DE               	movf	postinc2,w,c
  2089  001A24  0A80               	xorlw	128
  2090  001A26  5822               	subwfb	(??_fputc+4)^0,w,c
  2091  001A28  B0D8               	btfsc	status,0,c
  2092  001A2A  EF19  F00D         	goto	u2231
  2093  001A2E  EF1B  F00D         	goto	u2230
  2094  001A32                     u2231:
  2095  001A32  EF24  F00D         	goto	l1632
  2096  001A36                     u2230:
  2097  001A36                     l3990:
  2098  001A36  EE20 F003          	lfsr	2,3
  2099  001A3A  501C               	movf	fputc@fp^0,w,c
  2100  001A3C  26D9               	addwf	fsr2l,f,c
  2101  001A3E  501D               	movf	(fputc@fp+1)^0,w,c
  2102  001A40  22DA               	addwfc	fsr2h,f,c
  2103  001A42  2ADE               	incf	postinc2,f,c
  2104  001A44  0E00               	movlw	0
  2105  001A46  22DD               	addwfc	postdec2,f,c
  2106  001A48                     l1632:
  2107  001A48  0012               	return		;funcret
  2108  001A4A                     __end_of_fputc:
  2109                           	callstack 0
  2110                           
  2111 ;; *************** function _putch *****************
  2112 ;; Defined at:
  2113 ;;		line 201 in file "mcc_generated_files/eusart2.c"
  2114 ;; Parameters:    Size  Location     Type
  2115 ;;  txData          1    wreg     unsigned char 
  2116 ;; Auto vars:     Size  Location     Type
  2117 ;;  txData          1   24[COMRAM] unsigned char 
  2118 ;; Return value:  Size  Location     Type
  2119 ;;                  1    wreg      void 
  2120 ;; Registers used:
  2121 ;;		wreg, fsr2l, fsr2h, status,2, status,0, cstack
  2122 ;; Tracked objects:
  2123 ;;		On entry : 0/0
  2124 ;;		On exit  : 0/0
  2125 ;;		Unchanged: 0/0
  2126 ;; Data sizes:     COMRAM   BANK0   BANK1   BANK2   BANK3   BANK4   BANK5   BANK6   BANK7   BANK8   BANK9  BANK10  BANK1
      +1  BANK12  BANK13  BANK14
  2127 ;;      Params:         0       0       0       0       0       0       0       0       0       0       0       0       
      +0       0       0       0
  2128 ;;      Locals:         1       0       0       0       0       0       0       0       0       0       0       0       
      +0       0       0       0
  2129 ;;      Temps:          0       0       0       0       0       0       0       0       0       0       0       0       
      +0       0       0       0
  2130 ;;      Totals:         1       0       0       0       0       0       0       0       0       0       0       0       
      +0       0       0       0
  2131 ;;Total ram usage:        1 bytes
  2132 ;; Hardware stack levels used: 1
  2133 ;; Hardware stack levels required when called: 8
  2134 ;; This function calls:
  2135 ;;		_EUSART2_Write
  2136 ;; This function is called by:
  2137 ;;		_fputc
  2138 ;; This function uses a non-reentrant model
  2139 ;;
  2140                           
  2141                           	psect	text9
  2142  0021E4                     __ptext9:
  2143                           	callstack 0
  2144  0021E4                     _putch:
  2145                           	callstack 18
  2146                           
  2147                           ;incstack = 0
  2148                           ;putch@txData stored from wreg
  2149  0021E4  6E19               	movwf	putch@txData^0,c
  2150  0021E6                     
  2151                           ;mcc_generated_files/eusart2.c: 201: void putch(char txData);mcc_generated_files/eusart2
      +                          .c: 202: {;mcc_generated_files/eusart2.c: 203:     EUSART2_Write(txData);
  2152  0021E6  5019               	movf	putch@txData^0,w,c
  2153  0021E8  ECB1  F00E         	call	_EUSART2_Write
  2154  0021EC  0012               	return		;funcret
  2155  0021EE                     __end_of_putch:
  2156                           	callstack 0
  2157                           
  2158 ;; *************** function _EUSART2_Write *****************
  2159 ;; Defined at:
  2160 ;;		line 173 in file "mcc_generated_files/eusart2.c"
  2161 ;; Parameters:    Size  Location     Type
  2162 ;;  txData          1    wreg     unsigned char 
  2163 ;; Auto vars:     Size  Location     Type
  2164 ;;  txData          1   23[COMRAM] unsigned char 
  2165 ;; Return value:  Size  Location     Type
  2166 ;;                  1    wreg      void 
  2167 ;; Registers used:
  2168 ;;		wreg, fsr2l, fsr2h, status,2, status,0
  2169 ;; Tracked objects:
  2170 ;;		On entry : 0/0
  2171 ;;		On exit  : 0/0
  2172 ;;		Unchanged: 0/0
  2173 ;; Data sizes:     COMRAM   BANK0   BANK1   BANK2   BANK3   BANK4   BANK5   BANK6   BANK7   BANK8   BANK9  BANK10  BANK1
      +1  BANK12  BANK13  BANK14
  2174 ;;      Params:         0       0       0       0       0       0       0       0       0       0       0       0       
      +0       0       0       0
  2175 ;;      Locals:         1       0       0       0       0       0       0       0       0       0       0       0       
      +0       0       0       0
  2176 ;;      Temps:          0       0       0       0       0       0       0       0       0       0       0       0       
      +0       0       0       0
  2177 ;;      Totals:         1       0       0       0       0       0       0       0       0       0       0       0       
      +0       0       0       0
  2178 ;;Total ram usage:        1 bytes
  2179 ;; Hardware stack levels used: 1
  2180 ;; Hardware stack levels required when called: 7
  2181 ;; This function calls:
  2182 ;;		Nothing
  2183 ;; This function is called by:
  2184 ;;		_putch
  2185 ;; This function uses a non-reentrant model
  2186 ;;
  2187                           
  2188                           	psect	text10
  2189  001D62                     __ptext10:
  2190                           	callstack 0
  2191  001D62                     _EUSART2_Write:
  2192                           	callstack 18
  2193                           
  2194                           ;incstack = 0
  2195                           ;EUSART2_Write@txData stored from wreg
  2196  001D62  6E18               	movwf	EUSART2_Write@txData^0,c
  2197  001D64                     l3962:
  2198                           
  2199                           ;mcc_generated_files/eusart2.c: 175:     while(0 == eusart2TxBufferRemaining)
  2200  001D64  5047               	movf	_eusart2TxBufferRemaining^0,w,c	;volatile
  2201  001D66  B4D8               	btfsc	status,2,c
  2202  001D68  EFB8  F00E         	goto	u2171
  2203  001D6C  EFBA  F00E         	goto	u2170
  2204  001D70                     u2171:
  2205  001D70  EFB2  F00E         	goto	l3962
  2206  001D74                     u2170:
  2207  001D74                     
  2208                           ;mcc_generated_files/eusart2.c: 179:     if(0 == PIE3bits.TX2IE)
  2209  001D74  B8A3               	btfsc	163,4,c	;volatile
  2210  001D76  EFBF  F00E         	goto	u2181
  2211  001D7A  EFC1  F00E         	goto	u2180
  2212  001D7E                     u2181:
  2213  001D7E  EFC5  F00E         	goto	l204
  2214  001D82                     u2180:
  2215  001D82                     
  2216                           ;mcc_generated_files/eusart2.c: 180:     {;mcc_generated_files/eusart2.c: 181:         T
      +                          XREG2 = txData;
  2217  001D82  C018  FFA9         	movff	EUSART2_Write@txData,4009	;volatile
  2218                           
  2219                           ;mcc_generated_files/eusart2.c: 182:     }
  2220  001D86  EFDA  F00E         	goto	l3976
  2221  001D8A                     l204:
  2222                           
  2223                           ;mcc_generated_files/eusart2.c: 184:     {;mcc_generated_files/eusart2.c: 185:         P
      +                          IE3bits.TX2IE = 0;
  2224  001D8A  98A3               	bcf	163,4,c	;volatile
  2225  001D8C                     
  2226                           ;mcc_generated_files/eusart2.c: 186:         eusart2TxBuffer[eusart2TxHead++] = txData;
  2227  001D8C  0E94               	movlw	low _eusart2TxBuffer
  2228  001D8E  2440               	addwf	_eusart2TxHead^0,w,c	;volatile
  2229  001D90  6ED9               	movwf	fsr2l,c
  2230  001D92  6ADA               	clrf	fsr2h,c
  2231  001D94  0E00               	movlw	high _eusart2TxBuffer
  2232  001D96  22DA               	addwfc	fsr2h,f,c
  2233  001D98  C018  FFDF         	movff	EUSART2_Write@txData,indf2
  2234  001D9C  2A40               	incf	_eusart2TxHead^0,f,c	;volatile
  2235  001D9E                     
  2236                           ;mcc_generated_files/eusart2.c: 187:         if(sizeof(eusart2TxBuffer) <= eusart2TxHead
      +                          )
  2237  001D9E  0E07               	movlw	7
  2238  001DA0  6440               	cpfsgt	_eusart2TxHead^0,c	;volatile
  2239  001DA2  EFD5  F00E         	goto	u2191
  2240  001DA6  EFD7  F00E         	goto	u2190
  2241  001DAA                     u2191:
  2242  001DAA  EFD9  F00E         	goto	l3974
  2243  001DAE                     u2190:
  2244  001DAE                     
  2245                           ;mcc_generated_files/eusart2.c: 188:         {;mcc_generated_files/eusart2.c: 189:      
      +                                 eusart2TxHead = 0;
  2246  001DAE  0E00               	movlw	0
  2247  001DB0  6E40               	movwf	_eusart2TxHead^0,c	;volatile
  2248  001DB2                     l3974:
  2249                           
  2250                           ;mcc_generated_files/eusart2.c: 191:         eusart2TxBufferRemaining--;
  2251  001DB2  0647               	decf	_eusart2TxBufferRemaining^0,f,c	;volatile
  2252  001DB4                     l3976:
  2253                           
  2254                           ;mcc_generated_files/eusart2.c: 193:     PIE3bits.TX2IE = 1;
  2255  001DB4  88A3               	bsf	163,4,c	;volatile
  2256  001DB6  0012               	return		;funcret
  2257  001DB8                     __end_of_EUSART2_Write:
  2258                           	callstack 0
  2259                           
  2260 ;; *************** function _abs *****************
  2261 ;; Defined at:
  2262 ;;		line 1 in file "C:\Program Files\Microchip\xc8\v2.35\pic\sources\c99\common\abs.c"
  2263 ;; Parameters:    Size  Location     Type
  2264 ;;  a               2   41[COMRAM] int 
  2265 ;; Auto vars:     Size  Location     Type
  2266 ;;		None
  2267 ;; Return value:  Size  Location     Type
  2268 ;;                  2   41[COMRAM] int 
  2269 ;; Registers used:
  2270 ;;		wreg, status,2, status,0
  2271 ;; Tracked objects:
  2272 ;;		On entry : 0/0
  2273 ;;		On exit  : 0/0
  2274 ;;		Unchanged: 0/0
  2275 ;; Data sizes:     COMRAM   BANK0   BANK1   BANK2   BANK3   BANK4   BANK5   BANK6   BANK7   BANK8   BANK9  BANK10  BANK1
      +1  BANK12  BANK13  BANK14
  2276 ;;      Params:         2       0       0       0       0       0       0       0       0       0       0       0       
      +0       0       0       0
  2277 ;;      Locals:         0       0       0       0       0       0       0       0       0       0       0       0       
      +0       0       0       0
  2278 ;;      Temps:          2       0       0       0       0       0       0       0       0       0       0       0       
      +0       0       0       0
  2279 ;;      Totals:         4       0       0       0       0       0       0       0       0       0       0       0       
      +0       0       0       0
  2280 ;;Total ram usage:        4 bytes
  2281 ;; Hardware stack levels used: 1
  2282 ;; Hardware stack levels required when called: 7
  2283 ;; This function calls:
  2284 ;;		Nothing
  2285 ;; This function is called by:
  2286 ;;		_dtoa
  2287 ;; This function uses a non-reentrant model
  2288 ;;
  2289                           
  2290                           	psect	text11
  2291  001E42                     __ptext11:
  2292                           	callstack 0
  2293  001E42                     _abs:
  2294                           	callstack 19
  2295  001E42  BE2B               	btfsc	(abs@a+1)^0,7,c
  2296  001E44  EF2E  F00F         	goto	u2430
  2297  001E48  502B               	movf	(abs@a+1)^0,w,c
  2298  001E4A  E106               	bnz	u2431
  2299  001E4C  042A               	decf	abs@a^0,w,c
  2300  001E4E  B0D8               	btfsc	status,0,c
  2301  001E50  EF2C  F00F         	goto	u2431
  2302  001E54  EF2E  F00F         	goto	u2430
  2303  001E58                     u2431:
  2304  001E58  EF3C  F00F         	goto	l1617
  2305  001E5C                     u2430:
  2306  001E5C  C02A  F02C         	movff	abs@a,??_abs
  2307  001E60  C02B  F02D         	movff	abs@a+1,??_abs+1
  2308  001E64  1E2C               	comf	??_abs^0,f,c
  2309  001E66  1E2D               	comf	(??_abs+1)^0,f,c
  2310  001E68  4A2C               	infsnz	??_abs^0,f,c
  2311  001E6A  2A2D               	incf	(??_abs+1)^0,f,c
  2312  001E6C  C02C  F02A         	movff	??_abs,?_abs
  2313  001E70  C02D  F02B         	movff	??_abs+1,?_abs+1
  2314  001E74  EF40  F00F         	goto	l1620
  2315  001E78                     l1617:
  2316  001E78  C02A  F02A         	movff	abs@a,?_abs
  2317  001E7C  C02B  F02B         	movff	abs@a+1,?_abs+1
  2318  001E80                     l1620:
  2319  001E80  0012               	return		;funcret
  2320  001E82                     __end_of_abs:
  2321                           	callstack 0
  2322                           
  2323 ;; *************** function ___aomod *****************
  2324 ;; Defined at:
  2325 ;;		line 9 in file "C:\Program Files\Microchip\xc8\v2.35\pic\sources\c99\common\aomod.c"
  2326 ;; Parameters:    Size  Location     Type
  2327 ;;  dividend        8   23[COMRAM] long long 
  2328 ;;  divisor         8   31[COMRAM] long long 
  2329 ;; Auto vars:     Size  Location     Type
  2330 ;;  sign            1   40[COMRAM] unsigned char 
  2331 ;;  counter         1   39[COMRAM] unsigned char 
  2332 ;; Return value:  Size  Location     Type
  2333 ;;                  8   23[COMRAM] long long 
  2334 ;; Registers used:
  2335 ;;		wreg, status,2, status,0
  2336 ;; Tracked objects:
  2337 ;;		On entry : 0/0
  2338 ;;		On exit  : 0/0
  2339 ;;		Unchanged: 0/0
  2340 ;; Data sizes:     COMRAM   BANK0   BANK1   BANK2   BANK3   BANK4   BANK5   BANK6   BANK7   BANK8   BANK9  BANK10  BANK1
      +1  BANK12  BANK13  BANK14
  2341 ;;      Params:        16       0       0       0       0       0       0       0       0       0       0       0       
      +0       0       0       0
  2342 ;;      Locals:         2       0       0       0       0       0       0       0       0       0       0       0       
      +0       0       0       0
  2343 ;;      Temps:          0       0       0       0       0       0       0       0       0       0       0       0       
      +0       0       0       0
  2344 ;;      Totals:        18       0       0       0       0       0       0       0       0       0       0       0       
      +0       0       0       0
  2345 ;;Total ram usage:       18 bytes
  2346 ;; Hardware stack levels used: 1
  2347 ;; Hardware stack levels required when called: 7
  2348 ;; This function calls:
  2349 ;;		Nothing
  2350 ;; This function is called by:
  2351 ;;		_dtoa
  2352 ;; This function uses a non-reentrant model
  2353 ;;
  2354                           
  2355                           	psect	text12
  2356  001554                     __ptext12:
  2357                           	callstack 0
  2358  001554                     ___aomod:
  2359                           	callstack 19
  2360  001554  0E00               	movlw	0
  2361  001556  6E29               	movwf	___aomod@sign^0,c
  2362  001558  BE1F               	btfsc	(___aomod@dividend+7)^0,7,c
  2363  00155A  EFB3  F00A         	goto	u2330
  2364  00155E  EFB1  F00A         	goto	u2331
  2365  001562                     u2331:
  2366  001562  EFC5  F00A         	goto	l4064
  2367  001566                     u2330:
  2368  001566  1E1F               	comf	(___aomod@dividend+7)^0,f,c
  2369  001568  1E1E               	comf	(___aomod@dividend+6)^0,f,c
  2370  00156A  1E1D               	comf	(___aomod@dividend+5)^0,f,c
  2371  00156C  1E1C               	comf	(___aomod@dividend+4)^0,f,c
  2372  00156E  1E1B               	comf	(___aomod@dividend+3)^0,f,c
  2373  001570  1E1A               	comf	(___aomod@dividend+2)^0,f,c
  2374  001572  1E19               	comf	(___aomod@dividend+1)^0,f,c
  2375  001574  6C18               	negf	___aomod@dividend^0,c
  2376  001576  0E00               	movlw	0
  2377  001578  2219               	addwfc	(___aomod@dividend+1)^0,f,c
  2378  00157A  221A               	addwfc	(___aomod@dividend+2)^0,f,c
  2379  00157C  221B               	addwfc	(___aomod@dividend+3)^0,f,c
  2380  00157E  221C               	addwfc	(___aomod@dividend+4)^0,f,c
  2381  001580  221D               	addwfc	(___aomod@dividend+5)^0,f,c
  2382  001582  221E               	addwfc	(___aomod@dividend+6)^0,f,c
  2383  001584  221F               	addwfc	(___aomod@dividend+7)^0,f,c
  2384  001586  0E01               	movlw	1
  2385  001588  6E29               	movwf	___aomod@sign^0,c
  2386  00158A                     l4064:
  2387  00158A  BE27               	btfsc	(___aomod@divisor+7)^0,7,c
  2388  00158C  EFCC  F00A         	goto	u2340
  2389  001590  EFCA  F00A         	goto	u2341
  2390  001594                     u2341:
  2391  001594  EFDC  F00A         	goto	l4068
  2392  001598                     u2340:
  2393  001598  1E27               	comf	(___aomod@divisor+7)^0,f,c
  2394  00159A  1E26               	comf	(___aomod@divisor+6)^0,f,c
  2395  00159C  1E25               	comf	(___aomod@divisor+5)^0,f,c
  2396  00159E  1E24               	comf	(___aomod@divisor+4)^0,f,c
  2397  0015A0  1E23               	comf	(___aomod@divisor+3)^0,f,c
  2398  0015A2  1E22               	comf	(___aomod@divisor+2)^0,f,c
  2399  0015A4  1E21               	comf	(___aomod@divisor+1)^0,f,c
  2400  0015A6  6C20               	negf	___aomod@divisor^0,c
  2401  0015A8  0E00               	movlw	0
  2402  0015AA  2221               	addwfc	(___aomod@divisor+1)^0,f,c
  2403  0015AC  2222               	addwfc	(___aomod@divisor+2)^0,f,c
  2404  0015AE  2223               	addwfc	(___aomod@divisor+3)^0,f,c
  2405  0015B0  2224               	addwfc	(___aomod@divisor+4)^0,f,c
  2406  0015B2  2225               	addwfc	(___aomod@divisor+5)^0,f,c
  2407  0015B4  2226               	addwfc	(___aomod@divisor+6)^0,f,c
  2408  0015B6  2227               	addwfc	(___aomod@divisor+7)^0,f,c
  2409  0015B8                     l4068:
  2410  0015B8  5020               	movf	___aomod@divisor^0,w,c
  2411  0015BA  1021               	iorwf	(___aomod@divisor+1)^0,w,c
  2412  0015BC  1022               	iorwf	(___aomod@divisor+2)^0,w,c
  2413  0015BE  1023               	iorwf	(___aomod@divisor+3)^0,w,c
  2414  0015C0  1024               	iorwf	(___aomod@divisor+4)^0,w,c
  2415  0015C2  1025               	iorwf	(___aomod@divisor+5)^0,w,c
  2416  0015C4  1026               	iorwf	(___aomod@divisor+6)^0,w,c
  2417  0015C6  1027               	iorwf	(___aomod@divisor+7)^0,w,c
  2418  0015C8  B4D8               	btfsc	status,2,c
  2419  0015CA  EFE9  F00A         	goto	u2351
  2420  0015CE  EFEB  F00A         	goto	u2350
  2421  0015D2                     u2351:
  2422  0015D2  EF33  F00B         	goto	l4084
  2423  0015D6                     u2350:
  2424  0015D6  0E01               	movlw	1
  2425  0015D8  6E28               	movwf	___aomod@counter^0,c
  2426  0015DA  EFF9  F00A         	goto	l4074
  2427  0015DE                     l4072:
  2428  0015DE  90D8               	bcf	status,0,c
  2429  0015E0  3620               	rlcf	___aomod@divisor^0,f,c
  2430  0015E2  3621               	rlcf	(___aomod@divisor+1)^0,f,c
  2431  0015E4  3622               	rlcf	(___aomod@divisor+2)^0,f,c
  2432  0015E6  3623               	rlcf	(___aomod@divisor+3)^0,f,c
  2433  0015E8  3624               	rlcf	(___aomod@divisor+4)^0,f,c
  2434  0015EA  3625               	rlcf	(___aomod@divisor+5)^0,f,c
  2435  0015EC  3626               	rlcf	(___aomod@divisor+6)^0,f,c
  2436  0015EE  3627               	rlcf	(___aomod@divisor+7)^0,f,c
  2437  0015F0  2A28               	incf	___aomod@counter^0,f,c
  2438  0015F2                     l4074:
  2439  0015F2  AE27               	btfss	(___aomod@divisor+7)^0,7,c
  2440  0015F4  EFFE  F00A         	goto	u2361
  2441  0015F8  EF00  F00B         	goto	u2360
  2442  0015FC                     u2361:
  2443  0015FC  EFEF  F00A         	goto	l4072
  2444  001600                     u2360:
  2445  001600                     l4076:
  2446  001600  5020               	movf	___aomod@divisor^0,w,c
  2447  001602  5C18               	subwf	___aomod@dividend^0,w,c
  2448  001604  5021               	movf	(___aomod@divisor+1)^0,w,c
  2449  001606  5819               	subwfb	(___aomod@dividend+1)^0,w,c
  2450  001608  5022               	movf	(___aomod@divisor+2)^0,w,c
  2451  00160A  581A               	subwfb	(___aomod@dividend+2)^0,w,c
  2452  00160C  5023               	movf	(___aomod@divisor+3)^0,w,c
  2453  00160E  581B               	subwfb	(___aomod@dividend+3)^0,w,c
  2454  001610  5024               	movf	(___aomod@divisor+4)^0,w,c
  2455  001612  581C               	subwfb	(___aomod@dividend+4)^0,w,c
  2456  001614  5025               	movf	(___aomod@divisor+5)^0,w,c
  2457  001616  581D               	subwfb	(___aomod@dividend+5)^0,w,c
  2458  001618  5026               	movf	(___aomod@divisor+6)^0,w,c
  2459  00161A  581E               	subwfb	(___aomod@dividend+6)^0,w,c
  2460  00161C  5027               	movf	(___aomod@divisor+7)^0,w,c
  2461  00161E  581F               	subwfb	(___aomod@dividend+7)^0,w,c
  2462  001620  A0D8               	btfss	status,0,c
  2463  001622  EF15  F00B         	goto	u2371
  2464  001626  EF17  F00B         	goto	u2370
  2465  00162A                     u2371:
  2466  00162A  EF27  F00B         	goto	l4080
  2467  00162E                     u2370:
  2468  00162E  5020               	movf	___aomod@divisor^0,w,c
  2469  001630  5E18               	subwf	___aomod@dividend^0,f,c
  2470  001632  5021               	movf	(___aomod@divisor+1)^0,w,c
  2471  001634  5A19               	subwfb	(___aomod@dividend+1)^0,f,c
  2472  001636  5022               	movf	(___aomod@divisor+2)^0,w,c
  2473  001638  5A1A               	subwfb	(___aomod@dividend+2)^0,f,c
  2474  00163A  5023               	movf	(___aomod@divisor+3)^0,w,c
  2475  00163C  5A1B               	subwfb	(___aomod@dividend+3)^0,f,c
  2476  00163E  5024               	movf	(___aomod@divisor+4)^0,w,c
  2477  001640  5A1C               	subwfb	(___aomod@dividend+4)^0,f,c
  2478  001642  5025               	movf	(___aomod@divisor+5)^0,w,c
  2479  001644  5A1D               	subwfb	(___aomod@dividend+5)^0,f,c
  2480  001646  5026               	movf	(___aomod@divisor+6)^0,w,c
  2481  001648  5A1E               	subwfb	(___aomod@dividend+6)^0,f,c
  2482  00164A  5027               	movf	(___aomod@divisor+7)^0,w,c
  2483  00164C  5A1F               	subwfb	(___aomod@dividend+7)^0,f,c
  2484  00164E                     l4080:
  2485  00164E  90D8               	bcf	status,0,c
  2486  001650  3227               	rrcf	(___aomod@divisor+7)^0,f,c
  2487  001652  3226               	rrcf	(___aomod@divisor+6)^0,f,c
  2488  001654  3225               	rrcf	(___aomod@divisor+5)^0,f,c
  2489  001656  3224               	rrcf	(___aomod@divisor+4)^0,f,c
  2490  001658  3223               	rrcf	(___aomod@divisor+3)^0,f,c
  2491  00165A  3222               	rrcf	(___aomod@divisor+2)^0,f,c
  2492  00165C  3221               	rrcf	(___aomod@divisor+1)^0,f,c
  2493  00165E  3220               	rrcf	___aomod@divisor^0,f,c
  2494  001660  2E28               	decfsz	___aomod@counter^0,f,c
  2495  001662  EF00  F00B         	goto	l4076
  2496  001666                     l4084:
  2497  001666  5029               	movf	___aomod@sign^0,w,c
  2498  001668  B4D8               	btfsc	status,2,c
  2499  00166A  EF39  F00B         	goto	u2381
  2500  00166E  EF3B  F00B         	goto	u2380
  2501  001672                     u2381:
  2502  001672  EF4B  F00B         	goto	l4088
  2503  001676                     u2380:
  2504  001676  1E1F               	comf	(___aomod@dividend+7)^0,f,c
  2505  001678  1E1E               	comf	(___aomod@dividend+6)^0,f,c
  2506  00167A  1E1D               	comf	(___aomod@dividend+5)^0,f,c
  2507  00167C  1E1C               	comf	(___aomod@dividend+4)^0,f,c
  2508  00167E  1E1B               	comf	(___aomod@dividend+3)^0,f,c
  2509  001680  1E1A               	comf	(___aomod@dividend+2)^0,f,c
  2510  001682  1E19               	comf	(___aomod@dividend+1)^0,f,c
  2511  001684  6C18               	negf	___aomod@dividend^0,c
  2512  001686  0E00               	movlw	0
  2513  001688  2219               	addwfc	(___aomod@dividend+1)^0,f,c
  2514  00168A  221A               	addwfc	(___aomod@dividend+2)^0,f,c
  2515  00168C  221B               	addwfc	(___aomod@dividend+3)^0,f,c
  2516  00168E  221C               	addwfc	(___aomod@dividend+4)^0,f,c
  2517  001690  221D               	addwfc	(___aomod@dividend+5)^0,f,c
  2518  001692  221E               	addwfc	(___aomod@dividend+6)^0,f,c
  2519  001694  221F               	addwfc	(___aomod@dividend+7)^0,f,c
  2520  001696                     l4088:
  2521  001696  C018  F018         	movff	___aomod@dividend,?___aomod
  2522  00169A  C019  F019         	movff	___aomod@dividend+1,?___aomod+1
  2523  00169E  C01A  F01A         	movff	___aomod@dividend+2,?___aomod+2
  2524  0016A2  C01B  F01B         	movff	___aomod@dividend+3,?___aomod+3
  2525  0016A6  C01C  F01C         	movff	___aomod@dividend+4,?___aomod+4
  2526  0016AA  C01D  F01D         	movff	___aomod@dividend+5,?___aomod+5
  2527  0016AE  C01E  F01E         	movff	___aomod@dividend+6,?___aomod+6
  2528  0016B2  C01F  F01F         	movff	___aomod@dividend+7,?___aomod+7
  2529  0016B6  0012               	return		;funcret
  2530  0016B8                     __end_of___aomod:
  2531                           	callstack 0
  2532                           
  2533 ;; *************** function ___aodiv *****************
  2534 ;; Defined at:
  2535 ;;		line 9 in file "C:\Program Files\Microchip\xc8\v2.35\pic\sources\c99\common\aodiv.c"
  2536 ;; Parameters:    Size  Location     Type
  2537 ;;  dividend        8   23[COMRAM] long long 
  2538 ;;  divisor         8   31[COMRAM] long long 
  2539 ;; Auto vars:     Size  Location     Type
  2540 ;;  quotient        8    2[BANK0 ] long long 
  2541 ;;  sign            1    1[BANK0 ] unsigned char 
  2542 ;;  counter         1    0[BANK0 ] unsigned char 
  2543 ;; Return value:  Size  Location     Type
  2544 ;;                  8   23[COMRAM] long long 
  2545 ;; Registers used:
  2546 ;;		wreg, fsr2l, fsr2h, status,2, status,0
  2547 ;; Tracked objects:
  2548 ;;		On entry : 0/0
  2549 ;;		On exit  : 0/0
  2550 ;;		Unchanged: 0/0
  2551 ;; Data sizes:     COMRAM   BANK0   BANK1   BANK2   BANK3   BANK4   BANK5   BANK6   BANK7   BANK8   BANK9  BANK10  BANK1
      +1  BANK12  BANK13  BANK14
  2552 ;;      Params:        16       0       0       0       0       0       0       0       0       0       0       0       
      +0       0       0       0
  2553 ;;      Locals:         0      10       0       0       0       0       0       0       0       0       0       0       
      +0       0       0       0
  2554 ;;      Temps:          0       0       0       0       0       0       0       0       0       0       0       0       
      +0       0       0       0
  2555 ;;      Totals:        16      10       0       0       0       0       0       0       0       0       0       0       
      +0       0       0       0
  2556 ;;Total ram usage:       26 bytes
  2557 ;; Hardware stack levels used: 1
  2558 ;; Hardware stack levels required when called: 7
  2559 ;; This function calls:
  2560 ;;		Nothing
  2561 ;; This function is called by:
  2562 ;;		_dtoa
  2563 ;; This function uses a non-reentrant model
  2564 ;;
  2565                           
  2566                           	psect	text13
  2567  0013CA                     __ptext13:
  2568                           	callstack 0
  2569  0013CA                     ___aodiv:
  2570                           	callstack 19
  2571  0013CA  0E00               	movlw	0
  2572  0013CC  0100               	movlb	0	; () banked
  2573  0013CE  6FBF               	movwf	___aodiv@sign& (0+255),b
  2574  0013D0                     
  2575                           ; BSR set to: 0
  2576  0013D0  BE27               	btfsc	(___aodiv@divisor+7)^0,7,c
  2577  0013D2  EFEF  F009         	goto	u2260
  2578  0013D6  EFED  F009         	goto	u2261
  2579  0013DA                     u2261:
  2580  0013DA  EF01  F00A         	goto	l4020
  2581  0013DE                     u2260:
  2582  0013DE                     
  2583                           ; BSR set to: 0
  2584  0013DE  1E27               	comf	(___aodiv@divisor+7)^0,f,c
  2585  0013E0  1E26               	comf	(___aodiv@divisor+6)^0,f,c
  2586  0013E2  1E25               	comf	(___aodiv@divisor+5)^0,f,c
  2587  0013E4  1E24               	comf	(___aodiv@divisor+4)^0,f,c
  2588  0013E6  1E23               	comf	(___aodiv@divisor+3)^0,f,c
  2589  0013E8  1E22               	comf	(___aodiv@divisor+2)^0,f,c
  2590  0013EA  1E21               	comf	(___aodiv@divisor+1)^0,f,c
  2591  0013EC  6C20               	negf	___aodiv@divisor^0,c
  2592  0013EE  0E00               	movlw	0
  2593  0013F0  2221               	addwfc	(___aodiv@divisor+1)^0,f,c
  2594  0013F2  2222               	addwfc	(___aodiv@divisor+2)^0,f,c
  2595  0013F4  2223               	addwfc	(___aodiv@divisor+3)^0,f,c
  2596  0013F6  2224               	addwfc	(___aodiv@divisor+4)^0,f,c
  2597  0013F8  2225               	addwfc	(___aodiv@divisor+5)^0,f,c
  2598  0013FA  2226               	addwfc	(___aodiv@divisor+6)^0,f,c
  2599  0013FC  2227               	addwfc	(___aodiv@divisor+7)^0,f,c
  2600  0013FE                     
  2601                           ; BSR set to: 0
  2602  0013FE  0E01               	movlw	1
  2603  001400  6FBF               	movwf	___aodiv@sign& (0+255),b
  2604  001402                     l4020:
  2605                           
  2606                           ; BSR set to: 0
  2607  001402  BE1F               	btfsc	(___aodiv@dividend+7)^0,7,c
  2608  001404  EF08  F00A         	goto	u2270
  2609  001408  EF06  F00A         	goto	u2271
  2610  00140C                     u2271:
  2611  00140C  EF1A  F00A         	goto	l4026
  2612  001410                     u2270:
  2613  001410                     
  2614                           ; BSR set to: 0
  2615  001410  1E1F               	comf	(___aodiv@dividend+7)^0,f,c
  2616  001412  1E1E               	comf	(___aodiv@dividend+6)^0,f,c
  2617  001414  1E1D               	comf	(___aodiv@dividend+5)^0,f,c
  2618  001416  1E1C               	comf	(___aodiv@dividend+4)^0,f,c
  2619  001418  1E1B               	comf	(___aodiv@dividend+3)^0,f,c
  2620  00141A  1E1A               	comf	(___aodiv@dividend+2)^0,f,c
  2621  00141C  1E19               	comf	(___aodiv@dividend+1)^0,f,c
  2622  00141E  6C18               	negf	___aodiv@dividend^0,c
  2623  001420  0E00               	movlw	0
  2624  001422  2219               	addwfc	(___aodiv@dividend+1)^0,f,c
  2625  001424  221A               	addwfc	(___aodiv@dividend+2)^0,f,c
  2626  001426  221B               	addwfc	(___aodiv@dividend+3)^0,f,c
  2627  001428  221C               	addwfc	(___aodiv@dividend+4)^0,f,c
  2628  00142A  221D               	addwfc	(___aodiv@dividend+5)^0,f,c
  2629  00142C  221E               	addwfc	(___aodiv@dividend+6)^0,f,c
  2630  00142E  221F               	addwfc	(___aodiv@dividend+7)^0,f,c
  2631  001430                     
  2632                           ; BSR set to: 0
  2633  001430  0E01               	movlw	1
  2634  001432  1BBF               	xorwf	___aodiv@sign& (0+255),f,b
  2635  001434                     l4026:
  2636                           
  2637                           ; BSR set to: 0
  2638  001434  EE20  F0C0         	lfsr	2,___aodiv@quotient
  2639  001438  0E07               	movlw	7
  2640  00143A                     u2281:
  2641  00143A  6ADE               	clrf	postinc2,c
  2642  00143C  06E8               	decf	wreg,f,c
  2643  00143E  E2FD               	bc	u2281
  2644  001440                     
  2645                           ; BSR set to: 0
  2646  001440  5020               	movf	___aodiv@divisor^0,w,c
  2647  001442  1021               	iorwf	(___aodiv@divisor+1)^0,w,c
  2648  001444  1022               	iorwf	(___aodiv@divisor+2)^0,w,c
  2649  001446  1023               	iorwf	(___aodiv@divisor+3)^0,w,c
  2650  001448  1024               	iorwf	(___aodiv@divisor+4)^0,w,c
  2651  00144A  1025               	iorwf	(___aodiv@divisor+5)^0,w,c
  2652  00144C  1026               	iorwf	(___aodiv@divisor+6)^0,w,c
  2653  00144E  1027               	iorwf	(___aodiv@divisor+7)^0,w,c
  2654  001450  B4D8               	btfsc	status,2,c
  2655  001452  EF2D  F00A         	goto	u2291
  2656  001456  EF2F  F00A         	goto	u2290
  2657  00145A                     u2291:
  2658  00145A  EF81  F00A         	goto	l4048
  2659  00145E                     u2290:
  2660  00145E                     
  2661                           ; BSR set to: 0
  2662  00145E  0E01               	movlw	1
  2663  001460  6FBE               	movwf	___aodiv@counter& (0+255),b
  2664  001462  EF3D  F00A         	goto	l4034
  2665  001466                     l4032:
  2666                           
  2667                           ; BSR set to: 0
  2668  001466  90D8               	bcf	status,0,c
  2669  001468  3620               	rlcf	___aodiv@divisor^0,f,c
  2670  00146A  3621               	rlcf	(___aodiv@divisor+1)^0,f,c
  2671  00146C  3622               	rlcf	(___aodiv@divisor+2)^0,f,c
  2672  00146E  3623               	rlcf	(___aodiv@divisor+3)^0,f,c
  2673  001470  3624               	rlcf	(___aodiv@divisor+4)^0,f,c
  2674  001472  3625               	rlcf	(___aodiv@divisor+5)^0,f,c
  2675  001474  3626               	rlcf	(___aodiv@divisor+6)^0,f,c
  2676  001476  3627               	rlcf	(___aodiv@divisor+7)^0,f,c
  2677  001478  2BBE               	incf	___aodiv@counter& (0+255),f,b
  2678  00147A                     l4034:
  2679                           
  2680                           ; BSR set to: 0
  2681  00147A  AE27               	btfss	(___aodiv@divisor+7)^0,7,c
  2682  00147C  EF42  F00A         	goto	u2301
  2683  001480  EF44  F00A         	goto	u2300
  2684  001484                     u2301:
  2685  001484  EF33  F00A         	goto	l4032
  2686  001488                     u2300:
  2687  001488                     l4036:
  2688                           
  2689                           ; BSR set to: 0
  2690  001488  90D8               	bcf	status,0,c
  2691  00148A  37C0               	rlcf	___aodiv@quotient& (0+255),f,b
  2692  00148C  37C1               	rlcf	(___aodiv@quotient+1)& (0+255),f,b
  2693  00148E  37C2               	rlcf	(___aodiv@quotient+2)& (0+255),f,b
  2694  001490  37C3               	rlcf	(___aodiv@quotient+3)& (0+255),f,b
  2695  001492  37C4               	rlcf	(___aodiv@quotient+4)& (0+255),f,b
  2696  001494  37C5               	rlcf	(___aodiv@quotient+5)& (0+255),f,b
  2697  001496  37C6               	rlcf	(___aodiv@quotient+6)& (0+255),f,b
  2698  001498  37C7               	rlcf	(___aodiv@quotient+7)& (0+255),f,b
  2699  00149A                     
  2700                           ; BSR set to: 0
  2701  00149A  5020               	movf	___aodiv@divisor^0,w,c
  2702  00149C  5C18               	subwf	___aodiv@dividend^0,w,c
  2703  00149E  5021               	movf	(___aodiv@divisor+1)^0,w,c
  2704  0014A0  5819               	subwfb	(___aodiv@dividend+1)^0,w,c
  2705  0014A2  5022               	movf	(___aodiv@divisor+2)^0,w,c
  2706  0014A4  581A               	subwfb	(___aodiv@dividend+2)^0,w,c
  2707  0014A6  5023               	movf	(___aodiv@divisor+3)^0,w,c
  2708  0014A8  581B               	subwfb	(___aodiv@dividend+3)^0,w,c
  2709  0014AA  5024               	movf	(___aodiv@divisor+4)^0,w,c
  2710  0014AC  581C               	subwfb	(___aodiv@dividend+4)^0,w,c
  2711  0014AE  5025               	movf	(___aodiv@divisor+5)^0,w,c
  2712  0014B0  581D               	subwfb	(___aodiv@dividend+5)^0,w,c
  2713  0014B2  5026               	movf	(___aodiv@divisor+6)^0,w,c
  2714  0014B4  581E               	subwfb	(___aodiv@dividend+6)^0,w,c
  2715  0014B6  5027               	movf	(___aodiv@divisor+7)^0,w,c
  2716  0014B8  581F               	subwfb	(___aodiv@dividend+7)^0,w,c
  2717  0014BA  A0D8               	btfss	status,0,c
  2718  0014BC  EF62  F00A         	goto	u2311
  2719  0014C0  EF64  F00A         	goto	u2310
  2720  0014C4                     u2311:
  2721  0014C4  EF75  F00A         	goto	l4044
  2722  0014C8                     u2310:
  2723  0014C8                     
  2724                           ; BSR set to: 0
  2725  0014C8  5020               	movf	___aodiv@divisor^0,w,c
  2726  0014CA  5E18               	subwf	___aodiv@dividend^0,f,c
  2727  0014CC  5021               	movf	(___aodiv@divisor+1)^0,w,c
  2728  0014CE  5A19               	subwfb	(___aodiv@dividend+1)^0,f,c
  2729  0014D0  5022               	movf	(___aodiv@divisor+2)^0,w,c
  2730  0014D2  5A1A               	subwfb	(___aodiv@dividend+2)^0,f,c
  2731  0014D4  5023               	movf	(___aodiv@divisor+3)^0,w,c
  2732  0014D6  5A1B               	subwfb	(___aodiv@dividend+3)^0,f,c
  2733  0014D8  5024               	movf	(___aodiv@divisor+4)^0,w,c
  2734  0014DA  5A1C               	subwfb	(___aodiv@dividend+4)^0,f,c
  2735  0014DC  5025               	movf	(___aodiv@divisor+5)^0,w,c
  2736  0014DE  5A1D               	subwfb	(___aodiv@dividend+5)^0,f,c
  2737  0014E0  5026               	movf	(___aodiv@divisor+6)^0,w,c
  2738  0014E2  5A1E               	subwfb	(___aodiv@dividend+6)^0,f,c
  2739  0014E4  5027               	movf	(___aodiv@divisor+7)^0,w,c
  2740  0014E6  5A1F               	subwfb	(___aodiv@dividend+7)^0,f,c
  2741  0014E8                     
  2742                           ; BSR set to: 0
  2743  0014E8  81C0               	bsf	___aodiv@quotient& (0+255),0,b
  2744  0014EA                     l4044:
  2745                           
  2746                           ; BSR set to: 0
  2747  0014EA  90D8               	bcf	status,0,c
  2748  0014EC  3227               	rrcf	(___aodiv@divisor+7)^0,f,c
  2749  0014EE  3226               	rrcf	(___aodiv@divisor+6)^0,f,c
  2750  0014F0  3225               	rrcf	(___aodiv@divisor+5)^0,f,c
  2751  0014F2  3224               	rrcf	(___aodiv@divisor+4)^0,f,c
  2752  0014F4  3223               	rrcf	(___aodiv@divisor+3)^0,f,c
  2753  0014F6  3222               	rrcf	(___aodiv@divisor+2)^0,f,c
  2754  0014F8  3221               	rrcf	(___aodiv@divisor+1)^0,f,c
  2755  0014FA  3220               	rrcf	___aodiv@divisor^0,f,c
  2756  0014FC                     
  2757                           ; BSR set to: 0
  2758  0014FC  2FBE               	decfsz	___aodiv@counter& (0+255),f,b
  2759  0014FE  EF44  F00A         	goto	l4036
  2760  001502                     l4048:
  2761                           
  2762                           ; BSR set to: 0
  2763  001502  51BF               	movf	___aodiv@sign& (0+255),w,b
  2764  001504  B4D8               	btfsc	status,2,c
  2765  001506  EF87  F00A         	goto	u2321
  2766  00150A  EF89  F00A         	goto	u2320
  2767  00150E                     u2321:
  2768  00150E  EF99  F00A         	goto	l4052
  2769  001512                     u2320:
  2770  001512                     
  2771                           ; BSR set to: 0
  2772  001512  1FC7               	comf	(___aodiv@quotient+7)& (0+255),f,b
  2773  001514  1FC6               	comf	(___aodiv@quotient+6)& (0+255),f,b
  2774  001516  1FC5               	comf	(___aodiv@quotient+5)& (0+255),f,b
  2775  001518  1FC4               	comf	(___aodiv@quotient+4)& (0+255),f,b
  2776  00151A  1FC3               	comf	(___aodiv@quotient+3)& (0+255),f,b
  2777  00151C  1FC2               	comf	(___aodiv@quotient+2)& (0+255),f,b
  2778  00151E  1FC1               	comf	(___aodiv@quotient+1)& (0+255),f,b
  2779  001520  6DC0               	negf	___aodiv@quotient& (0+255),b
  2780  001522  0E00               	movlw	0
  2781  001524  23C1               	addwfc	(___aodiv@quotient+1)& (0+255),f,b
  2782  001526  23C2               	addwfc	(___aodiv@quotient+2)& (0+255),f,b
  2783  001528  23C3               	addwfc	(___aodiv@quotient+3)& (0+255),f,b
  2784  00152A  23C4               	addwfc	(___aodiv@quotient+4)& (0+255),f,b
  2785  00152C  23C5               	addwfc	(___aodiv@quotient+5)& (0+255),f,b
  2786  00152E  23C6               	addwfc	(___aodiv@quotient+6)& (0+255),f,b
  2787  001530  23C7               	addwfc	(___aodiv@quotient+7)& (0+255),f,b
  2788  001532                     l4052:
  2789                           
  2790                           ; BSR set to: 0
  2791  001532  C0C0  F018         	movff	___aodiv@quotient,?___aodiv
  2792  001536  C0C1  F019         	movff	___aodiv@quotient+1,?___aodiv+1
  2793  00153A  C0C2  F01A         	movff	___aodiv@quotient+2,?___aodiv+2
  2794  00153E  C0C3  F01B         	movff	___aodiv@quotient+3,?___aodiv+3
  2795  001542  C0C4  F01C         	movff	___aodiv@quotient+4,?___aodiv+4
  2796  001546  C0C5  F01D         	movff	___aodiv@quotient+5,?___aodiv+5
  2797  00154A  C0C6  F01E         	movff	___aodiv@quotient+6,?___aodiv+6
  2798  00154E  C0C7  F01F         	movff	___aodiv@quotient+7,?___aodiv+7
  2799  001552                     
  2800                           ; BSR set to: 0
  2801  001552  0012               	return		;funcret
  2802  001554                     __end_of___aodiv:
  2803                           	callstack 0
  2804                           
  2805 ;; *************** function _SYSTEM_Initialize *****************
  2806 ;; Defined at:
  2807 ;;		line 50 in file "mcc_generated_files/mcc.c"
  2808 ;; Parameters:    Size  Location     Type
  2809 ;;		None
  2810 ;; Auto vars:     Size  Location     Type
  2811 ;;		None
  2812 ;; Return value:  Size  Location     Type
  2813 ;;                  1    wreg      void 
  2814 ;; Registers used:
  2815 ;;		wreg, status,2, status,0, cstack
  2816 ;; Tracked objects:
  2817 ;;		On entry : 0/0
  2818 ;;		On exit  : 0/0
  2819 ;;		Unchanged: 0/0
  2820 ;; Data sizes:     COMRAM   BANK0   BANK1   BANK2   BANK3   BANK4   BANK5   BANK6   BANK7   BANK8   BANK9  BANK10  BANK1
      +1  BANK12  BANK13  BANK14
  2821 ;;      Params:         0       0       0       0       0       0       0       0       0       0       0       0       
      +0       0       0       0
  2822 ;;      Locals:         0       0       0       0       0       0       0       0       0       0       0       0       
      +0       0       0       0
  2823 ;;      Temps:          0       0       0       0       0       0       0       0       0       0       0       0       
      +0       0       0       0
  2824 ;;      Totals:         0       0       0       0       0       0       0       0       0       0       0       0       
      +0       0       0       0
  2825 ;;Total ram usage:        0 bytes
  2826 ;; Hardware stack levels used: 1
  2827 ;; Hardware stack levels required when called: 9
  2828 ;; This function calls:
  2829 ;;		_ADC_Initialize
  2830 ;;		_EUSART2_Initialize
  2831 ;;		_I2C1_Initialize
  2832 ;;		_INTERRUPT_Initialize
  2833 ;;		_OSCILLATOR_Initialize
  2834 ;;		_PIN_MANAGER_Initialize
  2835 ;;		_TMR1_Initialize
  2836 ;;		_TMR2_Initialize
  2837 ;; This function is called by:
  2838 ;;		_main
  2839 ;; This function uses a non-reentrant model
  2840 ;;
  2841                           
  2842                           	psect	text14
  2843  0020FC                     __ptext14:
  2844                           	callstack 0
  2845  0020FC                     _SYSTEM_Initialize:
  2846                           	callstack 21
  2847  0020FC                     
  2848                           ;mcc_generated_files/mcc.c: 53:     INTERRUPT_Initialize();
  2849  0020FC  EC41  F011         	call	_INTERRUPT_Initialize	;wreg free
  2850  002100                     
  2851                           ;mcc_generated_files/mcc.c: 54:     I2C1_Initialize();
  2852  002100  ECB4  F010         	call	_I2C1_Initialize	;wreg free
  2853  002104                     
  2854                           ;mcc_generated_files/mcc.c: 55:     PIN_MANAGER_Initialize();
  2855  002104  EC81  F00F         	call	_PIN_MANAGER_Initialize	;wreg free
  2856  002108                     
  2857                           ;mcc_generated_files/mcc.c: 56:     OSCILLATOR_Initialize();
  2858  002108  ECAA  F010         	call	_OSCILLATOR_Initialize	;wreg free
  2859  00210C                     
  2860                           ;mcc_generated_files/mcc.c: 57:     ADC_Initialize();
  2861  00210C  EC8F  F010         	call	_ADC_Initialize	;wreg free
  2862  002110                     
  2863                           ;mcc_generated_files/mcc.c: 58:     TMR2_Initialize();
  2864  002110  ECC8  F010         	call	_TMR2_Initialize	;wreg free
  2865  002114                     
  2866                           ;mcc_generated_files/mcc.c: 59:     TMR1_Initialize();
  2867  002114  EC2E  F010         	call	_TMR1_Initialize	;wreg free
  2868  002118                     
  2869                           ;mcc_generated_files/mcc.c: 60:     EUSART2_Initialize();
  2870  002118  ECDE  F00D         	call	_EUSART2_Initialize	;wreg free
  2871  00211C  0012               	return		;funcret
  2872  00211E                     __end_of_SYSTEM_Initialize:
  2873                           	callstack 0
  2874                           
  2875 ;; *************** function _TMR2_Initialize *****************
  2876 ;; Defined at:
  2877 ;;		line 62 in file "mcc_generated_files/tmr2.c"
  2878 ;; Parameters:    Size  Location     Type
  2879 ;;		None
  2880 ;; Auto vars:     Size  Location     Type
  2881 ;;		None
  2882 ;; Return value:  Size  Location     Type
  2883 ;;                  1    wreg      void 
  2884 ;; Registers used:
  2885 ;;		wreg, status,2
  2886 ;; Tracked objects:
  2887 ;;		On entry : 0/0
  2888 ;;		On exit  : 0/0
  2889 ;;		Unchanged: 0/0
  2890 ;; Data sizes:     COMRAM   BANK0   BANK1   BANK2   BANK3   BANK4   BANK5   BANK6   BANK7   BANK8   BANK9  BANK10  BANK1
      +1  BANK12  BANK13  BANK14
  2891 ;;      Params:         0       0       0       0       0       0       0       0       0       0       0       0       
      +0       0       0       0
  2892 ;;      Locals:         0       0       0       0       0       0       0       0       0       0       0       0       
      +0       0       0       0
  2893 ;;      Temps:          0       0       0       0       0       0       0       0       0       0       0       0       
      +0       0       0       0
  2894 ;;      Totals:         0       0       0       0       0       0       0       0       0       0       0       0       
      +0       0       0       0
  2895 ;;Total ram usage:        0 bytes
  2896 ;; Hardware stack levels used: 1
  2897 ;; Hardware stack levels required when called: 7
  2898 ;; This function calls:
  2899 ;;		Nothing
  2900 ;; This function is called by:
  2901 ;;		_SYSTEM_Initialize
  2902 ;; This function uses a non-reentrant model
  2903 ;;
  2904                           
  2905                           	psect	text15
  2906  002190                     __ptext15:
  2907                           	callstack 0
  2908  002190                     _TMR2_Initialize:
  2909                           	callstack 22
  2910  002190                     
  2911                           ;mcc_generated_files/tmr2.c: 67:     PR2 = 0xF9;
  2912  002190  0EF9               	movlw	249
  2913  002192  6ECB               	movwf	203,c	;volatile
  2914                           
  2915                           ;mcc_generated_files/tmr2.c: 70:     TMR2 = 0x00;
  2916  002194  0E00               	movlw	0
  2917  002196  6ECC               	movwf	204,c	;volatile
  2918  002198                     
  2919                           ;mcc_generated_files/tmr2.c: 73:     PIR1bits.TMR2IF = 0;
  2920  002198  929E               	bcf	158,1,c	;volatile
  2921                           
  2922                           ;mcc_generated_files/tmr2.c: 76:     T2CON = 0x5D;
  2923  00219A  0E5D               	movlw	93
  2924  00219C  6ECA               	movwf	202,c	;volatile
  2925  00219E  0012               	return		;funcret
  2926  0021A0                     __end_of_TMR2_Initialize:
  2927                           	callstack 0
  2928                           
  2929 ;; *************** function _TMR1_Initialize *****************
  2930 ;; Defined at:
  2931 ;;		line 63 in file "mcc_generated_files/tmr1.c"
  2932 ;; Parameters:    Size  Location     Type
  2933 ;;		None
  2934 ;; Auto vars:     Size  Location     Type
  2935 ;;		None
  2936 ;; Return value:  Size  Location     Type
  2937 ;;                  1    wreg      void 
  2938 ;; Registers used:
  2939 ;;		wreg, status,2, status,0
  2940 ;; Tracked objects:
  2941 ;;		On entry : 0/0
  2942 ;;		On exit  : 0/0
  2943 ;;		Unchanged: 0/0
  2944 ;; Data sizes:     COMRAM   BANK0   BANK1   BANK2   BANK3   BANK4   BANK5   BANK6   BANK7   BANK8   BANK9  BANK10  BANK1
      +1  BANK12  BANK13  BANK14
  2945 ;;      Params:         0       0       0       0       0       0       0       0       0       0       0       0       
      +0       0       0       0
  2946 ;;      Locals:         0       0       0       0       0       0       0       0       0       0       0       0       
      +0       0       0       0
  2947 ;;      Temps:          2       0       0       0       0       0       0       0       0       0       0       0       
      +0       0       0       0
  2948 ;;      Totals:         2       0       0       0       0       0       0       0       0       0       0       0       
      +0       0       0       0
  2949 ;;Total ram usage:        2 bytes
  2950 ;; Hardware stack levels used: 1
  2951 ;; Hardware stack levels required when called: 7
  2952 ;; This function calls:
  2953 ;;		Nothing
  2954 ;; This function is called by:
  2955 ;;		_SYSTEM_Initialize
  2956 ;; This function uses a non-reentrant model
  2957 ;;
  2958                           
  2959                           	psect	text16
  2960  00205C                     __ptext16:
  2961                           	callstack 0
  2962  00205C                     _TMR1_Initialize:
  2963                           	callstack 22
  2964  00205C                     
  2965                           ;mcc_generated_files/tmr1.c: 68:     T1GCON = 0x00;
  2966  00205C  0E00               	movlw	0
  2967  00205E  6E9A               	movwf	154,c	;volatile
  2968                           
  2969                           ;mcc_generated_files/tmr1.c: 71:     TMR1H = 0xD1;
  2970  002060  0ED1               	movlw	209
  2971  002062  6ECF               	movwf	207,c	;volatile
  2972                           
  2973                           ;mcc_generated_files/tmr1.c: 74:     TMR1L = 0x20;
  2974  002064  0E20               	movlw	32
  2975  002066  6ECE               	movwf	206,c	;volatile
  2976  002068                     
  2977                           ;mcc_generated_files/tmr1.c: 77:     PIR1bits.TMR1IF = 0;
  2978  002068  909E               	bcf	158,0,c	;volatile
  2979  00206A                     
  2980                           ;mcc_generated_files/tmr1.c: 80:     timer1ReloadVal=(uint16_t)((TMR1H << 8) | TMR1L);
  2981  00206A  50CE               	movf	206,w,c	;volatile
  2982  00206C  CFCF F018          	movff	4047,??_TMR1_Initialize	;volatile
  2983  002070  6A19               	clrf	(??_TMR1_Initialize+1)^0,c
  2984  002072  C018  F019         	movff	??_TMR1_Initialize,??_TMR1_Initialize+1
  2985  002076  6A18               	clrf	??_TMR1_Initialize^0,c
  2986  002078  1018               	iorwf	??_TMR1_Initialize^0,w,c
  2987  00207A  6E45               	movwf	_timer1ReloadVal^0,c	;volatile
  2988  00207C  5019               	movf	(??_TMR1_Initialize+1)^0,w,c
  2989  00207E  6E46               	movwf	(_timer1ReloadVal+1)^0,c	;volatile
  2990  002080                     
  2991                           ;mcc_generated_files/tmr1.c: 83:     T1CON = 0x01;
  2992  002080  0E01               	movlw	1
  2993  002082  6ECD               	movwf	205,c	;volatile
  2994  002084  0012               	return		;funcret
  2995  002086                     __end_of_TMR1_Initialize:
  2996                           	callstack 0
  2997                           
  2998 ;; *************** function _PIN_MANAGER_Initialize *****************
  2999 ;; Defined at:
  3000 ;;		line 52 in file "mcc_generated_files/pin_manager.c"
  3001 ;; Parameters:    Size  Location     Type
  3002 ;;		None
  3003 ;; Auto vars:     Size  Location     Type
  3004 ;;		None
  3005 ;; Return value:  Size  Location     Type
  3006 ;;                  1    wreg      void 
  3007 ;; Registers used:
  3008 ;;		wreg, status,2
  3009 ;; Tracked objects:
  3010 ;;		On entry : 0/0
  3011 ;;		On exit  : 0/0
  3012 ;;		Unchanged: 0/0
  3013 ;; Data sizes:     COMRAM   BANK0   BANK1   BANK2   BANK3   BANK4   BANK5   BANK6   BANK7   BANK8   BANK9  BANK10  BANK1
      +1  BANK12  BANK13  BANK14
  3014 ;;      Params:         0       0       0       0       0       0       0       0       0       0       0       0       
      +0       0       0       0
  3015 ;;      Locals:         0       0       0       0       0       0       0       0       0       0       0       0       
      +0       0       0       0
  3016 ;;      Temps:          0       0       0       0       0       0       0       0       0       0       0       0       
      +0       0       0       0
  3017 ;;      Totals:         0       0       0       0       0       0       0       0       0       0       0       0       
      +0       0       0       0
  3018 ;;Total ram usage:        0 bytes
  3019 ;; Hardware stack levels used: 1
  3020 ;; Hardware stack levels required when called: 7
  3021 ;; This function calls:
  3022 ;;		Nothing
  3023 ;; This function is called by:
  3024 ;;		_SYSTEM_Initialize
  3025 ;; This function uses a non-reentrant model
  3026 ;;
  3027                           
  3028                           	psect	text17
  3029  001F02                     __ptext17:
  3030                           	callstack 0
  3031  001F02                     _PIN_MANAGER_Initialize:
  3032                           	callstack 22
  3033  001F02                     
  3034                           ;mcc_generated_files/pin_manager.c: 57:     LATA = 0x00;
  3035  001F02  0E00               	movlw	0
  3036  001F04  6E89               	movwf	137,c	;volatile
  3037                           
  3038                           ;mcc_generated_files/pin_manager.c: 58:     LATB = 0x00;
  3039  001F06  0E00               	movlw	0
  3040  001F08  6E8A               	movwf	138,c	;volatile
  3041                           
  3042                           ;mcc_generated_files/pin_manager.c: 59:     LATC = 0x00;
  3043  001F0A  0E00               	movlw	0
  3044  001F0C  6E8B               	movwf	139,c	;volatile
  3045                           
  3046                           ;mcc_generated_files/pin_manager.c: 64:     TRISA = 0x2F;
  3047  001F0E  0E2F               	movlw	47
  3048  001F10  6E92               	movwf	146,c	;volatile
  3049  001F12                     
  3050                           ;mcc_generated_files/pin_manager.c: 65:     TRISB = 0xFF;
  3051  001F12  6893               	setf	147,c	;volatile
  3052                           
  3053                           ;mcc_generated_files/pin_manager.c: 66:     TRISC = 0x84;
  3054  001F14  0E84               	movlw	132
  3055  001F16  6E94               	movwf	148,c	;volatile
  3056                           
  3057                           ;mcc_generated_files/pin_manager.c: 71:     ANCON0 = 0x00;
  3058  001F18  0E00               	movlw	0
  3059  001F1A  010F               	movlb	15	; () banked
  3060  001F1C  6F48               	movwf	72,b	;volatile
  3061                           
  3062                           ;mcc_generated_files/pin_manager.c: 72:     ANCON1 = 0x0E;
  3063  001F1E  0E0E               	movlw	14
  3064  001F20  6F49               	movwf	73,b	;volatile
  3065  001F22                     
  3066                           ; BSR set to: 15
  3067                           ;mcc_generated_files/pin_manager.c: 77:     INTCON2bits.nRBPU = 1;
  3068  001F22  8EF1               	bsf	241,7,c	;volatile
  3069                           
  3070                           ;mcc_generated_files/pin_manager.c: 82:     ODCON1 = 0x00;
  3071  001F24  0E00               	movlw	0
  3072  001F26  6F42               	movwf	66,b	;volatile
  3073                           
  3074                           ;mcc_generated_files/pin_manager.c: 83:     ODCON2 = 0x00;
  3075  001F28  0E00               	movlw	0
  3076  001F2A  6F41               	movwf	65,b	;volatile
  3077                           
  3078                           ;mcc_generated_files/pin_manager.c: 84:     ODCON3 = 0x00;
  3079  001F2C  0E00               	movlw	0
  3080  001F2E  6F40               	movwf	64,b	;volatile
  3081                           
  3082                           ;mcc_generated_files/pin_manager.c: 90:     RPINR16 = 0x12;
  3083  001F30  0E12               	movlw	18
  3084  001F32  010E               	movlb	14	; () banked
  3085  001F34  6FF7               	movwf	247,b	;volatile
  3086                           
  3087                           ;mcc_generated_files/pin_manager.c: 91:     RPOR17 = 0x06;
  3088  001F36  0E06               	movlw	6
  3089  001F38  6FD1               	movwf	209,b	;volatile
  3090  001F3A                     
  3091                           ; BSR set to: 14
  3092  001F3A  0012               	return		;funcret
  3093  001F3C                     __end_of_PIN_MANAGER_Initialize:
  3094                           	callstack 0
  3095                           
  3096 ;; *************** function _OSCILLATOR_Initialize *****************
  3097 ;; Defined at:
  3098 ;;		line 63 in file "mcc_generated_files/mcc.c"
  3099 ;; Parameters:    Size  Location     Type
  3100 ;;		None
  3101 ;; Auto vars:     Size  Location     Type
  3102 ;;		None
  3103 ;; Return value:  Size  Location     Type
  3104 ;;                  1    wreg      void 
  3105 ;; Registers used:
  3106 ;;		wreg, status,2
  3107 ;; Tracked objects:
  3108 ;;		On entry : 0/0
  3109 ;;		On exit  : 0/0
  3110 ;;		Unchanged: 0/0
  3111 ;; Data sizes:     COMRAM   BANK0   BANK1   BANK2   BANK3   BANK4   BANK5   BANK6   BANK7   BANK8   BANK9  BANK10  BANK1
      +1  BANK12  BANK13  BANK14
  3112 ;;      Params:         0       0       0       0       0       0       0       0       0       0       0       0       
      +0       0       0       0
  3113 ;;      Locals:         0       0       0       0       0       0       0       0       0       0       0       0       
      +0       0       0       0
  3114 ;;      Temps:          0       0       0       0       0       0       0       0       0       0       0       0       
      +0       0       0       0
  3115 ;;      Totals:         0       0       0       0       0       0       0       0       0       0       0       0       
      +0       0       0       0
  3116 ;;Total ram usage:        0 bytes
  3117 ;; Hardware stack levels used: 1
  3118 ;; Hardware stack levels required when called: 7
  3119 ;; This function calls:
  3120 ;;		Nothing
  3121 ;; This function is called by:
  3122 ;;		_SYSTEM_Initialize
  3123 ;; This function uses a non-reentrant model
  3124 ;;
  3125                           
  3126                           	psect	text18
  3127  002154                     __ptext18:
  3128                           	callstack 0
  3129  002154                     _OSCILLATOR_Initialize:
  3130                           	callstack 22
  3131  002154                     
  3132                           ;mcc_generated_files/mcc.c: 66:     OSCCON = 0x60;
  3133  002154  0E60               	movlw	96
  3134  002156  6ED3               	movwf	211,c	;volatile
  3135                           
  3136                           ;mcc_generated_files/mcc.c: 68:     OSCTUNE = 0x00;
  3137  002158  0E00               	movlw	0
  3138  00215A  6E9B               	movwf	155,c	;volatile
  3139                           
  3140                           ;mcc_generated_files/mcc.c: 70:     REFOCON = 0x00;
  3141  00215C  0E00               	movlw	0
  3142  00215E  010F               	movlb	15	; () banked
  3143  002160  6F3D               	movwf	61,b	;volatile
  3144                           
  3145                           ;mcc_generated_files/mcc.c: 72:     OSCCON2 = 0x14;
  3146  002162  0E14               	movlw	20
  3147  002164  6E87               	movwf	135,c	;volatile
  3148  002166                     
  3149                           ; BSR set to: 15
  3150  002166  0012               	return		;funcret
  3151  002168                     __end_of_OSCILLATOR_Initialize:
  3152                           	callstack 0
  3153                           
  3154 ;; *************** function _INTERRUPT_Initialize *****************
  3155 ;; Defined at:
  3156 ;;		line 52 in file "mcc_generated_files/interrupt_manager.c"
  3157 ;; Parameters:    Size  Location     Type
  3158 ;;		None
  3159 ;; Auto vars:     Size  Location     Type
  3160 ;;		None
  3161 ;; Return value:  Size  Location     Type
  3162 ;;                  1    wreg      void 
  3163 ;; Registers used:
  3164 ;;		None
  3165 ;; Tracked objects:
  3166 ;;		On entry : 0/0
  3167 ;;		On exit  : 0/0
  3168 ;;		Unchanged: 0/0
  3169 ;; Data sizes:     COMRAM   BANK0   BANK1   BANK2   BANK3   BANK4   BANK5   BANK6   BANK7   BANK8   BANK9  BANK10  BANK1
      +1  BANK12  BANK13  BANK14
  3170 ;;      Params:         0       0       0       0       0       0       0       0       0       0       0       0       
      +0       0       0       0
  3171 ;;      Locals:         0       0       0       0       0       0       0       0       0       0       0       0       
      +0       0       0       0
  3172 ;;      Temps:          0       0       0       0       0       0       0       0       0       0       0       0       
      +0       0       0       0
  3173 ;;      Totals:         0       0       0       0       0       0       0       0       0       0       0       0       
      +0       0       0       0
  3174 ;;Total ram usage:        0 bytes
  3175 ;; Hardware stack levels used: 1
  3176 ;; Hardware stack levels required when called: 7
  3177 ;; This function calls:
  3178 ;;		Nothing
  3179 ;; This function is called by:
  3180 ;;		_SYSTEM_Initialize
  3181 ;; This function uses a non-reentrant model
  3182 ;;
  3183                           
  3184                           	psect	text19
  3185  002282                     __ptext19:
  3186                           	callstack 0
  3187  002282                     _INTERRUPT_Initialize:
  3188                           	callstack 22
  3189  002282                     
  3190                           ;mcc_generated_files/interrupt_manager.c: 55:     RCONbits.IPEN = 0;
  3191  002282  9ED0               	bcf	208,7,c	;volatile
  3192  002284  0012               	return		;funcret
  3193  002286                     __end_of_INTERRUPT_Initialize:
  3194                           	callstack 0
  3195                           
  3196 ;; *************** function _I2C1_Initialize *****************
  3197 ;; Defined at:
  3198 ;;		line 167 in file "mcc_generated_files/i2c1_master.c"
  3199 ;; Parameters:    Size  Location     Type
  3200 ;;		None
  3201 ;; Auto vars:     Size  Location     Type
  3202 ;;		None
  3203 ;; Return value:  Size  Location     Type
  3204 ;;                  1    wreg      void 
  3205 ;; Registers used:
  3206 ;;		wreg, status,2
  3207 ;; Tracked objects:
  3208 ;;		On entry : 0/0
  3209 ;;		On exit  : 0/0
  3210 ;;		Unchanged: 0/0
  3211 ;; Data sizes:     COMRAM   BANK0   BANK1   BANK2   BANK3   BANK4   BANK5   BANK6   BANK7   BANK8   BANK9  BANK10  BANK1
      +1  BANK12  BANK13  BANK14
  3212 ;;      Params:         0       0       0       0       0       0       0       0       0       0       0       0       
      +0       0       0       0
  3213 ;;      Locals:         0       0       0       0       0       0       0       0       0       0       0       0       
      +0       0       0       0
  3214 ;;      Temps:          0       0       0       0       0       0       0       0       0       0       0       0       
      +0       0       0       0
  3215 ;;      Totals:         0       0       0       0       0       0       0       0       0       0       0       0       
      +0       0       0       0
  3216 ;;Total ram usage:        0 bytes
  3217 ;; Hardware stack levels used: 1
  3218 ;; Hardware stack levels required when called: 7
  3219 ;; This function calls:
  3220 ;;		Nothing
  3221 ;; This function is called by:
  3222 ;;		_SYSTEM_Initialize
  3223 ;; This function uses a non-reentrant model
  3224 ;;
  3225                           
  3226                           	psect	text20
  3227  002168                     __ptext20:
  3228                           	callstack 0
  3229  002168                     _I2C1_Initialize:
  3230                           	callstack 22
  3231  002168                     
  3232                           ;mcc_generated_files/i2c1_master.c: 169:     SSP1STAT = 0x80;
  3233  002168  0E80               	movlw	128
  3234  00216A  6EC7               	movwf	199,c	;volatile
  3235                           
  3236                           ;mcc_generated_files/i2c1_master.c: 170:     SSP1CON1 = 0x08;
  3237  00216C  0E08               	movlw	8
  3238  00216E  6EC6               	movwf	198,c	;volatile
  3239                           
  3240                           ;mcc_generated_files/i2c1_master.c: 171:     SSP1CON2 = 0x00;
  3241  002170  0E00               	movlw	0
  3242  002172  6EC5               	movwf	197,c	;volatile
  3243                           
  3244                           ;mcc_generated_files/i2c1_master.c: 172:     SSP1ADD = 0xEF;
  3245  002174  0EEF               	movlw	239
  3246  002176  6EC8               	movwf	200,c	;volatile
  3247  002178                     
  3248                           ;mcc_generated_files/i2c1_master.c: 173:     SSP1CON1bits.SSPEN = 0;
  3249  002178  9AC6               	bcf	198,5,c	;volatile
  3250  00217A  0012               	return		;funcret
  3251  00217C                     __end_of_I2C1_Initialize:
  3252                           	callstack 0
  3253                           
  3254 ;; *************** function _EUSART2_Initialize *****************
  3255 ;; Defined at:
  3256 ;;		line 88 in file "mcc_generated_files/eusart2.c"
  3257 ;; Parameters:    Size  Location     Type
  3258 ;;		None
  3259 ;; Auto vars:     Size  Location     Type
  3260 ;;		None
  3261 ;; Return value:  Size  Location     Type
  3262 ;;                  1    wreg      void 
  3263 ;; Registers used:
  3264 ;;		wreg, status,2, status,0, cstack
  3265 ;; Tracked objects:
  3266 ;;		On entry : 0/0
  3267 ;;		On exit  : 0/0
  3268 ;;		Unchanged: 0/0
  3269 ;; Data sizes:     COMRAM   BANK0   BANK1   BANK2   BANK3   BANK4   BANK5   BANK6   BANK7   BANK8   BANK9  BANK10  BANK1
      +1  BANK12  BANK13  BANK14
  3270 ;;      Params:         0       0       0       0       0       0       0       0       0       0       0       0       
      +0       0       0       0
  3271 ;;      Locals:         0       0       0       0       0       0       0       0       0       0       0       0       
      +0       0       0       0
  3272 ;;      Temps:          0       0       0       0       0       0       0       0       0       0       0       0       
      +0       0       0       0
  3273 ;;      Totals:         0       0       0       0       0       0       0       0       0       0       0       0       
      +0       0       0       0
  3274 ;;Total ram usage:        0 bytes
  3275 ;; Hardware stack levels used: 1
  3276 ;; Hardware stack levels required when called: 8
  3277 ;; This function calls:
  3278 ;;		_EUSART2_SetErrorHandler
  3279 ;;		_EUSART2_SetFramingErrorHandler
  3280 ;;		_EUSART2_SetOverrunErrorHandler
  3281 ;;		_EUSART2_SetRxInterruptHandler
  3282 ;;		_EUSART2_SetTxInterruptHandler
  3283 ;; This function is called by:
  3284 ;;		_SYSTEM_Initialize
  3285 ;; This function uses a non-reentrant model
  3286 ;;
  3287                           
  3288                           	psect	text21
  3289  001BBC                     __ptext21:
  3290                           	callstack 0
  3291  001BBC                     _EUSART2_Initialize:
  3292                           	callstack 21
  3293  001BBC                     
  3294                           ;mcc_generated_files/eusart2.c: 91:     PIE3bits.RC2IE = 0;
  3295  001BBC  9AA3               	bcf	163,5,c	;volatile
  3296  001BBE                     
  3297                           ;mcc_generated_files/eusart2.c: 92:     EUSART2_SetRxInterruptHandler(EUSART2_Receive_IS
      +                          R);
  3298  001BBE  0E4A               	movlw	low _EUSART2_Receive_ISR
  3299  001BC0  6E18               	movwf	EUSART2_SetRxInterruptHandler@interruptHandler^0,c
  3300  001BC2  0E18               	movlw	high _EUSART2_Receive_ISR
  3301  001BC4  6E19               	movwf	(EUSART2_SetRxInterruptHandler@interruptHandler+1)^0,c
  3302  001BC6  ECFC  F010         	call	_EUSART2_SetRxInterruptHandler	;wreg free
  3303  001BCA                     
  3304                           ;mcc_generated_files/eusart2.c: 93:     PIE3bits.TX2IE = 0;
  3305  001BCA  98A3               	bcf	163,4,c	;volatile
  3306                           
  3307                           ;mcc_generated_files/eusart2.c: 94:     EUSART2_SetTxInterruptHandler(EUSART2_Transmit_I
      +                          SR);
  3308  001BCC  0EC2               	movlw	low _EUSART2_Transmit_ISR
  3309  001BCE  6E18               	movwf	EUSART2_SetTxInterruptHandler@interruptHandler^0,c
  3310  001BD0  0E1E               	movlw	high _EUSART2_Transmit_ISR
  3311  001BD2  6E19               	movwf	(EUSART2_SetTxInterruptHandler@interruptHandler+1)^0,c
  3312  001BD4  ECF7  F010         	call	_EUSART2_SetTxInterruptHandler	;wreg free
  3313  001BD8                     
  3314                           ;mcc_generated_files/eusart2.c: 98:     BAUDCON2 = 0x08;
  3315  001BD8  0E08               	movlw	8
  3316  001BDA  6E7C               	movwf	124,c	;volatile
  3317  001BDC                     
  3318                           ;mcc_generated_files/eusart2.c: 101:     RCSTA2 = 0x90;
  3319  001BDC  0E90               	movlw	144
  3320  001BDE  6E9C               	movwf	156,c	;volatile
  3321  001BE0                     
  3322                           ;mcc_generated_files/eusart2.c: 104:     TXSTA2 = 0x24;
  3323  001BE0  0E24               	movlw	36
  3324  001BE2  6EA8               	movwf	168,c	;volatile
  3325  001BE4                     
  3326                           ;mcc_generated_files/eusart2.c: 107:     SPBRG2 = 0xE1;
  3327  001BE4  0EE1               	movlw	225
  3328  001BE6  6EAB               	movwf	171,c	;volatile
  3329  001BE8                     
  3330                           ;mcc_generated_files/eusart2.c: 110:     SPBRGH2 = 0x04;
  3331  001BE8  0E04               	movlw	4
  3332  001BEA  6E7D               	movwf	125,c	;volatile
  3333  001BEC                     
  3334                           ;mcc_generated_files/eusart2.c: 113:     EUSART2_SetFramingErrorHandler(EUSART2_DefaultF
      +                          ramingErrorHandler);
  3335  001BEC  0EA6               	movlw	low _EUSART2_DefaultFramingErrorHandler
  3336  001BEE  6E18               	movwf	EUSART2_SetFramingErrorHandler@interruptHandler^0,c
  3337  001BF0  0E22               	movlw	high _EUSART2_DefaultFramingErrorHandler
  3338  001BF2  6E19               	movwf	(EUSART2_SetFramingErrorHandler@interruptHandler+1)^0,c
  3339  001BF4  EC06  F011         	call	_EUSART2_SetFramingErrorHandler	;wreg free
  3340  001BF8                     
  3341                           ;mcc_generated_files/eusart2.c: 114:     EUSART2_SetOverrunErrorHandler(EUSART2_DefaultO
      +                          verrunErrorHandler);
  3342  001BF8  0E72               	movlw	low _EUSART2_DefaultOverrunErrorHandler
  3343  001BFA  6E18               	movwf	EUSART2_SetOverrunErrorHandler@interruptHandler^0,c
  3344  001BFC  0E22               	movlw	high _EUSART2_DefaultOverrunErrorHandler
  3345  001BFE  6E19               	movwf	(EUSART2_SetOverrunErrorHandler@interruptHandler+1)^0,c
  3346  001C00  EC01  F011         	call	_EUSART2_SetOverrunErrorHandler	;wreg free
  3347  001C04                     
  3348                           ;mcc_generated_files/eusart2.c: 115:     EUSART2_SetErrorHandler(EUSART2_DefaultErrorHan
      +                          dler);
  3349  001C04  0E78               	movlw	low _EUSART2_DefaultErrorHandler
  3350  001C06  6E18               	movwf	EUSART2_SetErrorHandler@interruptHandler^0,c
  3351  001C08  0E22               	movlw	high _EUSART2_DefaultErrorHandler
  3352  001C0A  6E19               	movwf	(EUSART2_SetErrorHandler@interruptHandler+1)^0,c
  3353  001C0C  EC0B  F011         	call	_EUSART2_SetErrorHandler	;wreg free
  3354                           
  3355                           ;mcc_generated_files/eusart2.c: 117:     eusart2RxLastError.status = 0;
  3356  001C10  0E00               	movlw	0
  3357  001C12  6E3B               	movwf	_eusart2RxLastError^0,c	;volatile
  3358                           
  3359                           ;mcc_generated_files/eusart2.c: 120:     eusart2TxHead = 0;
  3360  001C14  0E00               	movlw	0
  3361  001C16  6E40               	movwf	_eusart2TxHead^0,c	;volatile
  3362                           
  3363                           ;mcc_generated_files/eusart2.c: 121:     eusart2TxTail = 0;
  3364  001C18  0E00               	movlw	0
  3365  001C1A  6E3F               	movwf	_eusart2TxTail^0,c	;volatile
  3366                           
  3367                           ;mcc_generated_files/eusart2.c: 122:     eusart2TxBufferRemaining = sizeof(eusart2TxBuff
      +                          er);
  3368  001C1C  0E08               	movlw	8
  3369  001C1E  6E47               	movwf	_eusart2TxBufferRemaining^0,c	;volatile
  3370                           
  3371                           ;mcc_generated_files/eusart2.c: 124:     eusart2RxHead = 0;
  3372  001C20  0E00               	movlw	0
  3373  001C22  6E3E               	movwf	_eusart2RxHead^0,c	;volatile
  3374                           
  3375                           ;mcc_generated_files/eusart2.c: 125:     eusart2RxTail = 0;
  3376  001C24  0E00               	movlw	0
  3377  001C26  6E3D               	movwf	_eusart2RxTail^0,c	;volatile
  3378                           
  3379                           ;mcc_generated_files/eusart2.c: 126:     eusart2RxCount = 0;
  3380  001C28  0E00               	movlw	0
  3381  001C2A  6E3C               	movwf	_eusart2RxCount^0,c	;volatile
  3382  001C2C                     
  3383                           ;mcc_generated_files/eusart2.c: 129:     PIE3bits.RC2IE = 1;
  3384  001C2C  8AA3               	bsf	163,5,c	;volatile
  3385  001C2E  0012               	return		;funcret
  3386  001C30                     __end_of_EUSART2_Initialize:
  3387                           	callstack 0
  3388                           
  3389 ;; *************** function _EUSART2_SetTxInterruptHandler *****************
  3390 ;; Defined at:
  3391 ;;		line 285 in file "mcc_generated_files/eusart2.c"
  3392 ;; Parameters:    Size  Location     Type
  3393 ;;  interruptHan    2   23[COMRAM] PTR FTN()void 
  3394 ;;		 -> EUSART2_Transmit_ISR(1), 
  3395 ;; Auto vars:     Size  Location     Type
  3396 ;;		None
  3397 ;; Return value:  Size  Location     Type
  3398 ;;                  1    wreg      void 
  3399 ;; Registers used:
  3400 ;;		wreg, status,2, status,0
  3401 ;; Tracked objects:
  3402 ;;		On entry : 0/0
  3403 ;;		On exit  : 0/0
  3404 ;;		Unchanged: 0/0
  3405 ;; Data sizes:     COMRAM   BANK0   BANK1   BANK2   BANK3   BANK4   BANK5   BANK6   BANK7   BANK8   BANK9  BANK10  BANK1
      +1  BANK12  BANK13  BANK14
  3406 ;;      Params:         2       0       0       0       0       0       0       0       0       0       0       0       
      +0       0       0       0
  3407 ;;      Locals:         0       0       0       0       0       0       0       0       0       0       0       0       
      +0       0       0       0
  3408 ;;      Temps:          0       0       0       0       0       0       0       0       0       0       0       0       
      +0       0       0       0
  3409 ;;      Totals:         2       0       0       0       0       0       0       0       0       0       0       0       
      +0       0       0       0
  3410 ;;Total ram usage:        2 bytes
  3411 ;; Hardware stack levels used: 1
  3412 ;; Hardware stack levels required when called: 7
  3413 ;; This function calls:
  3414 ;;		Nothing
  3415 ;; This function is called by:
  3416 ;;		_EUSART2_Initialize
  3417 ;; This function uses a non-reentrant model
  3418 ;;
  3419                           
  3420                           	psect	text22
  3421  0021EE                     __ptext22:
  3422                           	callstack 0
  3423  0021EE                     _EUSART2_SetTxInterruptHandler:
  3424                           	callstack 21
  3425  0021EE                     
  3426                           ;mcc_generated_files/eusart2.c: 286:     EUSART2_TxDefaultInterruptHandler = interruptHa
      +                          ndler;
  3427  0021EE  C018  F0FE         	movff	EUSART2_SetTxInterruptHandler@interruptHandler,_EUSART2_TxDefaultInterruptHandler
  3428  0021F2  C019  F0FF         	movff	EUSART2_SetTxInterruptHandler@interruptHandler+1,_EUSART2_TxDefaultInterruptHandl
      +                          er+1
  3429  0021F6  0012               	return		;funcret
  3430  0021F8                     __end_of_EUSART2_SetTxInterruptHandler:
  3431                           	callstack 0
  3432                           
  3433 ;; *************** function _EUSART2_SetRxInterruptHandler *****************
  3434 ;; Defined at:
  3435 ;;		line 289 in file "mcc_generated_files/eusart2.c"
  3436 ;; Parameters:    Size  Location     Type
  3437 ;;  interruptHan    2   23[COMRAM] PTR FTN()void 
  3438 ;;		 -> EUSART2_Receive_ISR(1), 
  3439 ;; Auto vars:     Size  Location     Type
  3440 ;;		None
  3441 ;; Return value:  Size  Location     Type
  3442 ;;                  1    wreg      void 
  3443 ;; Registers used:
  3444 ;;		wreg, status,2, status,0
  3445 ;; Tracked objects:
  3446 ;;		On entry : 0/0
  3447 ;;		On exit  : 0/0
  3448 ;;		Unchanged: 0/0
  3449 ;; Data sizes:     COMRAM   BANK0   BANK1   BANK2   BANK3   BANK4   BANK5   BANK6   BANK7   BANK8   BANK9  BANK10  BANK1
      +1  BANK12  BANK13  BANK14
  3450 ;;      Params:         2       0       0       0       0       0       0       0       0       0       0       0       
      +0       0       0       0
  3451 ;;      Locals:         0       0       0       0       0       0       0       0       0       0       0       0       
      +0       0       0       0
  3452 ;;      Temps:          0       0       0       0       0       0       0       0       0       0       0       0       
      +0       0       0       0
  3453 ;;      Totals:         2       0       0       0       0       0       0       0       0       0       0       0       
      +0       0       0       0
  3454 ;;Total ram usage:        2 bytes
  3455 ;; Hardware stack levels used: 1
  3456 ;; Hardware stack levels required when called: 7
  3457 ;; This function calls:
  3458 ;;		Nothing
  3459 ;; This function is called by:
  3460 ;;		_EUSART2_Initialize
  3461 ;; This function uses a non-reentrant model
  3462 ;;
  3463                           
  3464                           	psect	text23
  3465  0021F8                     __ptext23:
  3466                           	callstack 0
  3467  0021F8                     _EUSART2_SetRxInterruptHandler:
  3468                           	callstack 21
  3469  0021F8                     
  3470                           ;mcc_generated_files/eusart2.c: 290:     EUSART2_RxDefaultInterruptHandler = interruptHa
      +                          ndler;
  3471  0021F8  C018  F0FC         	movff	EUSART2_SetRxInterruptHandler@interruptHandler,_EUSART2_RxDefaultInterruptHandler
  3472  0021FC  C019  F0FD         	movff	EUSART2_SetRxInterruptHandler@interruptHandler+1,_EUSART2_RxDefaultInterruptHandl
      +                          er+1
  3473  002200  0012               	return		;funcret
  3474  002202                     __end_of_EUSART2_SetRxInterruptHandler:
  3475                           	callstack 0
  3476                           
  3477 ;; *************** function _EUSART2_SetOverrunErrorHandler *****************
  3478 ;; Defined at:
  3479 ;;		line 277 in file "mcc_generated_files/eusart2.c"
  3480 ;; Parameters:    Size  Location     Type
  3481 ;;  interruptHan    2   23[COMRAM] PTR FTN()void 
  3482 ;;		 -> EUSART2_DefaultOverrunErrorHandler(1), 
  3483 ;; Auto vars:     Size  Location     Type
  3484 ;;		None
  3485 ;; Return value:  Size  Location     Type
  3486 ;;                  1    wreg      void 
  3487 ;; Registers used:
  3488 ;;		wreg, status,2, status,0
  3489 ;; Tracked objects:
  3490 ;;		On entry : 0/0
  3491 ;;		On exit  : 0/0
  3492 ;;		Unchanged: 0/0
  3493 ;; Data sizes:     COMRAM   BANK0   BANK1   BANK2   BANK3   BANK4   BANK5   BANK6   BANK7   BANK8   BANK9  BANK10  BANK1
      +1  BANK12  BANK13  BANK14
  3494 ;;      Params:         2       0       0       0       0       0       0       0       0       0       0       0       
      +0       0       0       0
  3495 ;;      Locals:         0       0       0       0       0       0       0       0       0       0       0       0       
      +0       0       0       0
  3496 ;;      Temps:          0       0       0       0       0       0       0       0       0       0       0       0       
      +0       0       0       0
  3497 ;;      Totals:         2       0       0       0       0       0       0       0       0       0       0       0       
      +0       0       0       0
  3498 ;;Total ram usage:        2 bytes
  3499 ;; Hardware stack levels used: 1
  3500 ;; Hardware stack levels required when called: 7
  3501 ;; This function calls:
  3502 ;;		Nothing
  3503 ;; This function is called by:
  3504 ;;		_EUSART2_Initialize
  3505 ;; This function uses a non-reentrant model
  3506 ;;
  3507                           
  3508                           	psect	text24
  3509  002202                     __ptext24:
  3510                           	callstack 0
  3511  002202                     _EUSART2_SetOverrunErrorHandler:
  3512                           	callstack 21
  3513  002202                     
  3514                           ;mcc_generated_files/eusart2.c: 278:     EUSART2_OverrunErrorHandler = interruptHandler;
  3515  002202  C018  F0F8         	movff	EUSART2_SetOverrunErrorHandler@interruptHandler,_EUSART2_OverrunErrorHandler
  3516  002206  C019  F0F9         	movff	EUSART2_SetOverrunErrorHandler@interruptHandler+1,_EUSART2_OverrunErrorHandler+1
  3517  00220A  0012               	return		;funcret
  3518  00220C                     __end_of_EUSART2_SetOverrunErrorHandler:
  3519                           	callstack 0
  3520                           
  3521 ;; *************** function _EUSART2_SetFramingErrorHandler *****************
  3522 ;; Defined at:
  3523 ;;		line 273 in file "mcc_generated_files/eusart2.c"
  3524 ;; Parameters:    Size  Location     Type
  3525 ;;  interruptHan    2   23[COMRAM] PTR FTN()void 
  3526 ;;		 -> EUSART2_DefaultFramingErrorHandler(1), 
  3527 ;; Auto vars:     Size  Location     Type
  3528 ;;		None
  3529 ;; Return value:  Size  Location     Type
  3530 ;;                  1    wreg      void 
  3531 ;; Registers used:
  3532 ;;		wreg, status,2, status,0
  3533 ;; Tracked objects:
  3534 ;;		On entry : 0/0
  3535 ;;		On exit  : 0/0
  3536 ;;		Unchanged: 0/0
  3537 ;; Data sizes:     COMRAM   BANK0   BANK1   BANK2   BANK3   BANK4   BANK5   BANK6   BANK7   BANK8   BANK9  BANK10  BANK1
      +1  BANK12  BANK13  BANK14
  3538 ;;      Params:         2       0       0       0       0       0       0       0       0       0       0       0       
      +0       0       0       0
  3539 ;;      Locals:         0       0       0       0       0       0       0       0       0       0       0       0       
      +0       0       0       0
  3540 ;;      Temps:          0       0       0       0       0       0       0       0       0       0       0       0       
      +0       0       0       0
  3541 ;;      Totals:         2       0       0       0       0       0       0       0       0       0       0       0       
      +0       0       0       0
  3542 ;;Total ram usage:        2 bytes
  3543 ;; Hardware stack levels used: 1
  3544 ;; Hardware stack levels required when called: 7
  3545 ;; This function calls:
  3546 ;;		Nothing
  3547 ;; This function is called by:
  3548 ;;		_EUSART2_Initialize
  3549 ;; This function uses a non-reentrant model
  3550 ;;
  3551                           
  3552                           	psect	text25
  3553  00220C                     __ptext25:
  3554                           	callstack 0
  3555  00220C                     _EUSART2_SetFramingErrorHandler:
  3556                           	callstack 21
  3557  00220C                     
  3558                           ;mcc_generated_files/eusart2.c: 274:     EUSART2_FramingErrorHandler = interruptHandler;
  3559  00220C  C018  F0FA         	movff	EUSART2_SetFramingErrorHandler@interruptHandler,_EUSART2_FramingErrorHandler
  3560  002210  C019  F0FB         	movff	EUSART2_SetFramingErrorHandler@interruptHandler+1,_EUSART2_FramingErrorHandler+1
  3561  002214  0012               	return		;funcret
  3562  002216                     __end_of_EUSART2_SetFramingErrorHandler:
  3563                           	callstack 0
  3564                           
  3565 ;; *************** function _EUSART2_SetErrorHandler *****************
  3566 ;; Defined at:
  3567 ;;		line 281 in file "mcc_generated_files/eusart2.c"
  3568 ;; Parameters:    Size  Location     Type
  3569 ;;  interruptHan    2   23[COMRAM] PTR FTN()void 
  3570 ;;		 -> EUSART2_DefaultErrorHandler(1), 
  3571 ;; Auto vars:     Size  Location     Type
  3572 ;;		None
  3573 ;; Return value:  Size  Location     Type
  3574 ;;                  1    wreg      void 
  3575 ;; Registers used:
  3576 ;;		wreg, status,2, status,0
  3577 ;; Tracked objects:
  3578 ;;		On entry : 0/0
  3579 ;;		On exit  : 0/0
  3580 ;;		Unchanged: 0/0
  3581 ;; Data sizes:     COMRAM   BANK0   BANK1   BANK2   BANK3   BANK4   BANK5   BANK6   BANK7   BANK8   BANK9  BANK10  BANK1
      +1  BANK12  BANK13  BANK14
  3582 ;;      Params:         2       0       0       0       0       0       0       0       0       0       0       0       
      +0       0       0       0
  3583 ;;      Locals:         0       0       0       0       0       0       0       0       0       0       0       0       
      +0       0       0       0
  3584 ;;      Temps:          0       0       0       0       0       0       0       0       0       0       0       0       
      +0       0       0       0
  3585 ;;      Totals:         2       0       0       0       0       0       0       0       0       0       0       0       
      +0       0       0       0
  3586 ;;Total ram usage:        2 bytes
  3587 ;; Hardware stack levels used: 1
  3588 ;; Hardware stack levels required when called: 7
  3589 ;; This function calls:
  3590 ;;		Nothing
  3591 ;; This function is called by:
  3592 ;;		_EUSART2_Initialize
  3593 ;; This function uses a non-reentrant model
  3594 ;;
  3595                           
  3596                           	psect	text26
  3597  002216                     __ptext26:
  3598                           	callstack 0
  3599  002216                     _EUSART2_SetErrorHandler:
  3600                           	callstack 21
  3601  002216                     
  3602                           ;mcc_generated_files/eusart2.c: 282:     EUSART2_ErrorHandler = interruptHandler;
  3603  002216  C018  F0F6         	movff	EUSART2_SetErrorHandler@interruptHandler,_EUSART2_ErrorHandler
  3604  00221A  C019  F0F7         	movff	EUSART2_SetErrorHandler@interruptHandler+1,_EUSART2_ErrorHandler+1
  3605  00221E  0012               	return		;funcret
  3606  002220                     __end_of_EUSART2_SetErrorHandler:
  3607                           	callstack 0
  3608                           
  3609 ;; *************** function _ADC_Initialize *****************
  3610 ;; Defined at:
  3611 ;;		line 61 in file "mcc_generated_files/adc.c"
  3612 ;; Parameters:    Size  Location     Type
  3613 ;;		None
  3614 ;; Auto vars:     Size  Location     Type
  3615 ;;		None
  3616 ;; Return value:  Size  Location     Type
  3617 ;;                  1    wreg      void 
  3618 ;; Registers used:
  3619 ;;		wreg, status,2
  3620 ;; Tracked objects:
  3621 ;;		On entry : 0/0
  3622 ;;		On exit  : 0/0
  3623 ;;		Unchanged: 0/0
  3624 ;; Data sizes:     COMRAM   BANK0   BANK1   BANK2   BANK3   BANK4   BANK5   BANK6   BANK7   BANK8   BANK9  BANK10  BANK1
      +1  BANK12  BANK13  BANK14
  3625 ;;      Params:         0       0       0       0       0       0       0       0       0       0       0       0       
      +0       0       0       0
  3626 ;;      Locals:         0       0       0       0       0       0       0       0       0       0       0       0       
      +0       0       0       0
  3627 ;;      Temps:          0       0       0       0       0       0       0       0       0       0       0       0       
      +0       0       0       0
  3628 ;;      Totals:         0       0       0       0       0       0       0       0       0       0       0       0       
      +0       0       0       0
  3629 ;;Total ram usage:        0 bytes
  3630 ;; Hardware stack levels used: 1
  3631 ;; Hardware stack levels required when called: 7
  3632 ;; This function calls:
  3633 ;;		Nothing
  3634 ;; This function is called by:
  3635 ;;		_SYSTEM_Initialize
  3636 ;; This function uses a non-reentrant model
  3637 ;;
  3638                           
  3639                           	psect	text27
  3640  00211E                     __ptext27:
  3641                           	callstack 0
  3642  00211E                     _ADC_Initialize:
  3643                           	callstack 22
  3644  00211E                     
  3645                           ;mcc_generated_files/adc.c: 66:     ADCON1 = 0x01;
  3646  00211E  0E01               	movlw	1
  3647  002120  6EC1               	movwf	193,c	;volatile
  3648                           
  3649                           ;mcc_generated_files/adc.c: 69:     ADCTRIG = 0x02;
  3650  002122  0E02               	movlw	2
  3651  002124  010E               	movlb	14	; () banked
  3652  002126  6FB8               	movwf	184,b	;volatile
  3653                           
  3654                           ;mcc_generated_files/adc.c: 72:     ANCON1 = 0x00;
  3655  002128  0E00               	movlw	0
  3656  00212A  010F               	movlb	15	; () banked
  3657  00212C  6F49               	movwf	73,b	;volatile
  3658                           
  3659                           ;mcc_generated_files/adc.c: 75:     ADRESL = 0x00;
  3660  00212E  0E00               	movlw	0
  3661  002130  6EC3               	movwf	195,c	;volatile
  3662                           
  3663                           ;mcc_generated_files/adc.c: 78:     ADRESH = 0x00;
  3664  002132  0E00               	movlw	0
  3665  002134  6EC4               	movwf	196,c	;volatile
  3666                           
  3667                           ;mcc_generated_files/adc.c: 81:     ADCON0 = 0x01;
  3668  002136  0E01               	movlw	1
  3669  002138  6EC2               	movwf	194,c	;volatile
  3670  00213A                     
  3671                           ; BSR set to: 15
  3672  00213A  0012               	return		;funcret
  3673  00213C                     __end_of_ADC_Initialize:
  3674                           	callstack 0
  3675                           
  3676 ;; *************** function _ADC_GetConversion *****************
  3677 ;; Defined at:
  3678 ;;		line 112 in file "mcc_generated_files/adc.c"
  3679 ;; Parameters:    Size  Location     Type
  3680 ;;  channel         1    wreg     enum E6264
  3681 ;; Auto vars:     Size  Location     Type
  3682 ;;  channel         1   27[COMRAM] enum E6264
  3683 ;; Return value:  Size  Location     Type
  3684 ;;                  2   23[COMRAM] unsigned short 
  3685 ;; Registers used:
  3686 ;;		wreg, status,2, status,0
  3687 ;; Tracked objects:
  3688 ;;		On entry : 0/0
  3689 ;;		On exit  : 0/0
  3690 ;;		Unchanged: 0/0
  3691 ;; Data sizes:     COMRAM   BANK0   BANK1   BANK2   BANK3   BANK4   BANK5   BANK6   BANK7   BANK8   BANK9  BANK10  BANK1
      +1  BANK12  BANK13  BANK14
  3692 ;;      Params:         2       0       0       0       0       0       0       0       0       0       0       0       
      +0       0       0       0
  3693 ;;      Locals:         1       0       0       0       0       0       0       0       0       0       0       0       
      +0       0       0       0
  3694 ;;      Temps:          2       0       0       0       0       0       0       0       0       0       0       0       
      +0       0       0       0
  3695 ;;      Totals:         5       0       0       0       0       0       0       0       0       0       0       0       
      +0       0       0       0
  3696 ;;Total ram usage:        5 bytes
  3697 ;; Hardware stack levels used: 1
  3698 ;; Hardware stack levels required when called: 7
  3699 ;; This function calls:
  3700 ;;		Nothing
  3701 ;; This function is called by:
  3702 ;;		_main
  3703 ;; This function uses a non-reentrant model
  3704 ;;
  3705                           
  3706                           	psect	text28
  3707  001F3C                     __ptext28:
  3708                           	callstack 0
  3709  001F3C                     _ADC_GetConversion:
  3710                           	callstack 23
  3711                           
  3712                           ; BSR set to: 15
  3713                           ;incstack = 0
  3714                           ;ADC_GetConversion@channel stored from wreg
  3715  001F3C  6E1C               	movwf	ADC_GetConversion@channel^0,c
  3716  001F3E                     
  3717                           ;mcc_generated_files/adc.c: 112: adc_result_t ADC_GetConversion(adc_channel_t channel);m
      +                          cc_generated_files/adc.c: 113: {;mcc_generated_files/adc.c: 115:     ADCON0bits.CHS = ch
      +                          annel;
  3718  001F3E  C01C  F01A         	movff	ADC_GetConversion@channel,??_ADC_GetConversion
  3719  001F42  461A               	rlncf	??_ADC_GetConversion^0,f,c
  3720  001F44  461A               	rlncf	??_ADC_GetConversion^0,f,c
  3721  001F46  50C2               	movf	194,w,c	;volatile
  3722  001F48  181A               	xorwf	??_ADC_GetConversion^0,w,c
  3723  001F4A  0BC3               	andlw	-61
  3724  001F4C  181A               	xorwf	??_ADC_GetConversion^0,w,c
  3725  001F4E  6EC2               	movwf	194,c	;volatile
  3726  001F50                     
  3727                           ;mcc_generated_files/adc.c: 118:     ADCON0bits.ADON = 1;
  3728  001F50  80C2               	bsf	194,0,c	;volatile
  3729  001F52                     
  3730                           ;mcc_generated_files/adc.c: 121:     ADCON0bits.GO_nDONE = 1;
  3731  001F52  82C2               	bsf	194,1,c	;volatile
  3732  001F54                     l814:
  3733                           
  3734                           ;mcc_generated_files/adc.c: 124:     while (ADCON0bits.GO_nDONE)
  3735  001F54  B2C2               	btfsc	194,1,c	;volatile
  3736  001F56  EFAF  F00F         	goto	u2641
  3737  001F5A  EFB1  F00F         	goto	u2640
  3738  001F5E                     u2641:
  3739  001F5E  EFAA  F00F         	goto	l814
  3740  001F62                     u2640:
  3741  001F62                     
  3742                           ;mcc_generated_files/adc.c: 129:     return ((adc_result_t)((ADRESH << 8) + ADRESL));
  3743  001F62  50C4               	movf	196,w,c	;volatile
  3744  001F64  6E1B               	movwf	(??_ADC_GetConversion+1)^0,c
  3745  001F66  6A1A               	clrf	??_ADC_GetConversion^0,c
  3746  001F68  50C3               	movf	195,w,c	;volatile
  3747  001F6A  241A               	addwf	??_ADC_GetConversion^0,w,c
  3748  001F6C  6E18               	movwf	?_ADC_GetConversion^0,c
  3749  001F6E  0E00               	movlw	0
  3750  001F70  201B               	addwfc	(??_ADC_GetConversion+1)^0,w,c
  3751  001F72  6E19               	movwf	(?_ADC_GetConversion+1)^0,c
  3752  001F74  0012               	return		;funcret
  3753  001F76                     __end_of_ADC_GetConversion:
  3754                           	callstack 0
  3755                           
  3756 ;; *************** function _INTERRUPT_InterruptManager *****************
  3757 ;; Defined at:
  3758 ;;		line 58 in file "mcc_generated_files/interrupt_manager.c"
  3759 ;; Parameters:    Size  Location     Type
  3760 ;;		None
  3761 ;; Auto vars:     Size  Location     Type
  3762 ;;		None
  3763 ;; Return value:  Size  Location     Type
  3764 ;;                  1    wreg      void 
  3765 ;; Registers used:
  3766 ;;		wreg, fsr2l, fsr2h, status,2, status,0, pcl, pclath, pclatu, tosl, tblptrl, tblptrh, tblptru, prodl, prodh, cstack
  3767 ;; Tracked objects:
  3768 ;;		On entry : 0/0
  3769 ;;		On exit  : 0/0
  3770 ;;		Unchanged: 0/0
  3771 ;; Data sizes:     COMRAM   BANK0   BANK1   BANK2   BANK3   BANK4   BANK5   BANK6   BANK7   BANK8   BANK9  BANK10  BANK1
      +1  BANK12  BANK13  BANK14
  3772 ;;      Params:         0       0       0       0       0       0       0       0       0       0       0       0       
      +0       0       0       0
  3773 ;;      Locals:         0       0       0       0       0       0       0       0       0       0       0       0       
      +0       0       0       0
  3774 ;;      Temps:         10       0       0       0       0       0       0       0       0       0       0       0       
      +0       0       0       0
  3775 ;;      Totals:        10       0       0       0       0       0       0       0       0       0       0       0       
      +0       0       0       0
  3776 ;;Total ram usage:       10 bytes
  3777 ;; Hardware stack levels used: 1
  3778 ;; Hardware stack levels required when called: 6
  3779 ;; This function calls:
  3780 ;;		Absolute function
  3781 ;;		_EUSART2_Receive_ISR
  3782 ;;		_EUSART2_Transmit_ISR
  3783 ;;		_I2C1_MasterIsr
  3784 ;; This function is called by:
  3785 ;;		Interrupt level 2
  3786 ;; This function uses a non-reentrant model
  3787 ;;
  3788                           
  3789                           	psect	intcode
  3790  000008                     __pintcode:
  3791                           	callstack 0
  3792  000008                     _INTERRUPT_InterruptManager:
  3793                           	callstack 15
  3794                           
  3795                           ;incstack = 0
  3796  000008  8248               	bsf	int$flags,1,c	;set compiler interrupt flag (level 2)
  3797  00000A  CFFA F00E          	movff	pclath,??_INTERRUPT_InterruptManager
  3798  00000E  CFFB F00F          	movff	pclatu,??_INTERRUPT_InterruptManager+1
  3799  000012  CFD9 F010          	movff	fsr2l,??_INTERRUPT_InterruptManager+2
  3800  000016  CFDA F011          	movff	fsr2h,??_INTERRUPT_InterruptManager+3
  3801  00001A  CFF3 F012          	movff	prodl,??_INTERRUPT_InterruptManager+4
  3802  00001E  CFF4 F013          	movff	prodh,??_INTERRUPT_InterruptManager+5
  3803  000022  CFF6 F014          	movff	tblptrl,??_INTERRUPT_InterruptManager+6
  3804  000026  CFF7 F015          	movff	tblptrh,??_INTERRUPT_InterruptManager+7
  3805  00002A  CFF8 F016          	movff	tblptru,??_INTERRUPT_InterruptManager+8
  3806  00002E  CFF5 F017          	movff	tablat,??_INTERRUPT_InterruptManager+9
  3807  000032                     
  3808                           ;mcc_generated_files/interrupt_manager.c: 61:     if(INTCONbits.PEIE == 1)
  3809  000032  ACF2               	btfss	242,6,c	;volatile
  3810  000034  EF1E  F000         	goto	i2u204_41
  3811  000038  EF20  F000         	goto	i2u204_40
  3812  00003C                     i2u204_41:
  3813  00003C  EF89  F000         	goto	i2l733
  3814  000040                     i2u204_40:
  3815  000040                     
  3816                           ;mcc_generated_files/interrupt_manager.c: 62:     {;mcc_generated_files/interrupt_manage
      +                          r.c: 63:         if(PIE3bits.TX2IE == 1 && PIR3bits.TX2IF == 1)
  3817  000040  A8A3               	btfss	163,4,c	;volatile
  3818  000042  EF25  F000         	goto	i2u205_41
  3819  000046  EF27  F000         	goto	i2u205_40
  3820  00004A                     i2u205_41:
  3821  00004A  EF3E  F000         	goto	i2l724
  3822  00004E                     i2u205_40:
  3823  00004E  A8A4               	btfss	164,4,c	;volatile
  3824  000050  EF2C  F000         	goto	i2u206_41
  3825  000054  EF2E  F000         	goto	i2u206_40
  3826  000058                     i2u206_41:
  3827  000058  EF3E  F000         	goto	i2l724
  3828  00005C                     i2u206_40:
  3829  00005C                     
  3830                           ;mcc_generated_files/interrupt_manager.c: 64:         {;mcc_generated_files/interrupt_ma
      +                          nager.c: 65:             EUSART2_TxDefaultInterruptHandler();
  3831  00005C  D802               	call	i2u207_48
  3832  00005E  EF3C  F000         	goto	i2u207_49
  3833  000062                     i2u207_48:
  3834  000062  0005               	push	
  3835  000064  0100               	movlb	0	; () banked
  3836  000066  6EFA               	movwf	pclath,c
  3837  000068  51FE               	movf	_EUSART2_TxDefaultInterruptHandler& (0+255),w,b
  3838  00006A  6EFD               	movwf	tosl,c
  3839  00006C  51FF               	movf	(_EUSART2_TxDefaultInterruptHandler+1)& (0+255),w,b
  3840  00006E  6EFE               	movwf	tosh,c
  3841  000070  50F8               	movf	tblptru,w,c
  3842  000072  6EFF               	movwf	tosu,c
  3843  000074  50FA               	movf	pclath,w,c
  3844  000076  0012               	return		;indir
  3845  000078                     i2u207_49:
  3846                           
  3847                           ;mcc_generated_files/interrupt_manager.c: 66:         }
  3848  000078  EF89  F000         	goto	i2l733
  3849  00007C                     i2l724:
  3850  00007C  AAA3               	btfss	163,5,c	;volatile
  3851  00007E  EF43  F000         	goto	i2u208_41
  3852  000082  EF45  F000         	goto	i2u208_40
  3853  000086                     i2u208_41:
  3854  000086  EF5C  F000         	goto	i2l726
  3855  00008A                     i2u208_40:
  3856  00008A  AAA4               	btfss	164,5,c	;volatile
  3857  00008C  EF4A  F000         	goto	i2u209_41
  3858  000090  EF4C  F000         	goto	i2u209_40
  3859  000094                     i2u209_41:
  3860  000094  EF5C  F000         	goto	i2l726
  3861  000098                     i2u209_40:
  3862  000098                     
  3863                           ;mcc_generated_files/interrupt_manager.c: 68:         {;mcc_generated_files/interrupt_ma
      +                          nager.c: 69:             EUSART2_RxDefaultInterruptHandler();
  3864  000098  D802               	call	i2u210_48
  3865  00009A  EF5A  F000         	goto	i2u210_49
  3866  00009E                     i2u210_48:
  3867  00009E  0005               	push	
  3868  0000A0  0100               	movlb	0	; () banked
  3869  0000A2  6EFA               	movwf	pclath,c
  3870  0000A4  51FC               	movf	_EUSART2_RxDefaultInterruptHandler& (0+255),w,b
  3871  0000A6  6EFD               	movwf	tosl,c
  3872  0000A8  51FD               	movf	(_EUSART2_RxDefaultInterruptHandler+1)& (0+255),w,b
  3873  0000AA  6EFE               	movwf	tosh,c
  3874  0000AC  50F8               	movf	tblptru,w,c
  3875  0000AE  6EFF               	movwf	tosu,c
  3876  0000B0  50FA               	movf	pclath,w,c
  3877  0000B2  0012               	return		;indir
  3878  0000B4                     i2u210_49:
  3879                           
  3880                           ;mcc_generated_files/interrupt_manager.c: 70:         }
  3881  0000B4  EF89  F000         	goto	i2l733
  3882  0000B8                     i2l726:
  3883  0000B8  A6A0               	btfss	160,3,c	;volatile
  3884  0000BA  EF61  F000         	goto	i2u211_41
  3885  0000BE  EF63  F000         	goto	i2u211_40
  3886  0000C2                     i2u211_41:
  3887  0000C2  EF79  F000         	goto	i2l728
  3888  0000C6                     i2u211_40:
  3889  0000C6  A6A1               	btfss	161,3,c	;volatile
  3890  0000C8  EF68  F000         	goto	i2u212_41
  3891  0000CC  EF6A  F000         	goto	i2u212_40
  3892  0000D0                     i2u212_41:
  3893  0000D0  EF79  F000         	goto	i2l728
  3894  0000D4                     i2u212_40:
  3895  0000D4                     i2l3842:
  3896                           
  3897                           ;mcc_generated_files/interrupt_manager.c: 72:         {;mcc_generated_files/interrupt_ma
      +                          nager.c: 73:             MSSP1_InterruptHandler();
  3898  0000D4  D802               	call	i2u213_48
  3899  0000D6  EF77  F000         	goto	i2u213_49
  3900  0000DA                     i2u213_48:
  3901  0000DA  0005               	push	
  3902  0000DC  6EFA               	movwf	pclath,c
  3903  0000DE  5039               	movf	_MSSP1_InterruptHandler^0,w,c
  3904  0000E0  6EFD               	movwf	tosl,c
  3905  0000E2  503A               	movf	(_MSSP1_InterruptHandler+1)^0,w,c
  3906  0000E4  6EFE               	movwf	tosh,c
  3907  0000E6  50F8               	movf	tblptru,w,c
  3908  0000E8  6EFF               	movwf	tosu,c
  3909  0000EA  50FA               	movf	pclath,w,c
  3910  0000EC  0012               	return		;indir
  3911  0000EE                     i2u213_49:
  3912                           
  3913                           ;mcc_generated_files/interrupt_manager.c: 74:         }
  3914  0000EE  EF89  F000         	goto	i2l733
  3915  0000F2                     i2l728:
  3916  0000F2  A69D               	btfss	157,3,c	;volatile
  3917  0000F4  EF7E  F000         	goto	i2u214_41
  3918  0000F8  EF80  F000         	goto	i2u214_40
  3919  0000FC                     i2u214_41:
  3920  0000FC  EF89  F000         	goto	i2l727
  3921  000100                     i2u214_40:
  3922  000100  A69E               	btfss	158,3,c	;volatile
  3923  000102  EF85  F000         	goto	i2u215_41
  3924  000106  EF87  F000         	goto	i2u215_40
  3925  00010A                     i2u215_41:
  3926  00010A  EF89  F000         	goto	i2l727
  3927  00010E                     i2u215_40:
  3928  00010E  EF6A  F000         	goto	i2l3842
  3929  000112                     i2l727:
  3930  000112                     i2l733:
  3931  000112  C017  FFF5         	movff	??_INTERRUPT_InterruptManager+9,tablat
  3932  000116  C016  FFF8         	movff	??_INTERRUPT_InterruptManager+8,tblptru
  3933  00011A  C015  FFF7         	movff	??_INTERRUPT_InterruptManager+7,tblptrh
  3934  00011E  C014  FFF6         	movff	??_INTERRUPT_InterruptManager+6,tblptrl
  3935  000122  C013  FFF4         	movff	??_INTERRUPT_InterruptManager+5,prodh
  3936  000126  C012  FFF3         	movff	??_INTERRUPT_InterruptManager+4,prodl
  3937  00012A  C011  FFDA         	movff	??_INTERRUPT_InterruptManager+3,fsr2h
  3938  00012E  C010  FFD9         	movff	??_INTERRUPT_InterruptManager+2,fsr2l
  3939  000132  C00F  FFFB         	movff	??_INTERRUPT_InterruptManager+1,pclatu
  3940  000136  C00E  FFFA         	movff	??_INTERRUPT_InterruptManager,pclath
  3941  00013A  9248               	bcf	int$flags,1,c	;clear compiler interrupt flag (level 2)
  3942  00013C  0011               	retfie		f
  3943  00013E                     __end_of_INTERRUPT_InterruptManager:
  3944                           	callstack 0
  3945                           
  3946 ;; *************** function _I2C1_MasterIsr *****************
  3947 ;; Defined at:
  3948 ;;		line 318 in file "mcc_generated_files/i2c1_master.c"
  3949 ;; Parameters:    Size  Location     Type
  3950 ;;		None
  3951 ;; Auto vars:     Size  Location     Type
  3952 ;;		None
  3953 ;; Return value:  Size  Location     Type
  3954 ;;                  1    wreg      void 
  3955 ;; Registers used:
  3956 ;;		wreg, fsr2l, fsr2h, status,2, status,0, pcl, pclath, pclatu, tosl, tblptrl, tblptrh, tblptru, prodl, prodh, cstack
  3957 ;; Tracked objects:
  3958 ;;		On entry : 0/0
  3959 ;;		On exit  : 0/0
  3960 ;;		Unchanged: 0/0
  3961 ;; Data sizes:     COMRAM   BANK0   BANK1   BANK2   BANK3   BANK4   BANK5   BANK6   BANK7   BANK8   BANK9  BANK10  BANK1
      +1  BANK12  BANK13  BANK14
  3962 ;;      Params:         0       0       0       0       0       0       0       0       0       0       0       0       
      +0       0       0       0
  3963 ;;      Locals:         0       0       0       0       0       0       0       0       0       0       0       0       
      +0       0       0       0
  3964 ;;      Temps:          0       0       0       0       0       0       0       0       0       0       0       0       
      +0       0       0       0
  3965 ;;      Totals:         0       0       0       0       0       0       0       0       0       0       0       0       
      +0       0       0       0
  3966 ;;Total ram usage:        0 bytes
  3967 ;; Hardware stack levels used: 1
  3968 ;; Hardware stack levels required when called: 5
  3969 ;; This function calls:
  3970 ;;		_I2C1_MasterFsm
  3971 ;; This function is called by:
  3972 ;;		_I2C1_Open
  3973 ;;		_INTERRUPT_InterruptManager
  3974 ;; This function uses a non-reentrant model
  3975 ;;
  3976                           
  3977                           	psect	text30
  3978  002260                     __ptext30:
  3979                           	callstack 0
  3980  002260                     _I2C1_MasterIsr:
  3981                           	callstack 15
  3982  002260                     
  3983                           ;mcc_generated_files/i2c1_master.c: 320:     I2C1_MasterFsm();
  3984  002260  EC4E  F00E         	call	_I2C1_MasterFsm	;wreg free
  3985  002264  0012               	return		;funcret
  3986  002266                     __end_of_I2C1_MasterIsr:
  3987                           	callstack 0
  3988                           
  3989 ;; *************** function _I2C1_MasterFsm *****************
  3990 ;; Defined at:
  3991 ;;		line 323 in file "mcc_generated_files/i2c1_master.c"
  3992 ;; Parameters:    Size  Location     Type
  3993 ;;		None
  3994 ;; Auto vars:     Size  Location     Type
  3995 ;;		None
  3996 ;; Return value:  Size  Location     Type
  3997 ;;                  1    wreg      void 
  3998 ;; Registers used:
  3999 ;;		wreg, fsr2l, fsr2h, status,2, status,0, pcl, pclath, pclatu, tosl, tblptrl, tblptrh, tblptru, prodl, prodh, cstack
  4000 ;; Tracked objects:
  4001 ;;		On entry : 0/0
  4002 ;;		On exit  : 0/0
  4003 ;;		Unchanged: 0/0
  4004 ;; Data sizes:     COMRAM   BANK0   BANK1   BANK2   BANK3   BANK4   BANK5   BANK6   BANK7   BANK8   BANK9  BANK10  BANK1
      +1  BANK12  BANK13  BANK14
  4005 ;;      Params:         0       0       0       0       0       0       0       0       0       0       0       0       
      +0       0       0       0
  4006 ;;      Locals:         0       0       0       0       0       0       0       0       0       0       0       0       
      +0       0       0       0
  4007 ;;      Temps:          0       0       0       0       0       0       0       0       0       0       0       0       
      +0       0       0       0
  4008 ;;      Totals:         0       0       0       0       0       0       0       0       0       0       0       0       
      +0       0       0       0
  4009 ;;Total ram usage:        0 bytes
  4010 ;; Hardware stack levels used: 1
  4011 ;; Hardware stack levels required when called: 4
  4012 ;; This function calls:
  4013 ;;		_I2C1_DO_ADDRESS_NACK
  4014 ;;		_I2C1_DO_IDLE
  4015 ;;		_I2C1_DO_RCEN
  4016 ;;		_I2C1_DO_RESET
  4017 ;;		_I2C1_DO_RX
  4018 ;;		_I2C1_DO_RX_ACK
  4019 ;;		_I2C1_DO_RX_NACK_RESTART
  4020 ;;		_I2C1_DO_RX_NACK_STOP
  4021 ;;		_I2C1_DO_SEND_ADR_READ
  4022 ;;		_I2C1_DO_SEND_ADR_WRITE
  4023 ;;		_I2C1_DO_SEND_RESTART
  4024 ;;		_I2C1_DO_SEND_RESTART_READ
  4025 ;;		_I2C1_DO_SEND_RESTART_WRITE
  4026 ;;		_I2C1_DO_SEND_STOP
  4027 ;;		_I2C1_DO_TX
  4028 ;;		_I2C1_DO_TX_EMPTY
  4029 ;;		_I2C1_MasterClearIrq
  4030 ;;		_I2C1_MasterIsNack
  4031 ;; This function is called by:
  4032 ;;		_I2C1_MasterIsr
  4033 ;; This function uses a non-reentrant model
  4034 ;;
  4035                           
  4036                           	psect	text31
  4037  001C9C                     __ptext31:
  4038                           	callstack 0
  4039  001C9C                     _I2C1_MasterFsm:
  4040                           	callstack 15
  4041  001C9C                     
  4042                           ;mcc_generated_files/i2c1_master.c: 325:     I2C1_MasterClearIrq();
  4043  001C9C  EC43  F011         	call	_I2C1_MasterClearIrq	;wreg free
  4044  001CA0                     
  4045                           ;mcc_generated_files/i2c1_master.c: 327:     if(I2C1_Status.addressNackCheck && I2C1_Mas
      +                          terIsNack())
  4046  001CA0  0100               	movlb	0	; () banked
  4047  001CA2  A183               	btfss	(_I2C1_Status+35)& (0+255),0,b
  4048  001CA4  EF56  F00E         	goto	i2u168_41
  4049  001CA8  EF58  F00E         	goto	i2u168_40
  4050  001CAC                     i2u168_41:
  4051  001CAC  EF65  F00E         	goto	i2l3476
  4052  001CB0                     i2u168_40:
  4053  001CB0                     
  4054                           ; BSR set to: 0
  4055  001CB0  ECBE  F010         	call	_I2C1_MasterIsNack	;wreg free
  4056  001CB4  0900               	iorlw	0
  4057  001CB6  B4D8               	btfsc	status,2,c
  4058  001CB8  EF60  F00E         	goto	i2u169_41
  4059  001CBC  EF62  F00E         	goto	i2u169_40
  4060  001CC0                     i2u169_41:
  4061  001CC0  EF65  F00E         	goto	i2l3476
  4062  001CC4                     i2u169_40:
  4063  001CC4                     
  4064                           ;mcc_generated_files/i2c1_master.c: 328:     {;mcc_generated_files/i2c1_master.c: 329:  
      +                                 I2C1_Status.state = I2C1_ADDRESS_NACK;
  4065  001CC4  0E0F               	movlw	15
  4066  001CC6  0100               	movlb	0	; () banked
  4067  001CC8  6F81               	movwf	(_I2C1_Status+33)& (0+255),b
  4068  001CCA                     i2l3476:
  4069                           
  4070                           ;mcc_generated_files/i2c1_master.c: 331:     I2C1_Status.state = i2c1_fsmStateTable[I2C1
      +                          _Status.state]();
  4071  001CCA  0100               	movlb	0	; () banked
  4072  001CCC  5181               	movf	(_I2C1_Status+33)& (0+255),w,b
  4073  001CCE  0D02               	mullw	2
  4074  001CD0  0E01               	movlw	low _i2c1_fsmStateTable
  4075  001CD2  24F3               	addwf	243,w,c
  4076  001CD4  6EF6               	movwf	tblptrl,c
  4077  001CD6  0E0F               	movlw	high _i2c1_fsmStateTable
  4078  001CD8  20F4               	addwfc	244,w,c
  4079  001CDA  6EF7               	movwf	tblptrh,c
  4080  001CDC                     	if	0	;There are less than 3 active tblptr bytes
  4081  001CDC                     	endif
  4082  001CDC  D802               	call	i2u170_48
  4083  001CDE  EF7D  F00E         	goto	i2u170_49
  4084  001CE2                     i2u170_48:
  4085  001CE2  0005               	push	
  4086  001CE4  6EFA               	movwf	pclath,c
  4087  001CE6  0009               	tblrd		*+
  4088  001CE8  50F5               	movf	tablat,w,c
  4089  001CEA  6EFD               	movwf	tosl,c
  4090  001CEC  0009               	tblrd		*+
  4091  001CEE  50F5               	movf	tablat,w,c
  4092  001CF0  6EFE               	movwf	tosh,c
  4093  001CF2  50F8               	movf	tblptru,w,c
  4094  001CF4  6EFF               	movwf	tosu,c
  4095  001CF6  50FA               	movf	pclath,w,c
  4096  001CF8  0012               	return		;indir
  4097  001CFA                     i2u170_49:
  4098  001CFA  0100               	movlb	0	; () banked
  4099  001CFC  6F81               	movwf	(_I2C1_Status+33)& (0+255),b
  4100  001CFE                     
  4101                           ; BSR set to: 0
  4102  001CFE  0012               	return		;funcret
  4103  001D00                     __end_of_I2C1_MasterFsm:
  4104                           	callstack 0
  4105                           
  4106 ;; *************** function _I2C1_MasterClearIrq *****************
  4107 ;; Defined at:
  4108 ;;		line 642 in file "mcc_generated_files/i2c1_master.c"
  4109 ;; Parameters:    Size  Location     Type
  4110 ;;		None
  4111 ;; Auto vars:     Size  Location     Type
  4112 ;;		None
  4113 ;; Return value:  Size  Location     Type
  4114 ;;                  1    wreg      void 
  4115 ;; Registers used:
  4116 ;;		None
  4117 ;; Tracked objects:
  4118 ;;		On entry : 0/0
  4119 ;;		On exit  : 0/0
  4120 ;;		Unchanged: 0/0
  4121 ;; Data sizes:     COMRAM   BANK0   BANK1   BANK2   BANK3   BANK4   BANK5   BANK6   BANK7   BANK8   BANK9  BANK10  BANK1
      +1  BANK12  BANK13  BANK14
  4122 ;;      Params:         0       0       0       0       0       0       0       0       0       0       0       0       
      +0       0       0       0
  4123 ;;      Locals:         0       0       0       0       0       0       0       0       0       0       0       0       
      +0       0       0       0
  4124 ;;      Temps:          0       0       0       0       0       0       0       0       0       0       0       0       
      +0       0       0       0
  4125 ;;      Totals:         0       0       0       0       0       0       0       0       0       0       0       0       
      +0       0       0       0
  4126 ;;Total ram usage:        0 bytes
  4127 ;; Hardware stack levels used: 1
  4128 ;; This function calls:
  4129 ;;		Nothing
  4130 ;; This function is called by:
  4131 ;;		_I2C1_MasterFsm
  4132 ;;		_I2C1_Open
  4133 ;;		_I2C1_Close
  4134 ;; This function uses a non-reentrant model
  4135 ;;
  4136                           
  4137                           	psect	text32
  4138  002286                     __ptext32:
  4139                           	callstack 0
  4140  002286                     _I2C1_MasterClearIrq:
  4141                           	callstack 18
  4142  002286                     
  4143                           ;mcc_generated_files/i2c1_master.c: 644:     PIR1bits.SSP1IF = 0;
  4144  002286  969E               	bcf	158,3,c	;volatile
  4145  002288  0012               	return		;funcret
  4146  00228A                     __end_of_I2C1_MasterClearIrq:
  4147                           	callstack 0
  4148                           
  4149 ;; *************** function _I2C1_DO_ADDRESS_NACK *****************
  4150 ;; Defined at:
  4151 ;;		line 501 in file "mcc_generated_files/i2c1_master.c"
  4152 ;; Parameters:    Size  Location     Type
  4153 ;;		None
  4154 ;; Auto vars:     Size  Location     Type
  4155 ;;		None
  4156 ;; Return value:  Size  Location     Type
  4157 ;;                  1    wreg      enum E6655
  4158 ;; Registers used:
  4159 ;;		wreg, fsr2l, fsr2h, status,2, status,0, pcl, pclath, pclatu, tosl, prodl, prodh, cstack
  4160 ;; Tracked objects:
  4161 ;;		On entry : 0/0
  4162 ;;		On exit  : 0/0
  4163 ;;		Unchanged: 0/0
  4164 ;; Data sizes:     COMRAM   BANK0   BANK1   BANK2   BANK3   BANK4   BANK5   BANK6   BANK7   BANK8   BANK9  BANK10  BANK1
      +1  BANK12  BANK13  BANK14
  4165 ;;      Params:         0       0       0       0       0       0       0       0       0       0       0       0       
      +0       0       0       0
  4166 ;;      Locals:         0       0       0       0       0       0       0       0       0       0       0       0       
      +0       0       0       0
  4167 ;;      Temps:          2       0       0       0       0       0       0       0       0       0       0       0       
      +0       0       0       0
  4168 ;;      Totals:         2       0       0       0       0       0       0       0       0       0       0       0       
      +0       0       0       0
  4169 ;;Total ram usage:        2 bytes
  4170 ;; Hardware stack levels used: 1
  4171 ;; Hardware stack levels required when called: 3
  4172 ;; This function calls:
  4173 ;;		Absolute function
  4174 ;;		_I2C1_CallbackReturnReset
  4175 ;;		_I2C1_CallbackReturnStop
  4176 ;;		_I2C1_DO_SEND_RESTART
  4177 ;;		_I2C1_DO_SEND_STOP
  4178 ;;		_rd1RegCompleteHandler
  4179 ;;		_rd2RegCompleteHandler
  4180 ;;		_rdBlkRegCompleteHandler
  4181 ;;		_wr1RegCompleteHandler
  4182 ;;		_wr2RegCompleteHandler
  4183 ;; This function is called by:
  4184 ;;		_I2C1_MasterFsm
  4185 ;; This function uses a non-reentrant model
  4186 ;;
  4187                           
  4188                           	psect	text33
  4189  001C30                     __ptext33:
  4190                           	callstack 0
  4191  001C30                     _I2C1_DO_ADDRESS_NACK:
  4192                           	callstack 15
  4193  001C30                     
  4194                           ;mcc_generated_files/i2c1_master.c: 503:     I2C1_Status.addressNackCheck = 0;
  4195  001C30  0100               	movlb	0	; () banked
  4196  001C32  9183               	bcf	(_I2C1_Status+35)& (0+255),0,b
  4197  001C34                     
  4198                           ; BSR set to: 0
  4199                           ;mcc_generated_files/i2c1_master.c: 504:     I2C1_Status.error = I2C1_FAIL;
  4200  001C34  0E02               	movlw	2
  4201  001C36  6F82               	movwf	(_I2C1_Status+34)& (0+255),b
  4202                           
  4203                           ;mcc_generated_files/i2c1_master.c: 505:     switch(I2C1_Status.callbackTable[I2C1_ADDR_
      +                          NACK](I2C1_Status.callbackPayload[I2C1_ADDR_NACK]))
  4204  001C38  EF26  F00E         	goto	i2l3364
  4205  001C3C                     i2l3354:
  4206                           
  4207                           ;mcc_generated_files/i2c1_master.c: 509:             return I2C1_DO_SEND_RESTART();
  4208  001C3C  EC20  F011         	call	_I2C1_DO_SEND_RESTART	;wreg free
  4209  001C40  EF4D  F00E         	goto	i2l543
  4210  001C44                     i2l3358:
  4211                           
  4212                           ;mcc_generated_files/i2c1_master.c: 511:             return I2C1_DO_SEND_STOP();
  4213  001C44  EC1C  F011         	call	_I2C1_DO_SEND_STOP	;wreg free
  4214  001C48  EF4D  F00E         	goto	i2l543
  4215  001C4C                     i2l3364:
  4216                           
  4217                           ; BSR set to: 0
  4218  001C4C  C070  F00A         	movff	_I2C1_Status+16,I2C1_CallbackReturnReset@funPtr
  4219  001C50  C071  F00B         	movff	_I2C1_Status+17,I2C1_CallbackReturnReset@funPtr+1
  4220  001C54  EE20  F064         	lfsr	2,_I2C1_Status+4
  4221  001C58  D802               	call	i2u163_48
  4222  001C5A  EF39  F00E         	goto	i2u163_49
  4223  001C5E                     i2u163_48:
  4224  001C5E  0005               	push	
  4225  001C60  6EFA               	movwf	pclath,c
  4226  001C62  50DE               	movf	postinc2,w,c
  4227  001C64  6EFD               	movwf	tosl,c
  4228  001C66  50DE               	movf	postinc2,w,c
  4229  001C68  6EFE               	movwf	tosh,c
  4230  001C6A  50F8               	movf	tblptru,w,c
  4231  001C6C  6EFF               	movwf	tosu,c
  4232  001C6E  50FA               	movf	pclath,w,c
  4233  001C70  0012               	return		;indir
  4234  001C72                     i2u163_49:
  4235  001C72  6E0C               	movwf	??_I2C1_DO_ADDRESS_NACK^0,c
  4236  001C74  6A0D               	clrf	(??_I2C1_DO_ADDRESS_NACK+1)^0,c
  4237                           
  4238                           ; Switch on 2 bytes has been partitioned into a top level switch of size 1, and 1 sub-sw
      +                          itches
  4239                           ; Switch size 1, requested type "simple"
  4240                           ; Number of cases is 1, Range of values is 0 to 0
  4241                           ; switch strategies available:
  4242                           ; Name         Instructions Cycles
  4243                           ; simple_byte            4     3 (average)
  4244                           ;	Chosen strategy is simple_byte
  4245  001C76  500D               	movf	(??_I2C1_DO_ADDRESS_NACK+1)^0,w,c
  4246  001C78  0A00               	xorlw	0	; case 0
  4247  001C7A  B4D8               	btfsc	status,2,c
  4248  001C7C  EF42  F00E         	goto	i2l4436
  4249  001C80  EF22  F00E         	goto	i2l3358
  4250  001C84                     i2l4436:
  4251                           
  4252                           ; Switch size 1, requested type "simple"
  4253                           ; Number of cases is 2, Range of values is 2 to 3
  4254                           ; switch strategies available:
  4255                           ; Name         Instructions Cycles
  4256                           ; simple_byte            7     4 (average)
  4257                           ;	Chosen strategy is simple_byte
  4258  001C84  500C               	movf	??_I2C1_DO_ADDRESS_NACK^0,w,c
  4259  001C86  0A02               	xorlw	2	; case 2
  4260  001C88  B4D8               	btfsc	status,2,c
  4261  001C8A  EF1E  F00E         	goto	i2l3354
  4262  001C8E  0A01               	xorlw	1	; case 3
  4263  001C90  B4D8               	btfsc	status,2,c
  4264  001C92  EF1E  F00E         	goto	i2l3354
  4265  001C96  EF22  F00E         	goto	i2l3358
  4266  001C9A                     i2l543:
  4267  001C9A  0012               	return		;funcret
  4268  001C9C                     __end_of_I2C1_DO_ADDRESS_NACK:
  4269                           	callstack 0
  4270                           
  4271 ;; *************** function _I2C1_DO_RESET *****************
  4272 ;; Defined at:
  4273 ;;		line 495 in file "mcc_generated_files/i2c1_master.c"
  4274 ;; Parameters:    Size  Location     Type
  4275 ;;		None
  4276 ;; Auto vars:     Size  Location     Type
  4277 ;;		None
  4278 ;; Return value:  Size  Location     Type
  4279 ;;                  1    wreg      enum E6655
  4280 ;; Registers used:
  4281 ;;		wreg, status,2
  4282 ;; Tracked objects:
  4283 ;;		On entry : 0/0
  4284 ;;		On exit  : 0/0
  4285 ;;		Unchanged: 0/0
  4286 ;; Data sizes:     COMRAM   BANK0   BANK1   BANK2   BANK3   BANK4   BANK5   BANK6   BANK7   BANK8   BANK9  BANK10  BANK1
      +1  BANK12  BANK13  BANK14
  4287 ;;      Params:         0       0       0       0       0       0       0       0       0       0       0       0       
      +0       0       0       0
  4288 ;;      Locals:         0       0       0       0       0       0       0       0       0       0       0       0       
      +0       0       0       0
  4289 ;;      Temps:          0       0       0       0       0       0       0       0       0       0       0       0       
      +0       0       0       0
  4290 ;;      Totals:         0       0       0       0       0       0       0       0       0       0       0       0       
      +0       0       0       0
  4291 ;;Total ram usage:        0 bytes
  4292 ;; Hardware stack levels used: 1
  4293 ;; This function calls:
  4294 ;;		Nothing
  4295 ;; This function is called by:
  4296 ;;		_I2C1_MasterFsm
  4297 ;; This function uses a non-reentrant model
  4298 ;;
  4299                           
  4300                           	psect	text34
  4301  0021C0                     __ptext34:
  4302                           	callstack 0
  4303  0021C0                     _I2C1_DO_RESET:
  4304                           	callstack 18
  4305  0021C0                     
  4306                           ;mcc_generated_files/i2c1_master.c: 497:     I2C1_Status.busy = 0;
  4307  0021C0  0100               	movlb	0	; () banked
  4308  0021C2  9383               	bcf	(_I2C1_Status+35)& (0+255),1,b
  4309  0021C4                     
  4310                           ; BSR set to: 0
  4311                           ;mcc_generated_files/i2c1_master.c: 498:     I2C1_Status.error = I2C1_NOERR;
  4312  0021C4  0E00               	movlw	0
  4313  0021C6  6F82               	movwf	(_I2C1_Status+34)& (0+255),b
  4314  0021C8                     
  4315                           ; BSR set to: 0
  4316                           ;mcc_generated_files/i2c1_master.c: 499:     return I2C1_RESET;
  4317  0021C8  0E0E               	movlw	14
  4318  0021CA                     
  4319                           ; BSR set to: 0
  4320  0021CA  0012               	return		;funcret
  4321  0021CC                     __end_of_I2C1_DO_RESET:
  4322                           	callstack 0
  4323                           
  4324 ;; *************** function _I2C1_DO_RX_NACK_RESTART *****************
  4325 ;; Defined at:
  4326 ;;		line 489 in file "mcc_generated_files/i2c1_master.c"
  4327 ;; Parameters:    Size  Location     Type
  4328 ;;		None
  4329 ;; Auto vars:     Size  Location     Type
  4330 ;;		None
  4331 ;; Return value:  Size  Location     Type
  4332 ;;                  1    wreg      enum E6655
  4333 ;; Registers used:
  4334 ;;		wreg, cstack
  4335 ;; Tracked objects:
  4336 ;;		On entry : 0/0
  4337 ;;		On exit  : 0/0
  4338 ;;		Unchanged: 0/0
  4339 ;; Data sizes:     COMRAM   BANK0   BANK1   BANK2   BANK3   BANK4   BANK5   BANK6   BANK7   BANK8   BANK9  BANK10  BANK1
      +1  BANK12  BANK13  BANK14
  4340 ;;      Params:         0       0       0       0       0       0       0       0       0       0       0       0       
      +0       0       0       0
  4341 ;;      Locals:         0       0       0       0       0       0       0       0       0       0       0       0       
      +0       0       0       0
  4342 ;;      Temps:          0       0       0       0       0       0       0       0       0       0       0       0       
      +0       0       0       0
  4343 ;;      Totals:         0       0       0       0       0       0       0       0       0       0       0       0       
      +0       0       0       0
  4344 ;;Total ram usage:        0 bytes
  4345 ;; Hardware stack levels used: 1
  4346 ;; Hardware stack levels required when called: 1
  4347 ;; This function calls:
  4348 ;;		_I2C1_MasterSendNack
  4349 ;; This function is called by:
  4350 ;;		_I2C1_DO_RX
  4351 ;;		_I2C1_MasterFsm
  4352 ;; This function uses a non-reentrant model
  4353 ;;
  4354                           
  4355                           	psect	text35
  4356  002220                     __ptext35:
  4357                           	callstack 0
  4358  002220                     _I2C1_DO_RX_NACK_RESTART:
  4359                           	callstack 17
  4360  002220                     
  4361                           ;mcc_generated_files/i2c1_master.c: 491:     I2C1_MasterSendNack();
  4362  002220  EC36  F011         	call	_I2C1_MasterSendNack	;wreg free
  4363  002224                     
  4364                           ;mcc_generated_files/i2c1_master.c: 492:     return I2C1_SEND_RESTART;
  4365  002224  0E09               	movlw	9
  4366  002226  0012               	return		;funcret
  4367  002228                     __end_of_I2C1_DO_RX_NACK_RESTART:
  4368                           	callstack 0
  4369                           
  4370 ;; *************** function _I2C1_DO_RX_NACK_STOP *****************
  4371 ;; Defined at:
  4372 ;;		line 483 in file "mcc_generated_files/i2c1_master.c"
  4373 ;; Parameters:    Size  Location     Type
  4374 ;;		None
  4375 ;; Auto vars:     Size  Location     Type
  4376 ;;		None
  4377 ;; Return value:  Size  Location     Type
  4378 ;;                  1    wreg      enum E6655
  4379 ;; Registers used:
  4380 ;;		wreg, cstack
  4381 ;; Tracked objects:
  4382 ;;		On entry : 0/0
  4383 ;;		On exit  : 0/0
  4384 ;;		Unchanged: 0/0
  4385 ;; Data sizes:     COMRAM   BANK0   BANK1   BANK2   BANK3   BANK4   BANK5   BANK6   BANK7   BANK8   BANK9  BANK10  BANK1
      +1  BANK12  BANK13  BANK14
  4386 ;;      Params:         0       0       0       0       0       0       0       0       0       0       0       0       
      +0       0       0       0
  4387 ;;      Locals:         0       0       0       0       0       0       0       0       0       0       0       0       
      +0       0       0       0
  4388 ;;      Temps:          0       0       0       0       0       0       0       0       0       0       0       0       
      +0       0       0       0
  4389 ;;      Totals:         0       0       0       0       0       0       0       0       0       0       0       0       
      +0       0       0       0
  4390 ;;Total ram usage:        0 bytes
  4391 ;; Hardware stack levels used: 1
  4392 ;; Hardware stack levels required when called: 1
  4393 ;; This function calls:
  4394 ;;		_I2C1_MasterSendNack
  4395 ;; This function is called by:
  4396 ;;		_I2C1_DO_RX
  4397 ;;		_I2C1_MasterFsm
  4398 ;; This function uses a non-reentrant model
  4399 ;;
  4400                           
  4401                           	psect	text36
  4402  002228                     __ptext36:
  4403                           	callstack 0
  4404  002228                     _I2C1_DO_RX_NACK_STOP:
  4405                           	callstack 17
  4406  002228                     
  4407                           ;mcc_generated_files/i2c1_master.c: 485:     I2C1_MasterSendNack();
  4408  002228  EC36  F011         	call	_I2C1_MasterSendNack	;wreg free
  4409  00222C                     
  4410                           ;mcc_generated_files/i2c1_master.c: 486:     return I2C1_SEND_STOP;
  4411  00222C  0E0A               	movlw	10
  4412  00222E  0012               	return		;funcret
  4413  002230                     __end_of_I2C1_DO_RX_NACK_STOP:
  4414                           	callstack 0
  4415                           
  4416 ;; *************** function _I2C1_DO_RX_ACK *****************
  4417 ;; Defined at:
  4418 ;;		line 476 in file "mcc_generated_files/i2c1_master.c"
  4419 ;; Parameters:    Size  Location     Type
  4420 ;;		None
  4421 ;; Auto vars:     Size  Location     Type
  4422 ;;		None
  4423 ;; Return value:  Size  Location     Type
  4424 ;;                  1    wreg      enum E6655
  4425 ;; Registers used:
  4426 ;;		wreg, cstack
  4427 ;; Tracked objects:
  4428 ;;		On entry : 0/0
  4429 ;;		On exit  : 0/0
  4430 ;;		Unchanged: 0/0
  4431 ;; Data sizes:     COMRAM   BANK0   BANK1   BANK2   BANK3   BANK4   BANK5   BANK6   BANK7   BANK8   BANK9  BANK10  BANK1
      +1  BANK12  BANK13  BANK14
  4432 ;;      Params:         0       0       0       0       0       0       0       0       0       0       0       0       
      +0       0       0       0
  4433 ;;      Locals:         0       0       0       0       0       0       0       0       0       0       0       0       
      +0       0       0       0
  4434 ;;      Temps:          0       0       0       0       0       0       0       0       0       0       0       0       
      +0       0       0       0
  4435 ;;      Totals:         0       0       0       0       0       0       0       0       0       0       0       0       
      +0       0       0       0
  4436 ;;Total ram usage:        0 bytes
  4437 ;; Hardware stack levels used: 1
  4438 ;; Hardware stack levels required when called: 1
  4439 ;; This function calls:
  4440 ;;		_I2C1_MasterSendAck
  4441 ;; This function is called by:
  4442 ;;		_I2C1_MasterFsm
  4443 ;; This function uses a non-reentrant model
  4444 ;;
  4445                           
  4446                           	psect	text37
  4447  002230                     __ptext37:
  4448                           	callstack 0
  4449  002230                     _I2C1_DO_RX_ACK:
  4450                           	callstack 17
  4451  002230                     
  4452                           ;mcc_generated_files/i2c1_master.c: 478:     I2C1_MasterSendAck();
  4453  002230  EC33  F011         	call	_I2C1_MasterSendAck	;wreg free
  4454  002234                     
  4455                           ;mcc_generated_files/i2c1_master.c: 479:     return I2C1_RCEN;
  4456  002234  0E05               	movlw	5
  4457  002236  0012               	return		;funcret
  4458  002238                     __end_of_I2C1_DO_RX_ACK:
  4459                           	callstack 0
  4460                           
  4461 ;; *************** function _I2C1_DO_SEND_STOP *****************
  4462 ;; Defined at:
  4463 ;;		line 470 in file "mcc_generated_files/i2c1_master.c"
  4464 ;; Parameters:    Size  Location     Type
  4465 ;;		None
  4466 ;; Auto vars:     Size  Location     Type
  4467 ;;		None
  4468 ;; Return value:  Size  Location     Type
  4469 ;;                  1    wreg      enum E6655
  4470 ;; Registers used:
  4471 ;;		wreg, cstack
  4472 ;; Tracked objects:
  4473 ;;		On entry : 0/0
  4474 ;;		On exit  : 0/0
  4475 ;;		Unchanged: 0/0
  4476 ;; Data sizes:     COMRAM   BANK0   BANK1   BANK2   BANK3   BANK4   BANK5   BANK6   BANK7   BANK8   BANK9  BANK10  BANK1
      +1  BANK12  BANK13  BANK14
  4477 ;;      Params:         0       0       0       0       0       0       0       0       0       0       0       0       
      +0       0       0       0
  4478 ;;      Locals:         0       0       0       0       0       0       0       0       0       0       0       0       
      +0       0       0       0
  4479 ;;      Temps:          0       0       0       0       0       0       0       0       0       0       0       0       
      +0       0       0       0
  4480 ;;      Totals:         0       0       0       0       0       0       0       0       0       0       0       0       
      +0       0       0       0
  4481 ;;Total ram usage:        0 bytes
  4482 ;; Hardware stack levels used: 1
  4483 ;; Hardware stack levels required when called: 1
  4484 ;; This function calls:
  4485 ;;		_I2C1_MasterStop
  4486 ;; This function is called by:
  4487 ;;		_I2C1_DO_TX
  4488 ;;		_I2C1_DO_TX_EMPTY
  4489 ;;		_I2C1_DO_ADDRESS_NACK
  4490 ;;		_I2C1_MasterFsm
  4491 ;; This function uses a non-reentrant model
  4492 ;;
  4493                           
  4494                           	psect	text38
  4495  002238                     __ptext38:
  4496                           	callstack 0
  4497  002238                     _I2C1_DO_SEND_STOP:
  4498                           	callstack 16
  4499  002238                     
  4500                           ;mcc_generated_files/i2c1_master.c: 472:     I2C1_MasterStop();
  4501  002238  EC4F  F011         	call	_I2C1_MasterStop	;wreg free
  4502  00223C                     
  4503                           ;mcc_generated_files/i2c1_master.c: 473:     return I2C1_IDLE;
  4504  00223C  0E00               	movlw	0
  4505  00223E  0012               	return		;funcret
  4506  002240                     __end_of_I2C1_DO_SEND_STOP:
  4507                           	callstack 0
  4508                           
  4509 ;; *************** function _I2C1_DO_SEND_RESTART *****************
  4510 ;; Defined at:
  4511 ;;		line 464 in file "mcc_generated_files/i2c1_master.c"
  4512 ;; Parameters:    Size  Location     Type
  4513 ;;		None
  4514 ;; Auto vars:     Size  Location     Type
  4515 ;;		None
  4516 ;; Return value:  Size  Location     Type
  4517 ;;                  1    wreg      enum E6655
  4518 ;; Registers used:
  4519 ;;		wreg, cstack
  4520 ;; Tracked objects:
  4521 ;;		On entry : 0/0
  4522 ;;		On exit  : 0/0
  4523 ;;		Unchanged: 0/0
  4524 ;; Data sizes:     COMRAM   BANK0   BANK1   BANK2   BANK3   BANK4   BANK5   BANK6   BANK7   BANK8   BANK9  BANK10  BANK1
      +1  BANK12  BANK13  BANK14
  4525 ;;      Params:         0       0       0       0       0       0       0       0       0       0       0       0       
      +0       0       0       0
  4526 ;;      Locals:         0       0       0       0       0       0       0       0       0       0       0       0       
      +0       0       0       0
  4527 ;;      Temps:          0       0       0       0       0       0       0       0       0       0       0       0       
      +0       0       0       0
  4528 ;;      Totals:         0       0       0       0       0       0       0       0       0       0       0       0       
      +0       0       0       0
  4529 ;;Total ram usage:        0 bytes
  4530 ;; Hardware stack levels used: 1
  4531 ;; Hardware stack levels required when called: 1
  4532 ;; This function calls:
  4533 ;;		_I2C1_MasterEnableRestart
  4534 ;; This function is called by:
  4535 ;;		_I2C1_DO_TX_EMPTY
  4536 ;;		_I2C1_DO_ADDRESS_NACK
  4537 ;;		_I2C1_MasterFsm
  4538 ;; This function uses a non-reentrant model
  4539 ;;
  4540                           
  4541                           	psect	text39
  4542  002240                     __ptext39:
  4543                           	callstack 0
  4544  002240                     _I2C1_DO_SEND_RESTART:
  4545                           	callstack 16
  4546  002240                     
  4547                           ;mcc_generated_files/i2c1_master.c: 466:     I2C1_MasterEnableRestart();
  4548  002240  EC51  F011         	call	_I2C1_MasterEnableRestart	;wreg free
  4549  002244                     
  4550                           ;mcc_generated_files/i2c1_master.c: 467:     return I2C1_SEND_ADR_READ;
  4551  002244  0E01               	movlw	1
  4552  002246  0012               	return		;funcret
  4553  002248                     __end_of_I2C1_DO_SEND_RESTART:
  4554                           	callstack 0
  4555                           
  4556 ;; *************** function _I2C1_DO_SEND_RESTART_WRITE *****************
  4557 ;; Defined at:
  4558 ;;		line 457 in file "mcc_generated_files/i2c1_master.c"
  4559 ;; Parameters:    Size  Location     Type
  4560 ;;		None
  4561 ;; Auto vars:     Size  Location     Type
  4562 ;;		None
  4563 ;; Return value:  Size  Location     Type
  4564 ;;                  1    wreg      enum E6655
  4565 ;; Registers used:
  4566 ;;		wreg, cstack
  4567 ;; Tracked objects:
  4568 ;;		On entry : 0/0
  4569 ;;		On exit  : 0/0
  4570 ;;		Unchanged: 0/0
  4571 ;; Data sizes:     COMRAM   BANK0   BANK1   BANK2   BANK3   BANK4   BANK5   BANK6   BANK7   BANK8   BANK9  BANK10  BANK1
      +1  BANK12  BANK13  BANK14
  4572 ;;      Params:         0       0       0       0       0       0       0       0       0       0       0       0       
      +0       0       0       0
  4573 ;;      Locals:         0       0       0       0       0       0       0       0       0       0       0       0       
      +0       0       0       0
  4574 ;;      Temps:          0       0       0       0       0       0       0       0       0       0       0       0       
      +0       0       0       0
  4575 ;;      Totals:         0       0       0       0       0       0       0       0       0       0       0       0       
      +0       0       0       0
  4576 ;;Total ram usage:        0 bytes
  4577 ;; Hardware stack levels used: 1
  4578 ;; Hardware stack levels required when called: 1
  4579 ;; This function calls:
  4580 ;;		_I2C1_MasterEnableRestart
  4581 ;; This function is called by:
  4582 ;;		_I2C1_DO_TX
  4583 ;;		_I2C1_MasterFsm
  4584 ;; This function uses a non-reentrant model
  4585 ;;
  4586                           
  4587                           	psect	text40
  4588  002248                     __ptext40:
  4589                           	callstack 0
  4590  002248                     _I2C1_DO_SEND_RESTART_WRITE:
  4591                           	callstack 16
  4592  002248                     
  4593                           ;mcc_generated_files/i2c1_master.c: 459:     I2C1_MasterEnableRestart();
  4594  002248  EC51  F011         	call	_I2C1_MasterEnableRestart	;wreg free
  4595  00224C                     
  4596                           ;mcc_generated_files/i2c1_master.c: 460:     return I2C1_SEND_ADR_WRITE;
  4597  00224C  0E02               	movlw	2
  4598  00224E  0012               	return		;funcret
  4599  002250                     __end_of_I2C1_DO_SEND_RESTART_WRITE:
  4600                           	callstack 0
  4601                           
  4602 ;; *************** function _I2C1_DO_SEND_RESTART_READ *****************
  4603 ;; Defined at:
  4604 ;;		line 451 in file "mcc_generated_files/i2c1_master.c"
  4605 ;; Parameters:    Size  Location     Type
  4606 ;;		None
  4607 ;; Auto vars:     Size  Location     Type
  4608 ;;		None
  4609 ;; Return value:  Size  Location     Type
  4610 ;;                  1    wreg      enum E6655
  4611 ;; Registers used:
  4612 ;;		wreg, cstack
  4613 ;; Tracked objects:
  4614 ;;		On entry : 0/0
  4615 ;;		On exit  : 0/0
  4616 ;;		Unchanged: 0/0
  4617 ;; Data sizes:     COMRAM   BANK0   BANK1   BANK2   BANK3   BANK4   BANK5   BANK6   BANK7   BANK8   BANK9  BANK10  BANK1
      +1  BANK12  BANK13  BANK14
  4618 ;;      Params:         0       0       0       0       0       0       0       0       0       0       0       0       
      +0       0       0       0
  4619 ;;      Locals:         0       0       0       0       0       0       0       0       0       0       0       0       
      +0       0       0       0
  4620 ;;      Temps:          0       0       0       0       0       0       0       0       0       0       0       0       
      +0       0       0       0
  4621 ;;      Totals:         0       0       0       0       0       0       0       0       0       0       0       0       
      +0       0       0       0
  4622 ;;Total ram usage:        0 bytes
  4623 ;; Hardware stack levels used: 1
  4624 ;; Hardware stack levels required when called: 1
  4625 ;; This function calls:
  4626 ;;		_I2C1_MasterEnableRestart
  4627 ;; This function is called by:
  4628 ;;		_I2C1_DO_TX
  4629 ;;		_I2C1_MasterFsm
  4630 ;; This function uses a non-reentrant model
  4631 ;;
  4632                           
  4633                           	psect	text41
  4634  002250                     __ptext41:
  4635                           	callstack 0
  4636  002250                     _I2C1_DO_SEND_RESTART_READ:
  4637                           	callstack 16
  4638  002250                     
  4639                           ;mcc_generated_files/i2c1_master.c: 453:     I2C1_MasterEnableRestart();
  4640  002250  EC51  F011         	call	_I2C1_MasterEnableRestart	;wreg free
  4641  002254                     
  4642                           ;mcc_generated_files/i2c1_master.c: 454:     return I2C1_SEND_ADR_READ;
  4643  002254  0E01               	movlw	1
  4644  002256  0012               	return		;funcret
  4645  002258                     __end_of_I2C1_DO_SEND_RESTART_READ:
  4646                           	callstack 0
  4647                           
  4648 ;; *************** function _I2C1_DO_RCEN *****************
  4649 ;; Defined at:
  4650 ;;		line 404 in file "mcc_generated_files/i2c1_master.c"
  4651 ;; Parameters:    Size  Location     Type
  4652 ;;		None
  4653 ;; Auto vars:     Size  Location     Type
  4654 ;;		None
  4655 ;; Return value:  Size  Location     Type
  4656 ;;                  1    wreg      enum E6655
  4657 ;; Registers used:
  4658 ;;		wreg, cstack
  4659 ;; Tracked objects:
  4660 ;;		On entry : 0/0
  4661 ;;		On exit  : 0/0
  4662 ;;		Unchanged: 0/0
  4663 ;; Data sizes:     COMRAM   BANK0   BANK1   BANK2   BANK3   BANK4   BANK5   BANK6   BANK7   BANK8   BANK9  BANK10  BANK1
      +1  BANK12  BANK13  BANK14
  4664 ;;      Params:         0       0       0       0       0       0       0       0       0       0       0       0       
      +0       0       0       0
  4665 ;;      Locals:         0       0       0       0       0       0       0       0       0       0       0       0       
      +0       0       0       0
  4666 ;;      Temps:          0       0       0       0       0       0       0       0       0       0       0       0       
      +0       0       0       0
  4667 ;;      Totals:         0       0       0       0       0       0       0       0       0       0       0       0       
      +0       0       0       0
  4668 ;;Total ram usage:        0 bytes
  4669 ;; Hardware stack levels used: 1
  4670 ;; Hardware stack levels required when called: 1
  4671 ;; This function calls:
  4672 ;;		_I2C1_MasterStartRx
  4673 ;; This function is called by:
  4674 ;;		_I2C1_MasterFsm
  4675 ;; This function uses a non-reentrant model
  4676 ;;
  4677                           
  4678                           	psect	text42
  4679  0021CC                     __ptext42:
  4680                           	callstack 0
  4681  0021CC                     _I2C1_DO_RCEN:
  4682                           	callstack 17
  4683  0021CC                     
  4684                           ;mcc_generated_files/i2c1_master.c: 406:     I2C1_Status.addressNackCheck = 0;
  4685  0021CC  0100               	movlb	0	; () banked
  4686  0021CE  9183               	bcf	(_I2C1_Status+35)& (0+255),0,b
  4687  0021D0                     
  4688                           ; BSR set to: 0
  4689                           ;mcc_generated_files/i2c1_master.c: 407:     I2C1_MasterStartRx();
  4690  0021D0  EC49  F011         	call	_I2C1_MasterStartRx	;wreg free
  4691  0021D4                     
  4692                           ;mcc_generated_files/i2c1_master.c: 408:     return I2C1_RX;
  4693  0021D4  0E04               	movlw	4
  4694  0021D6  0012               	return		;funcret
  4695  0021D8                     __end_of_I2C1_DO_RCEN:
  4696                           	callstack 0
  4697                           
  4698 ;; *************** function _I2C1_DO_RX *****************
  4699 ;; Defined at:
  4700 ;;		line 380 in file "mcc_generated_files/i2c1_master.c"
  4701 ;; Parameters:    Size  Location     Type
  4702 ;;		None
  4703 ;; Auto vars:     Size  Location     Type
  4704 ;;		None
  4705 ;; Return value:  Size  Location     Type
  4706 ;;                  1    wreg      enum E6655
  4707 ;; Registers used:
  4708 ;;		wreg, fsr2l, fsr2h, status,2, status,0, pcl, pclath, pclatu, tosl, prodl, prodh, cstack
  4709 ;; Tracked objects:
  4710 ;;		On entry : 0/0
  4711 ;;		On exit  : 0/0
  4712 ;;		Unchanged: 0/0
  4713 ;; Data sizes:     COMRAM   BANK0   BANK1   BANK2   BANK3   BANK4   BANK5   BANK6   BANK7   BANK8   BANK9  BANK10  BANK1
      +1  BANK12  BANK13  BANK14
  4714 ;;      Params:         0       0       0       0       0       0       0       0       0       0       0       0       
      +0       0       0       0
  4715 ;;      Locals:         0       0       0       0       0       0       0       0       0       0       0       0       
      +0       0       0       0
  4716 ;;      Temps:          2       0       0       0       0       0       0       0       0       0       0       0       
      +0       0       0       0
  4717 ;;      Totals:         2       0       0       0       0       0       0       0       0       0       0       0       
      +0       0       0       0
  4718 ;;Total ram usage:        2 bytes
  4719 ;; Hardware stack levels used: 1
  4720 ;; Hardware stack levels required when called: 3
  4721 ;; This function calls:
  4722 ;;		Absolute function
  4723 ;;		_I2C1_CallbackReturnReset
  4724 ;;		_I2C1_CallbackReturnStop
  4725 ;;		_I2C1_DO_RX_NACK_RESTART
  4726 ;;		_I2C1_DO_RX_NACK_STOP
  4727 ;;		_I2C1_MasterGetRxData
  4728 ;;		_I2C1_MasterSendAck
  4729 ;;		_rd1RegCompleteHandler
  4730 ;;		_rd2RegCompleteHandler
  4731 ;;		_rdBlkRegCompleteHandler
  4732 ;;		_wr1RegCompleteHandler
  4733 ;;		_wr2RegCompleteHandler
  4734 ;; This function is called by:
  4735 ;;		_I2C1_MasterFsm
  4736 ;; This function uses a non-reentrant model
  4737 ;;
  4738                           
  4739                           	psect	text43
  4740  00190C                     __ptext43:
  4741                           	callstack 0
  4742  00190C                     _I2C1_DO_RX:
  4743                           	callstack 15
  4744  00190C                     
  4745                           ;mcc_generated_files/i2c1_master.c: 382:     *I2C1_Status.data_ptr++ = I2C1_MasterGetRxD
      +                          ata();
  4746  00190C  EC47  F011         	call	_I2C1_MasterGetRxData	;wreg free
  4747  001910  C07D  FFD9         	movff	_I2C1_Status+29,fsr2l
  4748  001914  C07E  FFDA         	movff	_I2C1_Status+30,fsr2h
  4749  001918  6EDF               	movwf	indf2,c
  4750  00191A  0100               	movlb	0	; () banked
  4751  00191C  4B7D               	infsnz	(_I2C1_Status+29)& (0+255),f,b
  4752  00191E  2B7E               	incf	(_I2C1_Status+30)& (0+255),f,b
  4753  001920                     
  4754                           ; BSR set to: 0
  4755                           ;mcc_generated_files/i2c1_master.c: 383:     if(--I2C1_Status.data_length)
  4756  001920  077F               	decf	(_I2C1_Status+31)& (0+255),f,b
  4757  001922  A0D8               	btfss	status,0,c
  4758  001924  0780               	decf	(_I2C1_Status+32)& (0+255),f,b
  4759  001926  517F               	movf	(_I2C1_Status+31)& (0+255),w,b
  4760  001928  1180               	iorwf	(_I2C1_Status+32)& (0+255),w,b
  4761  00192A  B4D8               	btfsc	status,2,c
  4762  00192C  EF9A  F00C         	goto	i2u160_41
  4763  001930  EF9C  F00C         	goto	i2u160_40
  4764  001934                     i2u160_41:
  4765  001934  EFA1  F00C         	goto	i2l480
  4766  001938                     i2u160_40:
  4767  001938                     
  4768                           ; BSR set to: 0
  4769                           ;mcc_generated_files/i2c1_master.c: 384:     {;mcc_generated_files/i2c1_master.c: 385:  
      +                                 I2C1_MasterSendAck();
  4770  001938  EC33  F011         	call	_I2C1_MasterSendAck	;wreg free
  4771  00193C                     
  4772                           ;mcc_generated_files/i2c1_master.c: 386:         return I2C1_RCEN;
  4773  00193C  0E05               	movlw	5
  4774  00193E  EFD9  F00C         	goto	i2l481
  4775  001942                     i2l480:
  4776                           
  4777                           ; BSR set to: 0
  4778                           ;mcc_generated_files/i2c1_master.c: 389:     {;mcc_generated_files/i2c1_master.c: 390:  
      +                                 I2C1_Status.bufferFree = 1;
  4779  001942  8783               	bsf	(_I2C1_Status+35)& (0+255),3,b
  4780                           
  4781                           ;mcc_generated_files/i2c1_master.c: 391:         switch(I2C1_Status.callbackTable[I2C1_D
      +                          ATA_COMPLETE](I2C1_Status.callbackPayload[I2C1_DATA_COMPLETE]))
  4782  001944  EFAC  F00C         	goto	i2l3298
  4783  001948                     i2l3288:
  4784                           
  4785                           ;mcc_generated_files/i2c1_master.c: 395:                 return I2C1_DO_RX_NACK_RESTART(
      +                          );
  4786  001948  EC10  F011         	call	_I2C1_DO_RX_NACK_RESTART	;wreg free
  4787  00194C  EFD9  F00C         	goto	i2l481
  4788  001950                     i2l3292:
  4789                           
  4790                           ;mcc_generated_files/i2c1_master.c: 399:                 return I2C1_DO_RX_NACK_STOP();
  4791  001950  EC14  F011         	call	_I2C1_DO_RX_NACK_STOP	;wreg free
  4792  001954  EFD9  F00C         	goto	i2l481
  4793  001958                     i2l3298:
  4794                           
  4795                           ; BSR set to: 0
  4796  001958  C06C  F00A         	movff	_I2C1_Status+12,I2C1_CallbackReturnReset@funPtr
  4797  00195C  C06D  F00B         	movff	_I2C1_Status+13,I2C1_CallbackReturnReset@funPtr+1
  4798  001960  D802               	call	i2u161_48
  4799  001962  EFBD  F00C         	goto	i2u161_49
  4800  001966                     i2u161_48:
  4801  001966  0005               	push	
  4802  001968  6EFA               	movwf	pclath,c
  4803  00196A  5160               	movf	_I2C1_Status& (0+255),w,b
  4804  00196C  6EFD               	movwf	tosl,c
  4805  00196E  5161               	movf	(_I2C1_Status+1)& (0+255),w,b
  4806  001970  6EFE               	movwf	tosh,c
  4807  001972  50F8               	movf	tblptru,w,c
  4808  001974  6EFF               	movwf	tosu,c
  4809  001976  50FA               	movf	pclath,w,c
  4810  001978  0012               	return		;indir
  4811  00197A                     i2u161_49:
  4812  00197A  6E0C               	movwf	??_I2C1_DO_RX^0,c
  4813  00197C  6A0D               	clrf	(??_I2C1_DO_RX+1)^0,c
  4814                           
  4815                           ; Switch on 2 bytes has been partitioned into a top level switch of size 1, and 1 sub-sw
      +                          itches
  4816                           ; Switch size 1, requested type "simple"
  4817                           ; Number of cases is 1, Range of values is 0 to 0
  4818                           ; switch strategies available:
  4819                           ; Name         Instructions Cycles
  4820                           ; simple_byte            4     3 (average)
  4821                           ;	Chosen strategy is simple_byte
  4822  00197E  500D               	movf	(??_I2C1_DO_RX+1)^0,w,c
  4823  001980  0A00               	xorlw	0	; case 0
  4824  001982  B4D8               	btfsc	status,2,c
  4825  001984  EFC6  F00C         	goto	i2l4438
  4826  001988  EFA8  F00C         	goto	i2l3292
  4827  00198C                     i2l4438:
  4828                           
  4829                           ; Switch size 1, requested type "simple"
  4830                           ; Number of cases is 4, Range of values is 1 to 4
  4831                           ; switch strategies available:
  4832                           ; Name         Instructions Cycles
  4833                           ; simple_byte           13     7 (average)
  4834                           ;	Chosen strategy is simple_byte
  4835  00198C  500C               	movf	??_I2C1_DO_RX^0,w,c
  4836  00198E  0A01               	xorlw	1	; case 1
  4837  001990  B4D8               	btfsc	status,2,c
  4838  001992  EFA8  F00C         	goto	i2l3292
  4839  001996  0A03               	xorlw	3	; case 2
  4840  001998  B4D8               	btfsc	status,2,c
  4841  00199A  EFA4  F00C         	goto	i2l3288
  4842  00199E  0A01               	xorlw	1	; case 3
  4843  0019A0  B4D8               	btfsc	status,2,c
  4844  0019A2  EFA4  F00C         	goto	i2l3288
  4845  0019A6  0A07               	xorlw	7	; case 4
  4846  0019A8  B4D8               	btfsc	status,2,c
  4847  0019AA  EFA8  F00C         	goto	i2l3292
  4848  0019AE  EFA8  F00C         	goto	i2l3292
  4849  0019B2                     i2l481:
  4850  0019B2  0012               	return		;funcret
  4851  0019B4                     __end_of_I2C1_DO_RX:
  4852                           	callstack 0
  4853                           
  4854 ;; *************** function _I2C1_DO_TX *****************
  4855 ;; Defined at:
  4856 ;;		line 356 in file "mcc_generated_files/i2c1_master.c"
  4857 ;; Parameters:    Size  Location     Type
  4858 ;;		None
  4859 ;; Auto vars:     Size  Location     Type
  4860 ;;		None
  4861 ;; Return value:  Size  Location     Type
  4862 ;;                  1    wreg      enum E6655
  4863 ;; Registers used:
  4864 ;;		wreg, fsr2l, fsr2h, status,2, status,0, pcl, pclath, pclatu, tosl, prodl, prodh, cstack
  4865 ;; Tracked objects:
  4866 ;;		On entry : 0/0
  4867 ;;		On exit  : 0/0
  4868 ;;		Unchanged: 0/0
  4869 ;; Data sizes:     COMRAM   BANK0   BANK1   BANK2   BANK3   BANK4   BANK5   BANK6   BANK7   BANK8   BANK9  BANK10  BANK1
      +1  BANK12  BANK13  BANK14
  4870 ;;      Params:         0       0       0       0       0       0       0       0       0       0       0       0       
      +0       0       0       0
  4871 ;;      Locals:         0       0       0       0       0       0       0       0       0       0       0       0       
      +0       0       0       0
  4872 ;;      Temps:          2       0       0       0       0       0       0       0       0       0       0       0       
      +0       0       0       0
  4873 ;;      Totals:         2       0       0       0       0       0       0       0       0       0       0       0       
      +0       0       0       0
  4874 ;;Total ram usage:        2 bytes
  4875 ;; Hardware stack levels used: 1
  4876 ;; Hardware stack levels required when called: 3
  4877 ;; This function calls:
  4878 ;;		Absolute function
  4879 ;;		_I2C1_CallbackReturnReset
  4880 ;;		_I2C1_CallbackReturnStop
  4881 ;;		_I2C1_DO_SEND_RESTART_READ
  4882 ;;		_I2C1_DO_SEND_RESTART_WRITE
  4883 ;;		_I2C1_DO_SEND_STOP
  4884 ;;		_I2C1_MasterIsNack
  4885 ;;		_I2C1_MasterSendTxData
  4886 ;;		_rd1RegCompleteHandler
  4887 ;;		_rd2RegCompleteHandler
  4888 ;;		_rdBlkRegCompleteHandler
  4889 ;;		_wr1RegCompleteHandler
  4890 ;;		_wr2RegCompleteHandler
  4891 ;; This function is called by:
  4892 ;;		_I2C1_MasterFsm
  4893 ;; This function uses a non-reentrant model
  4894 ;;
  4895                           
  4896                           	psect	text44
  4897  001782                     __ptext44:
  4898                           	callstack 0
  4899  001782                     _I2C1_DO_TX:
  4900                           	callstack 15
  4901  001782                     
  4902                           ;mcc_generated_files/i2c1_master.c: 358:     if(I2C1_MasterIsNack())
  4903  001782  ECBE  F010         	call	_I2C1_MasterIsNack	;wreg free
  4904  001786  0900               	iorlw	0
  4905  001788  B4D8               	btfsc	status,2,c
  4906  00178A  EFC9  F00B         	goto	i2u157_41
  4907  00178E  EFCB  F00B         	goto	i2u157_40
  4908  001792                     i2u157_41:
  4909  001792  EF08  F00C         	goto	i2l464
  4910  001796                     i2u157_40:
  4911  001796  EFD9  F00B         	goto	i2l3258
  4912  00179A                     i2l3244:
  4913                           
  4914                           ;mcc_generated_files/i2c1_master.c: 363:                 return I2C1_DO_SEND_RESTART_REA
      +                          D();
  4915  00179A  EC28  F011         	call	_I2C1_DO_SEND_RESTART_READ	;wreg free
  4916  00179E  EF24  F00C         	goto	i2l467
  4917  0017A2                     i2l3248:
  4918                           
  4919                           ;mcc_generated_files/i2c1_master.c: 365:                   return I2C1_DO_SEND_RESTART_W
      +                          RITE();
  4920  0017A2  EC24  F011         	call	_I2C1_DO_SEND_RESTART_WRITE	;wreg free
  4921  0017A6  EF24  F00C         	goto	i2l467
  4922  0017AA                     i2l3252:
  4923                           
  4924                           ;mcc_generated_files/i2c1_master.c: 369:                 return I2C1_DO_SEND_STOP();
  4925  0017AA  EC1C  F011         	call	_I2C1_DO_SEND_STOP	;wreg free
  4926  0017AE  EF24  F00C         	goto	i2l467
  4927  0017B2                     i2l3258:
  4928  0017B2  C072  F00A         	movff	_I2C1_Status+18,I2C1_CallbackReturnReset@funPtr
  4929  0017B6  C073  F00B         	movff	_I2C1_Status+19,I2C1_CallbackReturnReset@funPtr+1
  4930  0017BA  EE20  F066         	lfsr	2,_I2C1_Status+6
  4931  0017BE  D802               	call	i2u158_48
  4932  0017C0  EFEC  F00B         	goto	i2u158_49
  4933  0017C4                     i2u158_48:
  4934  0017C4  0005               	push	
  4935  0017C6  6EFA               	movwf	pclath,c
  4936  0017C8  50DE               	movf	postinc2,w,c
  4937  0017CA  6EFD               	movwf	tosl,c
  4938  0017CC  50DE               	movf	postinc2,w,c
  4939  0017CE  6EFE               	movwf	tosh,c
  4940  0017D0  50F8               	movf	tblptru,w,c
  4941  0017D2  6EFF               	movwf	tosu,c
  4942  0017D4  50FA               	movf	pclath,w,c
  4943  0017D6  0012               	return		;indir
  4944  0017D8                     i2u158_49:
  4945  0017D8  6E0C               	movwf	??_I2C1_DO_TX^0,c
  4946  0017DA  6A0D               	clrf	(??_I2C1_DO_TX+1)^0,c
  4947                           
  4948                           ; Switch on 2 bytes has been partitioned into a top level switch of size 1, and 1 sub-sw
      +                          itches
  4949                           ; Switch size 1, requested type "simple"
  4950                           ; Number of cases is 1, Range of values is 0 to 0
  4951                           ; switch strategies available:
  4952                           ; Name         Instructions Cycles
  4953                           ; simple_byte            4     3 (average)
  4954                           ;	Chosen strategy is simple_byte
  4955  0017DC  500D               	movf	(??_I2C1_DO_TX+1)^0,w,c
  4956  0017DE  0A00               	xorlw	0	; case 0
  4957  0017E0  B4D8               	btfsc	status,2,c
  4958  0017E2  EFF5  F00B         	goto	i2l4440
  4959  0017E6  EFD5  F00B         	goto	i2l3252
  4960  0017EA                     i2l4440:
  4961                           
  4962                           ; Switch size 1, requested type "simple"
  4963                           ; Number of cases is 4, Range of values is 1 to 4
  4964                           ; switch strategies available:
  4965                           ; Name         Instructions Cycles
  4966                           ; simple_byte           13     7 (average)
  4967                           ;	Chosen strategy is simple_byte
  4968  0017EA  500C               	movf	??_I2C1_DO_TX^0,w,c
  4969  0017EC  0A01               	xorlw	1	; case 1
  4970  0017EE  B4D8               	btfsc	status,2,c
  4971  0017F0  EFD5  F00B         	goto	i2l3252
  4972  0017F4  0A03               	xorlw	3	; case 2
  4973  0017F6  B4D8               	btfsc	status,2,c
  4974  0017F8  EFCD  F00B         	goto	i2l3244
  4975  0017FC  0A01               	xorlw	1	; case 3
  4976  0017FE  B4D8               	btfsc	status,2,c
  4977  001800  EFD1  F00B         	goto	i2l3248
  4978  001804  0A07               	xorlw	7	; case 4
  4979  001806  B4D8               	btfsc	status,2,c
  4980  001808  EFD5  F00B         	goto	i2l3252
  4981  00180C  EFD5  F00B         	goto	i2l3252
  4982  001810                     i2l464:
  4983                           
  4984                           ;mcc_generated_files/i2c1_master.c: 373:     {;mcc_generated_files/i2c1_master.c: 374:  
      +                                 I2C1_Status.addressNackCheck = 0;
  4985  001810  0100               	movlb	0	; () banked
  4986  001812  9183               	bcf	(_I2C1_Status+35)& (0+255),0,b
  4987  001814                     
  4988                           ; BSR set to: 0
  4989                           ;mcc_generated_files/i2c1_master.c: 375:         I2C1_MasterSendTxData(*I2C1_Status.data
      +                          _ptr++);
  4990  001814  C07D  FFD9         	movff	_I2C1_Status+29,fsr2l
  4991  001818  C07E  FFDA         	movff	_I2C1_Status+30,fsr2h
  4992  00181C  4B7D               	infsnz	(_I2C1_Status+29)& (0+255),f,b
  4993  00181E  2B7E               	incf	(_I2C1_Status+30)& (0+255),f,b
  4994  001820  50DF               	movf	indf2,w,c
  4995  001822  EC2C  F011         	call	_I2C1_MasterSendTxData
  4996  001826                     
  4997                           ;mcc_generated_files/i2c1_master.c: 376:         return (--I2C1_Status.data_length)?I2C1
      +                          _TX:I2C1_TX_EMPTY;
  4998  001826  0100               	movlb	0	; () banked
  4999  001828  077F               	decf	(_I2C1_Status+31)& (0+255),f,b
  5000  00182A  A0D8               	btfss	status,0,c
  5001  00182C  0780               	decf	(_I2C1_Status+32)& (0+255),f,b
  5002  00182E  517F               	movf	(_I2C1_Status+31)& (0+255),w,b
  5003  001830  1180               	iorwf	(_I2C1_Status+32)& (0+255),w,b
  5004  001832  A4D8               	btfss	status,2,c
  5005  001834  EF1E  F00C         	goto	i2u159_41
  5006  001838  EF20  F00C         	goto	i2u159_40
  5007  00183C                     i2u159_41:
  5008  00183C  EF23  F00C         	goto	i2l3266
  5009  001840                     i2u159_40:
  5010  001840                     
  5011                           ; BSR set to: 0
  5012  001840  0E06               	movlw	6
  5013  001842  EF24  F00C         	goto	i2l467
  5014  001846                     i2l3266:
  5015                           
  5016                           ; BSR set to: 0
  5017  001846  0E03               	movlw	3
  5018  001848                     i2l467:
  5019  001848  0012               	return		;funcret
  5020  00184A                     __end_of_I2C1_DO_TX:
  5021                           	callstack 0
  5022                           
  5023 ;; *************** function _I2C1_DO_SEND_ADR_WRITE *****************
  5024 ;; Defined at:
  5025 ;;		line 349 in file "mcc_generated_files/i2c1_master.c"
  5026 ;; Parameters:    Size  Location     Type
  5027 ;;		None
  5028 ;; Auto vars:     Size  Location     Type
  5029 ;;		None
  5030 ;; Return value:  Size  Location     Type
  5031 ;;                  1    wreg      enum E6655
  5032 ;; Registers used:
  5033 ;;		wreg, status,2, status,0, cstack
  5034 ;; Tracked objects:
  5035 ;;		On entry : 0/0
  5036 ;;		On exit  : 0/0
  5037 ;;		Unchanged: 0/0
  5038 ;; Data sizes:     COMRAM   BANK0   BANK1   BANK2   BANK3   BANK4   BANK5   BANK6   BANK7   BANK8   BANK9  BANK10  BANK1
      +1  BANK12  BANK13  BANK14
  5039 ;;      Params:         0       0       0       0       0       0       0       0       0       0       0       0       
      +0       0       0       0
  5040 ;;      Locals:         0       0       0       0       0       0       0       0       0       0       0       0       
      +0       0       0       0
  5041 ;;      Temps:          0       0       0       0       0       0       0       0       0       0       0       0       
      +0       0       0       0
  5042 ;;      Totals:         0       0       0       0       0       0       0       0       0       0       0       0       
      +0       0       0       0
  5043 ;;Total ram usage:        0 bytes
  5044 ;; Hardware stack levels used: 1
  5045 ;; Hardware stack levels required when called: 1
  5046 ;; This function calls:
  5047 ;;		_I2C1_MasterSendTxData
  5048 ;; This function is called by:
  5049 ;;		_I2C1_MasterFsm
  5050 ;; This function uses a non-reentrant model
  5051 ;;
  5052                           
  5053                           	psect	text45
  5054  0021A0                     __ptext45:
  5055                           	callstack 0
  5056  0021A0                     _I2C1_DO_SEND_ADR_WRITE:
  5057                           	callstack 17
  5058  0021A0                     
  5059                           ;mcc_generated_files/i2c1_master.c: 351:     I2C1_Status.addressNackCheck = 1;
  5060  0021A0  0100               	movlb	0	; () banked
  5061  0021A2  8183               	bsf	(_I2C1_Status+35)& (0+255),0,b
  5062  0021A4                     
  5063                           ; BSR set to: 0
  5064                           ;mcc_generated_files/i2c1_master.c: 352:     I2C1_MasterSendTxData((uint8_t) (I2C1_Statu
      +                          s.address << 1));
  5065  0021A4  517C               	movf	(_I2C1_Status+28)& (0+255),w,b
  5066  0021A6  257C               	addwf	(_I2C1_Status+28)& (0+255),w,b
  5067  0021A8  EC2C  F011         	call	_I2C1_MasterSendTxData
  5068  0021AC                     
  5069                           ;mcc_generated_files/i2c1_master.c: 353:     return I2C1_TX;
  5070  0021AC  0E03               	movlw	3
  5071  0021AE  0012               	return		;funcret
  5072  0021B0                     __end_of_I2C1_DO_SEND_ADR_WRITE:
  5073                           	callstack 0
  5074                           
  5075 ;; *************** function _I2C1_DO_SEND_ADR_READ *****************
  5076 ;; Defined at:
  5077 ;;		line 342 in file "mcc_generated_files/i2c1_master.c"
  5078 ;; Parameters:    Size  Location     Type
  5079 ;;		None
  5080 ;; Auto vars:     Size  Location     Type
  5081 ;;		None
  5082 ;; Return value:  Size  Location     Type
  5083 ;;                  1    wreg      enum E6655
  5084 ;; Registers used:
  5085 ;;		wreg, status,0, cstack
  5086 ;; Tracked objects:
  5087 ;;		On entry : 0/0
  5088 ;;		On exit  : 0/0
  5089 ;;		Unchanged: 0/0
  5090 ;; Data sizes:     COMRAM   BANK0   BANK1   BANK2   BANK3   BANK4   BANK5   BANK6   BANK7   BANK8   BANK9  BANK10  BANK1
      +1  BANK12  BANK13  BANK14
  5091 ;;      Params:         0       0       0       0       0       0       0       0       0       0       0       0       
      +0       0       0       0
  5092 ;;      Locals:         0       0       0       0       0       0       0       0       0       0       0       0       
      +0       0       0       0
  5093 ;;      Temps:          0       0       0       0       0       0       0       0       0       0       0       0       
      +0       0       0       0
  5094 ;;      Totals:         0       0       0       0       0       0       0       0       0       0       0       0       
      +0       0       0       0
  5095 ;;Total ram usage:        0 bytes
  5096 ;; Hardware stack levels used: 1
  5097 ;; Hardware stack levels required when called: 1
  5098 ;; This function calls:
  5099 ;;		_I2C1_MasterSendTxData
  5100 ;; This function is called by:
  5101 ;;		_I2C1_MasterFsm
  5102 ;; This function uses a non-reentrant model
  5103 ;;
  5104                           
  5105                           	psect	text46
  5106  0021B0                     __ptext46:
  5107                           	callstack 0
  5108  0021B0                     _I2C1_DO_SEND_ADR_READ:
  5109                           	callstack 17
  5110  0021B0                     
  5111                           ;mcc_generated_files/i2c1_master.c: 344:     I2C1_Status.addressNackCheck = 1;
  5112  0021B0  0100               	movlb	0	; () banked
  5113  0021B2  8183               	bsf	(_I2C1_Status+35)& (0+255),0,b
  5114  0021B4                     
  5115                           ; BSR set to: 0
  5116                           ;mcc_generated_files/i2c1_master.c: 345:     I2C1_MasterSendTxData((uint8_t) (I2C1_Statu
      +                          s.address << 1 | 1));
  5117  0021B4  80D8               	bsf	status,0,c
  5118  0021B6  357C               	rlcf	(_I2C1_Status+28)& (0+255),w,b
  5119  0021B8  EC2C  F011         	call	_I2C1_MasterSendTxData
  5120  0021BC                     
  5121                           ;mcc_generated_files/i2c1_master.c: 346:     return I2C1_RCEN;
  5122  0021BC  0E05               	movlw	5
  5123  0021BE  0012               	return		;funcret
  5124  0021C0                     __end_of_I2C1_DO_SEND_ADR_READ:
  5125                           	callstack 0
  5126                           
  5127 ;; *************** function _I2C1_DO_IDLE *****************
  5128 ;; Defined at:
  5129 ;;		line 335 in file "mcc_generated_files/i2c1_master.c"
  5130 ;; Parameters:    Size  Location     Type
  5131 ;;		None
  5132 ;; Auto vars:     Size  Location     Type
  5133 ;;		None
  5134 ;; Return value:  Size  Location     Type
  5135 ;;                  1    wreg      enum E6655
  5136 ;; Registers used:
  5137 ;;		wreg, status,2
  5138 ;; Tracked objects:
  5139 ;;		On entry : 0/0
  5140 ;;		On exit  : 0/0
  5141 ;;		Unchanged: 0/0
  5142 ;; Data sizes:     COMRAM   BANK0   BANK1   BANK2   BANK3   BANK4   BANK5   BANK6   BANK7   BANK8   BANK9  BANK10  BANK1
      +1  BANK12  BANK13  BANK14
  5143 ;;      Params:         0       0       0       0       0       0       0       0       0       0       0       0       
      +0       0       0       0
  5144 ;;      Locals:         0       0       0       0       0       0       0       0       0       0       0       0       
      +0       0       0       0
  5145 ;;      Temps:          0       0       0       0       0       0       0       0       0       0       0       0       
      +0       0       0       0
  5146 ;;      Totals:         0       0       0       0       0       0       0       0       0       0       0       0       
      +0       0       0       0
  5147 ;;Total ram usage:        0 bytes
  5148 ;; Hardware stack levels used: 1
  5149 ;; This function calls:
  5150 ;;		Nothing
  5151 ;; This function is called by:
  5152 ;;		_I2C1_MasterFsm
  5153 ;; This function uses a non-reentrant model
  5154 ;;
  5155                           
  5156                           	psect	text47
  5157  0021D8                     __ptext47:
  5158                           	callstack 0
  5159  0021D8                     _I2C1_DO_IDLE:
  5160                           	callstack 18
  5161  0021D8                     
  5162                           ;mcc_generated_files/i2c1_master.c: 337:     I2C1_Status.busy = 0;
  5163  0021D8  0100               	movlb	0	; () banked
  5164  0021DA  9383               	bcf	(_I2C1_Status+35)& (0+255),1,b
  5165  0021DC                     
  5166                           ; BSR set to: 0
  5167                           ;mcc_generated_files/i2c1_master.c: 338:     I2C1_Status.error = I2C1_NOERR;
  5168  0021DC  0E00               	movlw	0
  5169  0021DE  6F82               	movwf	(_I2C1_Status+34)& (0+255),b
  5170  0021E0                     
  5171                           ; BSR set to: 0
  5172                           ;mcc_generated_files/i2c1_master.c: 339:     return I2C1_RESET;
  5173  0021E0  0E0E               	movlw	14
  5174  0021E2                     
  5175                           ; BSR set to: 0
  5176  0021E2  0012               	return		;funcret
  5177  0021E4                     __end_of_I2C1_DO_IDLE:
  5178                           	callstack 0
  5179                           
  5180 ;; *************** function _I2C1_DO_TX_EMPTY *****************
  5181 ;; Defined at:
  5182 ;;		line 411 in file "mcc_generated_files/i2c1_master.c"
  5183 ;; Parameters:    Size  Location     Type
  5184 ;;		None
  5185 ;; Auto vars:     Size  Location     Type
  5186 ;;		None
  5187 ;; Return value:  Size  Location     Type
  5188 ;;                  1    wreg      enum E6655
  5189 ;; Registers used:
  5190 ;;		wreg, fsr2l, fsr2h, status,2, status,0, pcl, pclath, pclatu, tosl, prodl, prodh, cstack
  5191 ;; Tracked objects:
  5192 ;;		On entry : 0/0
  5193 ;;		On exit  : 0/0
  5194 ;;		Unchanged: 0/0
  5195 ;; Data sizes:     COMRAM   BANK0   BANK1   BANK2   BANK3   BANK4   BANK5   BANK6   BANK7   BANK8   BANK9  BANK10  BANK1
      +1  BANK12  BANK13  BANK14
  5196 ;;      Params:         0       0       0       0       0       0       0       0       0       0       0       0       
      +0       0       0       0
  5197 ;;      Locals:         0       0       0       0       0       0       0       0       0       0       0       0       
      +0       0       0       0
  5198 ;;      Temps:          2       0       0       0       0       0       0       0       0       0       0       0       
      +0       0       0       0
  5199 ;;      Totals:         2       0       0       0       0       0       0       0       0       0       0       0       
      +0       0       0       0
  5200 ;;Total ram usage:        2 bytes
  5201 ;; Hardware stack levels used: 1
  5202 ;; Hardware stack levels required when called: 3
  5203 ;; This function calls:
  5204 ;;		Absolute function
  5205 ;;		_I2C1_CallbackReturnReset
  5206 ;;		_I2C1_CallbackReturnStop
  5207 ;;		_I2C1_DO_SEND_RESTART
  5208 ;;		_I2C1_DO_SEND_STOP
  5209 ;;		_I2C1_MasterSetIrq
  5210 ;;		_rd1RegCompleteHandler
  5211 ;;		_rd2RegCompleteHandler
  5212 ;;		_rdBlkRegCompleteHandler
  5213 ;;		_wr1RegCompleteHandler
  5214 ;;		_wr2RegCompleteHandler
  5215 ;; This function is called by:
  5216 ;;		_I2C1_MasterFsm
  5217 ;; This function uses a non-reentrant model
  5218 ;;
  5219                           
  5220                           	psect	text48
  5221  001A4A                     __ptext48:
  5222                           	callstack 0
  5223  001A4A                     _I2C1_DO_TX_EMPTY:
  5224                           	callstack 15
  5225  001A4A                     
  5226                           ;mcc_generated_files/i2c1_master.c: 413:     I2C1_Status.bufferFree = 1;
  5227  001A4A  0100               	movlb	0	; () banked
  5228  001A4C  8783               	bsf	(_I2C1_Status+35)& (0+255),3,b
  5229                           
  5230                           ;mcc_generated_files/i2c1_master.c: 414:     switch(I2C1_Status.callbackTable[I2C1_DATA_
      +                          COMPLETE](I2C1_Status.callbackPayload[I2C1_DATA_COMPLETE]))
  5231  001A4E  EF36  F00D         	goto	i2l3330
  5232  001A52                     i2l3314:
  5233                           
  5234                           ;mcc_generated_files/i2c1_master.c: 418:             return I2C1_DO_SEND_RESTART();
  5235  001A52  EC20  F011         	call	_I2C1_DO_SEND_RESTART	;wreg free
  5236  001A56  EF63  F00D         	goto	i2l498
  5237  001A5A                     i2l3318:
  5238                           
  5239                           ;mcc_generated_files/i2c1_master.c: 420:             I2C1_MasterSetIrq();
  5240  001A5A  EC45  F011         	call	_I2C1_MasterSetIrq	;wreg free
  5241  001A5E                     
  5242                           ;mcc_generated_files/i2c1_master.c: 421:             return I2C1_TX;
  5243  001A5E  0E03               	movlw	3
  5244  001A60  EF63  F00D         	goto	i2l498
  5245  001A64                     i2l3324:
  5246                           
  5247                           ;mcc_generated_files/i2c1_master.c: 424:             return I2C1_DO_SEND_STOP();
  5248  001A64  EC1C  F011         	call	_I2C1_DO_SEND_STOP	;wreg free
  5249  001A68  EF63  F00D         	goto	i2l498
  5250  001A6C                     i2l3330:
  5251                           
  5252                           ; BSR set to: 0
  5253  001A6C  C06C  F00A         	movff	_I2C1_Status+12,I2C1_CallbackReturnReset@funPtr
  5254  001A70  C06D  F00B         	movff	_I2C1_Status+13,I2C1_CallbackReturnReset@funPtr+1
  5255  001A74  D802               	call	i2u162_48
  5256  001A76  EF47  F00D         	goto	i2u162_49
  5257  001A7A                     i2u162_48:
  5258  001A7A  0005               	push	
  5259  001A7C  6EFA               	movwf	pclath,c
  5260  001A7E  5160               	movf	_I2C1_Status& (0+255),w,b
  5261  001A80  6EFD               	movwf	tosl,c
  5262  001A82  5161               	movf	(_I2C1_Status+1)& (0+255),w,b
  5263  001A84  6EFE               	movwf	tosh,c
  5264  001A86  50F8               	movf	tblptru,w,c
  5265  001A88  6EFF               	movwf	tosu,c
  5266  001A8A  50FA               	movf	pclath,w,c
  5267  001A8C  0012               	return		;indir
  5268  001A8E                     i2u162_49:
  5269  001A8E  6E0C               	movwf	??_I2C1_DO_TX_EMPTY^0,c
  5270  001A90  6A0D               	clrf	(??_I2C1_DO_TX_EMPTY+1)^0,c
  5271                           
  5272                           ; Switch on 2 bytes has been partitioned into a top level switch of size 1, and 1 sub-sw
      +                          itches
  5273                           ; Switch size 1, requested type "simple"
  5274                           ; Number of cases is 1, Range of values is 0 to 0
  5275                           ; switch strategies available:
  5276                           ; Name         Instructions Cycles
  5277                           ; simple_byte            4     3 (average)
  5278                           ;	Chosen strategy is simple_byte
  5279  001A92  500D               	movf	(??_I2C1_DO_TX_EMPTY+1)^0,w,c
  5280  001A94  0A00               	xorlw	0	; case 0
  5281  001A96  B4D8               	btfsc	status,2,c
  5282  001A98  EF50  F00D         	goto	i2l4442
  5283  001A9C  EF32  F00D         	goto	i2l3324
  5284  001AA0                     i2l4442:
  5285                           
  5286                           ; Switch size 1, requested type "simple"
  5287                           ; Number of cases is 4, Range of values is 1 to 4
  5288                           ; switch strategies available:
  5289                           ; Name         Instructions Cycles
  5290                           ; simple_byte           13     7 (average)
  5291                           ;	Chosen strategy is simple_byte
  5292  001AA0  500C               	movf	??_I2C1_DO_TX_EMPTY^0,w,c
  5293  001AA2  0A01               	xorlw	1	; case 1
  5294  001AA4  B4D8               	btfsc	status,2,c
  5295  001AA6  EF32  F00D         	goto	i2l3324
  5296  001AAA  0A03               	xorlw	3	; case 2
  5297  001AAC  B4D8               	btfsc	status,2,c
  5298  001AAE  EF29  F00D         	goto	i2l3314
  5299  001AB2  0A01               	xorlw	1	; case 3
  5300  001AB4  B4D8               	btfsc	status,2,c
  5301  001AB6  EF29  F00D         	goto	i2l3314
  5302  001ABA  0A07               	xorlw	7	; case 4
  5303  001ABC  B4D8               	btfsc	status,2,c
  5304  001ABE  EF2D  F00D         	goto	i2l3318
  5305  001AC2  EF32  F00D         	goto	i2l3324
  5306  001AC6                     i2l498:
  5307  001AC6  0012               	return		;funcret
  5308  001AC8                     __end_of_I2C1_DO_TX_EMPTY:
  5309                           	callstack 0
  5310                           
  5311 ;; *************** function _I2C1_MasterSetIrq *****************
  5312 ;; Defined at:
  5313 ;;		line 647 in file "mcc_generated_files/i2c1_master.c"
  5314 ;; Parameters:    Size  Location     Type
  5315 ;;		None
  5316 ;; Auto vars:     Size  Location     Type
  5317 ;;		None
  5318 ;; Return value:  Size  Location     Type
  5319 ;;                  1    wreg      void 
  5320 ;; Registers used:
  5321 ;;		None
  5322 ;; Tracked objects:
  5323 ;;		On entry : 0/0
  5324 ;;		On exit  : 0/0
  5325 ;;		Unchanged: 0/0
  5326 ;; Data sizes:     COMRAM   BANK0   BANK1   BANK2   BANK3   BANK4   BANK5   BANK6   BANK7   BANK8   BANK9  BANK10  BANK1
      +1  BANK12  BANK13  BANK14
  5327 ;;      Params:         0       0       0       0       0       0       0       0       0       0       0       0       
      +0       0       0       0
  5328 ;;      Locals:         0       0       0       0       0       0       0       0       0       0       0       0       
      +0       0       0       0
  5329 ;;      Temps:          0       0       0       0       0       0       0       0       0       0       0       0       
      +0       0       0       0
  5330 ;;      Totals:         0       0       0       0       0       0       0       0       0       0       0       0       
      +0       0       0       0
  5331 ;;Total ram usage:        0 bytes
  5332 ;; Hardware stack levels used: 1
  5333 ;; This function calls:
  5334 ;;		Nothing
  5335 ;; This function is called by:
  5336 ;;		_I2C1_DO_TX_EMPTY
  5337 ;; This function uses a non-reentrant model
  5338 ;;
  5339                           
  5340                           	psect	text49
  5341  00228A                     __ptext49:
  5342                           	callstack 0
  5343  00228A                     _I2C1_MasterSetIrq:
  5344                           	callstack 17
  5345  00228A                     
  5346                           ;mcc_generated_files/i2c1_master.c: 649:     PIR1bits.SSP1IF = 1;
  5347  00228A  869E               	bsf	158,3,c	;volatile
  5348  00228C  0012               	return		;funcret
  5349  00228E                     __end_of_I2C1_MasterSetIrq:
  5350                           	callstack 0
  5351                           
  5352 ;; *************** function _I2C1_MasterIsNack *****************
  5353 ;; Defined at:
  5354 ;;		line 599 in file "mcc_generated_files/i2c1_master.c"
  5355 ;; Parameters:    Size  Location     Type
  5356 ;;		None
  5357 ;; Auto vars:     Size  Location     Type
  5358 ;;		None
  5359 ;; Return value:  Size  Location     Type
  5360 ;;                  1    wreg      _Bool 
  5361 ;; Registers used:
  5362 ;;		wreg
  5363 ;; Tracked objects:
  5364 ;;		On entry : 0/0
  5365 ;;		On exit  : 0/0
  5366 ;;		Unchanged: 0/0
  5367 ;; Data sizes:     COMRAM   BANK0   BANK1   BANK2   BANK3   BANK4   BANK5   BANK6   BANK7   BANK8   BANK9  BANK10  BANK1
      +1  BANK12  BANK13  BANK14
  5368 ;;      Params:         0       0       0       0       0       0       0       0       0       0       0       0       
      +0       0       0       0
  5369 ;;      Locals:         0       0       0       0       0       0       0       0       0       0       0       0       
      +0       0       0       0
  5370 ;;      Temps:          0       0       0       0       0       0       0       0       0       0       0       0       
      +0       0       0       0
  5371 ;;      Totals:         0       0       0       0       0       0       0       0       0       0       0       0       
      +0       0       0       0
  5372 ;;Total ram usage:        0 bytes
  5373 ;; Hardware stack levels used: 1
  5374 ;; This function calls:
  5375 ;;		Nothing
  5376 ;; This function is called by:
  5377 ;;		_I2C1_MasterFsm
  5378 ;;		_I2C1_DO_TX
  5379 ;; This function uses a non-reentrant model
  5380 ;;
  5381                           
  5382                           	psect	text50
  5383  00217C                     __ptext50:
  5384                           	callstack 0
  5385  00217C                     _I2C1_MasterIsNack:
  5386                           	callstack 18
  5387  00217C                     
  5388                           ;mcc_generated_files/i2c1_master.c: 601:     return SSP1CON2bits.ACKSTAT;
  5389  00217C  BCC5               	btfsc	197,6,c	;volatile
  5390  00217E  EFC3  F010         	goto	i2u140_41
  5391  002182  EFC6  F010         	goto	i2u140_40
  5392  002186                     i2u140_41:
  5393  002186  0E01               	movlw	1
  5394  002188  EFC7  F010         	goto	i2u140_46
  5395  00218C                     i2u140_40:
  5396  00218C  0E00               	movlw	0
  5397  00218E                     i2u140_46:
  5398  00218E  0012               	return		;funcret
  5399  002190                     __end_of_I2C1_MasterIsNack:
  5400                           	callstack 0
  5401                           
  5402 ;; *************** function _I2C1_MasterSendTxData *****************
  5403 ;; Defined at:
  5404 ;;		line 569 in file "mcc_generated_files/i2c1_master.c"
  5405 ;; Parameters:    Size  Location     Type
  5406 ;;  data            1    wreg     unsigned char 
  5407 ;; Auto vars:     Size  Location     Type
  5408 ;;  data            1    0[COMRAM] unsigned char 
  5409 ;; Return value:  Size  Location     Type
  5410 ;;                  1    wreg      void 
  5411 ;; Registers used:
  5412 ;;		wreg
  5413 ;; Tracked objects:
  5414 ;;		On entry : 0/0
  5415 ;;		On exit  : 0/0
  5416 ;;		Unchanged: 0/0
  5417 ;; Data sizes:     COMRAM   BANK0   BANK1   BANK2   BANK3   BANK4   BANK5   BANK6   BANK7   BANK8   BANK9  BANK10  BANK1
      +1  BANK12  BANK13  BANK14
  5418 ;;      Params:         0       0       0       0       0       0       0       0       0       0       0       0       
      +0       0       0       0
  5419 ;;      Locals:         1       0       0       0       0       0       0       0       0       0       0       0       
      +0       0       0       0
  5420 ;;      Temps:          0       0       0       0       0       0       0       0       0       0       0       0       
      +0       0       0       0
  5421 ;;      Totals:         1       0       0       0       0       0       0       0       0       0       0       0       
      +0       0       0       0
  5422 ;;Total ram usage:        1 bytes
  5423 ;; Hardware stack levels used: 1
  5424 ;; This function calls:
  5425 ;;		Nothing
  5426 ;; This function is called by:
  5427 ;;		_I2C1_DO_SEND_ADR_READ
  5428 ;;		_I2C1_DO_SEND_ADR_WRITE
  5429 ;;		_I2C1_DO_TX
  5430 ;; This function uses a non-reentrant model
  5431 ;;
  5432                           
  5433                           	psect	text51
  5434  002258                     __ptext51:
  5435                           	callstack 0
  5436  002258                     _I2C1_MasterSendTxData:
  5437                           	callstack 17
  5438                           
  5439                           ;incstack = 0
  5440                           ;I2C1_MasterSendTxData@data stored from wreg
  5441  002258  6E01               	movwf	I2C1_MasterSendTxData@data^0,c
  5442  00225A                     
  5443                           ;mcc_generated_files/i2c1_master.c: 569: static __attribute__((inline)) void I2C1_Master
      +                          SendTxData(uint8_t data);mcc_generated_files/i2c1_master.c: 570: {;mcc_generated_files/i
      +                          2c1_master.c: 571:     SSP1BUF = data;
  5444  00225A  C001  FFC9         	movff	I2C1_MasterSendTxData@data,4041	;volatile
  5445  00225E  0012               	return		;funcret
  5446  002260                     __end_of_I2C1_MasterSendTxData:
  5447                           	callstack 0
  5448                           
  5449 ;; *************** function _I2C1_MasterSendAck *****************
  5450 ;; Defined at:
  5451 ;;		line 604 in file "mcc_generated_files/i2c1_master.c"
  5452 ;; Parameters:    Size  Location     Type
  5453 ;;		None
  5454 ;; Auto vars:     Size  Location     Type
  5455 ;;		None
  5456 ;; Return value:  Size  Location     Type
  5457 ;;                  1    wreg      void 
  5458 ;; Registers used:
  5459 ;;		None
  5460 ;; Tracked objects:
  5461 ;;		On entry : 0/0
  5462 ;;		On exit  : 0/0
  5463 ;;		Unchanged: 0/0
  5464 ;; Data sizes:     COMRAM   BANK0   BANK1   BANK2   BANK3   BANK4   BANK5   BANK6   BANK7   BANK8   BANK9  BANK10  BANK1
      +1  BANK12  BANK13  BANK14
  5465 ;;      Params:         0       0       0       0       0       0       0       0       0       0       0       0       
      +0       0       0       0
  5466 ;;      Locals:         0       0       0       0       0       0       0       0       0       0       0       0       
      +0       0       0       0
  5467 ;;      Temps:          0       0       0       0       0       0       0       0       0       0       0       0       
      +0       0       0       0
  5468 ;;      Totals:         0       0       0       0       0       0       0       0       0       0       0       0       
      +0       0       0       0
  5469 ;;Total ram usage:        0 bytes
  5470 ;; Hardware stack levels used: 1
  5471 ;; This function calls:
  5472 ;;		Nothing
  5473 ;; This function is called by:
  5474 ;;		_I2C1_DO_RX
  5475 ;;		_I2C1_DO_RX_ACK
  5476 ;; This function uses a non-reentrant model
  5477 ;;
  5478                           
  5479                           	psect	text52
  5480  002266                     __ptext52:
  5481                           	callstack 0
  5482  002266                     _I2C1_MasterSendAck:
  5483                           	callstack 17
  5484  002266                     
  5485                           ;mcc_generated_files/i2c1_master.c: 606:     SSP1CON2bits.ACKDT = 0;
  5486  002266  9AC5               	bcf	197,5,c	;volatile
  5487                           
  5488                           ;mcc_generated_files/i2c1_master.c: 607:     SSP1CON2bits.ACKEN = 1;
  5489  002268  88C5               	bsf	197,4,c	;volatile
  5490  00226A  0012               	return		;funcret
  5491  00226C                     __end_of_I2C1_MasterSendAck:
  5492                           	callstack 0
  5493                           
  5494 ;; *************** function _I2C1_MasterGetRxData *****************
  5495 ;; Defined at:
  5496 ;;		line 564 in file "mcc_generated_files/i2c1_master.c"
  5497 ;; Parameters:    Size  Location     Type
  5498 ;;		None
  5499 ;; Auto vars:     Size  Location     Type
  5500 ;;		None
  5501 ;; Return value:  Size  Location     Type
  5502 ;;                  1    wreg      unsigned char 
  5503 ;; Registers used:
  5504 ;;		wreg, status,2
  5505 ;; Tracked objects:
  5506 ;;		On entry : 0/0
  5507 ;;		On exit  : 0/0
  5508 ;;		Unchanged: 0/0
  5509 ;; Data sizes:     COMRAM   BANK0   BANK1   BANK2   BANK3   BANK4   BANK5   BANK6   BANK7   BANK8   BANK9  BANK10  BANK1
      +1  BANK12  BANK13  BANK14
  5510 ;;      Params:         0       0       0       0       0       0       0       0       0       0       0       0       
      +0       0       0       0
  5511 ;;      Locals:         0       0       0       0       0       0       0       0       0       0       0       0       
      +0       0       0       0
  5512 ;;      Temps:          0       0       0       0       0       0       0       0       0       0       0       0       
      +0       0       0       0
  5513 ;;      Totals:         0       0       0       0       0       0       0       0       0       0       0       0       
      +0       0       0       0
  5514 ;;Total ram usage:        0 bytes
  5515 ;; Hardware stack levels used: 1
  5516 ;; This function calls:
  5517 ;;		Nothing
  5518 ;; This function is called by:
  5519 ;;		_I2C1_DO_RX
  5520 ;; This function uses a non-reentrant model
  5521 ;;
  5522                           
  5523                           	psect	text53
  5524  00228E                     __ptext53:
  5525                           	callstack 0
  5526  00228E                     _I2C1_MasterGetRxData:
  5527                           	callstack 17
  5528  00228E                     
  5529                           ;mcc_generated_files/i2c1_master.c: 566:     return SSP1BUF;
  5530  00228E  50C9               	movf	201,w,c	;volatile
  5531  002290  0012               	return		;funcret
  5532  002292                     __end_of_I2C1_MasterGetRxData:
  5533                           	callstack 0
  5534                           
  5535 ;; *************** function _I2C1_MasterSendNack *****************
  5536 ;; Defined at:
  5537 ;;		line 610 in file "mcc_generated_files/i2c1_master.c"
  5538 ;; Parameters:    Size  Location     Type
  5539 ;;		None
  5540 ;; Auto vars:     Size  Location     Type
  5541 ;;		None
  5542 ;; Return value:  Size  Location     Type
  5543 ;;                  1    wreg      void 
  5544 ;; Registers used:
  5545 ;;		None
  5546 ;; Tracked objects:
  5547 ;;		On entry : 0/0
  5548 ;;		On exit  : 0/0
  5549 ;;		Unchanged: 0/0
  5550 ;; Data sizes:     COMRAM   BANK0   BANK1   BANK2   BANK3   BANK4   BANK5   BANK6   BANK7   BANK8   BANK9  BANK10  BANK1
      +1  BANK12  BANK13  BANK14
  5551 ;;      Params:         0       0       0       0       0       0       0       0       0       0       0       0       
      +0       0       0       0
  5552 ;;      Locals:         0       0       0       0       0       0       0       0       0       0       0       0       
      +0       0       0       0
  5553 ;;      Temps:          0       0       0       0       0       0       0       0       0       0       0       0       
      +0       0       0       0
  5554 ;;      Totals:         0       0       0       0       0       0       0       0       0       0       0       0       
      +0       0       0       0
  5555 ;;Total ram usage:        0 bytes
  5556 ;; Hardware stack levels used: 1
  5557 ;; This function calls:
  5558 ;;		Nothing
  5559 ;; This function is called by:
  5560 ;;		_I2C1_DO_RX_NACK_STOP
  5561 ;;		_I2C1_DO_RX_NACK_RESTART
  5562 ;; This function uses a non-reentrant model
  5563 ;;
  5564                           
  5565                           	psect	text54
  5566  00226C                     __ptext54:
  5567                           	callstack 0
  5568  00226C                     _I2C1_MasterSendNack:
  5569                           	callstack 17
  5570  00226C                     
  5571                           ;mcc_generated_files/i2c1_master.c: 612:     SSP1CON2bits.ACKDT = 1;
  5572  00226C  8AC5               	bsf	197,5,c	;volatile
  5573                           
  5574                           ;mcc_generated_files/i2c1_master.c: 613:     SSP1CON2bits.ACKEN = 1;
  5575  00226E  88C5               	bsf	197,4,c	;volatile
  5576  002270  0012               	return		;funcret
  5577  002272                     __end_of_I2C1_MasterSendNack:
  5578                           	callstack 0
  5579                           
  5580 ;; *************** function _I2C1_MasterStartRx *****************
  5581 ;; Defined at:
  5582 ;;		line 584 in file "mcc_generated_files/i2c1_master.c"
  5583 ;; Parameters:    Size  Location     Type
  5584 ;;		None
  5585 ;; Auto vars:     Size  Location     Type
  5586 ;;		None
  5587 ;; Return value:  Size  Location     Type
  5588 ;;                  1    wreg      void 
  5589 ;; Registers used:
  5590 ;;		None
  5591 ;; Tracked objects:
  5592 ;;		On entry : 0/0
  5593 ;;		On exit  : 0/0
  5594 ;;		Unchanged: 0/0
  5595 ;; Data sizes:     COMRAM   BANK0   BANK1   BANK2   BANK3   BANK4   BANK5   BANK6   BANK7   BANK8   BANK9  BANK10  BANK1
      +1  BANK12  BANK13  BANK14
  5596 ;;      Params:         0       0       0       0       0       0       0       0       0       0       0       0       
      +0       0       0       0
  5597 ;;      Locals:         0       0       0       0       0       0       0       0       0       0       0       0       
      +0       0       0       0
  5598 ;;      Temps:          0       0       0       0       0       0       0       0       0       0       0       0       
      +0       0       0       0
  5599 ;;      Totals:         0       0       0       0       0       0       0       0       0       0       0       0       
      +0       0       0       0
  5600 ;;Total ram usage:        0 bytes
  5601 ;; Hardware stack levels used: 1
  5602 ;; This function calls:
  5603 ;;		Nothing
  5604 ;; This function is called by:
  5605 ;;		_I2C1_DO_RCEN
  5606 ;; This function uses a non-reentrant model
  5607 ;;
  5608                           
  5609                           	psect	text55
  5610  002292                     __ptext55:
  5611                           	callstack 0
  5612  002292                     _I2C1_MasterStartRx:
  5613                           	callstack 17
  5614  002292                     
  5615                           ;mcc_generated_files/i2c1_master.c: 586:     SSP1CON2bits.RCEN = 1;
  5616  002292  86C5               	bsf	197,3,c	;volatile
  5617  002294  0012               	return		;funcret
  5618  002296                     __end_of_I2C1_MasterStartRx:
  5619                           	callstack 0
  5620                           
  5621 ;; *************** function _I2C1_CallbackReturnReset *****************
  5622 ;; Defined at:
  5623 ;;		line 526 in file "mcc_generated_files/i2c1_master.c"
  5624 ;; Parameters:    Size  Location     Type
  5625 ;;  funPtr          2    9[COMRAM] PTR void 
  5626 ;;		 -> I2C1_ReadDataBlock@bufferBlock(4), I2C1_Write2ByteRegister@data(2), I2C1_Write1ByteRegister@data(1), I2C1_Read2B
      +yteRegister@returnValue(2), 
  5627 ;;		 -> NULL(0), I2C1_Read1ByteRegister@returnValue(1), 
  5628 ;; Auto vars:     Size  Location     Type
  5629 ;;		None
  5630 ;; Return value:  Size  Location     Type
  5631 ;;                  1    wreg      enum E360
  5632 ;; Registers used:
  5633 ;;		wreg
  5634 ;; Tracked objects:
  5635 ;;		On entry : 0/0
  5636 ;;		On exit  : 0/0
  5637 ;;		Unchanged: 0/0
  5638 ;; Data sizes:     COMRAM   BANK0   BANK1   BANK2   BANK3   BANK4   BANK5   BANK6   BANK7   BANK8   BANK9  BANK10  BANK1
      +1  BANK12  BANK13  BANK14
  5639 ;;      Params:         2       0       0       0       0       0       0       0       0       0       0       0       
      +0       0       0       0
  5640 ;;      Locals:         0       0       0       0       0       0       0       0       0       0       0       0       
      +0       0       0       0
  5641 ;;      Temps:          0       0       0       0       0       0       0       0       0       0       0       0       
      +0       0       0       0
  5642 ;;      Totals:         2       0       0       0       0       0       0       0       0       0       0       0       
      +0       0       0       0
  5643 ;;Total ram usage:        2 bytes
  5644 ;; Hardware stack levels used: 1
  5645 ;; This function calls:
  5646 ;;		Nothing
  5647 ;; This function is called by:
  5648 ;;		_I2C1_Open
  5649 ;;		_I2C1_DO_TX
  5650 ;;		_I2C1_DO_RX
  5651 ;;		_I2C1_DO_TX_EMPTY
  5652 ;;		_I2C1_DO_ADDRESS_NACK
  5653 ;;		_I2C1_DO_RX_EMPTY
  5654 ;; This function uses a non-reentrant model
  5655 ;;
  5656                           
  5657                           	psect	text56
  5658  002296                     __ptext56:
  5659                           	callstack 0
  5660  002296                     _I2C1_CallbackReturnReset:
  5661                           	callstack 17
  5662  002296                     
  5663                           ;mcc_generated_files/i2c1_master.c: 526: i2c1_operations_t I2C1_CallbackReturnReset(void
      +                           *funPtr);mcc_generated_files/i2c1_master.c: 527: {;mcc_generated_files/i2c1_master.c: 5
      +                          28:     return I2C1_RESET_LINK;
  5664  002296  0E05               	movlw	5
  5665  002298  0012               	return		;funcret
  5666  00229A                     __end_of_I2C1_CallbackReturnReset:
  5667                           	callstack 0
  5668                           
  5669 ;; *************** function _I2C1_CallbackReturnStop *****************
  5670 ;; Defined at:
  5671 ;;		line 521 in file "mcc_generated_files/i2c1_master.c"
  5672 ;; Parameters:    Size  Location     Type
  5673 ;;  funPtr          2    9[COMRAM] PTR void 
  5674 ;;		 -> I2C1_ReadDataBlock@bufferBlock(4), I2C1_Write2ByteRegister@data(2), I2C1_Write1ByteRegister@data(1), I2C1_Read2B
      +yteRegister@returnValue(2), 
  5675 ;;		 -> NULL(0), I2C1_Read1ByteRegister@returnValue(1), 
  5676 ;; Auto vars:     Size  Location     Type
  5677 ;;		None
  5678 ;; Return value:  Size  Location     Type
  5679 ;;                  1    wreg      enum E360
  5680 ;; Registers used:
  5681 ;;		wreg
  5682 ;; Tracked objects:
  5683 ;;		On entry : 0/0
  5684 ;;		On exit  : 0/0
  5685 ;;		Unchanged: 0/0
  5686 ;; Data sizes:     COMRAM   BANK0   BANK1   BANK2   BANK3   BANK4   BANK5   BANK6   BANK7   BANK8   BANK9  BANK10  BANK1
      +1  BANK12  BANK13  BANK14
  5687 ;;      Params:         2       0       0       0       0       0       0       0       0       0       0       0       
      +0       0       0       0
  5688 ;;      Locals:         0       0       0       0       0       0       0       0       0       0       0       0       
      +0       0       0       0
  5689 ;;      Temps:          0       0       0       0       0       0       0       0       0       0       0       0       
      +0       0       0       0
  5690 ;;      Totals:         2       0       0       0       0       0       0       0       0       0       0       0       
      +0       0       0       0
  5691 ;;Total ram usage:        2 bytes
  5692 ;; Hardware stack levels used: 1
  5693 ;; This function calls:
  5694 ;;		Nothing
  5695 ;; This function is called by:
  5696 ;;		_I2C1_SetCallback
  5697 ;;		_I2C1_Open
  5698 ;;		_I2C1_DO_TX
  5699 ;;		_I2C1_DO_RX
  5700 ;;		_I2C1_DO_TX_EMPTY
  5701 ;;		_I2C1_DO_ADDRESS_NACK
  5702 ;;		_I2C1_DO_RX_EMPTY
  5703 ;; This function uses a non-reentrant model
  5704 ;;
  5705                           
  5706                           	psect	text57
  5707  00229A                     __ptext57:
  5708                           	callstack 0
  5709  00229A                     _I2C1_CallbackReturnStop:
  5710                           	callstack 17
  5711  00229A                     
  5712                           ;mcc_generated_files/i2c1_master.c: 521: i2c1_operations_t I2C1_CallbackReturnStop(void 
      +                          *funPtr);mcc_generated_files/i2c1_master.c: 522: {;mcc_generated_files/i2c1_master.c: 52
      +                          3:     return I2C1_STOP;
  5713  00229A  0E01               	movlw	1
  5714  00229C  0012               	return		;funcret
  5715  00229E                     __end_of_I2C1_CallbackReturnStop:
  5716                           	callstack 0
  5717                           
  5718 ;; *************** function _rdBlkRegCompleteHandler *****************
  5719 ;; Defined at:
  5720 ;;		line 170 in file "mcc_generated_files/examples/i2c1_master_example.c"
  5721 ;; Parameters:    Size  Location     Type
  5722 ;;  ptr             2    9[COMRAM] PTR void 
  5723 ;;		 -> I2C1_ReadDataBlock@bufferBlock(4), I2C1_Write2ByteRegister@data(2), I2C1_Write1ByteRegister@data(1), I2C1_Read2B
      +yteRegister@returnValue(2), 
  5724 ;;		 -> NULL(0), I2C1_Read1ByteRegister@returnValue(1), 
  5725 ;; Auto vars:     Size  Location     Type
  5726 ;;		None
  5727 ;; Return value:  Size  Location     Type
  5728 ;;                  1    wreg      enum E360
  5729 ;; Registers used:
  5730 ;;		wreg, fsr2l, fsr2h, status,2, status,0, prodl, prodh, cstack
  5731 ;; Tracked objects:
  5732 ;;		On entry : 0/0
  5733 ;;		On exit  : 0/0
  5734 ;;		Unchanged: 0/0
  5735 ;; Data sizes:     COMRAM   BANK0   BANK1   BANK2   BANK3   BANK4   BANK5   BANK6   BANK7   BANK8   BANK9  BANK10  BANK1
      +1  BANK12  BANK13  BANK14
  5736 ;;      Params:         2       0       0       0       0       0       0       0       0       0       0       0       
      +0       0       0       0
  5737 ;;      Locals:         0       0       0       0       0       0       0       0       0       0       0       0       
      +0       0       0       0
  5738 ;;      Temps:          0       0       0       0       0       0       0       0       0       0       0       0       
      +0       0       0       0
  5739 ;;      Totals:         2       0       0       0       0       0       0       0       0       0       0       0       
      +0       0       0       0
  5740 ;;Total ram usage:        2 bytes
  5741 ;; Hardware stack levels used: 1
  5742 ;; Hardware stack levels required when called: 2
  5743 ;; This function calls:
  5744 ;;		_I2C1_SetBuffer
  5745 ;;		_I2C1_SetDataCompleteCallback
  5746 ;; This function is called by:
  5747 ;;		_I2C1_ReadDataBlock
  5748 ;;		_I2C1_DO_TX
  5749 ;;		_I2C1_DO_RX
  5750 ;;		_I2C1_DO_TX_EMPTY
  5751 ;;		_I2C1_DO_ADDRESS_NACK
  5752 ;;		_I2C1_DO_RX_EMPTY
  5753 ;; This function uses a non-reentrant model
  5754 ;;
  5755                           
  5756                           	psect	text58
  5757  001E82                     __ptext58:
  5758                           	callstack 0
  5759  001E82                     _rdBlkRegCompleteHandler:
  5760                           	callstack 15
  5761  001E82                     
  5762                           ;mcc_generated_files/examples/i2c1_master_example.c: 170: static i2c1_operations_t rdBlk
      +                          RegCompleteHandler(void *ptr);mcc_generated_files/examples/i2c1_master_example.c: 171: {
      +                          ;mcc_generated_files/examples/i2c1_master_example.c: 172:     I2C1_SetBuffer(((i2c1_buff
      +                          er_t *)ptr)->data,((i2c1_buffer_t*)ptr)->len);
  5763  001E82  EE20 F002          	lfsr	2,2
  5764  001E86  500A               	movf	rdBlkRegCompleteHandler@ptr^0,w,c
  5765  001E88  26D9               	addwf	fsr2l,f,c
  5766  001E8A  500B               	movf	(rdBlkRegCompleteHandler@ptr+1)^0,w,c
  5767  001E8C  22DA               	addwfc	fsr2h,f,c
  5768  001E8E  CFDE F001          	movff	postinc2,I2C1_SetBuffer@buffer
  5769  001E92  CFDD F002          	movff	postdec2,I2C1_SetBuffer@buffer+1
  5770  001E96  C00A  FFD9         	movff	rdBlkRegCompleteHandler@ptr,fsr2l
  5771  001E9A  C00B  FFDA         	movff	rdBlkRegCompleteHandler@ptr+1,fsr2h
  5772  001E9E  CFDE F003          	movff	postinc2,I2C1_SetBuffer@bufferSize
  5773  001EA2  CFDD F004          	movff	postdec2,I2C1_SetBuffer@bufferSize+1
  5774  001EA6  EC6C  F010         	call	_I2C1_SetBuffer	;wreg free
  5775  001EAA                     
  5776                           ;mcc_generated_files/examples/i2c1_master_example.c: 173:     I2C1_SetDataCompleteCallba
      +                          ck(((void*)0),((void*)0));
  5777  001EAA  0E00               	movlw	0
  5778  001EAC  6E06               	movwf	I2C1_SetDataCompleteCallback@cb^0,c
  5779  001EAE  0E00               	movlw	0
  5780  001EB0  6E07               	movwf	(I2C1_SetDataCompleteCallback@cb+1)^0,c
  5781  001EB2  0E00               	movlw	0
  5782  001EB4  6E08               	movwf	I2C1_SetDataCompleteCallback@ptr^0,c
  5783  001EB6  0E00               	movlw	0
  5784  001EB8  6E09               	movwf	(I2C1_SetDataCompleteCallback@ptr+1)^0,c
  5785  001EBA  EC9E  F010         	call	_I2C1_SetDataCompleteCallback	;wreg free
  5786  001EBE                     
  5787                           ;mcc_generated_files/examples/i2c1_master_example.c: 174:     return I2C1_RESTART_READ;
  5788  001EBE  0E02               	movlw	2
  5789  001EC0  0012               	return		;funcret
  5790  001EC2                     __end_of_rdBlkRegCompleteHandler:
  5791                           	callstack 0
  5792                           
  5793 ;; *************** function _wr1RegCompleteHandler *****************
  5794 ;; Defined at:
  5795 ;;		line 156 in file "mcc_generated_files/examples/i2c1_master_example.c"
  5796 ;; Parameters:    Size  Location     Type
  5797 ;;  ptr             2    9[COMRAM] PTR void 
  5798 ;;		 -> I2C1_ReadDataBlock@bufferBlock(4), I2C1_Write2ByteRegister@data(2), I2C1_Write1ByteRegister@data(1), I2C1_Read2B
      +yteRegister@returnValue(2), 
  5799 ;;		 -> NULL(0), I2C1_Read1ByteRegister@returnValue(1), 
  5800 ;; Auto vars:     Size  Location     Type
  5801 ;;		None
  5802 ;; Return value:  Size  Location     Type
  5803 ;;                  1    wreg      enum E360
  5804 ;; Registers used:
  5805 ;;		wreg, fsr2l, fsr2h, status,2, status,0, prodl, prodh, cstack
  5806 ;; Tracked objects:
  5807 ;;		On entry : 0/0
  5808 ;;		On exit  : 0/0
  5809 ;;		Unchanged: 0/0
  5810 ;; Data sizes:     COMRAM   BANK0   BANK1   BANK2   BANK3   BANK4   BANK5   BANK6   BANK7   BANK8   BANK9  BANK10  BANK1
      +1  BANK12  BANK13  BANK14
  5811 ;;      Params:         2       0       0       0       0       0       0       0       0       0       0       0       
      +0       0       0       0
  5812 ;;      Locals:         0       0       0       0       0       0       0       0       0       0       0       0       
      +0       0       0       0
  5813 ;;      Temps:          0       0       0       0       0       0       0       0       0       0       0       0       
      +0       0       0       0
  5814 ;;      Totals:         2       0       0       0       0       0       0       0       0       0       0       0       
      +0       0       0       0
  5815 ;;Total ram usage:        2 bytes
  5816 ;; Hardware stack levels used: 1
  5817 ;; Hardware stack levels required when called: 2
  5818 ;; This function calls:
  5819 ;;		_I2C1_SetBuffer
  5820 ;;		_I2C1_SetDataCompleteCallback
  5821 ;; This function is called by:
  5822 ;;		_I2C1_Write1ByteRegister
  5823 ;;		_I2C1_DO_TX
  5824 ;;		_I2C1_DO_RX
  5825 ;;		_I2C1_DO_TX_EMPTY
  5826 ;;		_I2C1_DO_ADDRESS_NACK
  5827 ;;		_I2C1_DO_RX_EMPTY
  5828 ;; This function uses a non-reentrant model
  5829 ;;
  5830                           
  5831                           	psect	text59
  5832  001FAC                     __ptext59:
  5833                           	callstack 0
  5834  001FAC                     _wr1RegCompleteHandler:
  5835                           	callstack 15
  5836  001FAC                     
  5837                           ;mcc_generated_files/examples/i2c1_master_example.c: 156: static i2c1_operations_t wr1Re
      +                          gCompleteHandler(void *ptr);mcc_generated_files/examples/i2c1_master_example.c: 157: {;m
      +                          cc_generated_files/examples/i2c1_master_example.c: 158:     I2C1_SetBuffer(ptr,1);
  5838  001FAC  C00A  F001         	movff	wr1RegCompleteHandler@ptr,I2C1_SetBuffer@buffer
  5839  001FB0  C00B  F002         	movff	wr1RegCompleteHandler@ptr+1,I2C1_SetBuffer@buffer+1
  5840  001FB4  0E00               	movlw	0
  5841  001FB6  6E04               	movwf	(I2C1_SetBuffer@bufferSize+1)^0,c
  5842  001FB8  0E01               	movlw	1
  5843  001FBA  6E03               	movwf	I2C1_SetBuffer@bufferSize^0,c
  5844  001FBC  EC6C  F010         	call	_I2C1_SetBuffer	;wreg free
  5845  001FC0                     
  5846                           ;mcc_generated_files/examples/i2c1_master_example.c: 159:     I2C1_SetDataCompleteCallba
      +                          ck(((void*)0),((void*)0));
  5847  001FC0  0E00               	movlw	0
  5848  001FC2  6E06               	movwf	I2C1_SetDataCompleteCallback@cb^0,c
  5849  001FC4  0E00               	movlw	0
  5850  001FC6  6E07               	movwf	(I2C1_SetDataCompleteCallback@cb+1)^0,c
  5851  001FC8  0E00               	movlw	0
  5852  001FCA  6E08               	movwf	I2C1_SetDataCompleteCallback@ptr^0,c
  5853  001FCC  0E00               	movlw	0
  5854  001FCE  6E09               	movwf	(I2C1_SetDataCompleteCallback@ptr+1)^0,c
  5855  001FD0  EC9E  F010         	call	_I2C1_SetDataCompleteCallback	;wreg free
  5856  001FD4                     
  5857                           ;mcc_generated_files/examples/i2c1_master_example.c: 160:     return I2C1_CONTINUE;
  5858  001FD4  0E04               	movlw	4
  5859  001FD6  0012               	return		;funcret
  5860  001FD8                     __end_of_wr1RegCompleteHandler:
  5861                           	callstack 0
  5862                           
  5863 ;; *************** function _rd2RegCompleteHandler *****************
  5864 ;; Defined at:
  5865 ;;		line 149 in file "mcc_generated_files/examples/i2c1_master_example.c"
  5866 ;; Parameters:    Size  Location     Type
  5867 ;;  ptr             2    9[COMRAM] PTR void 
  5868 ;;		 -> I2C1_ReadDataBlock@bufferBlock(4), I2C1_Write2ByteRegister@data(2), I2C1_Write1ByteRegister@data(1), I2C1_Read2B
      +yteRegister@returnValue(2), 
  5869 ;;		 -> NULL(0), I2C1_Read1ByteRegister@returnValue(1), 
  5870 ;; Auto vars:     Size  Location     Type
  5871 ;;		None
  5872 ;; Return value:  Size  Location     Type
  5873 ;;                  1    wreg      enum E360
  5874 ;; Registers used:
  5875 ;;		wreg, fsr2l, fsr2h, status,2, status,0, prodl, prodh, cstack
  5876 ;; Tracked objects:
  5877 ;;		On entry : 0/0
  5878 ;;		On exit  : 0/0
  5879 ;;		Unchanged: 0/0
  5880 ;; Data sizes:     COMRAM   BANK0   BANK1   BANK2   BANK3   BANK4   BANK5   BANK6   BANK7   BANK8   BANK9  BANK10  BANK1
      +1  BANK12  BANK13  BANK14
  5881 ;;      Params:         2       0       0       0       0       0       0       0       0       0       0       0       
      +0       0       0       0
  5882 ;;      Locals:         0       0       0       0       0       0       0       0       0       0       0       0       
      +0       0       0       0
  5883 ;;      Temps:          0       0       0       0       0       0       0       0       0       0       0       0       
      +0       0       0       0
  5884 ;;      Totals:         2       0       0       0       0       0       0       0       0       0       0       0       
      +0       0       0       0
  5885 ;;Total ram usage:        2 bytes
  5886 ;; Hardware stack levels used: 1
  5887 ;; Hardware stack levels required when called: 2
  5888 ;; This function calls:
  5889 ;;		_I2C1_SetBuffer
  5890 ;;		_I2C1_SetDataCompleteCallback
  5891 ;; This function is called by:
  5892 ;;		_I2C1_Read2ByteRegister
  5893 ;;		_I2C1_DO_TX
  5894 ;;		_I2C1_DO_RX
  5895 ;;		_I2C1_DO_TX_EMPTY
  5896 ;;		_I2C1_DO_ADDRESS_NACK
  5897 ;;		_I2C1_DO_RX_EMPTY
  5898 ;; This function uses a non-reentrant model
  5899 ;;
  5900                           
  5901                           	psect	text60
  5902  001FD8                     __ptext60:
  5903                           	callstack 0
  5904  001FD8                     _rd2RegCompleteHandler:
  5905                           	callstack 15
  5906  001FD8                     
  5907                           ;mcc_generated_files/examples/i2c1_master_example.c: 149: static i2c1_operations_t rd2Re
      +                          gCompleteHandler(void *ptr);mcc_generated_files/examples/i2c1_master_example.c: 150: {;m
      +                          cc_generated_files/examples/i2c1_master_example.c: 151:     I2C1_SetBuffer(ptr,2);
  5908  001FD8  C00A  F001         	movff	rd2RegCompleteHandler@ptr,I2C1_SetBuffer@buffer
  5909  001FDC  C00B  F002         	movff	rd2RegCompleteHandler@ptr+1,I2C1_SetBuffer@buffer+1
  5910  001FE0  0E00               	movlw	0
  5911  001FE2  6E04               	movwf	(I2C1_SetBuffer@bufferSize+1)^0,c
  5912  001FE4  0E02               	movlw	2
  5913  001FE6  6E03               	movwf	I2C1_SetBuffer@bufferSize^0,c
  5914  001FE8  EC6C  F010         	call	_I2C1_SetBuffer	;wreg free
  5915  001FEC                     
  5916                           ;mcc_generated_files/examples/i2c1_master_example.c: 152:     I2C1_SetDataCompleteCallba
      +                          ck(((void*)0),((void*)0));
  5917  001FEC  0E00               	movlw	0
  5918  001FEE  6E06               	movwf	I2C1_SetDataCompleteCallback@cb^0,c
  5919  001FF0  0E00               	movlw	0
  5920  001FF2  6E07               	movwf	(I2C1_SetDataCompleteCallback@cb+1)^0,c
  5921  001FF4  0E00               	movlw	0
  5922  001FF6  6E08               	movwf	I2C1_SetDataCompleteCallback@ptr^0,c
  5923  001FF8  0E00               	movlw	0
  5924  001FFA  6E09               	movwf	(I2C1_SetDataCompleteCallback@ptr+1)^0,c
  5925  001FFC  EC9E  F010         	call	_I2C1_SetDataCompleteCallback	;wreg free
  5926  002000                     
  5927                           ;mcc_generated_files/examples/i2c1_master_example.c: 153:     return I2C1_RESTART_READ;
  5928  002000  0E02               	movlw	2
  5929  002002  0012               	return		;funcret
  5930  002004                     __end_of_rd2RegCompleteHandler:
  5931                           	callstack 0
  5932                           
  5933 ;; *************** function _rd1RegCompleteHandler *****************
  5934 ;; Defined at:
  5935 ;;		line 142 in file "mcc_generated_files/examples/i2c1_master_example.c"
  5936 ;; Parameters:    Size  Location     Type
  5937 ;;  ptr             2    9[COMRAM] PTR void 
  5938 ;;		 -> I2C1_ReadDataBlock@bufferBlock(4), I2C1_Write2ByteRegister@data(2), I2C1_Write1ByteRegister@data(1), I2C1_Read2B
      +yteRegister@returnValue(2), 
  5939 ;;		 -> NULL(0), I2C1_Read1ByteRegister@returnValue(1), 
  5940 ;; Auto vars:     Size  Location     Type
  5941 ;;		None
  5942 ;; Return value:  Size  Location     Type
  5943 ;;                  1    wreg      enum E360
  5944 ;; Registers used:
  5945 ;;		wreg, fsr2l, fsr2h, status,2, status,0, prodl, prodh, cstack
  5946 ;; Tracked objects:
  5947 ;;		On entry : 0/0
  5948 ;;		On exit  : 0/0
  5949 ;;		Unchanged: 0/0
  5950 ;; Data sizes:     COMRAM   BANK0   BANK1   BANK2   BANK3   BANK4   BANK5   BANK6   BANK7   BANK8   BANK9  BANK10  BANK1
      +1  BANK12  BANK13  BANK14
  5951 ;;      Params:         2       0       0       0       0       0       0       0       0       0       0       0       
      +0       0       0       0
  5952 ;;      Locals:         0       0       0       0       0       0       0       0       0       0       0       0       
      +0       0       0       0
  5953 ;;      Temps:          0       0       0       0       0       0       0       0       0       0       0       0       
      +0       0       0       0
  5954 ;;      Totals:         2       0       0       0       0       0       0       0       0       0       0       0       
      +0       0       0       0
  5955 ;;Total ram usage:        2 bytes
  5956 ;; Hardware stack levels used: 1
  5957 ;; Hardware stack levels required when called: 2
  5958 ;; This function calls:
  5959 ;;		_I2C1_SetBuffer
  5960 ;;		_I2C1_SetDataCompleteCallback
  5961 ;; This function is called by:
  5962 ;;		_I2C1_Read1ByteRegister
  5963 ;;		_I2C1_DO_TX
  5964 ;;		_I2C1_DO_RX
  5965 ;;		_I2C1_DO_TX_EMPTY
  5966 ;;		_I2C1_DO_ADDRESS_NACK
  5967 ;;		_I2C1_DO_RX_EMPTY
  5968 ;; This function uses a non-reentrant model
  5969 ;;
  5970                           
  5971                           	psect	text61
  5972  002004                     __ptext61:
  5973                           	callstack 0
  5974  002004                     _rd1RegCompleteHandler:
  5975                           	callstack 15
  5976  002004                     
  5977                           ;mcc_generated_files/examples/i2c1_master_example.c: 142: static i2c1_operations_t rd1Re
      +                          gCompleteHandler(void *ptr);mcc_generated_files/examples/i2c1_master_example.c: 143: {;m
      +                          cc_generated_files/examples/i2c1_master_example.c: 144:     I2C1_SetBuffer(ptr,1);
  5978  002004  C00A  F001         	movff	rd1RegCompleteHandler@ptr,I2C1_SetBuffer@buffer
  5979  002008  C00B  F002         	movff	rd1RegCompleteHandler@ptr+1,I2C1_SetBuffer@buffer+1
  5980  00200C  0E00               	movlw	0
  5981  00200E  6E04               	movwf	(I2C1_SetBuffer@bufferSize+1)^0,c
  5982  002010  0E01               	movlw	1
  5983  002012  6E03               	movwf	I2C1_SetBuffer@bufferSize^0,c
  5984  002014  EC6C  F010         	call	_I2C1_SetBuffer	;wreg free
  5985  002018                     
  5986                           ;mcc_generated_files/examples/i2c1_master_example.c: 145:     I2C1_SetDataCompleteCallba
      +                          ck(((void*)0),((void*)0));
  5987  002018  0E00               	movlw	0
  5988  00201A  6E06               	movwf	I2C1_SetDataCompleteCallback@cb^0,c
  5989  00201C  0E00               	movlw	0
  5990  00201E  6E07               	movwf	(I2C1_SetDataCompleteCallback@cb+1)^0,c
  5991  002020  0E00               	movlw	0
  5992  002022  6E08               	movwf	I2C1_SetDataCompleteCallback@ptr^0,c
  5993  002024  0E00               	movlw	0
  5994  002026  6E09               	movwf	(I2C1_SetDataCompleteCallback@ptr+1)^0,c
  5995  002028  EC9E  F010         	call	_I2C1_SetDataCompleteCallback	;wreg free
  5996  00202C                     
  5997                           ;mcc_generated_files/examples/i2c1_master_example.c: 146:     return I2C1_RESTART_READ;
  5998  00202C  0E02               	movlw	2
  5999  00202E  0012               	return		;funcret
  6000  002030                     __end_of_rd1RegCompleteHandler:
  6001                           	callstack 0
  6002                           
  6003 ;; *************** function _wr2RegCompleteHandler *****************
  6004 ;; Defined at:
  6005 ;;		line 163 in file "mcc_generated_files/examples/i2c1_master_example.c"
  6006 ;; Parameters:    Size  Location     Type
  6007 ;;  ptr             2    9[COMRAM] PTR void 
  6008 ;;		 -> I2C1_ReadDataBlock@bufferBlock(4), I2C1_Write2ByteRegister@data(2), I2C1_Write1ByteRegister@data(1), I2C1_Read2B
      +yteRegister@returnValue(2), 
  6009 ;;		 -> NULL(0), I2C1_Read1ByteRegister@returnValue(1), 
  6010 ;; Auto vars:     Size  Location     Type
  6011 ;;		None
  6012 ;; Return value:  Size  Location     Type
  6013 ;;                  1    wreg      enum E360
  6014 ;; Registers used:
  6015 ;;		wreg, fsr2l, fsr2h, status,2, status,0, prodl, prodh, cstack
  6016 ;; Tracked objects:
  6017 ;;		On entry : 0/0
  6018 ;;		On exit  : 0/0
  6019 ;;		Unchanged: 0/0
  6020 ;; Data sizes:     COMRAM   BANK0   BANK1   BANK2   BANK3   BANK4   BANK5   BANK6   BANK7   BANK8   BANK9  BANK10  BANK1
      +1  BANK12  BANK13  BANK14
  6021 ;;      Params:         2       0       0       0       0       0       0       0       0       0       0       0       
      +0       0       0       0
  6022 ;;      Locals:         0       0       0       0       0       0       0       0       0       0       0       0       
      +0       0       0       0
  6023 ;;      Temps:          0       0       0       0       0       0       0       0       0       0       0       0       
      +0       0       0       0
  6024 ;;      Totals:         2       0       0       0       0       0       0       0       0       0       0       0       
      +0       0       0       0
  6025 ;;Total ram usage:        2 bytes
  6026 ;; Hardware stack levels used: 1
  6027 ;; Hardware stack levels required when called: 2
  6028 ;; This function calls:
  6029 ;;		_I2C1_SetBuffer
  6030 ;;		_I2C1_SetDataCompleteCallback
  6031 ;; This function is called by:
  6032 ;;		_I2C1_Write2ByteRegister
  6033 ;;		_I2C1_DO_TX
  6034 ;;		_I2C1_DO_RX
  6035 ;;		_I2C1_DO_TX_EMPTY
  6036 ;;		_I2C1_DO_ADDRESS_NACK
  6037 ;;		_I2C1_DO_RX_EMPTY
  6038 ;; This function uses a non-reentrant model
  6039 ;;
  6040                           
  6041                           	psect	text62
  6042  002030                     __ptext62:
  6043                           	callstack 0
  6044  002030                     _wr2RegCompleteHandler:
  6045                           	callstack 15
  6046  002030                     
  6047                           ;mcc_generated_files/examples/i2c1_master_example.c: 163: static i2c1_operations_t wr2Re
      +                          gCompleteHandler(void *ptr);mcc_generated_files/examples/i2c1_master_example.c: 164: {;m
      +                          cc_generated_files/examples/i2c1_master_example.c: 165:     I2C1_SetBuffer(ptr,2);
  6048  002030  C00A  F001         	movff	wr2RegCompleteHandler@ptr,I2C1_SetBuffer@buffer
  6049  002034  C00B  F002         	movff	wr2RegCompleteHandler@ptr+1,I2C1_SetBuffer@buffer+1
  6050  002038  0E00               	movlw	0
  6051  00203A  6E04               	movwf	(I2C1_SetBuffer@bufferSize+1)^0,c
  6052  00203C  0E02               	movlw	2
  6053  00203E  6E03               	movwf	I2C1_SetBuffer@bufferSize^0,c
  6054  002040  EC6C  F010         	call	_I2C1_SetBuffer	;wreg free
  6055  002044                     
  6056                           ;mcc_generated_files/examples/i2c1_master_example.c: 166:     I2C1_SetDataCompleteCallba
      +                          ck(((void*)0),((void*)0));
  6057  002044  0E00               	movlw	0
  6058  002046  6E06               	movwf	I2C1_SetDataCompleteCallback@cb^0,c
  6059  002048  0E00               	movlw	0
  6060  00204A  6E07               	movwf	(I2C1_SetDataCompleteCallback@cb+1)^0,c
  6061  00204C  0E00               	movlw	0
  6062  00204E  6E08               	movwf	I2C1_SetDataCompleteCallback@ptr^0,c
  6063  002050  0E00               	movlw	0
  6064  002052  6E09               	movwf	(I2C1_SetDataCompleteCallback@ptr+1)^0,c
  6065  002054  EC9E  F010         	call	_I2C1_SetDataCompleteCallback	;wreg free
  6066  002058                     
  6067                           ;mcc_generated_files/examples/i2c1_master_example.c: 167:     return I2C1_CONTINUE;
  6068  002058  0E04               	movlw	4
  6069  00205A  0012               	return		;funcret
  6070  00205C                     __end_of_wr2RegCompleteHandler:
  6071                           	callstack 0
  6072                           
  6073 ;; *************** function _I2C1_SetDataCompleteCallback *****************
  6074 ;; Defined at:
  6075 ;;		line 274 in file "mcc_generated_files/i2c1_master.c"
  6076 ;; Parameters:    Size  Location     Type
  6077 ;;  cb              2    5[COMRAM] PTR FTN(PTR void ,)enum 
  6078 ;;		 -> Absolute function(1), rdBlkRegCompleteHandler(1), wr2RegCompleteHandler(1), wr1RegCompleteHandler(1), 
  6079 ;;		 -> rd2RegCompleteHandler(1), rd1RegCompleteHandler(1), 
  6080 ;;  ptr             2    7[COMRAM] PTR void 
  6081 ;;		 -> I2C1_ReadDataBlock@bufferBlock(4), I2C1_Write2ByteRegister@data(2), I2C1_Write1ByteRegister@data(1), I2C1_Read2B
      +yteRegister@returnValue(2), 
  6082 ;;		 -> NULL(0), I2C1_Read1ByteRegister@returnValue(1), 
  6083 ;; Auto vars:     Size  Location     Type
  6084 ;;		None
  6085 ;; Return value:  Size  Location     Type
  6086 ;;                  1    wreg      void 
  6087 ;; Registers used:
  6088 ;;		wreg, fsr2l, fsr2h, status,2, status,0, prodl, prodh, cstack
  6089 ;; Tracked objects:
  6090 ;;		On entry : 0/0
  6091 ;;		On exit  : 0/0
  6092 ;;		Unchanged: 0/0
  6093 ;; Data sizes:     COMRAM   BANK0   BANK1   BANK2   BANK3   BANK4   BANK5   BANK6   BANK7   BANK8   BANK9  BANK10  BANK1
      +1  BANK12  BANK13  BANK14
  6094 ;;      Params:         4       0       0       0       0       0       0       0       0       0       0       0       
      +0       0       0       0
  6095 ;;      Locals:         0       0       0       0       0       0       0       0       0       0       0       0       
      +0       0       0       0
  6096 ;;      Temps:          0       0       0       0       0       0       0       0       0       0       0       0       
      +0       0       0       0
  6097 ;;      Totals:         4       0       0       0       0       0       0       0       0       0       0       0       
      +0       0       0       0
  6098 ;;Total ram usage:        4 bytes
  6099 ;; Hardware stack levels used: 1
  6100 ;; Hardware stack levels required when called: 1
  6101 ;; This function calls:
  6102 ;;		_I2C1_SetCallback
  6103 ;; This function is called by:
  6104 ;;		_rd1RegCompleteHandler
  6105 ;;		_rd2RegCompleteHandler
  6106 ;;		_wr1RegCompleteHandler
  6107 ;;		_wr2RegCompleteHandler
  6108 ;;		_rdBlkRegCompleteHandler
  6109 ;;		_I2C1_Read1ByteRegister
  6110 ;;		_I2C1_Read2ByteRegister
  6111 ;;		_I2C1_Write1ByteRegister
  6112 ;;		_I2C1_Write2ByteRegister
  6113 ;;		_I2C1_ReadDataBlock
  6114 ;; This function uses a non-reentrant model
  6115 ;;
  6116                           
  6117                           	psect	text63
  6118  00213C                     __ptext63:
  6119                           	callstack 0
  6120  00213C                     _I2C1_SetDataCompleteCallback:
  6121                           	callstack 15
  6122  00213C                     
  6123                           ;mcc_generated_files/i2c1_master.c: 274: void I2C1_SetDataCompleteCallback(i2c1_callback
      +                          _t cb, void *ptr);mcc_generated_files/i2c1_master.c: 275: {;mcc_generated_files/i2c1_mas
      +                          ter.c: 276:     I2C1_SetCallback(I2C1_DATA_COMPLETE, cb, ptr);
  6124  00213C  C006  F001         	movff	I2C1_SetDataCompleteCallback@cb,I2C1_SetCallback@cb
  6125  002140  C007  F002         	movff	I2C1_SetDataCompleteCallback@cb+1,I2C1_SetCallback@cb+1
  6126  002144  C008  F003         	movff	I2C1_SetDataCompleteCallback@ptr,I2C1_SetCallback@ptr
  6127  002148  C009  F004         	movff	I2C1_SetDataCompleteCallback@ptr+1,I2C1_SetCallback@ptr+1
  6128  00214C  0E00               	movlw	0
  6129  00214E  ECA1  F00D         	call	_I2C1_SetCallback
  6130  002152  0012               	return		;funcret
  6131  002154                     __end_of_I2C1_SetDataCompleteCallback:
  6132                           	callstack 0
  6133                           
  6134 ;; *************** function _I2C1_SetCallback *****************
  6135 ;; Defined at:
  6136 ;;		line 304 in file "mcc_generated_files/i2c1_master.c"
  6137 ;; Parameters:    Size  Location     Type
  6138 ;;  idx             1    wreg     enum E6673
  6139 ;;  cb              2    0[COMRAM] PTR FTN(PTR void ,)enum 
  6140 ;;		 -> Absolute function(1), rdBlkRegCompleteHandler(1), wr2RegCompleteHandler(1), wr1RegCompleteHandler(1), 
  6141 ;;		 -> rd2RegCompleteHandler(1), rd1RegCompleteHandler(1), 
  6142 ;;  ptr             2    2[COMRAM] PTR void 
  6143 ;;		 -> I2C1_ReadDataBlock@bufferBlock(4), I2C1_Write2ByteRegister@data(2), I2C1_Write1ByteRegister@data(1), I2C1_Read2B
      +yteRegister@returnValue(2), 
  6144 ;;		 -> NULL(0), I2C1_Read1ByteRegister@returnValue(1), 
  6145 ;; Auto vars:     Size  Location     Type
  6146 ;;  idx             1    4[COMRAM] enum E6673
  6147 ;; Return value:  Size  Location     Type
  6148 ;;                  1    wreg      void 
  6149 ;; Registers used:
  6150 ;;		wreg, fsr2l, fsr2h, status,2, status,0, prodl, prodh
  6151 ;; Tracked objects:
  6152 ;;		On entry : 0/0
  6153 ;;		On exit  : 0/0
  6154 ;;		Unchanged: 0/0
  6155 ;; Data sizes:     COMRAM   BANK0   BANK1   BANK2   BANK3   BANK4   BANK5   BANK6   BANK7   BANK8   BANK9  BANK10  BANK1
      +1  BANK12  BANK13  BANK14
  6156 ;;      Params:         4       0       0       0       0       0       0       0       0       0       0       0       
      +0       0       0       0
  6157 ;;      Locals:         1       0       0       0       0       0       0       0       0       0       0       0       
      +0       0       0       0
  6158 ;;      Temps:          0       0       0       0       0       0       0       0       0       0       0       0       
      +0       0       0       0
  6159 ;;      Totals:         5       0       0       0       0       0       0       0       0       0       0       0       
      +0       0       0       0
  6160 ;;Total ram usage:        5 bytes
  6161 ;; Hardware stack levels used: 1
  6162 ;; This function calls:
  6163 ;;		Nothing
  6164 ;; This function is called by:
  6165 ;;		_I2C1_SetDataCompleteCallback
  6166 ;;		_I2C1_SetWriteCollisionCallback
  6167 ;;		_I2C1_SetAddressNackCallback
  6168 ;;		_I2C1_SetDataNackCallback
  6169 ;;		_I2C1_SetTimeoutCallback
  6170 ;; This function uses a non-reentrant model
  6171 ;;
  6172                           
  6173                           	psect	text64
  6174  001B42                     __ptext64:
  6175                           	callstack 0
  6176  001B42                     _I2C1_SetCallback:
  6177                           	callstack 15
  6178                           
  6179                           ;incstack = 0
  6180                           ;I2C1_SetCallback@idx stored from wreg
  6181  001B42  6E05               	movwf	I2C1_SetCallback@idx^0,c
  6182  001B44                     
  6183                           ;mcc_generated_files/i2c1_master.c: 304: static void I2C1_SetCallback(i2c1_callbackIndex
      +                          _t idx, i2c1_callback_t cb, void *ptr);mcc_generated_files/i2c1_master.c: 305: {;mcc_gen
      +                          erated_files/i2c1_master.c: 306:     if(cb)
  6184  001B44  5001               	movf	I2C1_SetCallback@cb^0,w,c
  6185  001B46  1002               	iorwf	(I2C1_SetCallback@cb+1)^0,w,c
  6186  001B48  B4D8               	btfsc	status,2,c
  6187  001B4A  EFA9  F00D         	goto	i2u118_41
  6188  001B4E  EFAB  F00D         	goto	i2u118_40
  6189  001B52                     i2u118_41:
  6190  001B52  EFC5  F00D         	goto	i2l2890
  6191  001B56                     i2u118_40:
  6192  001B56                     
  6193                           ;mcc_generated_files/i2c1_master.c: 307:     {;mcc_generated_files/i2c1_master.c: 308:  
      +                                 I2C1_Status.callbackTable[idx] = cb;
  6194  001B56  5005               	movf	I2C1_SetCallback@idx^0,w,c
  6195  001B58  0D02               	mullw	2
  6196  001B5A  0E60               	movlw	low _I2C1_Status
  6197  001B5C  24F3               	addwf	243,w,c
  6198  001B5E  6ED9               	movwf	fsr2l,c
  6199  001B60  0E00               	movlw	high _I2C1_Status
  6200  001B62  20F4               	addwfc	prodh,w,c
  6201  001B64  6EDA               	movwf	fsr2h,c
  6202  001B66  C001  FFDE         	movff	I2C1_SetCallback@cb,postinc2
  6203  001B6A  C002  FFDD         	movff	I2C1_SetCallback@cb+1,postdec2
  6204                           
  6205                           ;mcc_generated_files/i2c1_master.c: 309:         I2C1_Status.callbackPayload[idx] = ptr;
  6206  001B6E  5005               	movf	I2C1_SetCallback@idx^0,w,c
  6207  001B70  0D02               	mullw	2
  6208  001B72  0E6C               	movlw	low (_I2C1_Status+12)
  6209  001B74  24F3               	addwf	243,w,c
  6210  001B76  6ED9               	movwf	fsr2l,c
  6211  001B78  0E00               	movlw	high (_I2C1_Status+12)
  6212  001B7A  20F4               	addwfc	prodh,w,c
  6213  001B7C  6EDA               	movwf	fsr2h,c
  6214  001B7E  C003  FFDE         	movff	I2C1_SetCallback@ptr,postinc2
  6215  001B82  C004  FFDD         	movff	I2C1_SetCallback@ptr+1,postdec2
  6216                           
  6217                           ;mcc_generated_files/i2c1_master.c: 310:     }
  6218  001B86  EFDD  F00D         	goto	i2l445
  6219  001B8A                     i2l2890:
  6220                           
  6221                           ;mcc_generated_files/i2c1_master.c: 312:     {;mcc_generated_files/i2c1_master.c: 313:  
      +                                 I2C1_Status.callbackTable[idx] = I2C1_CallbackReturnStop;
  6222  001B8A  5005               	movf	I2C1_SetCallback@idx^0,w,c
  6223  001B8C  0D02               	mullw	2
  6224  001B8E  0E60               	movlw	low _I2C1_Status
  6225  001B90  24F3               	addwf	243,w,c
  6226  001B92  6ED9               	movwf	fsr2l,c
  6227  001B94  0E00               	movlw	high _I2C1_Status
  6228  001B96  20F4               	addwfc	prodh,w,c
  6229  001B98  6EDA               	movwf	fsr2h,c
  6230  001B9A  0E9A               	movlw	low _I2C1_CallbackReturnStop
  6231  001B9C  6EDE               	movwf	postinc2,c
  6232  001B9E  0E22               	movlw	high _I2C1_CallbackReturnStop
  6233  001BA0  6EDD               	movwf	postdec2,c
  6234                           
  6235                           ;mcc_generated_files/i2c1_master.c: 314:         I2C1_Status.callbackPayload[idx] = ((vo
      +                          id*)0);
  6236  001BA2  5005               	movf	I2C1_SetCallback@idx^0,w,c
  6237  001BA4  0D02               	mullw	2
  6238  001BA6  0E6C               	movlw	low (_I2C1_Status+12)
  6239  001BA8  24F3               	addwf	243,w,c
  6240  001BAA  6ED9               	movwf	fsr2l,c
  6241  001BAC  0E00               	movlw	high (_I2C1_Status+12)
  6242  001BAE  20F4               	addwfc	prodh,w,c
  6243  001BB0  6EDA               	movwf	fsr2h,c
  6244  001BB2  0E00               	movlw	0
  6245  001BB4  6EDE               	movwf	postinc2,c
  6246  001BB6  0E00               	movlw	0
  6247  001BB8  6EDD               	movwf	postdec2,c
  6248  001BBA                     i2l445:
  6249  001BBA  0012               	return		;funcret
  6250  001BBC                     __end_of_I2C1_SetCallback:
  6251                           	callstack 0
  6252                           
  6253 ;; *************** function _I2C1_SetBuffer *****************
  6254 ;; Defined at:
  6255 ;;		line 264 in file "mcc_generated_files/i2c1_master.c"
  6256 ;; Parameters:    Size  Location     Type
  6257 ;;  buffer          2    0[COMRAM] PTR void 
  6258 ;;		 -> I2C1_Read1ByteRegister@returnValue.data(3), I2C1_Read2ByteRegister@returnValue.data(3), I2C1_Write1ByteRegister@
      +data.data(3), I2C1_Write2ByteRegister@data.data(3), 
  6259 ;;		 -> I2C1_ReadDataBlock@reg(1), I2C1_ReadDataBlock@bufferBlock(4), bufferBlock.data(3), I2C1_Write2ByteRegister@reg(1
      +), 
  6260 ;;		 -> I2C1_Write2ByteRegister@data(2), I2C1_Write1ByteRegister@reg(1), I2C1_Write1ByteRegister@data(1), I2C1_Read2Byte
      +Register@reg(1), 
  6261 ;;		 -> I2C1_Read2ByteRegister@returnValue(2), NULL(0), I2C1_Read1ByteRegister@reg(1), I2C1_Read1ByteRegister@returnValu
      +e(1), 
  6262 ;;  bufferSize      2    2[COMRAM] unsigned int 
  6263 ;; Auto vars:     Size  Location     Type
  6264 ;;		None
  6265 ;; Return value:  Size  Location     Type
  6266 ;;                  1    wreg      void 
  6267 ;; Registers used:
  6268 ;;		wreg, status,2, status,0
  6269 ;; Tracked objects:
  6270 ;;		On entry : 0/0
  6271 ;;		On exit  : 0/0
  6272 ;;		Unchanged: 0/0
  6273 ;; Data sizes:     COMRAM   BANK0   BANK1   BANK2   BANK3   BANK4   BANK5   BANK6   BANK7   BANK8   BANK9  BANK10  BANK1
      +1  BANK12  BANK13  BANK14
  6274 ;;      Params:         4       0       0       0       0       0       0       0       0       0       0       0       
      +0       0       0       0
  6275 ;;      Locals:         0       0       0       0       0       0       0       0       0       0       0       0       
      +0       0       0       0
  6276 ;;      Temps:          0       0       0       0       0       0       0       0       0       0       0       0       
      +0       0       0       0
  6277 ;;      Totals:         4       0       0       0       0       0       0       0       0       0       0       0       
      +0       0       0       0
  6278 ;;Total ram usage:        4 bytes
  6279 ;; Hardware stack levels used: 1
  6280 ;; This function calls:
  6281 ;;		Nothing
  6282 ;; This function is called by:
  6283 ;;		_rd1RegCompleteHandler
  6284 ;;		_rd2RegCompleteHandler
  6285 ;;		_wr1RegCompleteHandler
  6286 ;;		_wr2RegCompleteHandler
  6287 ;;		_rdBlkRegCompleteHandler
  6288 ;;		_I2C1_Read1ByteRegister
  6289 ;;		_I2C1_Read2ByteRegister
  6290 ;;		_I2C1_Write1ByteRegister
  6291 ;;		_I2C1_Write2ByteRegister
  6292 ;;		_I2C1_WriteNBytes
  6293 ;;		_I2C1_ReadNBytes
  6294 ;;		_I2C1_ReadDataBlock
  6295 ;; This function uses a non-reentrant model
  6296 ;;
  6297                           
  6298                           	psect	text65
  6299  0020D8                     __ptext65:
  6300                           	callstack 0
  6301  0020D8                     _I2C1_SetBuffer:
  6302                           	callstack 16
  6303  0020D8                     
  6304                           ;mcc_generated_files/i2c1_master.c: 264: void I2C1_SetBuffer(void *buffer, size_t buffer
      +                          Size);mcc_generated_files/i2c1_master.c: 265: {;mcc_generated_files/i2c1_master.c: 266: 
      +                              if(I2C1_Status.bufferFree)
  6305  0020D8  0100               	movlb	0	; () banked
  6306  0020DA  A783               	btfss	(_I2C1_Status+35)& (0+255),3,b
  6307  0020DC  EF72  F010         	goto	i2u121_41
  6308  0020E0  EF74  F010         	goto	i2u121_40
  6309  0020E4                     i2u121_41:
  6310  0020E4  EF7D  F010         	goto	i2l422
  6311  0020E8                     i2u121_40:
  6312  0020E8                     
  6313                           ; BSR set to: 0
  6314                           ;mcc_generated_files/i2c1_master.c: 267:     {;mcc_generated_files/i2c1_master.c: 268:  
      +                                 I2C1_Status.data_ptr = buffer;
  6315  0020E8  C001  F07D         	movff	I2C1_SetBuffer@buffer,_I2C1_Status+29
  6316  0020EC  C002  F07E         	movff	I2C1_SetBuffer@buffer+1,_I2C1_Status+30
  6317  0020F0                     
  6318                           ; BSR set to: 0
  6319                           ;mcc_generated_files/i2c1_master.c: 269:         I2C1_Status.data_length = bufferSize;
  6320  0020F0  C003  F07F         	movff	I2C1_SetBuffer@bufferSize,_I2C1_Status+31
  6321  0020F4  C004  F080         	movff	I2C1_SetBuffer@bufferSize+1,_I2C1_Status+32
  6322  0020F8                     
  6323                           ; BSR set to: 0
  6324                           ;mcc_generated_files/i2c1_master.c: 270:         I2C1_Status.bufferFree = 0;
  6325  0020F8  9783               	bcf	(_I2C1_Status+35)& (0+255),3,b
  6326  0020FA                     i2l422:
  6327                           
  6328                           ; BSR set to: 0
  6329  0020FA  0012               	return		;funcret
  6330  0020FC                     __end_of_I2C1_SetBuffer:
  6331                           	callstack 0
  6332                           
  6333 ;; *************** function _I2C1_MasterStop *****************
  6334 ;; Defined at:
  6335 ;;		line 594 in file "mcc_generated_files/i2c1_master.c"
  6336 ;; Parameters:    Size  Location     Type
  6337 ;;		None
  6338 ;; Auto vars:     Size  Location     Type
  6339 ;;		None
  6340 ;; Return value:  Size  Location     Type
  6341 ;;                  1    wreg      void 
  6342 ;; Registers used:
  6343 ;;		None
  6344 ;; Tracked objects:
  6345 ;;		On entry : 0/0
  6346 ;;		On exit  : 0/0
  6347 ;;		Unchanged: 0/0
  6348 ;; Data sizes:     COMRAM   BANK0   BANK1   BANK2   BANK3   BANK4   BANK5   BANK6   BANK7   BANK8   BANK9  BANK10  BANK1
      +1  BANK12  BANK13  BANK14
  6349 ;;      Params:         0       0       0       0       0       0       0       0       0       0       0       0       
      +0       0       0       0
  6350 ;;      Locals:         0       0       0       0       0       0       0       0       0       0       0       0       
      +0       0       0       0
  6351 ;;      Temps:          0       0       0       0       0       0       0       0       0       0       0       0       
      +0       0       0       0
  6352 ;;      Totals:         0       0       0       0       0       0       0       0       0       0       0       0       
      +0       0       0       0
  6353 ;;Total ram usage:        0 bytes
  6354 ;; Hardware stack levels used: 1
  6355 ;; This function calls:
  6356 ;;		Nothing
  6357 ;; This function is called by:
  6358 ;;		_I2C1_DO_SEND_STOP
  6359 ;; This function uses a non-reentrant model
  6360 ;;
  6361                           
  6362                           	psect	text66
  6363  00229E                     __ptext66:
  6364                           	callstack 0
  6365  00229E                     _I2C1_MasterStop:
  6366                           	callstack 16
  6367  00229E                     
  6368                           ;mcc_generated_files/i2c1_master.c: 596:     SSP1CON2bits.PEN = 1;
  6369  00229E  84C5               	bsf	197,2,c	;volatile
  6370  0022A0  0012               	return		;funcret
  6371  0022A2                     __end_of_I2C1_MasterStop:
  6372                           	callstack 0
  6373                           
  6374 ;; *************** function _I2C1_MasterEnableRestart *****************
  6375 ;; Defined at:
  6376 ;;		line 574 in file "mcc_generated_files/i2c1_master.c"
  6377 ;; Parameters:    Size  Location     Type
  6378 ;;		None
  6379 ;; Auto vars:     Size  Location     Type
  6380 ;;		None
  6381 ;; Return value:  Size  Location     Type
  6382 ;;                  1    wreg      void 
  6383 ;; Registers used:
  6384 ;;		None
  6385 ;; Tracked objects:
  6386 ;;		On entry : 0/0
  6387 ;;		On exit  : 0/0
  6388 ;;		Unchanged: 0/0
  6389 ;; Data sizes:     COMRAM   BANK0   BANK1   BANK2   BANK3   BANK4   BANK5   BANK6   BANK7   BANK8   BANK9  BANK10  BANK1
      +1  BANK12  BANK13  BANK14
  6390 ;;      Params:         0       0       0       0       0       0       0       0       0       0       0       0       
      +0       0       0       0
  6391 ;;      Locals:         0       0       0       0       0       0       0       0       0       0       0       0       
      +0       0       0       0
  6392 ;;      Temps:          0       0       0       0       0       0       0       0       0       0       0       0       
      +0       0       0       0
  6393 ;;      Totals:         0       0       0       0       0       0       0       0       0       0       0       0       
      +0       0       0       0
  6394 ;;Total ram usage:        0 bytes
  6395 ;; Hardware stack levels used: 1
  6396 ;; This function calls:
  6397 ;;		Nothing
  6398 ;; This function is called by:
  6399 ;;		_I2C1_DO_SEND_RESTART_READ
  6400 ;;		_I2C1_DO_SEND_RESTART_WRITE
  6401 ;;		_I2C1_DO_SEND_RESTART
  6402 ;;		_I2C1_DO_RX_EMPTY
  6403 ;; This function uses a non-reentrant model
  6404 ;;
  6405                           
  6406                           	psect	text67
  6407  0022A2                     __ptext67:
  6408                           	callstack 0
  6409  0022A2                     _I2C1_MasterEnableRestart:
  6410                           	callstack 16
  6411  0022A2                     
  6412                           ;mcc_generated_files/i2c1_master.c: 576:     SSP1CON2bits.RSEN = 1;
  6413  0022A2  82C5               	bsf	197,1,c	;volatile
  6414  0022A4  0012               	return		;funcret
  6415  0022A6                     __end_of_I2C1_MasterEnableRestart:
  6416                           	callstack 0
  6417                           
  6418 ;; *************** function _EUSART2_Transmit_ISR *****************
  6419 ;; Defined at:
  6420 ;;		line 206 in file "mcc_generated_files/eusart2.c"
  6421 ;; Parameters:    Size  Location     Type
  6422 ;;		None
  6423 ;; Auto vars:     Size  Location     Type
  6424 ;;		None
  6425 ;; Return value:  Size  Location     Type
  6426 ;;                  1    wreg      void 
  6427 ;; Registers used:
  6428 ;;		wreg, fsr2l, fsr2h, status,2, status,0
  6429 ;; Tracked objects:
  6430 ;;		On entry : 0/0
  6431 ;;		On exit  : 0/0
  6432 ;;		Unchanged: 0/0
  6433 ;; Data sizes:     COMRAM   BANK0   BANK1   BANK2   BANK3   BANK4   BANK5   BANK6   BANK7   BANK8   BANK9  BANK10  BANK1
      +1  BANK12  BANK13  BANK14
  6434 ;;      Params:         0       0       0       0       0       0       0       0       0       0       0       0       
      +0       0       0       0
  6435 ;;      Locals:         0       0       0       0       0       0       0       0       0       0       0       0       
      +0       0       0       0
  6436 ;;      Temps:          0       0       0       0       0       0       0       0       0       0       0       0       
      +0       0       0       0
  6437 ;;      Totals:         0       0       0       0       0       0       0       0       0       0       0       0       
      +0       0       0       0
  6438 ;;Total ram usage:        0 bytes
  6439 ;; Hardware stack levels used: 1
  6440 ;; This function calls:
  6441 ;;		Nothing
  6442 ;; This function is called by:
  6443 ;;		_EUSART2_Initialize
  6444 ;;		_INTERRUPT_InterruptManager
  6445 ;; This function uses a non-reentrant model
  6446 ;;
  6447                           
  6448                           	psect	text68
  6449  001EC2                     __ptext68:
  6450                           	callstack 0
  6451  001EC2                     _EUSART2_Transmit_ISR:
  6452                           	callstack 20
  6453  001EC2                     
  6454                           ;mcc_generated_files/eusart2.c: 210:     if(sizeof(eusart2TxBuffer) > eusart2TxBufferRem
      +                          aining)
  6455  001EC2  0E08               	movlw	8
  6456  001EC4  6047               	cpfslt	_eusart2TxBufferRemaining^0,c	;volatile
  6457  001EC6  EF67  F00F         	goto	i2u174_41
  6458  001ECA  EF69  F00F         	goto	i2u174_40
  6459  001ECE                     i2u174_41:
  6460  001ECE  EF7F  F00F         	goto	i2l216
  6461  001ED2                     i2u174_40:
  6462  001ED2                     
  6463                           ;mcc_generated_files/eusart2.c: 211:     {;mcc_generated_files/eusart2.c: 212:         T
      +                          XREG2 = eusart2TxBuffer[eusart2TxTail++];
  6464  001ED2  0E94               	movlw	low _eusart2TxBuffer
  6465  001ED4  243F               	addwf	_eusart2TxTail^0,w,c	;volatile
  6466  001ED6  6ED9               	movwf	fsr2l,c
  6467  001ED8  6ADA               	clrf	fsr2h,c
  6468  001EDA  0E00               	movlw	high _eusart2TxBuffer
  6469  001EDC  22DA               	addwfc	fsr2h,f,c
  6470  001EDE  50DF               	movf	indf2,w,c
  6471  001EE0  6EA9               	movwf	169,c	;volatile
  6472  001EE2  2A3F               	incf	_eusart2TxTail^0,f,c	;volatile
  6473  001EE4                     
  6474                           ;mcc_generated_files/eusart2.c: 213:         if(sizeof(eusart2TxBuffer) <= eusart2TxTail
      +                          )
  6475  001EE4  0E07               	movlw	7
  6476  001EE6  643F               	cpfsgt	_eusart2TxTail^0,c	;volatile
  6477  001EE8  EF78  F00F         	goto	i2u175_41
  6478  001EEC  EF7A  F00F         	goto	i2u175_40
  6479  001EF0                     i2u175_41:
  6480  001EF0  EF7C  F00F         	goto	i2l3518
  6481  001EF4                     i2u175_40:
  6482  001EF4                     
  6483                           ;mcc_generated_files/eusart2.c: 214:         {;mcc_generated_files/eusart2.c: 215:      
      +                                 eusart2TxTail = 0;
  6484  001EF4  0E00               	movlw	0
  6485  001EF6  6E3F               	movwf	_eusart2TxTail^0,c	;volatile
  6486  001EF8                     i2l3518:
  6487                           
  6488                           ;mcc_generated_files/eusart2.c: 217:         eusart2TxBufferRemaining++;
  6489  001EF8  2A47               	incf	_eusart2TxBufferRemaining^0,f,c	;volatile
  6490                           
  6491                           ;mcc_generated_files/eusart2.c: 218:     }
  6492  001EFA  EF80  F00F         	goto	i2l219
  6493  001EFE                     i2l216:
  6494                           
  6495                           ;mcc_generated_files/eusart2.c: 220:     {;mcc_generated_files/eusart2.c: 221:         P
      +                          IE3bits.TX2IE = 0;
  6496  001EFE  98A3               	bcf	163,4,c	;volatile
  6497  001F00                     i2l219:
  6498  001F00  0012               	return		;funcret
  6499  001F02                     __end_of_EUSART2_Transmit_ISR:
  6500                           	callstack 0
  6501                           
  6502 ;; *************** function _EUSART2_Receive_ISR *****************
  6503 ;; Defined at:
  6504 ;;		line 225 in file "mcc_generated_files/eusart2.c"
  6505 ;; Parameters:    Size  Location     Type
  6506 ;;		None
  6507 ;; Auto vars:     Size  Location     Type
  6508 ;;		None
  6509 ;; Return value:  Size  Location     Type
  6510 ;;                  1    wreg      void 
  6511 ;; Registers used:
  6512 ;;		wreg, fsr2l, fsr2h, status,2, status,0, pcl, pclath, pclatu, tosl, cstack
  6513 ;; Tracked objects:
  6514 ;;		On entry : 0/0
  6515 ;;		On exit  : 0/0
  6516 ;;		Unchanged: 0/0
  6517 ;; Data sizes:     COMRAM   BANK0   BANK1   BANK2   BANK3   BANK4   BANK5   BANK6   BANK7   BANK8   BANK9  BANK10  BANK1
      +1  BANK12  BANK13  BANK14
  6518 ;;      Params:         0       0       0       0       0       0       0       0       0       0       0       0       
      +0       0       0       0
  6519 ;;      Locals:         0       0       0       0       0       0       0       0       0       0       0       0       
      +0       0       0       0
  6520 ;;      Temps:          0       0       0       0       0       0       0       0       0       0       0       0       
      +0       0       0       0
  6521 ;;      Totals:         0       0       0       0       0       0       0       0       0       0       0       0       
      +0       0       0       0
  6522 ;;Total ram usage:        0 bytes
  6523 ;; Hardware stack levels used: 1
  6524 ;; Hardware stack levels required when called: 2
  6525 ;; This function calls:
  6526 ;;		Absolute function
  6527 ;;		_EUSART2_DefaultErrorHandler
  6528 ;;		_EUSART2_DefaultFramingErrorHandler
  6529 ;;		_EUSART2_DefaultOverrunErrorHandler
  6530 ;;		_EUSART2_RxDataHandler
  6531 ;; This function is called by:
  6532 ;;		_EUSART2_Initialize
  6533 ;;		_INTERRUPT_InterruptManager
  6534 ;; This function uses a non-reentrant model
  6535 ;;
  6536                           
  6537                           	psect	text69
  6538  00184A                     __ptext69:
  6539                           	callstack 0
  6540  00184A                     _EUSART2_Receive_ISR:
  6541                           	callstack 18
  6542  00184A                     
  6543                           ;mcc_generated_files/eusart2.c: 228:     eusart2RxStatusBuffer[eusart2RxHead].status = 0
      +                          ;
  6544  00184A  0E84               	movlw	low _eusart2RxStatusBuffer
  6545  00184C  243E               	addwf	_eusart2RxHead^0,w,c	;volatile
  6546  00184E  6ED9               	movwf	fsr2l,c
  6547  001850  6ADA               	clrf	fsr2h,c
  6548  001852  0E00               	movlw	high _eusart2RxStatusBuffer
  6549  001854  22DA               	addwfc	fsr2h,f,c
  6550  001856  0E00               	movlw	0
  6551  001858  6EDF               	movwf	indf2,c
  6552  00185A                     
  6553                           ;mcc_generated_files/eusart2.c: 230:     if(RCSTA2bits.FERR){
  6554  00185A  A49C               	btfss	156,2,c	;volatile
  6555  00185C  EF32  F00C         	goto	i2u176_41
  6556  001860  EF34  F00C         	goto	i2u176_40
  6557  001864                     i2u176_41:
  6558  001864  EF49  F00C         	goto	i2l3528
  6559  001868                     i2u176_40:
  6560  001868                     
  6561                           ;mcc_generated_files/eusart2.c: 231:         eusart2RxStatusBuffer[eusart2RxHead].ferr =
      +                           1;
  6562  001868  0E84               	movlw	low _eusart2RxStatusBuffer
  6563  00186A  243E               	addwf	_eusart2RxHead^0,w,c	;volatile
  6564  00186C  6ED9               	movwf	fsr2l,c
  6565  00186E  6ADA               	clrf	fsr2h,c
  6566  001870  0E00               	movlw	high _eusart2RxStatusBuffer
  6567  001872  22DA               	addwfc	fsr2h,f,c
  6568  001874  0100               	movlb	0	; () banked
  6569  001876  82DF               	bsf	indf2,1,c
  6570  001878                     
  6571                           ; BSR set to: 0
  6572                           ;mcc_generated_files/eusart2.c: 232:         EUSART2_FramingErrorHandler();
  6573  001878  D802               	call	i2u177_48
  6574  00187A  EF49  F00C         	goto	i2u177_49
  6575  00187E                     i2u177_48:
  6576  00187E  0005               	push	
  6577  001880  6EFA               	movwf	pclath,c
  6578  001882  51FA               	movf	_EUSART2_FramingErrorHandler& (0+255),w,b
  6579  001884  6EFD               	movwf	tosl,c
  6580  001886  51FB               	movf	(_EUSART2_FramingErrorHandler+1)& (0+255),w,b
  6581  001888  6EFE               	movwf	tosh,c
  6582  00188A  50F8               	movf	tblptru,w,c
  6583  00188C  6EFF               	movwf	tosu,c
  6584  00188E  50FA               	movf	pclath,w,c
  6585  001890  0012               	return		;indir
  6586  001892                     i2u177_49:
  6587  001892                     i2l3528:
  6588                           
  6589                           ;mcc_generated_files/eusart2.c: 235:     if(RCSTA2bits.OERR){
  6590  001892  A29C               	btfss	156,1,c	;volatile
  6591  001894  EF4E  F00C         	goto	i2u178_41
  6592  001898  EF50  F00C         	goto	i2u178_40
  6593  00189C                     i2u178_41:
  6594  00189C  EF65  F00C         	goto	i2l3534
  6595  0018A0                     i2u178_40:
  6596  0018A0                     
  6597                           ;mcc_generated_files/eusart2.c: 236:         eusart2RxStatusBuffer[eusart2RxHead].oerr =
      +                           1;
  6598  0018A0  0E84               	movlw	low _eusart2RxStatusBuffer
  6599  0018A2  243E               	addwf	_eusart2RxHead^0,w,c	;volatile
  6600  0018A4  6ED9               	movwf	fsr2l,c
  6601  0018A6  6ADA               	clrf	fsr2h,c
  6602  0018A8  0E00               	movlw	high _eusart2RxStatusBuffer
  6603  0018AA  22DA               	addwfc	fsr2h,f,c
  6604  0018AC  0100               	movlb	0	; () banked
  6605  0018AE  84DF               	bsf	indf2,2,c
  6606  0018B0                     
  6607                           ; BSR set to: 0
  6608                           ;mcc_generated_files/eusart2.c: 237:         EUSART2_OverrunErrorHandler();
  6609  0018B0  D802               	call	i2u179_48
  6610  0018B2  EF65  F00C         	goto	i2u179_49
  6611  0018B6                     i2u179_48:
  6612  0018B6  0005               	push	
  6613  0018B8  6EFA               	movwf	pclath,c
  6614  0018BA  51F8               	movf	_EUSART2_OverrunErrorHandler& (0+255),w,b
  6615  0018BC  6EFD               	movwf	tosl,c
  6616  0018BE  51F9               	movf	(_EUSART2_OverrunErrorHandler+1)& (0+255),w,b
  6617  0018C0  6EFE               	movwf	tosh,c
  6618  0018C2  50F8               	movf	tblptru,w,c
  6619  0018C4  6EFF               	movwf	tosu,c
  6620  0018C6  50FA               	movf	pclath,w,c
  6621  0018C8  0012               	return		;indir
  6622  0018CA                     i2u179_49:
  6623  0018CA                     i2l3534:
  6624                           
  6625                           ;mcc_generated_files/eusart2.c: 240:     if(eusart2RxStatusBuffer[eusart2RxHead].status)
      +                          {
  6626  0018CA  0E84               	movlw	low _eusart2RxStatusBuffer
  6627  0018CC  243E               	addwf	_eusart2RxHead^0,w,c	;volatile
  6628  0018CE  6ED9               	movwf	fsr2l,c
  6629  0018D0  6ADA               	clrf	fsr2h,c
  6630  0018D2  0E00               	movlw	high _eusart2RxStatusBuffer
  6631  0018D4  22DA               	addwfc	fsr2h,f,c
  6632  0018D6  50DF               	movf	indf2,w,c
  6633  0018D8  B4D8               	btfsc	status,2,c
  6634  0018DA  EF71  F00C         	goto	i2u180_41
  6635  0018DE  EF73  F00C         	goto	i2u180_40
  6636  0018E2                     i2u180_41:
  6637  0018E2  EF83  F00C         	goto	i2l3538
  6638  0018E6                     i2u180_40:
  6639  0018E6                     
  6640                           ;mcc_generated_files/eusart2.c: 241:         EUSART2_ErrorHandler();
  6641  0018E6  D802               	call	i2u181_48
  6642  0018E8  EF81  F00C         	goto	i2u181_49
  6643  0018EC                     i2u181_48:
  6644  0018EC  0005               	push	
  6645  0018EE  0100               	movlb	0	; () banked
  6646  0018F0  6EFA               	movwf	pclath,c
  6647  0018F2  51F6               	movf	_EUSART2_ErrorHandler& (0+255),w,b
  6648  0018F4  6EFD               	movwf	tosl,c
  6649  0018F6  51F7               	movf	(_EUSART2_ErrorHandler+1)& (0+255),w,b
  6650  0018F8  6EFE               	movwf	tosh,c
  6651  0018FA  50F8               	movf	tblptru,w,c
  6652  0018FC  6EFF               	movwf	tosu,c
  6653  0018FE  50FA               	movf	pclath,w,c
  6654  001900  0012               	return		;indir
  6655  001902                     i2u181_49:
  6656                           
  6657                           ;mcc_generated_files/eusart2.c: 242:     } else {
  6658  001902  EF85  F00C         	goto	i2l226
  6659  001906                     i2l3538:
  6660                           
  6661                           ;mcc_generated_files/eusart2.c: 243:         EUSART2_RxDataHandler();
  6662  001906  EC43  F010         	call	_EUSART2_RxDataHandler	;wreg free
  6663  00190A                     i2l226:
  6664  00190A  0012               	return		;funcret
  6665  00190C                     __end_of_EUSART2_Receive_ISR:
  6666                           	callstack 0
  6667                           
  6668 ;; *************** function _EUSART2_DefaultOverrunErrorHandler *****************
  6669 ;; Defined at:
  6670 ;;		line 261 in file "mcc_generated_files/eusart2.c"
  6671 ;; Parameters:    Size  Location     Type
  6672 ;;		None
  6673 ;; Auto vars:     Size  Location     Type
  6674 ;;		None
  6675 ;; Return value:  Size  Location     Type
  6676 ;;                  1    wreg      void 
  6677 ;; Registers used:
  6678 ;;		None
  6679 ;; Tracked objects:
  6680 ;;		On entry : 0/0
  6681 ;;		On exit  : 0/0
  6682 ;;		Unchanged: 0/0
  6683 ;; Data sizes:     COMRAM   BANK0   BANK1   BANK2   BANK3   BANK4   BANK5   BANK6   BANK7   BANK8   BANK9  BANK10  BANK1
      +1  BANK12  BANK13  BANK14
  6684 ;;      Params:         0       0       0       0       0       0       0       0       0       0       0       0       
      +0       0       0       0
  6685 ;;      Locals:         0       0       0       0       0       0       0       0       0       0       0       0       
      +0       0       0       0
  6686 ;;      Temps:          0       0       0       0       0       0       0       0       0       0       0       0       
      +0       0       0       0
  6687 ;;      Totals:         0       0       0       0       0       0       0       0       0       0       0       0       
      +0       0       0       0
  6688 ;;Total ram usage:        0 bytes
  6689 ;; Hardware stack levels used: 1
  6690 ;; This function calls:
  6691 ;;		Nothing
  6692 ;; This function is called by:
  6693 ;;		_EUSART2_Initialize
  6694 ;;		_EUSART2_Receive_ISR
  6695 ;; This function uses a non-reentrant model
  6696 ;;
  6697                           
  6698                           	psect	text70
  6699  002272                     __ptext70:
  6700                           	callstack 0
  6701  002272                     _EUSART2_DefaultOverrunErrorHandler:
  6702                           	callstack 19
  6703  002272                     
  6704                           ;mcc_generated_files/eusart2.c: 264:     RCSTA2bits.CREN = 0;
  6705  002272  989C               	bcf	156,4,c	;volatile
  6706                           
  6707                           ;mcc_generated_files/eusart2.c: 265:     RCSTA2bits.CREN = 1;
  6708  002274  889C               	bsf	156,4,c	;volatile
  6709  002276  0012               	return		;funcret
  6710  002278                     __end_of_EUSART2_DefaultOverrunErrorHandler:
  6711                           	callstack 0
  6712                           
  6713 ;; *************** function _EUSART2_DefaultFramingErrorHandler *****************
  6714 ;; Defined at:
  6715 ;;		line 259 in file "mcc_generated_files/eusart2.c"
  6716 ;; Parameters:    Size  Location     Type
  6717 ;;		None
  6718 ;; Auto vars:     Size  Location     Type
  6719 ;;		None
  6720 ;; Return value:  Size  Location     Type
  6721 ;;                  1    wreg      void 
  6722 ;; Registers used:
  6723 ;;		None
  6724 ;; Tracked objects:
  6725 ;;		On entry : 0/0
  6726 ;;		On exit  : 0/0
  6727 ;;		Unchanged: 0/0
  6728 ;; Data sizes:     COMRAM   BANK0   BANK1   BANK2   BANK3   BANK4   BANK5   BANK6   BANK7   BANK8   BANK9  BANK10  BANK1
      +1  BANK12  BANK13  BANK14
  6729 ;;      Params:         0       0       0       0       0       0       0       0       0       0       0       0       
      +0       0       0       0
  6730 ;;      Locals:         0       0       0       0       0       0       0       0       0       0       0       0       
      +0       0       0       0
  6731 ;;      Temps:          0       0       0       0       0       0       0       0       0       0       0       0       
      +0       0       0       0
  6732 ;;      Totals:         0       0       0       0       0       0       0       0       0       0       0       0       
      +0       0       0       0
  6733 ;;Total ram usage:        0 bytes
  6734 ;; Hardware stack levels used: 1
  6735 ;; This function calls:
  6736 ;;		Nothing
  6737 ;; This function is called by:
  6738 ;;		_EUSART2_Initialize
  6739 ;;		_EUSART2_Receive_ISR
  6740 ;; This function uses a non-reentrant model
  6741 ;;
  6742                           
  6743                           	psect	text71
  6744  0022A6                     __ptext71:
  6745                           	callstack 0
  6746  0022A6                     _EUSART2_DefaultFramingErrorHandler:
  6747                           	callstack 19
  6748  0022A6  0012               	return		;funcret
  6749  0022A8                     __end_of_EUSART2_DefaultFramingErrorHandler:
  6750                           	callstack 0
  6751                           
  6752 ;; *************** function _EUSART2_DefaultErrorHandler *****************
  6753 ;; Defined at:
  6754 ;;		line 269 in file "mcc_generated_files/eusart2.c"
  6755 ;; Parameters:    Size  Location     Type
  6756 ;;		None
  6757 ;; Auto vars:     Size  Location     Type
  6758 ;;		None
  6759 ;; Return value:  Size  Location     Type
  6760 ;;                  1    wreg      void 
  6761 ;; Registers used:
  6762 ;;		wreg, fsr2l, fsr2h, status,2, status,0, cstack
  6763 ;; Tracked objects:
  6764 ;;		On entry : 0/0
  6765 ;;		On exit  : 0/0
  6766 ;;		Unchanged: 0/0
  6767 ;; Data sizes:     COMRAM   BANK0   BANK1   BANK2   BANK3   BANK4   BANK5   BANK6   BANK7   BANK8   BANK9  BANK10  BANK1
      +1  BANK12  BANK13  BANK14
  6768 ;;      Params:         0       0       0       0       0       0       0       0       0       0       0       0       
      +0       0       0       0
  6769 ;;      Locals:         0       0       0       0       0       0       0       0       0       0       0       0       
      +0       0       0       0
  6770 ;;      Temps:          0       0       0       0       0       0       0       0       0       0       0       0       
      +0       0       0       0
  6771 ;;      Totals:         0       0       0       0       0       0       0       0       0       0       0       0       
      +0       0       0       0
  6772 ;;Total ram usage:        0 bytes
  6773 ;; Hardware stack levels used: 1
  6774 ;; Hardware stack levels required when called: 1
  6775 ;; This function calls:
  6776 ;;		_EUSART2_RxDataHandler
  6777 ;; This function is called by:
  6778 ;;		_EUSART2_Initialize
  6779 ;;		_EUSART2_Receive_ISR
  6780 ;; This function uses a non-reentrant model
  6781 ;;
  6782                           
  6783                           	psect	text72
  6784  002278                     __ptext72:
  6785                           	callstack 0
  6786  002278                     _EUSART2_DefaultErrorHandler:
  6787                           	callstack 18
  6788  002278                     
  6789                           ;mcc_generated_files/eusart2.c: 270:     EUSART2_RxDataHandler();
  6790  002278  EC43  F010         	call	_EUSART2_RxDataHandler	;wreg free
  6791  00227C  0012               	return		;funcret
  6792  00227E                     __end_of_EUSART2_DefaultErrorHandler:
  6793                           	callstack 0
  6794                           
  6795 ;; *************** function _EUSART2_RxDataHandler *****************
  6796 ;; Defined at:
  6797 ;;		line 249 in file "mcc_generated_files/eusart2.c"
  6798 ;; Parameters:    Size  Location     Type
  6799 ;;		None
  6800 ;; Auto vars:     Size  Location     Type
  6801 ;;		None
  6802 ;; Return value:  Size  Location     Type
  6803 ;;                  1    wreg      void 
  6804 ;; Registers used:
  6805 ;;		wreg, fsr2l, fsr2h, status,2, status,0
  6806 ;; Tracked objects:
  6807 ;;		On entry : 0/0
  6808 ;;		On exit  : 0/0
  6809 ;;		Unchanged: 0/0
  6810 ;; Data sizes:     COMRAM   BANK0   BANK1   BANK2   BANK3   BANK4   BANK5   BANK6   BANK7   BANK8   BANK9  BANK10  BANK1
      +1  BANK12  BANK13  BANK14
  6811 ;;      Params:         0       0       0       0       0       0       0       0       0       0       0       0       
      +0       0       0       0
  6812 ;;      Locals:         0       0       0       0       0       0       0       0       0       0       0       0       
      +0       0       0       0
  6813 ;;      Temps:          0       0       0       0       0       0       0       0       0       0       0       0       
      +0       0       0       0
  6814 ;;      Totals:         0       0       0       0       0       0       0       0       0       0       0       0       
      +0       0       0       0
  6815 ;;Total ram usage:        0 bytes
  6816 ;; Hardware stack levels used: 1
  6817 ;; This function calls:
  6818 ;;		Nothing
  6819 ;; This function is called by:
  6820 ;;		_EUSART2_Receive_ISR
  6821 ;;		_EUSART2_DefaultErrorHandler
  6822 ;; This function uses a non-reentrant model
  6823 ;;
  6824                           
  6825                           	psect	text73
  6826  002086                     __ptext73:
  6827                           	callstack 0
  6828  002086                     _EUSART2_RxDataHandler:
  6829                           	callstack 19
  6830  002086                     
  6831                           ;mcc_generated_files/eusart2.c: 251:     eusart2RxBuffer[eusart2RxHead++] = RCREG2;
  6832  002086  0E8C               	movlw	low _eusart2RxBuffer
  6833  002088  243E               	addwf	_eusart2RxHead^0,w,c	;volatile
  6834  00208A  6ED9               	movwf	fsr2l,c
  6835  00208C  6ADA               	clrf	fsr2h,c
  6836  00208E  0E00               	movlw	high _eusart2RxBuffer
  6837  002090  22DA               	addwfc	fsr2h,f,c
  6838  002092  CFAA FFDF          	movff	4010,indf2	;volatile
  6839  002096  2A3E               	incf	_eusart2RxHead^0,f,c	;volatile
  6840  002098                     
  6841                           ;mcc_generated_files/eusart2.c: 252:     if(sizeof(eusart2RxBuffer) <= eusart2RxHead)
  6842  002098  0E07               	movlw	7
  6843  00209A  643E               	cpfsgt	_eusart2RxHead^0,c	;volatile
  6844  00209C  EF52  F010         	goto	i2u156_41
  6845  0020A0  EF54  F010         	goto	i2u156_40
  6846  0020A4                     i2u156_41:
  6847  0020A4  EF56  F010         	goto	i2l3212
  6848  0020A8                     i2u156_40:
  6849  0020A8                     
  6850                           ;mcc_generated_files/eusart2.c: 253:     {;mcc_generated_files/eusart2.c: 254:         e
      +                          usart2RxHead = 0;
  6851  0020A8  0E00               	movlw	0
  6852  0020AA  6E3E               	movwf	_eusart2RxHead^0,c	;volatile
  6853  0020AC                     i2l3212:
  6854                           
  6855                           ;mcc_generated_files/eusart2.c: 256:     eusart2RxCount++;
  6856  0020AC  2A3C               	incf	_eusart2RxCount^0,f,c	;volatile
  6857  0020AE  0012               	return		;funcret
  6858  0020B0                     __end_of_EUSART2_RxDataHandler:
  6859                           	callstack 0
  6860                           
  6861                           	psect	text74
  6862  000000                     __ptext74:
  6863                           	callstack 0
  6864  000000                     
  6865                           	psect	rparam
  6866  0000                     
  6867                           	psect	temp
  6868  000048                     btemp:
  6869                           	callstack 0
  6870  000048                     	ds	1
  6871  0000                     int$flags	set	btemp
  6872  0000                     wtemp8	set	btemp+1
  6873  0000                     ttemp5	set	btemp+1
  6874  0000                     ttemp6	set	btemp+4
  6875  0000                     ttemp7	set	btemp+8
  6876                           
  6877                           	psect	config
  6878                           
  6879                           ;Config register CONFIG1L @ 0xFFF8
  6880                           ;	Watchdog Timer
  6881                           ;	WDTEN = OFF, Disabled - Controlled by SWDTEN bit
  6882                           ;	PLL Prescaler Selection
  6883                           ;	PLLDIV = 2, Divide by 2 (8 MHz oscillator input)
  6884                           ;	PLL Enable Configuration Bit
  6885                           ;	CFGPLLEN = ON, PLL Enabled
  6886                           ;	Stack Overflow/Underflow Reset
  6887                           ;	STVREN = ON, Enabled
  6888                           ;	Extended Instruction Set
  6889                           ;	XINST = OFF, Disabled
  6890  FFF8                     	org	65528
  6891  FFF8  AC                 	db	172
  6892                           
  6893                           ;Config register CONFIG1H @ 0xFFF9
  6894                           ;	CPU System Clock Postscaler
  6895                           ;	CPUDIV = OSC1, No CPU system clock divide
  6896                           ;	Code Protect
  6897                           ;	CP0 = OFF, Program memory is not code-protected
  6898  FFF9                     	org	65529
  6899  FFF9  F7                 	db	247
  6900                           
  6901                           ;Config register CONFIG2L @ 0xFFFA
  6902                           ;	Oscillator
  6903                           ;	OSC = INTOSCPLL, INTOSCPLL
  6904                           ;	T1OSC/SOSC Power Selection Bits
  6905                           ;	SOSCSEL = DIG, Digital (SCLKI) mode selected
  6906                           ;	EC Clock Out Enable Bit
  6907                           ;	CLKOEC = OFF, CLKO output disabled on the RA6 pin
  6908                           ;	Fail-Safe Clock Monitor
  6909                           ;	FCMEN = ON, Enabled
  6910                           ;	Internal External Oscillator Switch Over Mode
  6911                           ;	IESO = ON, Enabled
  6912  FFFA                     	org	65530
  6913  FFFA  D2                 	db	210
  6914                           
  6915                           ;Config register CONFIG2H @ 0xFFFB
  6916                           ;	Watchdog Postscaler
  6917                           ;	WDTPS = 32768, 1:32768
  6918  FFFB                     	org	65531
  6919  FFFB  FF                 	db	255
  6920                           
  6921                           ;Config register CONFIG3L @ 0xFFFC
  6922                           ;	DSWDT Clock Select
  6923                           ;	DSWDTOSC = INTOSCREF, DSWDT uses INTRC
  6924                           ;	RTCC Clock Select
  6925                           ;	RTCOSC = T1OSCREF, RTCC uses T1OSC/T1CKI
  6926                           ;	Deep Sleep BOR
  6927                           ;	DSBOREN = ON, Enabled
  6928                           ;	Deep Sleep Watchdog Timer
  6929                           ;	DSWDTEN = ON, Enabled
  6930                           ;	Deep Sleep Watchdog Postscaler
  6931                           ;	DSWDTPS = G2, 1:2,147,483,648 (25.7 days)
  6932  FFFC                     	org	65532
  6933  FFFC  FF                 	db	255
  6934                           
  6935                           ;Config register CONFIG3H @ 0xFFFD
  6936                           ;	IOLOCK One-Way Set Enable bit
  6937                           ;	IOL1WAY = ON, The IOLOCK bit (PPSCON<0>) can be set once
  6938                           ;	ADC 10 or 12 Bit Select
  6939                           ;	ADCSEL = BIT10, 10 - Bit ADC Enabled
  6940                           ;	MSSP address masking
  6941                           ;	MSSP7B_EN = MSK7, 7 Bit address masking mode
  6942  FFFD                     	org	65533
  6943  FFFD  FB                 	db	251
  6944                           
  6945                           ;Config register CONFIG4L @ 0xFFFE
  6946                           ;	Write/Erase Protect Page Start/End Location
  6947                           ;	WPFP = PAGE_63, Write Protect Program Flash Page 63
  6948                           ;	Write/Erase Protect Configuration Region
  6949                           ;	WPCFG = OFF, Configuration Words page not erase/write-protected
  6950  FFFE                     	org	65534
  6951  FFFE  BF                 	db	191
  6952                           
  6953                           ;Config register CONFIG4H @ 0xFFFF
  6954                           ;	Write Protect Disable bit
  6955                           ;	WPDIS = OFF, WPFP<6:0>/WPEND region ignored
  6956                           ;	Write/Erase Protect Region Select bit (valid when WPDIS = 0)
  6957                           ;	WPEND = PAGE_WPFP, Pages WPFP<6:0> through Configuration Words erase/write protected
  6958                           ;	Low Speed USB mode with 48 MHz system clock bit
  6959                           ;	LS48MHZ = SYS48X8, System clock at 48 MHz USB CLKEN divide-by is set to 8
  6960  FFFF                     	org	65535
  6961  FFFF  FB                 	db	251
  6962                           tosu	equ	0xFFF
  6963                           tosh	equ	0xFFE
  6964                           tosl	equ	0xFFD
  6965                           stkptr	equ	0xFFC
  6966                           pclatu	equ	0xFFB
  6967                           pclath	equ	0xFFA
  6968                           pcl	equ	0xFF9
  6969                           tblptru	equ	0xFF8
  6970                           tblptrh	equ	0xFF7
  6971                           tblptrl	equ	0xFF6
  6972                           tablat	equ	0xFF5
  6973                           prodh	equ	0xFF4
  6974                           prodl	equ	0xFF3
  6975                           indf0	equ	0xFEF
  6976                           postinc0	equ	0xFEE
  6977                           postdec0	equ	0xFED
  6978                           preinc0	equ	0xFEC
  6979                           plusw0	equ	0xFEB
  6980                           fsr0h	equ	0xFEA
  6981                           fsr0l	equ	0xFE9
  6982                           wreg	equ	0xFE8
  6983                           indf1	equ	0xFE7
  6984                           postinc1	equ	0xFE6
  6985                           postdec1	equ	0xFE5
  6986                           preinc1	equ	0xFE4
  6987                           plusw1	equ	0xFE3
  6988                           fsr1h	equ	0xFE2
  6989                           fsr1l	equ	0xFE1
  6990                           bsr	equ	0xFE0
  6991                           indf2	equ	0xFDF
  6992                           postinc2	equ	0xFDE
  6993                           postdec2	equ	0xFDD
  6994                           preinc2	equ	0xFDC
  6995                           plusw2	equ	0xFDB
  6996                           fsr2h	equ	0xFDA
  6997                           fsr2l	equ	0xFD9
  6998                           status	equ	0xFD8

Data Sizes:
    Strings     14
    Constant    32
    Data        4
    BSS         110
    Persistent  13
    Stack       0

Auto Spaces:
    Space          Size  Autos    Used
    COMRAM           94     48      71
    BANK0           160     56     160
    BANK1           256     27      27
    BANK2           256      0       0
    BANK3           256      0       0
    BANK4           256      0       0
    BANK5           256      0       0
    BANK6           256      0       0
    BANK7           256      0       0
    BANK8           256      0       0
    BANK9           256      0       0
    BANK10          256      0       0
    BANK11          256      0       0
    BANK12          256      0       0
    BANK13          256      0       0
    BANK14          176      0       0

Pointer List with Targets:

    I2C1_Read1ByteRegister@returnValue.data	PTR unsigned char  size(2) Largest target is 0

    I2C1_Read2ByteRegister@returnValue.data	PTR unsigned char  size(2) Largest target is 0

    I2C1_Write1ByteRegister@data.data	PTR unsigned char  size(2) Largest target is 0

    I2C1_Write2ByteRegister@data.data	PTR unsigned char  size(2) Largest target is 0

    I2C1_DO_TX$3128$0	PTR void  size(2) Largest target is 5
		 -> I2C1_ReadDataBlock@bufferBlock(COMRAM[4]), I2C1_Write2ByteRegister@data(COMRAM[2]), I2C1_Write1ByteRegister@data(COMRAM[1]), I2C1_Read2ByteRegister@returnValue(COMRAM[2]), 
		 -> NULL(NULL[0]), I2C1_Read1ByteRegister@returnValue(COMRAM[1]), 

    I2C1_DO_RX$3134$0	PTR void  size(2) Largest target is 5
		 -> I2C1_ReadDataBlock@bufferBlock(COMRAM[4]), I2C1_Write2ByteRegister@data(COMRAM[2]), I2C1_Write1ByteRegister@data(COMRAM[1]), I2C1_Read2ByteRegister@returnValue(COMRAM[2]), 
		 -> NULL(NULL[0]), I2C1_Read1ByteRegister@returnValue(COMRAM[1]), 

    I2C1_DO_TX_EMPTY$3140$0	PTR void  size(2) Largest target is 5
		 -> I2C1_ReadDataBlock@bufferBlock(COMRAM[4]), I2C1_Write2ByteRegister@data(COMRAM[2]), I2C1_Write1ByteRegister@data(COMRAM[1]), I2C1_Read2ByteRegister@returnValue(COMRAM[2]), 
		 -> NULL(NULL[0]), I2C1_Read1ByteRegister@returnValue(COMRAM[1]), 

    I2C1_DO_RX_EMPTY$3146$0	PTR void  size(2) Largest target is 5
		 -> I2C1_ReadDataBlock@bufferBlock(COMRAM[4]), I2C1_Write2ByteRegister@data(COMRAM[2]), I2C1_Write1ByteRegister@data(COMRAM[1]), I2C1_Read2ByteRegister@returnValue(COMRAM[2]), 
		 -> NULL(NULL[0]), I2C1_Read1ByteRegister@returnValue(COMRAM[1]), 

    I2C1_DO_TX_EMPTY$3145	PTR void  size(2) Largest target is 5
		 -> I2C1_ReadDataBlock@bufferBlock(COMRAM[4]), I2C1_Write2ByteRegister@data(COMRAM[2]), I2C1_Write1ByteRegister@data(COMRAM[1]), I2C1_Read2ByteRegister@returnValue(COMRAM[2]), 
		 -> NULL(NULL[0]), I2C1_Read1ByteRegister@returnValue(COMRAM[1]), 

    I2C1_DO_TX_EMPTY$3140	PTR FTN(PTR void ,)enum E360 size(2) Largest target is 1
		 -> I2C1_CallbackReturnReset(), I2C1_CallbackReturnStop(), Absolute function(), rdBlkRegCompleteHandler(), 
		 -> wr2RegCompleteHandler(), wr1RegCompleteHandler(), rd2RegCompleteHandler(), rd1RegCompleteHandler(), 

    I2C1_DO_RX$3139	PTR void  size(2) Largest target is 5
		 -> I2C1_ReadDataBlock@bufferBlock(COMRAM[4]), I2C1_Write2ByteRegister@data(COMRAM[2]), I2C1_Write1ByteRegister@data(COMRAM[1]), I2C1_Read2ByteRegister@returnValue(COMRAM[2]), 
		 -> NULL(NULL[0]), I2C1_Read1ByteRegister@returnValue(COMRAM[1]), 

    I2C1_DO_RX$3134	PTR FTN(PTR void ,)enum E360 size(2) Largest target is 1
		 -> I2C1_CallbackReturnReset(), I2C1_CallbackReturnStop(), Absolute function(), rdBlkRegCompleteHandler(), 
		 -> wr2RegCompleteHandler(), wr1RegCompleteHandler(), rd2RegCompleteHandler(), rd1RegCompleteHandler(), 

    I2C1_DO_TX$3133	PTR void  size(2) Largest target is 5
		 -> I2C1_ReadDataBlock@bufferBlock(COMRAM[4]), I2C1_Write2ByteRegister@data(COMRAM[2]), I2C1_Write1ByteRegister@data(COMRAM[1]), I2C1_Read2ByteRegister@returnValue(COMRAM[2]), 
		 -> NULL(NULL[0]), I2C1_Read1ByteRegister@returnValue(COMRAM[1]), 

    I2C1_DO_TX$3128	PTR FTN(PTR void ,)enum E360 size(2) Largest target is 1
		 -> I2C1_CallbackReturnReset(), I2C1_CallbackReturnStop(), Absolute function(), rdBlkRegCompleteHandler(), 
		 -> wr2RegCompleteHandler(), wr1RegCompleteHandler(), rd2RegCompleteHandler(), rd1RegCompleteHandler(), 

    I2C1_MasterFsm$3127	const PTR FTN()enum E6655 size(2) Largest target is 1
		 -> I2C1_DO_ADDRESS_NACK(), I2C1_DO_RESET(), I2C1_DO_RX_NACK_RESTART(), I2C1_DO_RX_NACK_STOP(), 
		 -> I2C1_DO_RX_ACK(), I2C1_DO_SEND_STOP(), I2C1_DO_SEND_RESTART(), I2C1_DO_SEND_RESTART_WRITE(), 
		 -> I2C1_DO_SEND_RESTART_READ(), I2C1_DO_TX_EMPTY(), I2C1_DO_RCEN(), I2C1_DO_RX(), 
		 -> I2C1_DO_TX(), I2C1_DO_SEND_ADR_WRITE(), I2C1_DO_SEND_ADR_READ(), I2C1_DO_IDLE(), 

    I2C1_CallbackReturnStop@funPtr	PTR void  size(2) Largest target is 5
		 -> I2C1_ReadDataBlock@bufferBlock(COMRAM[4]), I2C1_Write2ByteRegister@data(COMRAM[2]), I2C1_Write1ByteRegister@data(COMRAM[1]), I2C1_Read2ByteRegister@returnValue(COMRAM[2]), 
		 -> NULL(NULL[0]), I2C1_Read1ByteRegister@returnValue(COMRAM[1]), 

    I2C1_CallbackReturnReset@funPtr	PTR void  size(2) Largest target is 5
		 -> I2C1_ReadDataBlock@bufferBlock(COMRAM[4]), I2C1_Write2ByteRegister@data(COMRAM[2]), I2C1_Write1ByteRegister@data(COMRAM[1]), I2C1_Read2ByteRegister@returnValue(COMRAM[2]), 
		 -> NULL(NULL[0]), I2C1_Read1ByteRegister@returnValue(COMRAM[1]), 

    cb$0	PTR void  size(2) Largest target is 5
		 -> I2C1_ReadDataBlock@bufferBlock(COMRAM[4]), I2C1_Write2ByteRegister@data(COMRAM[2]), I2C1_Write1ByteRegister@data(COMRAM[1]), I2C1_Read2ByteRegister@returnValue(COMRAM[2]), 
		 -> NULL(NULL[0]), I2C1_Read1ByteRegister@returnValue(COMRAM[1]), 

    Absolute function$0	PTR void  size(2) Largest target is 5
		 -> I2C1_ReadDataBlock@bufferBlock(COMRAM[4]), I2C1_Write2ByteRegister@data(COMRAM[2]), I2C1_Write1ByteRegister@data(COMRAM[1]), I2C1_Read2ByteRegister@returnValue(COMRAM[2]), 
		 -> NULL(NULL[0]), I2C1_Read1ByteRegister@returnValue(COMRAM[1]), 

    cb$0	PTR void  size(2) Largest target is 5
		 -> I2C1_ReadDataBlock@bufferBlock(COMRAM[4]), I2C1_Write2ByteRegister@data(COMRAM[2]), I2C1_Write1ByteRegister@data(COMRAM[1]), I2C1_Read2ByteRegister@returnValue(COMRAM[2]), 
		 -> NULL(NULL[0]), I2C1_Read1ByteRegister@returnValue(COMRAM[1]), 

    S605$0$0	PTR void  size(2) Largest target is 5
		 -> I2C1_ReadDataBlock@bufferBlock(COMRAM[4]), I2C1_Write2ByteRegister@data(COMRAM[2]), I2C1_Write1ByteRegister@data(COMRAM[1]), I2C1_Read2ByteRegister@returnValue(COMRAM[2]), 
		 -> NULL(NULL[0]), I2C1_Read1ByteRegister@returnValue(COMRAM[1]), 

    ADC_InterruptHandler	PTR FTN()void  size(2) Largest target is 1
		 -> Absolute function(), 

    strlen@s	PTR const unsigned char  size(2) Largest target is 32
		 -> dbuf(BANK0[32]), 

    strlen@a	PTR const unsigned char  size(2) Largest target is 32
		 -> dbuf(BANK0[32]), 

    fputs@s	PTR const unsigned char  size(2) Largest target is 32
		 -> dbuf(BANK0[32]), 

    fputs@fp	PTR struct _IO_FILE size(2) Largest target is 0
		 -> NULL(NULL[0]), 

    S2676$source	PTR const unsigned char  size(2) Largest target is 0

    fputc@fp...source	PTR const unsigned char  size(2) Largest target is 0

    S2676$buffer	PTR unsigned char  size(2) Largest target is 0

    fputc@fp...buffer	PTR unsigned char  size(2) Largest target is 0

    fputc@fp	PTR struct _IO_FILE size(2) Largest target is 0
		 -> NULL(NULL[0]), 

    vfprintf@ap	PTR PTR void  size(2) Largest target is 2
		 -> printf@ap(BANK1[2]), 

    vfprintf@fp	PTR struct _IO_FILE size(2) Largest target is 0
		 -> NULL(NULL[0]), 

    vfprintf@fmt	PTR const unsigned char  size(2) Largest target is 14
		 -> STR_1(CODE[14]), 

    vfprintf@cfmt	PTR unsigned char  size(2) Largest target is 14
		 -> STR_1(CODE[14]), 

    vfpfcnvrt@fp	PTR struct _IO_FILE size(2) Largest target is 0
		 -> NULL(NULL[0]), 

    vfpfcnvrt@ap	PTR PTR void  size(2) Largest target is 2
		 -> printf@ap(BANK1[2]), 

    vfpfcnvrt@fmt	PTR PTR unsigned char  size(2) Largest target is 2
		 -> vfprintf@cfmt(BANK0[2]), 

    dtoa@fp	PTR struct _IO_FILE size(2) Largest target is 0
		 -> NULL(NULL[0]), 

    pad@fp	PTR struct _IO_FILE size(2) Largest target is 0
		 -> NULL(NULL[0]), 

    pad@buf	PTR unsigned char  size(2) Largest target is 32
		 -> dbuf(BANK0[32]), 

    printf@fmt	PTR const unsigned char  size(2) Largest target is 14
		 -> STR_1(CODE[14]), 

    printf@ap	PTR void [1] size(2) Largest target is 2
		 -> ?_printf(BANK1[2]), 

    I2C1_SetCallback@ptr	PTR void  size(2) Largest target is 5
		 -> I2C1_ReadDataBlock@bufferBlock(COMRAM[4]), I2C1_Write2ByteRegister@data(COMRAM[2]), I2C1_Write1ByteRegister@data(COMRAM[1]), I2C1_Read2ByteRegister@returnValue(COMRAM[2]), 
		 -> NULL(NULL[0]), I2C1_Read1ByteRegister@returnValue(COMRAM[1]), 

    I2C1_SetCallback@cb	PTR FTN(PTR void ,)enum E360 size(2) Largest target is 1
		 -> Absolute function(), rdBlkRegCompleteHandler(), wr2RegCompleteHandler(), wr1RegCompleteHandler(), 
		 -> rd2RegCompleteHandler(), rd1RegCompleteHandler(), 

    MSSP1_InterruptHandler	PTR FTN()void  size(2) Largest target is 1
		 -> I2C1_MasterIsr(), Absolute function(), 

    I2C1_SetDataCompleteCallback@ptr	PTR void  size(2) Largest target is 5
		 -> I2C1_ReadDataBlock@bufferBlock(COMRAM[4]), I2C1_Write2ByteRegister@data(COMRAM[2]), I2C1_Write1ByteRegister@data(COMRAM[1]), I2C1_Read2ByteRegister@returnValue(COMRAM[2]), 
		 -> NULL(NULL[0]), I2C1_Read1ByteRegister@returnValue(COMRAM[1]), 

    I2C1_SetDataCompleteCallback@cb	PTR FTN(PTR void ,)enum E360 size(2) Largest target is 1
		 -> Absolute function(), rdBlkRegCompleteHandler(), wr2RegCompleteHandler(), wr1RegCompleteHandler(), 
		 -> rd2RegCompleteHandler(), rd1RegCompleteHandler(), 

    I2C1_SetBuffer@buffer	PTR void  size(2) Largest target is 5
		 -> I2C1_Read1ByteRegister@returnValue.data(COMRAM[3]), I2C1_Read2ByteRegister@returnValue.data(COMRAM[3]), I2C1_Write1ByteRegister@data.data(COMRAM[3]), I2C1_Write2ByteRegister@data.data(COMRAM[3]), 
		 -> I2C1_ReadDataBlock@reg(COMRAM[1]), I2C1_ReadDataBlock@bufferBlock(COMRAM[4]), bufferBlock.data(COMRAM[3]), I2C1_Write2ByteRegister@reg(COMRAM[1]), 
		 -> I2C1_Write2ByteRegister@data(COMRAM[2]), I2C1_Write1ByteRegister@reg(COMRAM[1]), I2C1_Write1ByteRegister@data(COMRAM[1]), I2C1_Read2ByteRegister@reg(COMRAM[1]), 
		 -> I2C1_Read2ByteRegister@returnValue(COMRAM[2]), NULL(NULL[0]), I2C1_Read1ByteRegister@reg(COMRAM[1]), I2C1_Read1ByteRegister@returnValue(COMRAM[1]), 

    S605$data_ptr	PTR unsigned char  size(2) Largest target is 5
		 -> I2C1_ReadDataBlock@reg(COMRAM[1]), I2C1_ReadDataBlock@bufferBlock(COMRAM[4]), I2C1_Write2ByteRegister@reg(COMRAM[1]), I2C1_Write2ByteRegister@data(COMRAM[2]), 
		 -> I2C1_Write1ByteRegister@reg(COMRAM[1]), I2C1_Write1ByteRegister@data(COMRAM[1]), I2C1_Read2ByteRegister@reg(COMRAM[1]), I2C1_Read2ByteRegister@returnValue(COMRAM[2]), 
		 -> NULL(NULL[0]), I2C1_Read1ByteRegister@reg(COMRAM[1]), I2C1_Read1ByteRegister@returnValue(COMRAM[1]), 

    I2C1_Status.data_ptr	PTR unsigned char  size(2) Largest target is 5
		 -> I2C1_Read1ByteRegister@returnValue.data(COMRAM[3]), I2C1_Read2ByteRegister@returnValue.data(COMRAM[3]), I2C1_Write1ByteRegister@data.data(COMRAM[3]), I2C1_Write2ByteRegister@data.data(COMRAM[3]), 
		 -> I2C1_ReadDataBlock@reg(COMRAM[1]), I2C1_ReadDataBlock@bufferBlock(COMRAM[4]), bufferBlock.data(COMRAM[3]), I2C1_Write2ByteRegister@reg(COMRAM[1]), 
		 -> I2C1_Write2ByteRegister@data(COMRAM[2]), I2C1_Write1ByteRegister@reg(COMRAM[1]), I2C1_Write1ByteRegister@data(COMRAM[1]), I2C1_Read2ByteRegister@reg(COMRAM[1]), 
		 -> I2C1_Read2ByteRegister@returnValue(COMRAM[2]), NULL(NULL[0]), I2C1_Read1ByteRegister@reg(COMRAM[1]), I2C1_Read1ByteRegister@returnValue(COMRAM[1]), 

    S605$callbackPayload	PTR void [6] size(2) Largest target is 5
		 -> I2C1_ReadDataBlock@bufferBlock(COMRAM[4]), I2C1_Write2ByteRegister@data(COMRAM[2]), I2C1_Write1ByteRegister@data(COMRAM[1]), I2C1_Read2ByteRegister@returnValue(COMRAM[2]), 
		 -> NULL(NULL[0]), I2C1_Read1ByteRegister@returnValue(COMRAM[1]), 

    I2C1_Status.callbackPayload	PTR void [6] size(2) Largest target is 5
		 -> I2C1_ReadDataBlock@bufferBlock(COMRAM[4]), I2C1_Write2ByteRegister@data(COMRAM[2]), I2C1_Write1ByteRegister@data(COMRAM[1]), I2C1_Read2ByteRegister@returnValue(COMRAM[2]), 
		 -> NULL(NULL[0]), I2C1_Read1ByteRegister@returnValue(COMRAM[1]), 

    S605$callbackTable	PTR FTN(PTR void ,)enum E360[6] size(2) Largest target is 1
		 -> I2C1_CallbackReturnReset(), I2C1_CallbackReturnStop(), Absolute function(), rdBlkRegCompleteHandler(), 
		 -> wr2RegCompleteHandler(), wr1RegCompleteHandler(), rd2RegCompleteHandler(), rd1RegCompleteHandler(), 

    I2C1_Status.callbackTable	PTR FTN(PTR void ,)enum E360[6] size(2) Largest target is 1
		 -> I2C1_CallbackReturnReset(), I2C1_CallbackReturnStop(), Absolute function(), rdBlkRegCompleteHandler(), 
		 -> wr2RegCompleteHandler(), wr1RegCompleteHandler(), rd2RegCompleteHandler(), rd1RegCompleteHandler(), 

    i2c1_fsmStateTable	const PTR FTN()enum E6655[16] size(2) Largest target is 1
		 -> I2C1_DO_ADDRESS_NACK(), I2C1_DO_RESET(), I2C1_DO_RX_NACK_RESTART(), I2C1_DO_RX_NACK_STOP(), 
		 -> I2C1_DO_RX_ACK(), I2C1_DO_SEND_STOP(), I2C1_DO_SEND_RESTART(), I2C1_DO_SEND_RESTART_WRITE(), 
		 -> I2C1_DO_SEND_RESTART_READ(), I2C1_DO_TX_EMPTY(), I2C1_DO_RCEN(), I2C1_DO_RX(), 
		 -> I2C1_DO_TX(), I2C1_DO_SEND_ADR_WRITE(), I2C1_DO_SEND_ADR_READ(), I2C1_DO_IDLE(), 

    EUSART2_SetRxInterruptHandler@interruptHandler	PTR FTN()void  size(2) Largest target is 1
		 -> EUSART2_Receive_ISR(), 

    EUSART2_RxDefaultInterruptHandler	PTR FTN()void  size(2) Largest target is 1
		 -> Absolute function(), EUSART2_Receive_ISR(), 

    EUSART2_SetTxInterruptHandler@interruptHandler	PTR FTN()void  size(2) Largest target is 1
		 -> EUSART2_Transmit_ISR(), 

    EUSART2_TxDefaultInterruptHandler	PTR FTN()void  size(2) Largest target is 1
		 -> Absolute function(), EUSART2_Transmit_ISR(), 

    EUSART2_SetErrorHandler@interruptHandler	PTR FTN()void  size(2) Largest target is 1
		 -> EUSART2_DefaultErrorHandler(), 

    EUSART2_SetOverrunErrorHandler@interruptHandler	PTR FTN()void  size(2) Largest target is 1
		 -> EUSART2_DefaultOverrunErrorHandler(), 

    EUSART2_SetFramingErrorHandler@interruptHandler	PTR FTN()void  size(2) Largest target is 1
		 -> EUSART2_DefaultFramingErrorHandler(), 

    EUSART2_ErrorHandler	PTR FTN()void  size(2) Largest target is 1
		 -> Absolute function(), EUSART2_DefaultErrorHandler(), 

    EUSART2_OverrunErrorHandler	PTR FTN()void  size(2) Largest target is 1
		 -> Absolute function(), EUSART2_DefaultOverrunErrorHandler(), 

    EUSART2_FramingErrorHandler	PTR FTN()void  size(2) Largest target is 1
		 -> Absolute function(), EUSART2_DefaultFramingErrorHandler(), 

    rdBlkRegCompleteHandler@ptr.data	PTR unsigned char  size(2) Largest target is 0

    rdBlkRegCompleteHandler@ptr	PTR void  size(2) Largest target is 5
		 -> I2C1_ReadDataBlock@bufferBlock(COMRAM[4]), I2C1_Write2ByteRegister@data(COMRAM[2]), I2C1_Write1ByteRegister@data(COMRAM[1]), I2C1_Read2ByteRegister@returnValue(COMRAM[2]), 
		 -> NULL(NULL[0]), I2C1_Read1ByteRegister@returnValue(COMRAM[1]), 

    wr2RegCompleteHandler@ptr	PTR void  size(2) Largest target is 5
		 -> I2C1_ReadDataBlock@bufferBlock(COMRAM[4]), I2C1_Write2ByteRegister@data(COMRAM[2]), I2C1_Write1ByteRegister@data(COMRAM[1]), I2C1_Read2ByteRegister@returnValue(COMRAM[2]), 
		 -> NULL(NULL[0]), I2C1_Read1ByteRegister@returnValue(COMRAM[1]), 

    wr1RegCompleteHandler@ptr	PTR void  size(2) Largest target is 5
		 -> I2C1_ReadDataBlock@bufferBlock(COMRAM[4]), I2C1_Write2ByteRegister@data(COMRAM[2]), I2C1_Write1ByteRegister@data(COMRAM[1]), I2C1_Read2ByteRegister@returnValue(COMRAM[2]), 
		 -> NULL(NULL[0]), I2C1_Read1ByteRegister@returnValue(COMRAM[1]), 

    rd2RegCompleteHandler@ptr	PTR void  size(2) Largest target is 5
		 -> I2C1_ReadDataBlock@bufferBlock(COMRAM[4]), I2C1_Write2ByteRegister@data(COMRAM[2]), I2C1_Write1ByteRegister@data(COMRAM[1]), I2C1_Read2ByteRegister@returnValue(COMRAM[2]), 
		 -> NULL(NULL[0]), I2C1_Read1ByteRegister@returnValue(COMRAM[1]), 

    rd1RegCompleteHandler@ptr	PTR void  size(2) Largest target is 5
		 -> I2C1_ReadDataBlock@bufferBlock(COMRAM[4]), I2C1_Write2ByteRegister@data(COMRAM[2]), I2C1_Write1ByteRegister@data(COMRAM[1]), I2C1_Read2ByteRegister@returnValue(COMRAM[2]), 
		 -> NULL(NULL[0]), I2C1_Read1ByteRegister@returnValue(COMRAM[1]), 

    S97$data	PTR unsigned char  size(2) Largest target is 0

    bufferBlock.data	PTR unsigned char  size(2) Largest target is 0


Critical Paths under _main in COMRAM

    _dtoa->_pad
    _pad->_fputs
    _fputs->_fputc
    _fputc->_putch
    _putch->_EUSART2_Write
    _abs->___aomod
    _SYSTEM_Initialize->_TMR1_Initialize
    _EUSART2_Initialize->_EUSART2_SetErrorHandler
    _EUSART2_Initialize->_EUSART2_SetFramingErrorHandler
    _EUSART2_Initialize->_EUSART2_SetOverrunErrorHandler
    _EUSART2_Initialize->_EUSART2_SetRxInterruptHandler
    _EUSART2_Initialize->_EUSART2_SetTxInterruptHandler

Critical Paths under _INTERRUPT_InterruptManager in COMRAM

    _I2C1_MasterFsm->_I2C1_DO_ADDRESS_NACK
    _I2C1_MasterFsm->_I2C1_DO_RX
    _I2C1_MasterFsm->_I2C1_DO_TX
    _I2C1_MasterFsm->_I2C1_DO_TX_EMPTY
    _I2C1_DO_TX_EMPTY->_I2C1_CallbackReturnReset
    _I2C1_DO_TX_EMPTY->_I2C1_CallbackReturnStop
    _I2C1_DO_TX_EMPTY->_rd1RegCompleteHandler
    _I2C1_DO_TX_EMPTY->_rd2RegCompleteHandler
    _I2C1_DO_TX_EMPTY->_rdBlkRegCompleteHandler
    _I2C1_DO_TX_EMPTY->_wr1RegCompleteHandler
    _I2C1_DO_TX_EMPTY->_wr2RegCompleteHandler
    _I2C1_DO_TX->_I2C1_CallbackReturnReset
    _I2C1_DO_TX->_I2C1_CallbackReturnStop
    _I2C1_DO_TX->_rd1RegCompleteHandler
    _I2C1_DO_TX->_rd2RegCompleteHandler
    _I2C1_DO_TX->_rdBlkRegCompleteHandler
    _I2C1_DO_TX->_wr1RegCompleteHandler
    _I2C1_DO_TX->_wr2RegCompleteHandler
    _I2C1_DO_SEND_ADR_WRITE->_I2C1_MasterSendTxData
    _I2C1_DO_RX->_I2C1_CallbackReturnReset
    _I2C1_DO_RX->_I2C1_CallbackReturnStop
    _I2C1_DO_RX->_rd1RegCompleteHandler
    _I2C1_DO_RX->_rd2RegCompleteHandler
    _I2C1_DO_RX->_rdBlkRegCompleteHandler
    _I2C1_DO_RX->_wr1RegCompleteHandler
    _I2C1_DO_RX->_wr2RegCompleteHandler
    _I2C1_DO_ADDRESS_NACK->_I2C1_CallbackReturnReset
    _I2C1_DO_ADDRESS_NACK->_I2C1_CallbackReturnStop
    _I2C1_DO_ADDRESS_NACK->_rd1RegCompleteHandler
    _I2C1_DO_ADDRESS_NACK->_rd2RegCompleteHandler
    _I2C1_DO_ADDRESS_NACK->_rdBlkRegCompleteHandler
    _I2C1_DO_ADDRESS_NACK->_wr1RegCompleteHandler
    _I2C1_DO_ADDRESS_NACK->_wr2RegCompleteHandler
    _wr2RegCompleteHandler->_I2C1_SetDataCompleteCallback
    _wr1RegCompleteHandler->_I2C1_SetDataCompleteCallback
    _rdBlkRegCompleteHandler->_I2C1_SetDataCompleteCallback
    _rd2RegCompleteHandler->_I2C1_SetDataCompleteCallback
    _rd1RegCompleteHandler->_I2C1_SetDataCompleteCallback
    _I2C1_SetDataCompleteCallback->_I2C1_SetCallback

Critical Paths under _main in BANK0

    _printf->_vfprintf
    _vfprintf->_vfpfcnvrt
    _vfpfcnvrt->_dtoa
    _dtoa->___aodiv

Critical Paths under _INTERRUPT_InterruptManager in BANK0

    None.

Critical Paths under _main in BANK1

    _main->_printf
    _printf->_vfprintf
    _vfprintf->_vfpfcnvrt

Critical Paths under _INTERRUPT_InterruptManager in BANK1

    None.

Critical Paths under _main in BANK2

    None.

Critical Paths under _INTERRUPT_InterruptManager in BANK2

    None.

Critical Paths under _main in BANK3

    None.

Critical Paths under _INTERRUPT_InterruptManager in BANK3

    None.

Critical Paths under _main in BANK4

    None.

Critical Paths under _INTERRUPT_InterruptManager in BANK4

    None.

Critical Paths under _main in BANK5

    None.

Critical Paths under _INTERRUPT_InterruptManager in BANK5

    None.

Critical Paths under _main in BANK6

    None.

Critical Paths under _INTERRUPT_InterruptManager in BANK6

    None.

Critical Paths under _main in BANK7

    None.

Critical Paths under _INTERRUPT_InterruptManager in BANK7

    None.

Critical Paths under _main in BANK8

    None.

Critical Paths under _INTERRUPT_InterruptManager in BANK8

    None.

Critical Paths under _main in BANK9

    None.

Critical Paths under _INTERRUPT_InterruptManager in BANK9

    None.

Critical Paths under _main in BANK10

    None.

Critical Paths under _INTERRUPT_InterruptManager in BANK10

    None.

Critical Paths under _main in BANK11

    None.

Critical Paths under _INTERRUPT_InterruptManager in BANK11

    None.

Critical Paths under _main in BANK12

    None.

Critical Paths under _INTERRUPT_InterruptManager in BANK12

    None.

Critical Paths under _main in BANK13

    None.

Critical Paths under _INTERRUPT_InterruptManager in BANK13

    None.

Critical Paths under _main in BANK14

    None.

Critical Paths under _INTERRUPT_InterruptManager in BANK14

    None.

Call Graph Tables:

 ---------------------------------------------------------------------------------
 (Depth) Function   	        Calls       Base Space   Used Autos Params    Refs
 ---------------------------------------------------------------------------------
 (0) _main                                                19    19      0    8818
                                             22 BANK1      5     5      0
                  _ADC_GetConversion
                  _SYSTEM_Initialize
                             _printf
 ---------------------------------------------------------------------------------
 (1) _printf                                              10     4      6    8102
                                             14 BANK1      8     2      6
                           _vfprintf
 ---------------------------------------------------------------------------------
 (2) _vfprintf                                             8     2      6    7931
                                             54 BANK0      2     2      0
                                              8 BANK1      6     0      6
                          _vfpfcnvrt
 ---------------------------------------------------------------------------------
 (3) _vfpfcnvrt                                           42    36      6    7458
                                             46 BANK0      8     2      6
                                              0 BANK1      8     8      0
                               _dtoa
                              _fputc
 ---------------------------------------------------------------------------------
 (4) _dtoa                                                36    26     10    5683
                                             10 BANK0     36    26     10
                            ___aodiv
                            ___aomod
                                _abs
                                _pad
 ---------------------------------------------------------------------------------
 (5) _pad                                                 11     5      6    3417
                                             41 COMRAM     7     1      6
                                              0 BANK0      4     4      0
                              _fputc
                              _fputs
                             _strlen
 ---------------------------------------------------------------------------------
 (6) _strlen                                               4     2      2     220
                                             23 COMRAM     4     2      2
 ---------------------------------------------------------------------------------
 (6) _fputs                                                7     3      4    1537
                                             34 COMRAM     7     3      4
                              _fputc
 ---------------------------------------------------------------------------------
 (4) _fputc                                                9     5      4    1037
                                             25 COMRAM     9     5      4
                              _putch
 ---------------------------------------------------------------------------------
 (5) _putch                                                1     1      0      93
                                             24 COMRAM     1     1      0
                      _EUSART2_Write
 ---------------------------------------------------------------------------------
 (6) _EUSART2_Write                                        1     1      0      62
                                             23 COMRAM     1     1      0
 ---------------------------------------------------------------------------------
 (5) _abs                                                  4     2      2     183
                                             41 COMRAM     4     2      2
                            ___aomod (ARG)
 ---------------------------------------------------------------------------------
 (5) ___aomod                                             18     2     16     613
                                             23 COMRAM    18     2     16
 ---------------------------------------------------------------------------------
 (5) ___aodiv                                             26    10     16     625
                                             23 COMRAM    16     0     16
                                              0 BANK0     10    10      0
 ---------------------------------------------------------------------------------
 (1) _SYSTEM_Initialize                                    0     0      0     605
                     _ADC_Initialize
                 _EUSART2_Initialize
                    _I2C1_Initialize
               _INTERRUPT_Initialize
              _OSCILLATOR_Initialize
             _PIN_MANAGER_Initialize
                    _TMR1_Initialize
                    _TMR2_Initialize
 ---------------------------------------------------------------------------------
 (2) _TMR2_Initialize                                      0     0      0       0
 ---------------------------------------------------------------------------------
 (2) _TMR1_Initialize                                      2     2      0       0
                                             23 COMRAM     2     2      0
 ---------------------------------------------------------------------------------
 (2) _PIN_MANAGER_Initialize                               0     0      0       0
 ---------------------------------------------------------------------------------
 (2) _OSCILLATOR_Initialize                                0     0      0       0
 ---------------------------------------------------------------------------------
 (2) _INTERRUPT_Initialize                                 0     0      0       0
 ---------------------------------------------------------------------------------
 (2) _I2C1_Initialize                                      0     0      0       0
 ---------------------------------------------------------------------------------
 (2) _EUSART2_Initialize                                   0     0      0     605
            _EUSART2_SetErrorHandler
     _EUSART2_SetFramingErrorHandler
     _EUSART2_SetOverrunErrorHandler
      _EUSART2_SetRxInterruptHandler
      _EUSART2_SetTxInterruptHandler
 ---------------------------------------------------------------------------------
 (3) _EUSART2_SetTxInterruptHandler                        2     0      2     121
                                             23 COMRAM     2     0      2
 ---------------------------------------------------------------------------------
 (3) _EUSART2_SetRxInterruptHandler                        2     0      2     121
                                             23 COMRAM     2     0      2
 ---------------------------------------------------------------------------------
 (3) _EUSART2_SetOverrunErrorHandler                       2     0      2     121
                                             23 COMRAM     2     0      2
 ---------------------------------------------------------------------------------
 (3) _EUSART2_SetFramingErrorHandler                       2     0      2     121
                                             23 COMRAM     2     0      2
 ---------------------------------------------------------------------------------
 (3) _EUSART2_SetErrorHandler                              2     0      2     121
                                             23 COMRAM     2     0      2
 ---------------------------------------------------------------------------------
 (2) _ADC_Initialize                                       0     0      0       0
 ---------------------------------------------------------------------------------
 (1) _ADC_GetConversion                                    5     3      2      31
                                             23 COMRAM     5     3      2
 ---------------------------------------------------------------------------------
 Estimated maximum stack depth 6
 ---------------------------------------------------------------------------------
 (Depth) Function   	        Calls       Base Space   Used Autos Params    Refs
 ---------------------------------------------------------------------------------
 (10) _INTERRUPT_InterruptManager                         10    10      0   88574
                                             13 COMRAM    10    10      0
                   Absolute function *
                _EUSART2_Receive_ISR *
               _EUSART2_Transmit_ISR *
                     _I2C1_MasterIsr *
 ---------------------------------------------------------------------------------
 (11) _I2C1_MasterIsr                                      0     0      0   88574
                     _I2C1_MasterFsm
 ---------------------------------------------------------------------------------
 (12) _I2C1_MasterFsm                                      0     0      0   88574
               _I2C1_DO_ADDRESS_NACK *
                       _I2C1_DO_IDLE *
                       _I2C1_DO_RCEN *
                      _I2C1_DO_RESET *
                         _I2C1_DO_RX *
                     _I2C1_DO_RX_ACK *
            _I2C1_DO_RX_NACK_RESTART *
               _I2C1_DO_RX_NACK_STOP *
              _I2C1_DO_SEND_ADR_READ *
             _I2C1_DO_SEND_ADR_WRITE *
               _I2C1_DO_SEND_RESTART *
          _I2C1_DO_SEND_RESTART_READ *
         _I2C1_DO_SEND_RESTART_WRITE *
                  _I2C1_DO_SEND_STOP *
                         _I2C1_DO_TX *
                   _I2C1_DO_TX_EMPTY *
                _I2C1_MasterClearIrq
                  _I2C1_MasterIsNack
 ---------------------------------------------------------------------------------
 (13) _I2C1_MasterClearIrq                                 0     0      0       0
 ---------------------------------------------------------------------------------
 (13) _I2C1_DO_TX_EMPTY                                    2     2      0   22127
                                             11 COMRAM     2     2      0
                   Absolute function *
           _I2C1_CallbackReturnReset *
            _I2C1_CallbackReturnStop *
               _I2C1_DO_SEND_RESTART
                  _I2C1_DO_SEND_STOP
                  _I2C1_MasterSetIrq
              _rd1RegCompleteHandler *
              _rd2RegCompleteHandler *
            _rdBlkRegCompleteHandler *
              _wr1RegCompleteHandler *
              _wr2RegCompleteHandler *
 ---------------------------------------------------------------------------------
 (14) _I2C1_MasterSetIrq                                   0     0      0       0
 ---------------------------------------------------------------------------------
 (13) _I2C1_DO_TX                                          2     2      0   22149
                                             11 COMRAM     2     2      0
                   Absolute function *
           _I2C1_CallbackReturnReset *
            _I2C1_CallbackReturnStop *
          _I2C1_DO_SEND_RESTART_READ
         _I2C1_DO_SEND_RESTART_WRITE
                  _I2C1_DO_SEND_STOP
                  _I2C1_MasterIsNack
              _I2C1_MasterSendTxData
              _rd1RegCompleteHandler *
              _rd2RegCompleteHandler *
            _rdBlkRegCompleteHandler *
              _wr1RegCompleteHandler *
              _wr2RegCompleteHandler *
 ---------------------------------------------------------------------------------
 (13) _I2C1_MasterIsNack                                   0     0      0       0
 ---------------------------------------------------------------------------------
 (14) _I2C1_DO_SEND_RESTART_WRITE                          0     0      0       0
           _I2C1_MasterEnableRestart
 ---------------------------------------------------------------------------------
 (14) _I2C1_DO_SEND_RESTART_READ                           0     0      0       0
           _I2C1_MasterEnableRestart
 ---------------------------------------------------------------------------------
 (13) _I2C1_DO_SEND_ADR_WRITE                              0     0      0      22
              _I2C1_MasterSendTxData
 ---------------------------------------------------------------------------------
 (13) _I2C1_DO_SEND_ADR_READ                               0     0      0      22
              _I2C1_MasterSendTxData
 ---------------------------------------------------------------------------------
 (14) _I2C1_MasterSendTxData                               1     1      0      22
                                              0 COMRAM     1     1      0
 ---------------------------------------------------------------------------------
 (13) _I2C1_DO_RX_ACK                                      0     0      0       0
                 _I2C1_MasterSendAck
 ---------------------------------------------------------------------------------
 (13) _I2C1_DO_RX                                          2     2      0   22127
                                             11 COMRAM     2     2      0
                   Absolute function *
           _I2C1_CallbackReturnReset *
            _I2C1_CallbackReturnStop *
            _I2C1_DO_RX_NACK_RESTART
               _I2C1_DO_RX_NACK_STOP
               _I2C1_MasterGetRxData
                 _I2C1_MasterSendAck
              _rd1RegCompleteHandler *
              _rd2RegCompleteHandler *
            _rdBlkRegCompleteHandler *
              _wr1RegCompleteHandler *
              _wr2RegCompleteHandler *
 ---------------------------------------------------------------------------------
 (14) _I2C1_MasterSendAck                                  0     0      0       0
 ---------------------------------------------------------------------------------
 (14) _I2C1_MasterGetRxData                                0     0      0       0
 ---------------------------------------------------------------------------------
 (13) _I2C1_DO_RX_NACK_STOP                                0     0      0       0
                _I2C1_MasterSendNack
 ---------------------------------------------------------------------------------
 (13) _I2C1_DO_RX_NACK_RESTART                             0     0      0       0
                _I2C1_MasterSendNack
 ---------------------------------------------------------------------------------
 (14) _I2C1_MasterSendNack                                 0     0      0       0
 ---------------------------------------------------------------------------------
 (13) _I2C1_DO_RESET                                       0     0      0       0
 ---------------------------------------------------------------------------------
 (13) _I2C1_DO_RCEN                                        0     0      0       0
                 _I2C1_MasterStartRx
 ---------------------------------------------------------------------------------
 (14) _I2C1_MasterStartRx                                  0     0      0       0
 ---------------------------------------------------------------------------------
 (13) _I2C1_DO_IDLE                                        0     0      0       0
 ---------------------------------------------------------------------------------
 (13) _I2C1_DO_ADDRESS_NACK                                2     2      0   22127
                                             11 COMRAM     2     2      0
                   Absolute function *
           _I2C1_CallbackReturnReset *
            _I2C1_CallbackReturnStop *
               _I2C1_DO_SEND_RESTART
                  _I2C1_DO_SEND_STOP
              _rd1RegCompleteHandler *
              _rd2RegCompleteHandler *
            _rdBlkRegCompleteHandler *
              _wr1RegCompleteHandler *
              _wr2RegCompleteHandler *
 ---------------------------------------------------------------------------------
 (14) _wr2RegCompleteHandler                               2     0      2    4368
                                              9 COMRAM     2     0      2
                     _I2C1_SetBuffer
       _I2C1_SetDataCompleteCallback
 ---------------------------------------------------------------------------------
 (14) _wr1RegCompleteHandler                               2     0      2    4368
                                              9 COMRAM     2     0      2
                     _I2C1_SetBuffer
       _I2C1_SetDataCompleteCallback
 ---------------------------------------------------------------------------------
 (14) _rdBlkRegCompleteHandler                             2     0      2    4390
                                              9 COMRAM     2     0      2
                     _I2C1_SetBuffer
       _I2C1_SetDataCompleteCallback
 ---------------------------------------------------------------------------------
 (14) _rd2RegCompleteHandler                               2     0      2    4368
                                              9 COMRAM     2     0      2
                     _I2C1_SetBuffer
       _I2C1_SetDataCompleteCallback
 ---------------------------------------------------------------------------------
 (14) _rd1RegCompleteHandler                               2     0      2    4368
                                              9 COMRAM     2     0      2
                     _I2C1_SetBuffer
       _I2C1_SetDataCompleteCallback
 ---------------------------------------------------------------------------------
 (15) _I2C1_SetDataCompleteCallback                        4     0      4    2478
                                              5 COMRAM     4     0      4
                   _I2C1_SetCallback
 ---------------------------------------------------------------------------------
 (16) _I2C1_SetCallback                                    5     1      4     914
                                              0 COMRAM     5     1      4
 ---------------------------------------------------------------------------------
 (15) _I2C1_SetBuffer                                      4     0      4    1868
                                              0 COMRAM     4     0      4
 ---------------------------------------------------------------------------------
 (14) _I2C1_DO_SEND_STOP                                   0     0      0       0
                    _I2C1_MasterStop
 ---------------------------------------------------------------------------------
 (15) _I2C1_MasterStop                                     0     0      0       0
 ---------------------------------------------------------------------------------
 (14) _I2C1_DO_SEND_RESTART                                0     0      0       0
           _I2C1_MasterEnableRestart
 ---------------------------------------------------------------------------------
 (15) _I2C1_MasterEnableRestart                            0     0      0       0
 ---------------------------------------------------------------------------------
 (14) _I2C1_CallbackReturnStop                             2     0      2       0
                                              9 COMRAM     2     0      2
 ---------------------------------------------------------------------------------
 (14) _I2C1_CallbackReturnReset                            2     0      2     265
                                              9 COMRAM     2     0      2
 ---------------------------------------------------------------------------------
 (11) _EUSART2_Transmit_ISR                                0     0      0       0
 ---------------------------------------------------------------------------------
 (11) _EUSART2_Receive_ISR                                 0     0      0       0
                   Absolute function *
        _EUSART2_DefaultErrorHandler *
 _EUSART2_DefaultFramingErrorHandler *
 _EUSART2_DefaultOverrunErrorHandler *
              _EUSART2_RxDataHandler
 ---------------------------------------------------------------------------------
 (12) _EUSART2_DefaultOverrunErrorHandler                  0     0      0       0
 ---------------------------------------------------------------------------------
 (12) _EUSART2_DefaultFramingErrorHandler                  0     0      0       0
 ---------------------------------------------------------------------------------
 (12) _EUSART2_DefaultErrorHandler                         0     0      0       0
              _EUSART2_RxDataHandler
 ---------------------------------------------------------------------------------
 (12) _EUSART2_RxDataHandler                               0     0      0       0
 ---------------------------------------------------------------------------------
 (14) Absolute function(Fake)                              2     0      2       0
 ---------------------------------------------------------------------------------
 Estimated maximum stack depth 16
 ---------------------------------------------------------------------------------

 Call Graph Graphs:

 _main (ROOT)
   _ADC_GetConversion
   _SYSTEM_Initialize
     _ADC_Initialize
     _EUSART2_Initialize
       _EUSART2_SetErrorHandler
       _EUSART2_SetFramingErrorHandler
       _EUSART2_SetOverrunErrorHandler
       _EUSART2_SetRxInterruptHandler
       _EUSART2_SetTxInterruptHandler
     _I2C1_Initialize
     _INTERRUPT_Initialize
     _OSCILLATOR_Initialize
     _PIN_MANAGER_Initialize
     _TMR1_Initialize
     _TMR2_Initialize
   _printf
     _vfprintf
       _vfpfcnvrt
         _dtoa
           ___aodiv
           ___aomod
           _abs
             ___aomod (ARG)
           _pad
             _fputc
               _putch
                 _EUSART2_Write
             _fputs
               _fputc
             _strlen
         _fputc

 _INTERRUPT_InterruptManager (ROOT)
   Absolute function(Fake) *
   _EUSART2_Receive_ISR *
     Absolute function(Fake) *
     _EUSART2_DefaultErrorHandler *
       _EUSART2_RxDataHandler
     _EUSART2_DefaultFramingErrorHandler *
     _EUSART2_DefaultOverrunErrorHandler *
     _EUSART2_RxDataHandler *
   _EUSART2_Transmit_ISR *
   _I2C1_MasterIsr *
     _I2C1_MasterFsm
       _I2C1_DO_ADDRESS_NACK *
         Absolute function(Fake) *
         _I2C1_CallbackReturnReset *
         _I2C1_CallbackReturnStop *
         _I2C1_DO_SEND_RESTART *
           _I2C1_MasterEnableRestart
         _I2C1_DO_SEND_STOP *
           _I2C1_MasterStop
         _rd1RegCompleteHandler *
           _I2C1_SetBuffer
           _I2C1_SetDataCompleteCallback
             _I2C1_SetCallback
         _rd2RegCompleteHandler *
           _I2C1_SetBuffer
           _I2C1_SetDataCompleteCallback
         _rdBlkRegCompleteHandler *
           _I2C1_SetBuffer
           _I2C1_SetDataCompleteCallback
         _wr1RegCompleteHandler *
           _I2C1_SetBuffer
           _I2C1_SetDataCompleteCallback
         _wr2RegCompleteHandler *
           _I2C1_SetBuffer
           _I2C1_SetDataCompleteCallback
       _I2C1_DO_IDLE *
       _I2C1_DO_RCEN *
         _I2C1_MasterStartRx
       _I2C1_DO_RESET *
       _I2C1_DO_RX *
         Absolute function(Fake) *
         _I2C1_CallbackReturnReset *
         _I2C1_CallbackReturnStop *
         _I2C1_DO_RX_NACK_RESTART *
           _I2C1_MasterSendNack
         _I2C1_DO_RX_NACK_STOP *
           _I2C1_MasterSendNack
         _I2C1_MasterGetRxData *
         _I2C1_MasterSendAck *
         _rd1RegCompleteHandler *
         _rd2RegCompleteHandler *
         _rdBlkRegCompleteHandler *
         _wr1RegCompleteHandler *
         _wr2RegCompleteHandler *
       _I2C1_DO_RX_ACK *
         _I2C1_MasterSendAck
       _I2C1_DO_RX_NACK_RESTART *
       _I2C1_DO_RX_NACK_STOP *
       _I2C1_DO_SEND_ADR_READ *
         _I2C1_MasterSendTxData
       _I2C1_DO_SEND_ADR_WRITE *
         _I2C1_MasterSendTxData
       _I2C1_DO_SEND_RESTART *
       _I2C1_DO_SEND_RESTART_READ *
         _I2C1_MasterEnableRestart
       _I2C1_DO_SEND_RESTART_WRITE *
         _I2C1_MasterEnableRestart
       _I2C1_DO_SEND_STOP *
       _I2C1_DO_TX *
         Absolute function(Fake) *
         _I2C1_CallbackReturnReset *
         _I2C1_CallbackReturnStop *
         _I2C1_DO_SEND_RESTART_READ *
         _I2C1_DO_SEND_RESTART_WRITE *
         _I2C1_DO_SEND_STOP *
         _I2C1_MasterIsNack *
         _I2C1_MasterSendTxData *
         _rd1RegCompleteHandler *
         _rd2RegCompleteHandler *
         _rdBlkRegCompleteHandler *
         _wr1RegCompleteHandler *
         _wr2RegCompleteHandler *
       _I2C1_DO_TX_EMPTY *
         Absolute function(Fake) *
         _I2C1_CallbackReturnReset *
         _I2C1_CallbackReturnStop *
         _I2C1_DO_SEND_RESTART *
         _I2C1_DO_SEND_STOP *
         _I2C1_MasterSetIrq *
         _rd1RegCompleteHandler *
         _rd2RegCompleteHandler *
         _rdBlkRegCompleteHandler *
         _wr1RegCompleteHandler *
         _wr2RegCompleteHandler *
       _I2C1_MasterClearIrq *
       _I2C1_MasterIsNack *

 Address spaces:
Name               Size   Autos  Total    Cost      Usage
BIGRAM             EAF      0       0      52        0.0%
BITBANK13          100      0       0      29        0.0%
BANK13             100      0       0      30        0.0%
BITBANK12          100      0       0      27        0.0%
BANK12             100      0       0      28        0.0%
BITBANK11          100      0       0      25        0.0%
BANK11             100      0       0      26        0.0%
BITBANK10          100      0       0      23        0.0%
BANK10             100      0       0      24        0.0%
BITBANK9           100      0       0      21        0.0%
BANK9              100      0       0      22        0.0%
BITBANK8           100      0       0      19        0.0%
BANK8              100      0       0      20        0.0%
BITBANK7           100      0       0      17        0.0%
BANK7              100      0       0      18        0.0%
BITBANK6           100      0       0      15        0.0%
BANK6              100      0       0      16        0.0%
BITBANK5           100      0       0      13        0.0%
BANK5              100      0       0      14        0.0%
BITBANK4           100      0       0      11        0.0%
BANK4              100      0       0      12        0.0%
BITBANK3           100      0       0       9        0.0%
BANK3              100      0       0      10        0.0%
BITBANK2           100      0       0       7        0.0%
BANK2              100      0       0       8        0.0%
BITBANK1           100      0       0       5        0.0%
BANK1              100     1B      1B       6       10.5%
BITBANK14           B0      0       0      31        0.0%
BANK14              B0      0       0      32        0.0%
BITBANK0            A0      0       0       3        0.0%
BANK0               A0     38      A0       4      100.0%
BITCOMRAM           5E      0       0       0        0.0%
COMRAM              5E     30      47       1       75.5%
BITBIGSFRlllh       45      0       0      47        0.0%
BITBIGSFRllhh       32      0       0      44        0.0%
BITBIGSFRllllh      25      0       0      48        0.0%
BITBIGSFRhhhhl      1D      0       0      34        0.0%
BITBIGSFRlllllh     18      0       0      49        0.0%
BITBIGSFRhhhlll     15      0       0      36        0.0%
BITBIGSFRhhhhh       D      0       0      33        0.0%
BITBIGSFRlhll        9      0       0      43        0.0%
BITBIGSFRllllll      8      0       0      50        0.0%
BITBIGSFRlhlhhl      6      0       0      41        0.0%
BITBIGSFRllhlh       5      0       0      45        0.0%
BITBIGSFRlhlhhh      5      0       0      40        0.0%
BITBIGSFRhl          3      0       0      37        0.0%
BITBIGSFRhhhlhh      2      0       0      35        0.0%
BITBIGSFRllhll       2      0       0      46        0.0%
BITBIGSFRlhhh        1      0       0      38        0.0%
BITBIGSFRlhlhl       1      0       0      42        0.0%
BITBIGSFRlhhl        1      0       0      39        0.0%
BIGSFR               0      0       0     200        0.0%
BITSFR_2             0      0       0     200        0.0%
SFR_2                0      0       0     200        0.0%
BITSFR_1             0      0       0     200        0.0%
SFR_1                0      0       0     200        0.0%
BITSFR               0      0       0     200        0.0%
SFR                  0      0       0     200        0.0%
STACK                0      0       0       2        0.0%
NULL                 0      0       0       0        0.0%
ABS                  0      0     102      51        0.0%
DATA                 0      0     102      53        0.0%
CODE                 0      0       0       0        0.0%


Microchip Technology PIC18 Macro Assembler V2.35 build 20211206165544 
Symbol Table                                                                                   Thu Apr 21 12:44:51 2022

                        ?_EUSART2_RxDataHandler 0001                                             l203 1D74  
                                           l204 1D8A                                             l213 21EC  
                                           l207 1DB6                                             l242 2214  
                                           l251 21F6                                             l245 220A  
                                           l254 2200                                             l248 221E  
                                           l179 1C2E                                             l283 211C  
                                           l286 2166                                             l395 217A  
                                           l814 1F54                                             l718 2284  
                                           l752 2084                                             l817 1F74  
                                           l658 1F3A                                             l674 219E  
                                           l853 1B04                                             l856 1B0A  
                                           l990 16B6                                             l799 213A  
                                           l977 1552                                             _PR2 000FCB  
        __end_of_EUSART2_SetFramingErrorHandler 2216                  _EUSART2_SetFramingErrorHandler 220C  
                               _timer1ReloadVal 0045                                             _abs 1E42  
                                           _pad 16B8                                 _TMR2_Initialize 2190  
                                           prod 000FF3                                             tosl 000FFD  
                                           wreg 000FE8                          ?_I2C1_MasterSendTxData 0001  
                                    _TXSTA2bits 000FA8                            _I2C1_DO_RX_NACK_STOP 2228  
                     ?_I2C1_MasterEnableRestart 0001                        fp__I2C1_DO_SEND_ADR_READ 0000  
                       fp__I2C1_DO_SEND_RESTART 0000                            I2C1_SetBuffer@buffer 0001  
                                          ?_abs 002A                         ??_rd2RegCompleteHandler 000C  
                                          l4000 1E20                                            l4002 1F76  
                                          l4020 1402                                            l4012 13CA  
                                          l1620 1E80                                            l4004 1F82  
                                          l4100 16F4                                            l1612 1D58  
                                          l1613 1D60                                            l1541 20D6  
                                          l4030 145E                                            l4022 1410  
                                          l4014 13D0                                            l4006 1F86  
                                          l4110 1766                                            l4102 170C  
                                          l1606 13C8                                            l4040 14C8  
                                          l4032 1466                                            l4024 1430  
                                          l4016 13DE                                            l1632 1A48  
                                          l1640 1E40                                            l4008 1F9E  
                                          l4104 1720                                            l4120 0F50  
                                          l4200 127C                                            l1617 1E78  
                                          l4050 1512                                            l4042 14E8  
                                          l4034 147A                                            l4026 1434  
                                          l4018 13FE                                            l4114 1E42  
                                          l4106 1726                                            l4130 0FC4  
                                          l4122 0F7A                                            l4210 1346  
                                          l4202 12A0                                            l1571 1744  
                                          l4300 210C                                            l4052 1532  
                                          l4044 14EA                                            l4036 1488  
                                          l4028 1440                                            l4060 1566  
                                          l4116 1E5C                                            l4108 1752  
                                          l4140 100E                                            l4132 0FE0  
                                          l4124 0F9A                                            l4220 1384  
                                          l4212 1354                                            l4204 12EA  
                                          l1573 1780                                            l1581 0FD8  
                                          l4310 1F50                                            l4302 2110  
                                          l4046 14FC                                            l4038 149A  
                                          l4070 15D6                                            l4062 1586  
                                          l1646 1FAA                                            l4150 10AC  
                                          l4142 1016                                            l4134 0FF2  
                                          l4126 0FA8                                            l4118 0F30  
                                          l4214 1368                                            l4312 1F52  
                                          l4240 1BDC                                            l4232 1BBC  
                                          l4304 2114                                            l4048 1502  
                                          l4080 164E                                            l4072 15DE  
                                          l4064 158A                                            l4056 1554  
                                          l1568 16FE                                            l4160 117E  
                                          l4144 101C                                            l4152 1110  
                                          l4136 1000                                            l4128 0FAA  
                                          l4208 1322                                            l4224 1392  
                                          l4320 20BA                                            l4314 1F62  
                                          l4250 1BF8                                            l4242 1BE0  
                                          l4234 1BBE                                            l4306 2118  
                                          l4082 1660                                            l4074 15F2  
                                          l4066 1598                                            l4058 1558  
                                          l4170 11C4                                            l4154 112C  
                                          l4162 118C                                            l4146 109E  
                                          l4138 1006                                            l4226 13B6  
                                          l4218 1376                                            l4330 1AD0  
                                          l1579 0FD0                                            l4308 1F3E  
                                          l4180 21F8                                            l4252 1C04  
                                          l4244 1BE4                                            l4236 1BCA  
                                          l4260 2178                                            l4076 1600  
                                          l4084 1666                                            l4068 15B8  
                                          l4092 16B8                                            l4172 11D0  
                                          l4164 119E                                            l4156 114A  
                                          l4148 10A6                                            l4340 1AD6  
                                          l4332 1AD2                                            l4324 1AC8  
                                          l4270 211E                                            l4182 21EE  
                                          l4254 1C2C                                            l4246 1BE8  
                                          l4238 1BD8                                            l4262 1F02  
                                          l4086 1676                                            l4078 162E  
                                          l4094 16C6                                            l4174 11D8  
                                          l4166 11AC                                            l4158 1164  
                                          l4190 1212                                            l4318 20B0  
                                          l4350 1AEC                                            l4342 1AD6  
                                          l4334 1AD4                                            l4326 1ACC  
                                          l1599 1210                                            l4184 220C  
                                          l4248 1BEC                                            l4256 2282  
                                          l4264 1F12                                            l4280 206A  
                                          l4272 2190                                            l4088 1696  
                                          l4096 16DA                                            l4168 11B2  
                                          l4176 11E8                                            l4192 1236  
                                          l4352 1B0C                                            l4344 1AD6  
                                          l4336 1AD6                                            l4328 1ACE  
                                          l4186 2202                                            l4258 2168  
                                          l4266 1F22                                            l4282 2080  
                                          l4274 2198                                            l4098 16E8  
                                          l4194 1244                                            l4290 1D3C  
                                          l4354 1B28                                            l4346 1AD6  
                                          l4338 1AD6                                            l4188 2216  
                                          l4268 2154                                            l4276 205C  
                                          l4292 20FC                                            l4196 1254  
                                          l4284 1D00                                            l4348 1AD8  
                                          l4278 2068                                            l4294 2100  
                                          l4198 1258                                            l4286 1D08  
                                          ?_pad 002A                                            l4296 2104  
                                          l4288 1D16                                            l4298 2108  
                                          l3960 1D64                                            l3970 1D9E  
                                          l3962 1D64                                            l3972 1DAE  
                                          l3964 1D82                                            l3980 19B4  
                                          l3974 1DB2                                            l3966 1D8C  
                                          l3990 1A36                                            l3982 19C6  
                                          l3968 1D9C                                            l3976 1DB4  
                                          l3984 19D8                                            l3978 21E6  
                                          l3986 19E2                                            l3994 1DFE  
                                          l3988 1A00                                            l3996 1E0A  
                                          l3998 1E1C                                            STR_1 0F21  
                                          u2200 19C6                                            u2201 19C2  
                                          u2210 19D8                                            u2211 19D4  
                                          u2300 1488                                            u2220 1A00  
                                          u2301 1484                                            u2221 19FC  
                                          _LATA 000F89                                            u2310 14C8  
                                          u2230 1A36                                            _LATB 000F8A  
                                          u2311 14C4                                            u2231 1A32  
                                          _LATC 000F8B                                            u2320 1512  
                                          u2240 1E40                                            u2400 16E8  
                                          u2321 150E                                            u2241 1E3C  
                                          u2401 16E4                                            u2330 1566  
                                          u2170 1D74                                            u2250 1F9E  
                                          u2410 1744                                            u2331 1562  
                                          u2171 1D70                                            u2251 1F9A  
                                          u2411 1740                                            u2260 13DE  
                                          u2340 1598                                            u2180 1D82  
                                          u2420 1752                                            u2500 1000  
                                          u2261 13DA                                            u2341 1594  
                                          u2181 1D7E                                            u2421 174E  
                                          u2501 0FFC                                            u2270 1410  
                                          u2350 15D6                                            u2430 1E5C  
                                          u2190 1DAE                                            u2510 112C  
                                          u2271 140C                                            u2351 15D2  
                                          u2431 1E58                                            u2191 1DAA  
                                          u2511 1128                                            u2360 1600  
                                          u2520 114A                                            u2440 0F62  
                                          u2600 127C                                            u2281 143A  
                                          u2361 15FC                                            u2521 1146  
                                          u2441 0F5C                                            u2601 1278  
                                          u2290 145E                                            u2370 162E  
                                          u2530 1164                                            u2450 0F64  
                                          u2610 12A0                                            u2291 145A  
                                          u2371 162A                                            u2531 1160  
                                          u2611 129C                                            u2380 1676  
                                          u2540 117E                                            u2460 0F7A  
                                          u2620 1346                                            u2381 1672  
                                          u2541 117A                                            u2461 0F76  
                                          u2621 1342                                            u2390 16C6  
                                          u2550 118C                                            u2470 0FA8  
                                          u2630 1D58                                            u2391 16C2  
                                          u2551 1188                                            u2471 0FA4  
                                          u2631 1D54                                            u2640 1F62  
                                          u2560 119E                                            u2480 0FC4  
                                          u2641 1F5E                                            u2561 119A  
                                          u2481 0FC0                                            u2570 11AC  
                                          u2490 0FF2                                            u2650 1B04  
                                          u2571 11A8                                            u2491 0FEE  
                                          u2651 1B00                                            u2580 11C4  
                                          u2581 11C0                                            u2590 1236  
                                          u2591 1232                                            u2667 1B30  
                                          i2l92 202E                                            i2l95 2002  
                                          i2l98 1FD6                                            _TMR2 000FCC  
                         ??_EUSART2_Receive_ISR 0001                         ??_wr2RegCompleteHandler 000C  
                              ??_I2C1_MasterFsm 000E                                ??_I2C1_MasterIsr 000E  
                                 _EUSART2_Write 1D62                       ??_I2C1_CallbackReturnStop 000C  
                                          abs@a 002A                                            _dbuf 009E  
                                          _main 1AC8                                            _dtoa 0F30  
                                          _prec 0033                                            _nout 009C  
                                          pad@i 00BE                                            pad@p 002E  
                                          fsr1h 000FE2                                            fsr2h 000FDA  
                                          indf2 000FDF                                            fsr1l 000FE1  
                                          pad@w 00C0                                            fsr2l 000FD9  
                                          btemp 0048                                            prodh 000FF4  
                                          prodl 000FF3                                            start 013E  
                              ??_I2C1_SetBuffer 0005                    __end_of_EUSART2_Transmit_ISR 1F02  
                                  ___param_bank 000000                   I2C1_CallbackReturnStop@funPtr 000A  
                                         ??_abs 002C                                           ??_pad 0030  
                 __end_of_OSCILLATOR_Initialize 2168                                 __end_of___aodiv 1554  
                                         ?_main 0001                                           ?_dtoa 00C8  
                               __end_of___aomod 16B8                                           _T1CON 000FCD  
                                         _T2CON 000FCA                                           i2l101 205A  
                                         i2l104 1EC0                                           i2l230 20AE  
                                         i2l216 1EFE                                           i2l233 22A6  
                                         i2l226 190A                                           i2l219 1F00  
                                         i2l236 2276                                           i2l422 20FA  
                                         i2l239 227C                                           i2l425 2152  
                                         i2l522 2246                                           i2l531 222E  
                                         i2l516 2256                                           i2l452 1CFE  
                                         i2l445 1BBA                                           i2l461 21AE  
                                         i2l525 223E                                           i2l534 2226  
                                         i2l551 229C                                           i2l455 21E2  
                                         i2l519 224E                                           i2l543 1C9A  
                                         i2l615 2288                                           i2l464 1810  
                                         i2l480 1942                                           i2l528 2236  
                                         i2l448 2264                                           i2l481 19B2  
                                         i2l537 21CA                                           i2l554 2298  
                                         i2l570 2290                                           i2l618 228C  
                                         i2l458 21BE                                           i2l467 1848  
                                         i2l492 21D6                                           i2l724 007C  
                                         i2l573 225E                                           i2l733 0112  
                                         i2l582 2294                                           i2l726 00B8  
                                         i2l591 218E                                           i2l727 0112  
                                         i2l576 22A4                                           i2l728 00F2  
                                         i2l594 226A                                           i2l498 1AC6  
                                         i2l588 22A0                                           i2l597 2270  
                    __end_of_i2c1_fsmStateTable 0F21                                    vfpfcnvrt@fmt 00EE  
                                         _TMR1H 000FCF                                           _TMR1L 000FCE  
                                         _TRISA 000F92                                           _TRISB 000F93  
                                         _TRISC 000F94                          ??_I2C1_MasterGetRxData 0001  
                         ?_I2C1_DO_RX_NACK_STOP 0001                      ??_I2C1_CallbackReturnReset 000C  
                             ??_I2C1_MasterStop 0001                               ??_I2C1_Initialize 0018  
                                         _flags 0035                                           _fputc 19B4  
                                         _scale 0041                                           _fputs 1DFE  
                                         pad@fp 002A                                           _width 0031  
                                         _putch 21E4                                           dtoa@d 00CA  
                                         dtoa@i 00EA                                           dtoa@n 00E2  
                                         dtoa@p 00DC                                           dtoa@s 00E0  
                                         dtoa@w 00DE                         __end_of_TMR1_Initialize 2086  
                                ?_EUSART2_Write 0001                                           pclath 000FFA  
                                         pclatu 000FFB                                           tablat 000FF5  
                                         ttemp5 0049                                           ttemp6 004C  
                                         ttemp7 0050                                           status 000FD8  
                                         wtemp8 0049                                    ??_I2C1_DO_RX 000C  
                                  ??_I2C1_DO_TX 000C                          ??_I2C1_DO_ADDRESS_NACK 000C  
         __end_of_EUSART2_SetTxInterruptHandler 21F8                   _EUSART2_SetTxInterruptHandler 21EE  
                      fp__rd1RegCompleteHandler 0000                                 __initialization 1DB8  
                                  __end_of_main 1B42                                    __end_of_dtoa 1212  
                      fp__wr1RegCompleteHandler 0000                         __end_of_TMR2_Initialize 21A0  
                   ?_INTERRUPT_InterruptManager 0001                    fp__I2C1_DO_SEND_RESTART_READ 0000  
                                        ??_main 0116                                          ??_dtoa 00D2  
                                 __activetblptr 000002             __end_of_EUSART2_DefaultErrorHandler 227E  
                   _EUSART2_DefaultErrorHandler 2278                              __end_of_I2C1_DO_RX 19B4  
                            __end_of_I2C1_DO_TX 184A                      __end_of_EUSART2_Initialize 1C30  
                                        _ADCON0 000FC2                                          _ADCON1 000FC1  
                      _eusart2TxBufferRemaining 0047                                          ?_fputc 001A  
                                        ?_fputs 0023                                          _ADRESH 000FC4  
                                        _ADRESL 000FC3                                          _ANCON0 000F48  
                                        _ANCON1 000F49                                          ?_putch 0001  
                                        _T1GCON 000F9A                                          _ODCON1 000F42  
                                        _ODCON2 000F41                                          _ODCON3 000F40  
                                        i2l3100 2266                                          i2l3110 222C  
                                        i2l3102 2220                                          i2l3032 2004  
                                        i2l3040 1FD8                                          i2l3104 2224  
                                        i2l3210 20A8                                          i2l3034 2018  
                                        i2l3042 1FEC                                          i2l3050 1FC0  
                                        i2l3114 2292                                          i2l3122 228A  
                                        i2l3212 20AC                                          i2l3204 2086  
                                        i2l3060 2058                                          i2l3036 202C  
                                        i2l3044 2000                                          i2l3052 1FD4  
                                        i2l3124 229A                                          i2l3220 21E0  
                                        i2l3116 2240                                          i2l3108 2228  
                                        i2l3206 2096                                          i2l3118 2244  
                                        i2l3214 2286                                          i2l3208 2098  
                                        i2l3056 2030                                          i2l3048 1FAC  
                                        i2l3064 1E82                                          i2l3128 2296  
                                        i2l3072 217C                                          i2l3320 1A5E  
                                        i2l3312 1A4A                                          i2l3216 21D8  
                                        i2l3224 21B0                                          i2l3232 21A0  
                                        i2l3240 1782                                          i2l3304 21CC  
                                        i2l3080 2254                                          i2l3058 2044  
                                        i2l3066 1EAA                                          i2l3314 1A52  
                                        i2l3330 1A6C                                          i2l3218 21DC  
                                        i2l3226 21B4                                          i2l3234 21A4  
                                        i2l3306 21D0                                          i2l3090 2238  
                                        i2l3068 1EBE                                          i2l3076 225A  
                                        i2l3324 1A64                                          i2l3228 21BC  
                                        i2l3236 21AC                                          i2l3260 1814  
                                        i2l3252 17AA                                          i2l3244 179A  
                                        i2l3308 21D4                                          i2l3084 2248  
                                        i2l3092 223C                                          i2l3510 1ED2  
                                        i2l3318 1A5A                                          i2l3262 1826  
                                        i2l3078 2250                                          i2l3086 224C  
                                        i2l3342 21C0                                          i2l3350 1C30  
                                        i2l3520 184A                                          i2l3512 1EE2  
                                        i2l3096 228E                                          i2l3264 1840  
                                        i2l3248 17A2                                          i2l3280 1938  
                                        i2l3336 2230                                          i2l3344 21C4  
                                        i2l3352 1C34                                          i2l3530 18A0  
                                        i2l3522 185A                                          i2l3514 1EE4  
                                        i2l3266 1846                                          i2l3258 17B2  
                                        i2l3282 193C                                          i2l3274 190C  
                                        i2l3338 2234                                          i2l3346 21C8  
                                        i2l3354 1C3C                                          i2l3436 2272  
                                        i2l3532 18B0                                          i2l3524 1868  
                                        i2l3516 1EF4                                          i2l3508 1EC2  
                                        i2l3292 1950                                          i2l3276 191A  
                                        i2l3364 1C4C                                          i2l3438 2278  
                                        i2l3534 18CA                                          i2l3526 1878  
                                        i2l3518 1EF8                                          i2l2910 213C  
                                        i2l3278 1920                                          i2l3358 1C44  
                                        i2l3470 1CA0                                          i2l3536 18E6  
                                        i2l3528 1892                                          i2l2920 22A2  
                                        i2l2912 20D8                                          i2l4440 17EA  
                                        i2l3288 1948                                          i2l3472 1CB0  
                                        i2l3538 1906                                          i2l2922 229E  
                                        i2l2914 20E8                                          i2l4442 1AA0  
                                        i2l3298 1958                                          i2l3474 1CC4  
                                        i2l2916 20F0                                          i2l2924 226C  
                                        i2l4436 1C84                                          i2l3476 1CCA  
                                        i2l3468 1C9C                                          i2l2918 20F8  
                                        i2l4438 198C                                          i2l3830 0040  
                                        i2l3576 2260                                          i2l3840 00C6  
                                        i2l3832 004E                                          i2l2890 1B8A  
                                        i2l3842 00D4                                          i2l3834 005C  
                                        i2l3844 0100                                          i2l3836 008A  
                                        i2l3828 0032                                          i2l2886 1B44  
                                        i2l3838 0098                                          i2l2888 1B56  
                                        _RCREG2 000FAA                                          _RCSTA2 000F9C  
                                        _OSCCON 000FD3                                          _SPBRG2 000FAB  
                                        _RPOR17 000ED1                                          _TXREG2 000FA9  
                                        _TXSTA2 000FA8                                _I2C1_DO_TX_EMPTY 1A4A  
                                  vfprintf@cfmt 00F4                                       ??___aodiv 0028  
                                     ??___aomod 0028                                          clear_0 1DDE  
                                        clear_1 1DEA                                          isa$std 000001  
                   _EUSART2_FramingErrorHandler 00FA                                          _printf 20B0  
                                        pad@buf 002C                                          dtoa@fp 00C8  
                      ??_I2C1_DO_SEND_ADR_WRITE 0002                                          _strlen 1F76  
                             ?_I2C1_SetCallback 0001                          ??_I2C1_DO_RX_NACK_STOP 0001  
                         _I2C1_DO_SEND_ADR_READ 21B0                                          fputc@c 001A  
                                        fputs@c 0027                                          fputs@i 0028  
                                  __pdataCOMRAM 0041                                          fputs@s 0023  
                 ?_I2C1_SetDataCompleteCallback 0006                              ??_I2C1_SetCallback 0005  
                                  __mediumconst 0000                                          tblptrh 000FF7  
                                        tblptrl 000FF6                                          tblptru 000FF8  
                          _EUSART2_Transmit_ISR 1EC2                        ADC_GetConversion@channel 001C  
                              __end_of_vfprintf 1D62                                 ??_EUSART2_Write 0018  
                       _I2C1_DO_RX_NACK_RESTART 2220                      fp__I2C1_DO_RX_NACK_RESTART 0000  
                               _eusart2RxBuffer 008C                                ?_TMR1_Initialize 0001  
                             _SYSTEM_Initialize 20FC                  I2C1_SetDataCompleteCallback@cb 0006  
                               _eusart2TxBuffer 0094                                      __accesstop 0060  
                       __end_of__initialization 1DF0                              ?_SYSTEM_Initialize 0001  
                                 ___rparam_used 000001                         ??_EUSART2_RxDataHandler 0001  
                       _rdBlkRegCompleteHandler 1E82                      fp__rdBlkRegCompleteHandler 0000  
                                __pcstackCOMRAM 0001                             ??_SYSTEM_Initialize 001A  
              __end_of_I2C1_MasterEnableRestart 22A6                                   __end_of_fputc 1A4A  
                                 __end_of_fputs 1E42                  ?_EUSART2_SetTxInterruptHandler 0018  
                                 __end_of_putch 21EE                                ?_TMR2_Initialize 0001  
                  ??_I2C1_DO_SEND_RESTART_WRITE 0001                         ??_I2C1_MasterSendTxData 0001  
                      ?_EUSART2_SetErrorHandler 0018                           ?_EUSART2_Transmit_ISR 0001  
                         __end_of_I2C1_DO_RESET 21CC                                         ??_fputc 001E  
                     __end_of_SYSTEM_Initialize 211E                                         ??_fputs 0027  
                                       ??_putch 0019                                   _eusart2RxHead 003E  
                                 _eusart2TxHead 0040                                      __pbssBANK0 0060  
                                 _eusart2RxTail 003D                                   _eusart2TxTail 003F  
                 __end_of_rd2RegCompleteHandler 2004                ??_EUSART2_SetFramingErrorHandler 001A  
               ?_EUSART2_SetFramingErrorHandler 0018                                      __pnvCOMRAM 0045  
                 __end_of_wr2RegCompleteHandler 205C                           _rd1RegCompleteHandler 2004  
                             _I2C1_DO_SEND_STOP 2238                           _wr1RegCompleteHandler 1FAC  
                      rd1RegCompleteHandler@ptr 000A                                   fp__I2C1_DO_RX 0000  
                                 fp__I2C1_DO_TX 0000                                 fp__I2C1_DO_IDLE 0000  
                               fp__I2C1_DO_RCEN 0000                         fp__I2C1_DO_ADDRESS_NACK 0000  
                            ?_I2C1_DO_SEND_STOP 0001                                 _I2C1_MasterStop 229E  
                               _I2C1_Initialize 2168                                         _ADCTRIG 000EB8  
                             fp__I2C1_DO_RX_ACK 0000                                         ?_printf 010E  
                        ?_I2C1_DO_SEND_ADR_READ 0001                             ??_I2C1_DO_SEND_STOP 0001  
                                       ?_strlen 0018                           _eusart2RxStatusBuffer 0084  
                                       _REFOCON 000F3D                               _I2C1_MasterIsNack 217C  
                                       _OSCCON2 000F87                     __end_of_EUSART2_Receive_ISR 190C  
                     ??_I2C1_DO_RX_NACK_RESTART 0001                                         _OSCTUNE 000F9B  
                                       _SPBRGH2 000F7D                               _I2C1_MasterSetIrq 228A  
                                       _RPINR16 000EF7                                         _SSP1ADD 000FC8  
                                       _SSP1BUF 000FC9                              ?_I2C1_MasterIsNack 0001  
                    ?_I2C1_DO_SEND_RESTART_READ 0001                  ??_I2C1_SetDataCompleteCallback 000A  
                            ?_I2C1_MasterSetIrq 0001                              _i2c1_fsmStateTable 0F01  
                           ??_I2C1_MasterIsNack 0001                       __end_of_I2C1_DO_SEND_STOP 2240  
                     ??_rdBlkRegCompleteHandler 000C                              I2C1_SetCallback@cb 0001  
                           ??_I2C1_MasterSetIrq 0001                            _ADC_InterruptHandler 0037  
                                       __Hparam 0000                                         __Lparam 0000  
                fp__EUSART2_DefaultErrorHandler 0000                                         ___aodiv 13CA  
                                       ___aomod 1554                             fp__I2C1_DO_TX_EMPTY 0000  
                                     ?_vfprintf 0108                                    __psmallconst 0F00  
                                       __pcinit 1DB8                 __end_of_EUSART2_SetErrorHandler 2220  
                                 ?_I2C1_DO_IDLE 0001                                   ?_I2C1_DO_RCEN 0001  
                                       __ramtop 0F00                                         __ptext0 1AC8  
                                       __ptext1 20B0                                         __ptext2 1D00  
                                       __ptext3 1212                                         __ptext4 0F30  
                                       __ptext5 16B8                                         __ptext6 1F76  
                                       __ptext7 1DFE                                         __ptext8 19B4  
                                       __ptext9 21E4                        _I2C1_MasterEnableRestart 22A2  
                     __end_of_I2C1_MasterIsNack 2190                                       _T1CONbits 000FCD  
         fp__EUSART2_DefaultOverrunErrorHandler 0000      __end_of_EUSART2_DefaultOverrunErrorHandler 2278  
          ??_EUSART2_DefaultOverrunErrorHandler 0001             ?_EUSART2_DefaultOverrunErrorHandler 0001  
            _EUSART2_DefaultOverrunErrorHandler 2272                           _OSCILLATOR_Initialize 2154  
                        ??_EUSART2_Transmit_ISR 0001                                       _T2CONbits 000FCA  
                     __end_of_I2C1_MasterSetIrq 228E                        __end_of_I2C1_DO_TX_EMPTY 1AC8  
                      ??_PIN_MANAGER_Initialize 0018                        wr1RegCompleteHandler@ptr 000A  
                       fp__I2C1_DO_RX_NACK_STOP 0000                        ?_I2C1_CallbackReturnStop 000A  
             __end_of_I2C1_DO_SEND_RESTART_READ 2258                            end_of_initialization 1DF0  
                    __end_of_I2C1_MasterSendAck 226C                             _I2C1_MasterClearIrq 2286  
                                       fputc@fp 001C                                   __Lmediumconst 0000  
                    __end_of_I2C1_MasterStartRx 2296                                         fputs@fp 0025  
                        ?_rd1RegCompleteHandler 000A                          _I2C1_DO_SEND_ADR_WRITE 21A0  
                  __end_of_I2C1_DO_SEND_RESTART 2248                          ?_wr1RegCompleteHandler 000A  
                       __end_of_I2C1_MasterStop 22A2                         __end_of_I2C1_Initialize 217C  
                     ?_I2C1_CallbackReturnReset 000A                              _EUSART2_Initialize 1BBC  
                                   _I2C1_Status 0060                        fp__rd2RegCompleteHandler 0000  
                             __end_of_vfpfcnvrt 13CA                                         postdec1 000FE5  
                                       postdec2 000FDD                        fp__wr2RegCompleteHandler 0000  
                                       postinc0 000FEE                                         postinc1 000FE6  
                                       postinc2 000FDE                               fp__I2C1_MasterIsr 0000  
                           _I2C1_MasterSendNack 226C                                      ??_vfprintf 0031  
                          ?_I2C1_MasterClearIrq 0001                                  ??_I2C1_DO_IDLE 0001  
                                ??_I2C1_DO_RCEN 0001              __end_of_I2C1_DO_SEND_RESTART_WRITE 2250  
                    _I2C1_DO_SEND_RESTART_WRITE 2248                             ?_EUSART2_Initialize 0001  
                                       strlen@a 001A                                         strlen@s 0018  
               __end_of_rdBlkRegCompleteHandler 1EC2                 I2C1_SetDataCompleteCallback@ptr 0008  
                I2C1_CallbackReturnReset@funPtr 000A                            ?_I2C1_MasterSendNack 0001  
                          ??_EUSART2_Initialize 001A                      rdBlkRegCompleteHandler@ptr 000A  
                 __end_of_EUSART2_RxDataHandler 20B0                    __end_of_INTERRUPT_Initialize 2286  
                         ??_I2C1_MasterClearIrq 0001                                     vfpfcnvrt@ap 00F0  
                                   vfpfcnvrt@fp 00EC                                     vfpfcnvrt@ll 0100  
                                _I2C1_DO_RX_ACK 2230                                   __pidataCOMRAM 227E  
                                _ADC_Initialize 211E                          ?_OSCILLATOR_Initialize 0001  
               __end_of_I2C1_CallbackReturnStop 229E                                  __end_of_printf 20D8  
                 __end_of_I2C1_MasterSendTxData 2260                                  __end_of_strlen 1FAC  
                           start_initialization 1DB8                                     __end_of_abs 1E82  
                                   __end_of_pad 1782                           ??_I2C1_MasterSendNack 0001  
 EUSART2_SetRxInterruptHandler@interruptHandler 0018   EUSART2_SetTxInterruptHandler@interruptHandler 0018  
                                   putch@txData 0019                           __end_of_EUSART2_Write 1DB8  
                      I2C1_SetBuffer@bufferSize 0003          __end_of_EUSART2_SetOverrunErrorHandler 220C  
                _EUSART2_SetOverrunErrorHandler 2202                                ?_I2C1_MasterStop 0001  
                              ?_I2C1_Initialize 0001                                     vfprintf@fmt 010A  
                        __end_of_I2C1_DO_RX_ACK 2238                         ??_I2C1_DO_SEND_ADR_READ 0001  
                        __end_of_ADC_Initialize 213C                                        ??_printf 0031  
                                      ??_strlen 001A                                  _eusart2RxCount 003C  
                            main@convertedValue 0117                                     __pbssCOMRAM 0031  
                          _I2C1_DO_SEND_RESTART 2240                                   __pcstackBANK0 00BE  
                                 __pcstackBANK1 0100                                ___aodiv@dividend 0018  
                       fp__EUSART2_Transmit_ISR 0000                     ??_I2C1_DO_SEND_RESTART_READ 0001  
                           EUSART2_Write@txData 0018                            __end_of_I2C1_DO_IDLE 21E4  
               ??_EUSART2_SetRxInterruptHandler 001A                            __end_of_I2C1_DO_RCEN 21D8  
                        fp__EUSART2_Receive_ISR 0000                                       __pnvBANK0 00F6  
                         _rd2RegCompleteHandler 1FD8                       fp__I2C1_DO_SEND_ADR_WRITE 0000  
                        _PIN_MANAGER_Initialize 1F02                           _wr2RegCompleteHandler 2030  
                                     _dtoa$2744 00DA                          _MSSP1_InterruptHandler 0039  
                    ??_I2C1_MasterEnableRestart 0001                        rd2RegCompleteHandler@ptr 000A  
                                     __pintcode 0008                                  _I2C1_MasterFsm 1C9C  
                                _I2C1_MasterIsr 2260                                fp__I2C1_DO_RESET 0000  
                                      ?___aodiv 0018                                        ?___aomod 0018  
                               ?_I2C1_DO_RX_ACK 0001                                ___aodiv@quotient 00C0  
                               ?_ADC_Initialize 0001               _EUSART2_TxDefaultInterruptHandler 00FE  
                                _I2C1_SetBuffer 20D8                    ??_INTERRUPT_InterruptManager 000E  
                                   __smallconst 0F00                                        _BAUDCON2 000F7C  
                         ?_I2C1_DO_SEND_RESTART 0001                    ?_EUSART2_DefaultErrorHandler 0001  
                             ?_I2C1_DO_TX_EMPTY 0001                __end_of_I2C1_CallbackReturnReset 229A  
                            ??_I2C1_DO_TX_EMPTY 000C                         ??_rd1RegCompleteHandler 000C  
                       ?_I2C1_DO_SEND_ADR_WRITE 0001                       I2C1_MasterSendTxData@data 0001  
                          _INTERRUPT_Initialize 2282                         ??_wr1RegCompleteHandler 000C  
                              _I2C1_SetCallback 1B42                                        _LATAbits 000F89  
       EUSART2_SetErrorHandler@interruptHandler 0018                                        _LATCbits 000F8B  
                                    _I2C1_DO_RX 190C                                      _I2C1_DO_TX 1782  
                                      _PIE1bits 000F9D                                        _PIE2bits 000FA0  
                                      _PIE3bits 000FA3                          __end_of_I2C1_MasterFsm 1D00  
                        __end_of_I2C1_MasterIsr 2266                                        i2u121_40 20E8  
                                      i2u121_41 20E4                                        i2u211_40 00C6  
                                      i2u210_48 009E                                        i2u211_41 00C2  
                                      i2u210_49 00B4                                        i2u140_40 218C  
                                      i2u212_40 00D4                                        i2u204_40 0040  
                                      i2u140_41 2186                                        i2u212_41 00D0  
                                      i2u204_41 003C                                        i2u140_46 218E  
                                      i2u205_40 004E                                        i2u205_41 004A  
                                      i2u118_40 1B56                                        i2u214_40 0100  
                                      i2u213_48 00DA                                        i2u206_40 005C  
                                      i2u118_41 1B52                                        i2u214_41 00FC  
                                      i2u213_49 00EE                                        i2u206_41 0058  
                                      i2u215_40 010E                                        i2u215_41 010A  
                                      i2u160_40 1938                                        i2u208_40 008A  
                                      i2u207_48 0062                                        i2u160_41 1934  
                                      i2u208_41 0086                                        i2u207_49 0078  
                  __end_of_I2C1_MasterGetRxData 2292                                        i2u209_40 0098  
                                      i2u209_41 0094                                        i2u161_48 1966  
                                      i2u161_49 197A                                        i2u162_48 1A7A  
                                      i2u170_48 1CE2                                        i2u162_49 1A8E  
                                      i2u170_49 1CFA                                        i2u156_40 20A8  
                                      i2u180_40 18E6                                        i2u163_48 1C5E  
                                      i2u156_41 20A4                                        i2u180_41 18E2  
                                      i2u163_49 1C72                                        i2u157_40 1796  
                                      i2u157_41 1792                                        i2u181_48 18EC  
                                      i2u174_40 1ED2                                        i2u181_49 1902  
                                      i2u174_41 1ECE                                        i2u175_40 1EF4  
                                      i2u159_40 1840                                        i2u158_48 17C4  
                                      i2u175_41 1EF0                                        i2u159_41 183C  
                                      i2u158_49 17D8                                        i2u176_40 1868  
                                      i2u168_40 1CB0                                        i2u176_41 1864  
                                      i2u168_41 1CAC                                        i2u169_40 1CC4  
                                      i2u169_41 1CC0                                        _PIR1bits 000F9E  
                                      i2u178_40 18A0                                        i2u177_48 187E  
                                      i2u178_41 189C                                        i2u177_49 1892  
                                      _PIR2bits 000FA1                                        i2u179_48 18B6  
                                      i2u179_49 18CA                                        _PIR3bits 000FA4  
                                      _RCONbits 000FD0                              _I2C1_MasterSendAck 2266  
                     _I2C1_DO_SEND_RESTART_READ 2250                                        _SSP1CON1 000FC6  
                                      _SSP1CON2 000FC5                          __end_of_I2C1_SetBuffer 20FC  
                                      _SSP1STAT 000FC7            __end_of_I2C1_SetDataCompleteCallback 2154  
                  _I2C1_SetDataCompleteCallback 213C                              _I2C1_MasterStartRx 2292  
                                     _vfpfcnvrt 1212                     ?_I2C1_DO_SEND_RESTART_WRITE 0001  
                             ??_TMR1_Initialize 0018                             ?_I2C1_MasterSendAck 0001  
                                    _ADCON0bits 000FC2                        ?_I2C1_DO_RX_NACK_RESTART 0001  
                          fp__I2C1_DO_SEND_STOP 0000                             ?_I2C1_MasterStartRx 0001  
                  __end_of_I2C1_DO_ADDRESS_NACK 1C9C                        wr2RegCompleteHandler@ptr 000A  
                __end_of_I2C1_DO_SEND_ADR_WRITE 21B0                   ??_EUSART2_DefaultErrorHandler 0001  
                                 _I2C1_DO_RESET 21C0                                     _INTCON2bits 000FF1  
                                     copy_data0 1DCC                           ?_INTERRUPT_Initialize 0001  
                      ?_rdBlkRegCompleteHandler 000A                             I2C1_SetCallback@idx 0005  
                           I2C1_SetCallback@ptr 0003                         _EUSART2_SetErrorHandler 2216  
                          ??_I2C1_MasterSendAck 0001                               ??_TMR2_Initialize 0018  
                        ?_rd2RegCompleteHandler 000A                     _EUSART2_OverrunErrorHandler 00F8  
                        ?_wr2RegCompleteHandler 000A                            ??_I2C1_MasterStartRx 0001  
                                      __Hrparam 0000                                 ?_I2C1_MasterFsm 0001  
                               ?_I2C1_MasterIsr 0001           __end_of_EUSART2_SetRxInterruptHandler 2202  
                 _EUSART2_SetRxInterruptHandler 21F8                                      vfprintf@ap 010C  
                                      __Lrparam 0000                                      vfprintf@fp 0108  
                             _ADC_GetConversion 1F3C                         ??_OSCILLATOR_Initialize 0018  
                            ?_ADC_GetConversion 0018                                 ?_I2C1_SetBuffer 0001  
                                    ?_vfpfcnvrt 00EC                                 ___aodiv@divisor 0020  
                               ___aodiv@counter 00BE                          ??_I2C1_DO_SEND_RESTART 0001  
                           ??_ADC_GetConversion 001A                            _EUSART2_ErrorHandler 00F6  
                                ?_I2C1_DO_RESET 0001                                        __ptext10 1D62  
                                      __ptext11 1E42                                        __ptext20 2168  
                                      __ptext12 1554                                        __ptext21 1BBC  
                                      __ptext13 13CA                                      _T1GCONbits 000F9A  
                                      __ptext30 2260                                        __ptext22 21EE  
                                      __ptext14 20FC                                        __ptext31 1C9C  
                                      __ptext23 21F8                                        __ptext15 2190  
                                      __ptext40 2248                                        __ptext32 2286  
                                      __ptext24 2202                                        __ptext16 205C  
                                      __ptext41 2250                                        __ptext33 1C30  
                                      __ptext25 220C                                        __ptext17 1F02  
                                      __ptext50 217C                                        __ptext42 21CC  
                                      __ptext34 21C0                                        __ptext26 2216  
                                      __ptext18 2154                                        __ptext51 2258  
                                      __ptext43 190C                                        __ptext35 2220  
                                      __ptext27 211E                                        __ptext19 2282  
                                      __ptext60 1FD8                                        __ptext52 2266  
                                      __ptext44 1782                                        __ptext36 2228  
                                      __ptext28 1F3C                                        __ptext61 2004  
                                      __ptext53 228E                                        __ptext45 21A0  
                                      __ptext37 2230                                        __ptext70 2272  
                                      __ptext62 2030                                        __ptext54 226C  
                                      __ptext46 21B0                                        __ptext38 2238  
                                      __ptext71 22A6                                        __ptext63 213C  
                                      __ptext55 2292                                        __ptext47 21D8  
                                      __ptext39 2240                                        __ptext72 2278  
                                      __ptext64 1B42                                        __ptext56 2296  
                                      __ptext48 1A4A                                        __ptext73 2086  
                                      __ptext65 20D8                                        __ptext57 229A  
                                      __ptext49 228A                                        __ptext74 0000  
                                      __ptext66 229E                                        __ptext58 1E82  
                                      __ptext67 22A2                                        __ptext59 1FAC  
                                      __ptext68 1EC2                                        __ptext69 184A  
                                  _SSP1CON1bits 000FC6                                    _SSP1CON2bits 000FC5  
                      _I2C1_CallbackReturnReset 2296                     fp__I2C1_CallbackReturnReset 0000  
                                   ?_I2C1_DO_RX 0001                                     ?_I2C1_DO_TX 0001  
         fp__EUSART2_DefaultFramingErrorHandler 0000      __end_of_EUSART2_DefaultFramingErrorHandler 22A8  
          ??_EUSART2_DefaultFramingErrorHandler 0001             ?_EUSART2_DefaultFramingErrorHandler 0001  
            _EUSART2_DefaultFramingErrorHandler 22A6                       __end_of_ADC_GetConversion 1F76  
                   __end_of_I2C1_MasterClearIrq 228A                    __end_of_I2C1_DO_RX_NACK_STOP 2230  
EUSART2_SetOverrunErrorHandler@interruptHandler 0018                                        isa$xinst 000000  
                                      int$flags 0048                 __end_of_I2C1_DO_RX_NACK_RESTART 2228  
                                      _vfprintf 1D00              __end_of_INTERRUPT_InterruptManager 013E  
                    _INTERRUPT_InterruptManager 0008                           _EUSART2_RxDataHandler 2086  
                                     printf@fmt 010E                                    _SSP1STATbits 000FC7  
                 __end_of_I2C1_DO_SEND_ADR_READ 21C0                                    _I2C1_DO_IDLE 21D8  
                                  _I2C1_DO_RCEN 21CC                                ___aomod@dividend 0018  
                   __end_of_I2C1_MasterSendNack 2272                ??_EUSART2_SetOverrunErrorHandler 001A  
               ?_EUSART2_SetOverrunErrorHandler 0018                                      _INTCONbits 000FF2  
                 fp__I2C1_DO_SEND_RESTART_WRITE 0000                            _I2C1_MasterGetRxData 228E  
                         _I2C1_MasterSendTxData 2258                          ??_INTERRUPT_Initialize 0018  
                     ??_EUSART2_SetErrorHandler 001A                                        intlevel2 0000  
                       ?_PIN_MANAGER_Initialize 0001                                ??_I2C1_DO_RX_ACK 0001  
                                    _RCSTA2bits 000F9C                         _I2C1_CallbackReturnStop 229A  
                    fp__I2C1_CallbackReturnStop 0000                                ??_ADC_Initialize 0018  
                          _I2C1_DO_ADDRESS_NACK 1C30                                        printf@ap 0114  
EUSART2_SetFramingErrorHandler@interruptHandler 0018                  ?_EUSART2_SetRxInterruptHandler 0018  
                               ___aomod@divisor 0020                                     ??_vfpfcnvrt 00F2  
                               ___aomod@counter 0028                             _EUSART2_Receive_ISR 184A  
                      __end_of_I2C1_SetCallback 1BBC                                 ??_I2C1_DO_RESET 0001  
                         ?_I2C1_MasterGetRxData 0001                                    ___aodiv@sign 00BF  
                __end_of_PIN_MANAGER_Initialize 1F3C                 ??_EUSART2_SetTxInterruptHandler 001A  
                 __end_of_rd1RegCompleteHandler 2030                            ?_EUSART2_Receive_ISR 0001  
                            _eusart2RxLastError 003B                   __end_of_wr1RegCompleteHandler 1FD8  
                                  ___aomod@sign 0029                                 _TMR1_Initialize 205C  
             _EUSART2_RxDefaultInterruptHandler 00FC                           ?_I2C1_DO_ADDRESS_NACK 0001  
