

Microchip MPLAB XC8 Assembler V2.35 build 20211206165544 
                                                                                               Thu Apr 21 12:07:53 2022

Microchip MPLAB XC8 C Compiler v2.35 (Free license) build 20211206165544 Og1 
     1                           	processor	18F26J53
     2                           	fnconf	rparam,??,?,0
     3                           	pagewidth 120
     4                           	opt	flic
     5                           	psect	idataBANK1,global,class=CODE,delta=1,noexec
     6                           	psect	smallconst,global,reloc=2,class=SMALLCONST,delta=1,noexec
     7                           	psect	nvCOMRAM,global,class=COMRAM,space=1,delta=1,lowdata,noexec
     8                           	psect	nvBANK1,global,class=BANK1,space=1,delta=1,lowdata,noexec
     9                           	psect	cinit,global,reloc=2,class=CODE,delta=1
    10                           	psect	bssCOMRAM,global,class=COMRAM,space=1,delta=1,lowdata,noexec
    11                           	psect	bssBANK0,global,class=BANK0,space=1,delta=1,lowdata,noexec
    12                           	psect	bssBANK1,global,class=BANK1,space=1,delta=1,lowdata,noexec
    13                           	psect	dataBANK1,global,class=BANK1,space=1,delta=1,lowdata,noexec
    14                           	psect	cstackBANK1,global,class=BANK1,space=1,delta=1,lowdata,noexec
    15                           	psect	cstackBANK0,global,class=BANK0,space=1,delta=1,lowdata,noexec
    16                           	psect	cstackCOMRAM,global,class=COMRAM,space=1,delta=1,lowdata,noexec
    17                           	psect	text0,global,reloc=2,class=CODE,delta=1
    18                           	psect	text1,global,reloc=2,class=CODE,delta=1
    19                           	psect	text2,global,reloc=2,class=CODE,delta=1
    20                           	psect	text3,global,reloc=2,class=CODE,delta=1
    21                           	psect	text4,global,reloc=2,class=CODE,delta=1
    22                           	psect	text5,global,reloc=2,class=CODE,delta=1
    23                           	psect	text6,global,reloc=2,class=CODE,delta=1
    24                           	psect	text7,global,reloc=2,class=CODE,delta=1,group=2
    25                           	psect	text8,global,reloc=2,class=CODE,delta=1,group=1
    26                           	psect	text9,global,reloc=2,class=CODE,delta=1,group=1
    27                           	psect	text10,global,reloc=2,class=CODE,delta=1,group=1
    28                           	psect	text11,global,reloc=2,class=CODE,delta=1,group=2
    29                           	psect	text12,global,reloc=2,class=CODE,delta=1,group=2
    30                           	psect	text13,global,reloc=2,class=CODE,delta=1,group=2
    31                           	psect	text14,global,reloc=2,class=CODE,delta=1,group=1
    32                           	psect	text15,global,reloc=2,class=CODE,delta=1,group=1
    33                           	psect	text16,global,reloc=2,class=CODE,delta=1
    34                           	psect	text17,global,reloc=2,class=CODE,delta=1
    35                           	psect	text18,global,reloc=2,class=CODE,delta=1
    36                           	psect	text19,global,reloc=2,class=CODE,delta=1
    37                           	psect	text20,global,reloc=2,class=CODE,delta=1
    38                           	psect	text21,global,reloc=2,class=CODE,delta=1
    39                           	psect	text22,global,reloc=2,class=CODE,delta=1
    40                           	psect	text23,global,reloc=2,class=CODE,delta=1
    41                           	psect	text24,global,reloc=2,class=CODE,delta=1
    42                           	psect	text25,global,reloc=2,class=CODE,delta=1
    43                           	psect	text26,global,reloc=2,class=CODE,delta=1,inline
    44                           	psect	text27,global,reloc=2,class=CODE,delta=1,inline
    45                           	psect	text28,global,reloc=2,class=CODE,delta=1
    46                           	psect	text29,global,reloc=2,class=CODE,delta=1
    47                           	psect	text30,global,reloc=2,class=CODE,delta=1,inline
    48                           	psect	text31,global,reloc=2,class=CODE,delta=1
    49                           	psect	text32,global,reloc=2,class=CODE,delta=1,inline
    50                           	psect	text33,global,reloc=2,class=CODE,delta=1,inline
    51                           	psect	text34,global,reloc=2,class=CODE,delta=1,inline
    52                           	psect	text35,global,reloc=2,class=CODE,delta=1
    53                           	psect	text36,global,reloc=2,class=CODE,delta=1,group=1
    54                           	psect	text37,global,reloc=2,class=CODE,delta=1,group=1
    55                           	psect	text38,global,reloc=2,class=CODE,delta=1,group=1
    56                           	psect	text39,global,reloc=2,class=CODE,delta=1
    57                           	psect	text40,global,reloc=2,class=CODE,delta=1,group=1
    58                           	psect	text41,global,reloc=2,class=CODE,delta=1,group=1
    59                           	psect	text42,global,reloc=2,class=CODE,delta=1
    60                           	psect	text43,global,reloc=2,class=CODE,delta=1
    61                           	psect	text44,global,reloc=2,class=CODE,delta=1
    62                           	psect	text45,global,reloc=2,class=CODE,delta=1
    63                           	psect	text46,global,reloc=2,class=CODE,delta=1
    64                           	psect	text47,global,reloc=2,class=CODE,delta=1
    65                           	psect	text48,global,reloc=2,class=CODE,delta=1
    66                           	psect	text49,global,reloc=2,class=CODE,delta=1
    67                           	psect	text50,global,reloc=2,class=CODE,delta=1
    68                           	psect	text51,global,reloc=2,class=CODE,delta=1
    69                           	psect	text52,global,reloc=2,class=CODE,delta=1
    70                           	psect	text53,global,reloc=2,class=CODE,delta=1
    71                           	psect	text54,global,reloc=2,class=CODE,delta=1
    72                           	psect	text55,global,reloc=2,class=CODE,delta=1
    73                           	psect	intcode,global,reloc=2,class=CODE,delta=1
    74                           	psect	text57,global,reloc=2,class=CODE,delta=1
    75                           	psect	text58,global,reloc=2,class=CODE,delta=1,inline
    76                           	psect	text59,global,reloc=2,class=CODE,delta=1,inline
    77                           	psect	text60,global,reloc=2,class=CODE,delta=1
    78                           	psect	text61,global,reloc=2,class=CODE,delta=1
    79                           	psect	text62,global,reloc=2,class=CODE,delta=1
    80                           	psect	text63,global,reloc=2,class=CODE,delta=1
    81                           	psect	text64,global,reloc=2,class=CODE,delta=1
    82                           	psect	text65,global,reloc=2,class=CODE,delta=1
    83                           	psect	text66,global,reloc=2,class=CODE,delta=1
    84                           	psect	text67,global,reloc=2,class=CODE,delta=1
    85                           	psect	text68,global,reloc=2,class=CODE,delta=1
    86                           	psect	text69,global,reloc=2,class=CODE,delta=1
    87                           	psect	text70,global,reloc=2,class=CODE,delta=1
    88                           	psect	text71,global,reloc=2,class=CODE,delta=1
    89                           	psect	text72,global,reloc=2,class=CODE,delta=1
    90                           	psect	text73,global,reloc=2,class=CODE,delta=1
    91                           	psect	text74,global,reloc=2,class=CODE,delta=1
    92                           	psect	text75,global,reloc=2,class=CODE,delta=1
    93                           	psect	text76,global,reloc=2,class=CODE,delta=1,inline
    94                           	psect	text77,global,reloc=2,class=CODE,delta=1,inline
    95                           	psect	text78,global,reloc=2,class=CODE,delta=1,inline
    96                           	psect	text79,global,reloc=2,class=CODE,delta=1,inline
    97                           	psect	text80,global,reloc=2,class=CODE,delta=1,inline
    98                           	psect	text81,global,reloc=2,class=CODE,delta=1,inline
    99                           	psect	text82,global,reloc=2,class=CODE,delta=1,inline
   100                           	psect	text83,global,reloc=2,class=CODE,delta=1
   101                           	psect	text84,global,reloc=2,class=CODE,delta=1
   102                           	psect	text85,global,reloc=2,class=CODE,delta=1
   103                           	psect	text86,global,reloc=2,class=CODE,delta=1
   104                           	psect	text87,global,reloc=2,class=CODE,delta=1
   105                           	psect	text88,global,reloc=2,class=CODE,delta=1
   106                           	psect	text89,global,reloc=2,class=CODE,delta=1
   107                           	psect	text90,global,reloc=2,class=CODE,delta=1
   108                           	psect	text91,global,reloc=2,class=CODE,delta=1
   109                           	psect	text92,global,reloc=2,class=CODE,delta=1
   110                           	psect	text93,global,reloc=2,class=CODE,delta=1,inline
   111                           	psect	text94,global,reloc=2,class=CODE,delta=1,inline
   112                           	psect	text95,global,reloc=2,class=CODE,delta=1
   113                           	psect	text96,global,reloc=2,class=CODE,delta=1
   114                           	psect	text97,global,reloc=2,class=CODE,delta=1
   115                           	psect	text98,global,reloc=2,class=CODE,delta=1
   116                           	psect	text99,global,reloc=2,class=CODE,delta=1
   117                           	psect	text100,global,reloc=2,class=CODE,delta=1
   118                           	psect	intsave_regs,global,class=BIGRAM,space=1,delta=1,noexec
   119                           	psect	text101,global,reloc=2,class=CODE,delta=1
   120                           	psect	rparam,global,class=COMRAM,space=1,delta=1,noexec
   121                           	psect	temp,global,ovrld,common,class=COMRAM,space=1,delta=1
   122                           	psect	config,global,abs,ovrld,class=CONFIG,space=4,delta=1,noexec
   123  0000                     
   124                           ; Version 2.40
   125                           ; Generated 17/11/2021 GMT
   126                           ; 
   127                           ; Copyright © 2021, Microchip Technology Inc. and its subsidiaries ("Microchip")
   128                           ; All rights reserved.
   129                           ; 
   130                           ; This software is developed by Microchip Technology Inc. and its subsidiaries ("Microch
      +                          ip").
   131                           ; 
   132                           ; Redistribution and use in source and binary forms, with or without modification, are
   133                           ; permitted provided that the following conditions are met:
   134                           ; 
   135                           ;     1. Redistributions of source code must retain the above copyright notice, this lis
      +                          t of
   136                           ;        conditions and the following disclaimer.
   137                           ; 
   138                           ;     2. Redistributions in binary form must reproduce the above copyright notice, this 
      +                          list
   139                           ;        of conditions and the following disclaimer in the documentation and/or other
   140                           ;        materials provided with the distribution. Publication is not required when
   141                           ;        this file is used in an embedded application.
   142                           ; 
   143                           ;     3. Microchip's name may not be used to endorse or promote products derived from th
      +                          is
   144                           ;        software without specific prior written permission.
   145                           ; 
   146                           ; THIS SOFTWARE IS PROVIDED BY MICROCHIP "AS IS" AND ANY EXPRESS OR IMPLIED WARRANTIES,
   147                           ; INCLUDING, BUT NOT LIMITED TO, THE IMPLIED WARRANTIES OF MERCHANTABILITY AND FITNESS F
      +                          OR
   148                           ; PURPOSE ARE DISCLAIMED.  IN NO EVENT SHALL MICROCHIP BE LIABLE FOR ANY DIRECT, INDIREC
      +                          T,
   149                           ; INCIDENTAL, SPECIAL, EXEMPLARY, OR CONSEQUENTIAL DAMAGES (INCLUDING BUT NOT LIMITED TO
   150                           ; PROCUREMENT OF SUBSTITUTE GOODS OR SERVICES; LOSS OF USE, DATA OR PROFITS; OR BUSINESS
   151                           ; INTERRUPTION) HOWSOEVER CAUSED AND ON ANY THEORY OF LIABILITY, WHETHER IN CONTRACT, ST
      +                          RICT
   152                           ; LIABILITY, OR TORT (INCLUDING NEGLIGENCE OR OTHERWISE) ARISING IN ANY WAY OUT OF THE U
      +                          SE OF
   153                           ; THIS SOFTWARE, EVEN IF ADVISED OF THE POSSIBILITY OF SUCH DAMAGE.
   154                           ; 
   155                           ; 
   156                           ; Code-generator required, PIC18F26J53 Definitions
   157                           ; 
   158                           ; SFR Addresses
   159  0000                     
   160                           	psect	idataBANK1
   161  003E96                     __pidataBANK1:
   162                           	callstack 0
   163                           
   164                           ;initializer for _scale
   165  003E96  0000               	dw	0
   166  003E98  3F80               	dw	16256
   167                           
   168                           	psect	smallconst
   169  000F00                     __psmallconst:
   170                           	callstack 0
   171  000F00  00                 	db	0
   172  000F01                     _i2c1_fsmStateTable:
   173                           	callstack 0
   174  000F01  E8                 	db	low _I2C1_DO_IDLE
   175  000F02  3D                 	db	high _I2C1_DO_IDLE
   176  000F03  C0                 	db	low _I2C1_DO_SEND_ADR_READ
   177  000F04  3D                 	db	high _I2C1_DO_SEND_ADR_READ
   178  000F05  B0                 	db	low _I2C1_DO_SEND_ADR_WRITE
   179  000F06  3D                 	db	high _I2C1_DO_SEND_ADR_WRITE
   180  000F07  7E                 	db	low _I2C1_DO_TX
   181  000F08  30                 	db	high _I2C1_DO_TX
   182  000F09  7C                 	db	low _I2C1_DO_RX
   183  000F0A  33                 	db	high _I2C1_DO_RX
   184  000F0B  DC                 	db	low _I2C1_DO_RCEN
   185  000F0C  3D                 	db	high _I2C1_DO_RCEN
   186  000F0D  C2                 	db	low _I2C1_DO_TX_EMPTY
   187  000F0E  34                 	db	high _I2C1_DO_TX_EMPTY
   188  000F0F  68                 	db	low _I2C1_DO_SEND_RESTART_READ
   189  000F10  3E                 	db	high _I2C1_DO_SEND_RESTART_READ
   190  000F11  60                 	db	low _I2C1_DO_SEND_RESTART_WRITE
   191  000F12  3E                 	db	high _I2C1_DO_SEND_RESTART_WRITE
   192  000F13  58                 	db	low _I2C1_DO_SEND_RESTART
   193  000F14  3E                 	db	high _I2C1_DO_SEND_RESTART
   194  000F15  50                 	db	low _I2C1_DO_SEND_STOP
   195  000F16  3E                 	db	high _I2C1_DO_SEND_STOP
   196  000F17  48                 	db	low _I2C1_DO_RX_ACK
   197  000F18  3E                 	db	high _I2C1_DO_RX_ACK
   198  000F19  40                 	db	low _I2C1_DO_RX_NACK_STOP
   199  000F1A  3E                 	db	high _I2C1_DO_RX_NACK_STOP
   200  000F1B  38                 	db	low _I2C1_DO_RX_NACK_RESTART
   201  000F1C  3E                 	db	high _I2C1_DO_RX_NACK_RESTART
   202  000F1D  D0                 	db	low _I2C1_DO_RESET
   203  000F1E  3D                 	db	high _I2C1_DO_RESET
   204  000F1F  88                 	db	low _I2C1_DO_ADDRESS_NACK
   205  000F20  37                 	db	high _I2C1_DO_ADDRESS_NACK
   206  000F21                     __end_of_i2c1_fsmStateTable:
   207                           	callstack 0
   208  000F21  0000               	dw	0
   209  000F23  4B00               	dw	19200
   210  000F25                     __end_of_toint:
   211                           	callstack 0
   212  0000                     _ADCON0	set	4034
   213  0000                     _ADRESH	set	4036
   214  0000                     _ADRESL	set	4035
   215  0000                     _T1CON	set	4045
   216  0000                     _TMR1L	set	4046
   217  0000                     _TMR1H	set	4047
   218  0000                     _RCONbits	set	4048
   219  0000                     _T2CON	set	4042
   220  0000                     _TMR2	set	4044
   221  0000                     _PR2	set	4043
   222  0000                     _SSP1BUF	set	4041
   223  0000                     _SSP1ADD	set	4040
   224  0000                     _RCREG2	set	4010
   225  0000                     _TXREG2	set	4009
   226  0000                     _SPBRG2	set	4011
   227  000F25  00                 	db	0	; dummy byte at the end
   228  0000                     
   229                           	psect	nvCOMRAM
   230  000047                     __pnvCOMRAM:
   231                           	callstack 0
   232  000047                     _eusart2TxBufferRemaining:
   233                           	callstack 0
   234  000047                     	ds	1
   235                           
   236                           	psect	nvBANK1
   237  000159                     __pnvBANK1:
   238                           	callstack 0
   239  000159                     _timer1ReloadVal:
   240                           	callstack 0
   241  000159                     	ds	2
   242  00015B                     _EUSART2_ErrorHandler:
   243                           	callstack 0
   244  00015B                     	ds	2
   245  00015D                     _EUSART2_OverrunErrorHandler:
   246                           	callstack 0
   247  00015D                     	ds	2
   248  00015F                     _EUSART2_FramingErrorHandler:
   249                           	callstack 0
   250  00015F                     	ds	2
   251  000161                     _EUSART2_RxDefaultInterruptHandler:
   252                           	callstack 0
   253  000161                     	ds	2
   254  000163                     _EUSART2_TxDefaultInterruptHandler:
   255                           	callstack 0
   256  000163                     	ds	2
   257  0000                     _LATCbits	set	3979
   258  0000                     _LATAbits	set	3977
   259  0000                     _ADCON0bits	set	4034
   260  0000                     _T1GCONbits	set	3994
   261  0000                     _T1CONbits	set	4045
   262  0000                     _T2CONbits	set	4042
   263  0000                     _SSP1STATbits	set	4039
   264  0000                     _SSP1CON2bits	set	4037
   265  0000                     _SSP1CON1bits	set	4038
   266  0000                     _RCSTA2bits	set	3996
   267  0000                     _TXSTA2bits	set	4008
   268  0000                     _ADCTRIG	set	3768
   269  0000                     _RPOR6	set	3782
   270  0000                     _RPINR16	set	3831
   271  0000                     _REFOCON	set	3901
   272  0000                     _BAUDCON2	set	3964
   273  0000                     _PIE3bits	set	4003
   274  0000                     _PIR3bits	set	4004
   275  0000                     _TXSTA2	set	4008
   276  0000                     _OSCCON2	set	3975
   277  0000                     _OSCTUNE	set	3995
   278  0000                     _SPBRGH2	set	3965
   279  0000                     _RCSTA2	set	3996
   280  0000                     _PIE2bits	set	4000
   281  0000                     _PIR1bits	set	3998
   282  0000                     _PIE1bits	set	3997
   283  0000                     _PIR2bits	set	4001
   284  0000                     _ADCON1	set	4033
   285  0000                     _SSP1CON2	set	4037
   286  0000                     _SSP1CON1	set	4038
   287  0000                     _SSP1STAT	set	4039
   288  0000                     _OSCCON	set	4051
   289  0000                     _INTCON2bits	set	4081
   290  0000                     _ODCON3	set	3904
   291  0000                     _ODCON2	set	3905
   292  0000                     _ODCON1	set	3906
   293  0000                     _ANCON0	set	3912
   294  0000                     _LATA	set	3977
   295  0000                     _TRISA	set	3986
   296  0000                     _LATC	set	3979
   297  0000                     _LATB	set	3978
   298  0000                     _T1GCON	set	3994
   299  0000                     _TRISC	set	3988
   300  0000                     _TRISB	set	3987
   301  0000                     _ANCON1	set	3913
   302  0000                     _INTCONbits	set	4082
   303                           
   304                           ; #config settings
   305                           
   306                           	psect	cinit
   307  003858                     __pcinit:
   308                           	callstack 0
   309  003858                     start_initialization:
   310                           	callstack 0
   311  003858                     __initialization:
   312                           	callstack 0
   313                           
   314                           ; Initialize objects allocated to BANK1 (4 bytes)
   315                           ; load TBLPTR registers with __pidataBANK1
   316  003858  0E96               	movlw	low __pidataBANK1
   317  00385A  6EF6               	movwf	tblptrl,c
   318  00385C  0E3E               	movlw	high __pidataBANK1
   319  00385E  6EF7               	movwf	tblptrh,c
   320  003860  0E00               	movlw	low (__pidataBANK1 shr (0+16))
   321  003862  6EF8               	movwf	tblptru,c
   322  003864  EE01  F065         	lfsr	0,__pdataBANK1
   323  003868  EE10 F004          	lfsr	1,4
   324  00386C                     copy_data0:
   325  00386C  0009               	tblrd		*+
   326  00386E  CFF5 FFEE          	movff	tablat,postinc0
   327  003872  50E5               	movf	postdec1,w,c
   328  003874  50E1               	movf	fsr1l,w,c
   329  003876  E1FA               	bnz	copy_data0
   330                           
   331                           ; Clear objects allocated to BANK1 (68 bytes)
   332  003878  EE01  F000         	lfsr	0,__pbssBANK1
   333  00387C  0E44               	movlw	68
   334  00387E                     clear_0:
   335  00387E  6AEE               	clrf	postinc0,c
   336  003880  06E8               	decf	wreg,f,c
   337  003882  E1FD               	bnz	clear_0
   338                           
   339                           ; Clear objects allocated to BANK0 (37 bytes)
   340  003884  EE00  F0DB         	lfsr	0,__pbssBANK0
   341  003888  0E25               	movlw	37
   342  00388A                     clear_1:
   343  00388A  6AEE               	clrf	postinc0,c
   344  00388C  06E8               	decf	wreg,f,c
   345  00388E  E1FD               	bnz	clear_1
   346                           
   347                           ; Clear objects allocated to COMRAM (21 bytes)
   348  003890  EE00  F032         	lfsr	0,__pbssCOMRAM
   349  003894  0E15               	movlw	21
   350  003896                     clear_2:
   351  003896  6AEE               	clrf	postinc0,c
   352  003898  06E8               	decf	wreg,f,c
   353  00389A  E1FD               	bnz	clear_2
   354  00389C                     end_of_initialization:
   355                           	callstack 0
   356  00389C                     __end_of__initialization:
   357                           	callstack 0
   358  00389C  9048               	bcf	int$flags,0,c	;clear compiler interrupt flag (level 1)
   359  00389E  9248               	bcf	int$flags,1,c	;clear compiler interrupt flag (level 2)
   360  0038A0  0E00               	movlw	low (__Lmediumconst shr (0+16))
   361  0038A2  6EF8               	movwf	tblptru,c
   362  0038A4  0100               	movlb	0
   363  0038A6  EF10  F015         	goto	_main	;jump to C main() function
   364                           
   365                           	psect	bssCOMRAM
   366  000032                     __pbssCOMRAM:
   367                           	callstack 0
   368  000032                     ___fpclassifyf@F465:
   369                           	callstack 0
   370  000032                     	ds	4
   371  000036                     displayTemp@previousMillis:
   372                           	callstack 0
   373  000036                     	ds	4
   374  00003A                     _ADC_InterruptHandler:
   375                           	callstack 0
   376  00003A                     	ds	2
   377  00003C                     _MSSP1_InterruptHandler:
   378                           	callstack 0
   379  00003C                     	ds	2
   380  00003E                     setLED@currentB:
   381                           	callstack 0
   382  00003E                     	ds	1
   383  00003F                     setLED@currentG:
   384                           	callstack 0
   385  00003F                     	ds	1
   386  000040                     setLED@currentR:
   387                           	callstack 0
   388  000040                     	ds	1
   389  000041                     _eusart2RxLastError:
   390                           	callstack 0
   391  000041                     	ds	1
   392  000042                     _eusart2RxCount:
   393                           	callstack 0
   394  000042                     	ds	1
   395  000043                     _eusart2RxTail:
   396                           	callstack 0
   397  000043                     	ds	1
   398  000044                     _eusart2RxHead:
   399                           	callstack 0
   400  000044                     	ds	1
   401  000045                     _eusart2TxTail:
   402                           	callstack 0
   403  000045                     	ds	1
   404  000046                     _eusart2TxHead:
   405                           	callstack 0
   406  000046                     	ds	1
   407                           
   408                           	psect	bssBANK0
   409  0000DB                     __pbssBANK0:
   410                           	callstack 0
   411  0000DB                     displayAlt@previousMillis:
   412                           	callstack 0
   413  0000DB                     	ds	4
   414  0000DF                     displayAlt@currentMillis:
   415                           	callstack 0
   416  0000DF                     	ds	4
   417  0000E3                     displayTemp@currentMillis:
   418                           	callstack 0
   419  0000E3                     	ds	4
   420  0000E7                     displayHR@previousMillis:
   421                           	callstack 0
   422  0000E7                     	ds	4
   423  0000EB                     displayHR@currentMillis:
   424                           	callstack 0
   425  0000EB                     	ds	4
   426  0000EF                     displayAlt@altHund:
   427                           	callstack 0
   428  0000EF                     	ds	2
   429  0000F1                     displayAlt@altThou:
   430                           	callstack 0
   431  0000F1                     	ds	2
   432  0000F3                     displayAlt@currentAlt:
   433                           	callstack 0
   434  0000F3                     	ds	2
   435  0000F5                     updateLED@currentAlt:
   436                           	callstack 0
   437  0000F5                     	ds	2
   438  0000F7                     updateLED@currentTemp:
   439                           	callstack 0
   440  0000F7                     	ds	2
   441  0000F9                     updateLED@currentHR:
   442                           	callstack 0
   443  0000F9                     	ds	2
   444  0000FB                     displayAlt@counter:
   445                           	callstack 0
   446  0000FB                     	ds	1
   447  0000FC                     displayAlt@ledOn:
   448                           	callstack 0
   449  0000FC                     	ds	1
   450  0000FD                     displayAlt@dispStep:
   451                           	callstack 0
   452  0000FD                     	ds	1
   453  0000FE                     displayTemp@ledOn:
   454                           	callstack 0
   455  0000FE                     	ds	1
   456  0000FF                     displayHR@level:
   457                           	callstack 0
   458  0000FF                     	ds	1
   459                           
   460                           	psect	bssBANK1
   461  000100                     __pbssBANK1:
   462                           	callstack 0
   463  000100                     _I2C1_Status:
   464                           	callstack 0
   465  000100                     	ds	36
   466  000124                     _eusart2RxStatusBuffer:
   467                           	callstack 0
   468  000124                     	ds	8
   469  00012C                     _eusart2RxBuffer:
   470                           	callstack 0
   471  00012C                     	ds	8
   472  000134                     _eusart2TxBuffer:
   473                           	callstack 0
   474  000134                     	ds	8
   475  00013C                     roundf@F527:
   476                           	callstack 0
   477  00013C                     	ds	4
   478  000140                     ___signbitf@F526:
   479                           	callstack 0
   480  000140                     	ds	4
   481                           
   482                           	psect	dataBANK1
   483  000165                     __pdataBANK1:
   484                           	callstack 0
   485  000165                     _scale:
   486                           	callstack 0
   487  000165                     	ds	4
   488                           
   489                           	psect	cstackBANK1
   490  000144                     __pcstackBANK1:
   491                           	callstack 0
   492  000144                     updateLED@update:
   493                           	callstack 0
   494                           
   495                           ; 1 bytes @ 0x0
   496  000144                     	ds	1
   497  000145                     updateDispAnim@mode:
   498                           	callstack 0
   499  000145                     updateDispTemp@temp:
   500                           	callstack 0
   501                           
   502                           ; 2 bytes @ 0x1
   503  000145                     	ds	2
   504  000147                     ??_main:
   505                           
   506                           ; 1 bytes @ 0x3
   507  000147                     	ds	4
   508  00014B                     main@updateDelay:
   509                           	callstack 0
   510                           
   511                           ; 4 bytes @ 0x7
   512  00014B                     	ds	4
   513  00014F                     main@previousMillis:
   514                           	callstack 0
   515                           
   516                           ; 4 bytes @ 0xB
   517  00014F                     	ds	4
   518  000153                     main@currentMillis:
   519                           	callstack 0
   520                           
   521                           ; 4 bytes @ 0xF
   522  000153                     	ds	4
   523  000157                     main@tempTesting:
   524                           	callstack 0
   525                           
   526                           ; 2 bytes @ 0x13
   527  000157                     	ds	2
   528                           
   529                           	psect	cstackBANK0
   530  000060                     __pcstackBANK0:
   531                           	callstack 0
   532  000060                     ?___flmul:
   533                           	callstack 0
   534  000060                     ___flmul@b:
   535                           	callstack 0
   536                           
   537                           ; 4 bytes @ 0x0
   538  000060                     	ds	4
   539  000064                     ___flmul@a:
   540                           	callstack 0
   541                           
   542                           ; 4 bytes @ 0x4
   543  000064                     	ds	4
   544  000068                     ___flmul@sign:
   545                           	callstack 0
   546                           
   547                           ; 1 bytes @ 0x8
   548  000068                     	ds	1
   549  000069                     ___flmul@aexp:
   550                           	callstack 0
   551                           
   552                           ; 1 bytes @ 0x9
   553  000069                     	ds	1
   554  00006A                     ___flmul@grs:
   555                           	callstack 0
   556                           
   557                           ; 4 bytes @ 0xA
   558  00006A                     	ds	4
   559  00006E                     ___flmul@bexp:
   560                           	callstack 0
   561                           
   562                           ; 1 bytes @ 0xE
   563  00006E                     	ds	1
   564  00006F                     ___flmul@prod:
   565                           	callstack 0
   566                           
   567                           ; 4 bytes @ 0xF
   568  00006F                     	ds	4
   569  000073                     ___flmul@temp:
   570                           	callstack 0
   571                           
   572                           ; 2 bytes @ 0x13
   573  000073                     	ds	2
   574  000075                     ?_fminf:
   575                           	callstack 0
   576  000075                     ?___fldiv:
   577                           	callstack 0
   578  000075                     ___fldiv@b:
   579                           	callstack 0
   580  000075                     fminf@x:
   581                           	callstack 0
   582                           
   583                           ; 4 bytes @ 0x15
   584  000075                     	ds	4
   585  000079                     ___fldiv@a:
   586                           	callstack 0
   587  000079                     fminf@y:
   588                           	callstack 0
   589                           
   590                           ; 4 bytes @ 0x19
   591  000079                     	ds	4
   592  00007D                     ??_fminf:
   593  00007D                     ??___fldiv:
   594                           
   595                           ; 1 bytes @ 0x1D
   596  00007D                     	ds	4
   597  000081                     ___fldiv@rem:
   598                           	callstack 0
   599                           
   600                           ; 4 bytes @ 0x21
   601  000081                     	ds	4
   602  000085                     ___fldiv@sign:
   603                           	callstack 0
   604                           
   605                           ; 1 bytes @ 0x25
   606  000085                     	ds	1
   607  000086                     ___fldiv@new_exp:
   608                           	callstack 0
   609                           
   610                           ; 2 bytes @ 0x26
   611  000086                     	ds	2
   612  000088                     ___fldiv@grs:
   613                           	callstack 0
   614                           
   615                           ; 4 bytes @ 0x28
   616  000088                     	ds	4
   617  00008C                     ___fldiv@bexp:
   618                           	callstack 0
   619                           
   620                           ; 1 bytes @ 0x2C
   621  00008C                     	ds	1
   622  00008D                     ___fldiv@aexp:
   623                           	callstack 0
   624                           
   625                           ; 1 bytes @ 0x2D
   626  00008D                     	ds	1
   627  00008E                     ?_roundf:
   628                           	callstack 0
   629  00008E                     roundf@x:
   630                           	callstack 0
   631                           
   632                           ; 4 bytes @ 0x2E
   633  00008E                     	ds	4
   634  000092                     ??_roundf:
   635                           
   636                           ; 1 bytes @ 0x32
   637  000092                     	ds	4
   638  000096                     _roundf$3183:
   639                           	callstack 0
   640                           
   641                           ; 4 bytes @ 0x36
   642  000096                     	ds	4
   643  00009A                     roundf@e:
   644                           	callstack 0
   645                           
   646                           ; 2 bytes @ 0x3A
   647  00009A                     	ds	2
   648  00009C                     _roundf$3182:
   649                           	callstack 0
   650                           
   651                           ; 4 bytes @ 0x3C
   652  00009C                     	ds	4
   653  0000A0                     roundf@u:
   654                           	callstack 0
   655                           
   656                           ; 4 bytes @ 0x40
   657  0000A0                     	ds	4
   658  0000A4                     roundf@y:
   659                           	callstack 0
   660                           
   661                           ; 4 bytes @ 0x44
   662  0000A4                     	ds	4
   663  0000A8                     ?___fltol:
   664                           	callstack 0
   665  0000A8                     ___fltol@f1:
   666                           	callstack 0
   667                           
   668                           ; 4 bytes @ 0x48
   669  0000A8                     	ds	4
   670  0000AC                     ??___fltol:
   671                           
   672                           ; 1 bytes @ 0x4C
   673  0000AC                     	ds	4
   674  0000B0                     ___fltol@sign1:
   675                           	callstack 0
   676                           
   677                           ; 1 bytes @ 0x50
   678  0000B0                     	ds	1
   679  0000B1                     ___fltol@exp1:
   680                           	callstack 0
   681                           
   682                           ; 1 bytes @ 0x51
   683  0000B1                     	ds	1
   684  0000B2                     ?_millis:
   685                           	callstack 0
   686                           
   687                           ; 4 bytes @ 0x52
   688  0000B2                     	ds	4
   689  0000B6                     millis@returnTime:
   690                           	callstack 0
   691                           
   692                           ; 4 bytes @ 0x56
   693  0000B6                     	ds	4
   694  0000BA                     displayHR@heartRate:
   695                           	callstack 0
   696  0000BA                     displayTemp@temp:
   697                           	callstack 0
   698  0000BA                     displayAlt@alt:
   699                           	callstack 0
   700                           
   701                           ; 2 bytes @ 0x5A
   702  0000BA                     	ds	2
   703  0000BC                     ??_displayHR:
   704  0000BC                     ??_displayTemp:
   705  0000BC                     ??_displayAlt:
   706                           
   707                           ; 1 bytes @ 0x5C
   708  0000BC                     	ds	4
   709  0000C0                     displayAlt@placeSeperatorDelay:
   710                           	callstack 0
   711                           
   712                           ; 2 bytes @ 0x60
   713  0000C0                     	ds	1
   714  0000C1                     displayHR@fadeFactor:
   715                           	callstack 0
   716  0000C1                     displayTemp@rapidDelay:
   717                           	callstack 0
   718                           
   719                           ; 4 bytes @ 0x61
   720  0000C1                     	ds	1
   721  0000C2                     displayAlt@completeDispDelay:
   722                           	callstack 0
   723                           
   724                           ; 2 bytes @ 0x62
   725  0000C2                     	ds	2
   726  0000C4                     displayAlt@offNumDelay:
   727                           	callstack 0
   728                           
   729                           ; 2 bytes @ 0x64
   730  0000C4                     	ds	1
   731  0000C5                     displayTemp@calcR:
   732                           	callstack 0
   733  0000C5                     displayHR@currentHR:
   734                           	callstack 0
   735                           
   736                           ; 4 bytes @ 0x65
   737  0000C5                     	ds	1
   738  0000C6                     displayTemp@calcG:
   739                           	callstack 0
   740                           
   741                           ; 1 bytes @ 0x66
   742  0000C6                     	ds	1
   743  0000C7                     displayTemp@calcB:
   744                           	callstack 0
   745                           
   746                           ; 1 bytes @ 0x67
   747  0000C7                     	ds	1
   748  0000C8                     displayTemp@currentDelay:
   749                           	callstack 0
   750                           
   751                           ; 4 bytes @ 0x68
   752  0000C8                     	ds	1
   753  0000C9                     displayHR@beatDelay:
   754                           	callstack 0
   755                           
   756                           ; 4 bytes @ 0x69
   757  0000C9                     	ds	4
   758  0000CD                     _displayHR$3181:
   759                           	callstack 0
   760                           
   761                           ; 4 bytes @ 0x6D
   762  0000CD                     	ds	4
   763  0000D1                     displayHR@levelFade:
   764                           	callstack 0
   765                           
   766                           ; 1 bytes @ 0x71
   767  0000D1                     	ds	1
   768  0000D2                     updateLED@mode:
   769                           	callstack 0
   770                           
   771                           ; 1 bytes @ 0x72
   772  0000D2                     	ds	1
   773  0000D3                     updateLED@hr:
   774                           	callstack 0
   775                           
   776                           ; 2 bytes @ 0x73
   777  0000D3                     	ds	2
   778  0000D5                     updateLED@temp:
   779                           	callstack 0
   780                           
   781                           ; 2 bytes @ 0x75
   782  0000D5                     	ds	2
   783  0000D7                     updateLED@alt:
   784                           	callstack 0
   785                           
   786                           ; 2 bytes @ 0x77
   787  0000D7                     	ds	2
   788  0000D9                     ??_updateLED:
   789                           
   790                           ; 1 bytes @ 0x79
   791  0000D9                     	ds	2
   792                           
   793                           	psect	cstackCOMRAM
   794  000001                     __pcstackCOMRAM:
   795                           	callstack 0
   796  000001                     I2C1_MasterSendTxData@data:
   797                           	callstack 0
   798  000001                     i2I2C1_SetBuffer@buffer:
   799                           	callstack 0
   800  000001                     i2I2C1_SetCallback@cb:
   801                           	callstack 0
   802                           
   803                           ; 2 bytes @ 0x0
   804  000001                     	ds	1
   805  000002                     
   806                           ; 1 bytes @ 0x1
   807  000002                     	ds	1
   808  000003                     i2I2C1_SetBuffer@bufferSize:
   809                           	callstack 0
   810  000003                     i2I2C1_SetCallback@ptr:
   811                           	callstack 0
   812                           
   813                           ; 2 bytes @ 0x2
   814  000003                     	ds	2
   815  000005                     i2I2C1_SetCallback@idx:
   816                           	callstack 0
   817                           
   818                           ; 1 bytes @ 0x4
   819  000005                     	ds	1
   820  000006                     i2I2C1_SetDataCompleteCallback@cb:
   821                           	callstack 0
   822                           
   823                           ; 2 bytes @ 0x5
   824  000006                     	ds	2
   825  000008                     i2I2C1_SetDataCompleteCallback@ptr:
   826                           	callstack 0
   827                           
   828                           ; 2 bytes @ 0x7
   829  000008                     	ds	2
   830  00000A                     rd1RegCompleteHandler@ptr:
   831                           	callstack 0
   832  00000A                     rd2RegCompleteHandler@ptr:
   833                           	callstack 0
   834  00000A                     wr1RegCompleteHandler@ptr:
   835                           	callstack 0
   836  00000A                     wr2RegCompleteHandler@ptr:
   837                           	callstack 0
   838  00000A                     rdBlkRegCompleteHandler@ptr:
   839                           	callstack 0
   840  00000A                     I2C1_CallbackReturnReset@funPtr:
   841                           	callstack 0
   842                           
   843                           ; 2 bytes @ 0x9
   844  00000A                     	ds	2
   845  00000C                     ??_I2C1_DO_TX:
   846  00000C                     ??_I2C1_DO_RX:
   847  00000C                     ??_I2C1_DO_TX_EMPTY:
   848  00000C                     ??_I2C1_DO_ADDRESS_NACK:
   849  00000C                     
   850                           ; 1 bytes @ 0xB
   851  00000C                     	ds	2
   852  00000E                     ??_INTERRUPT_InterruptManager:
   853                           
   854                           ; 1 bytes @ 0xD
   855  00000E                     	ds	10
   856  000018                     ??_TMR1_Initialize:
   857  000018                     ?___fpclassifyf:
   858                           	callstack 0
   859  000018                     ?___signbitf:
   860                           	callstack 0
   861  000018                     ?_TMR1_ReadTimer:
   862                           	callstack 0
   863  000018                     ?___wmul:
   864                           	callstack 0
   865  000018                     ?___fladd:
   866                           	callstack 0
   867  000018                     ?___flneg:
   868                           	callstack 0
   869  000018                     I2C1_Close@returnValue:
   870                           	callstack 0
   871  000018                     I2C1_MasterOperation@read:
   872                           	callstack 0
   873  000018                     byteMin@b:
   874                           	callstack 0
   875  000018                     EUSART2_SetFramingErrorHandler@interruptHandler:
   876                           	callstack 0
   877  000018                     EUSART2_SetOverrunErrorHandler@interruptHandler:
   878                           	callstack 0
   879  000018                     EUSART2_SetErrorHandler@interruptHandler:
   880                           	callstack 0
   881  000018                     EUSART2_SetTxInterruptHandler@interruptHandler:
   882                           	callstack 0
   883  000018                     EUSART2_SetRxInterruptHandler@interruptHandler:
   884                           	callstack 0
   885  000018                     I2C1_SetBuffer@buffer:
   886                           	callstack 0
   887  000018                     I2C1_SetInterruptHandler@InterruptHandler:
   888                           	callstack 0
   889  000018                     I2C1_SetCallback@cb:
   890                           	callstack 0
   891  000018                     ___wmul@multiplier:
   892                           	callstack 0
   893  000018                     ___flge@ff1:
   894                           	callstack 0
   895  000018                     ___flneg@f1:
   896                           	callstack 0
   897  000018                     ___fladd@b:
   898                           	callstack 0
   899  000018                     ___fpclassifyf@x:
   900                           	callstack 0
   901  000018                     ___signbitf@x:
   902                           	callstack 0
   903                           
   904                           ; 4 bytes @ 0x17
   905  000018                     	ds	1
   906  000019                     I2C1_MasterOperation@returnValue:
   907                           	callstack 0
   908  000019                     _byteMin$2358:
   909                           	callstack 0
   910                           
   911                           ; 2 bytes @ 0x18
   912  000019                     	ds	1
   913  00001A                     ??_TMR1_ReadTimer:
   914  00001A                     I2C1_Open@address:
   915                           	callstack 0
   916  00001A                     I2C1_SetBuffer@bufferSize:
   917                           	callstack 0
   918  00001A                     I2C1_SetCallback@ptr:
   919                           	callstack 0
   920  00001A                     ___wmul@multiplicand:
   921                           	callstack 0
   922                           
   923                           ; 2 bytes @ 0x19
   924  00001A                     	ds	1
   925  00001B                     I2C1_Open@returnValue:
   926                           	callstack 0
   927  00001B                     byteMin@a:
   928                           	callstack 0
   929                           
   930                           ; 1 bytes @ 0x1A
   931  00001B                     	ds	1
   932  00001C                     ??___fpclassifyf:
   933  00001C                     ??___signbitf:
   934  00001C                     I2C1_SetCallback@idx:
   935                           	callstack 0
   936  00001C                     TMR1_ReadTimer@readVal:
   937                           	callstack 0
   938  00001C                     ___wmul@product:
   939                           	callstack 0
   940  00001C                     ___flge@ff2:
   941                           	callstack 0
   942  00001C                     ___fladd@a:
   943                           	callstack 0
   944                           
   945                           ; 4 bytes @ 0x1B
   946  00001C                     	ds	1
   947  00001D                     I2C1_SetDataCompleteCallback@cb:
   948                           	callstack 0
   949  00001D                     I2C1_SetAddressNackCallback@cb:
   950                           	callstack 0
   951                           
   952                           ; 2 bytes @ 0x1C
   953  00001D                     	ds	1
   954  00001E                     ?___awmod:
   955                           	callstack 0
   956  00001E                     TMR1_ReadTimer@readValHigh:
   957                           	callstack 0
   958  00001E                     ___awmod@dividend:
   959                           	callstack 0
   960                           
   961                           ; 2 bytes @ 0x1D
   962  00001E                     	ds	1
   963  00001F                     TMR1_ReadTimer@readValLow:
   964                           	callstack 0
   965  00001F                     I2C1_SetDataCompleteCallback@ptr:
   966                           	callstack 0
   967  00001F                     I2C1_SetAddressNackCallback@ptr:
   968                           	callstack 0
   969                           
   970                           ; 2 bytes @ 0x1E
   971  00001F                     	ds	1
   972  000020                     ??___fladd:
   973  000020                     ??___flge:
   974  000020                     ?___xxtofl:
   975                           	callstack 0
   976  000020                     ___awmod@divisor:
   977                           	callstack 0
   978  000020                     ___fpclassifyf@e:
   979                           	callstack 0
   980  000020                     ___xxtofl@val:
   981                           	callstack 0
   982  000020                     ___signbitf@y:
   983                           	callstack 0
   984                           
   985                           ; 4 bytes @ 0x1F
   986  000020                     	ds	1
   987  000021                     I2C1_Write1ByteRegister@reg:
   988                           	callstack 0
   989                           
   990                           ; 1 bytes @ 0x20
   991  000021                     	ds	1
   992  000022                     I2C1_Write1ByteRegister@data:
   993                           	callstack 0
   994  000022                     ___awmod@counter:
   995                           	callstack 0
   996  000022                     ___fpclassifyf@u:
   997                           	callstack 0
   998                           
   999                           ; 4 bytes @ 0x21
  1000  000022                     	ds	1
  1001  000023                     I2C1_Write1ByteRegister@address:
  1002                           	callstack 0
  1003  000023                     ___awmod@sign:
  1004                           	callstack 0
  1005                           
  1006                           ; 1 bytes @ 0x22
  1007  000023                     	ds	1
  1008  000024                     ??___xxtofl:
  1009  000024                     setLED@green:
  1010                           	callstack 0
  1011  000024                     ___fladd@signs:
  1012                           	callstack 0
  1013                           
  1014                           ; 1 bytes @ 0x23
  1015  000024                     	ds	1
  1016  000025                     setLED@blue:
  1017                           	callstack 0
  1018  000025                     ___fladd@aexp:
  1019                           	callstack 0
  1020                           
  1021                           ; 1 bytes @ 0x24
  1022  000025                     	ds	1
  1023  000026                     setLED@red:
  1024                           	callstack 0
  1025  000026                     ___fladd@bexp:
  1026                           	callstack 0
  1027                           
  1028                           ; 1 bytes @ 0x25
  1029  000026                     	ds	1
  1030  000027                     setLED@enableByte:
  1031                           	callstack 0
  1032  000027                     ___fladd@grs:
  1033                           	callstack 0
  1034                           
  1035                           ; 1 bytes @ 0x26
  1036  000027                     	ds	1
  1037  000028                     ?___flsub:
  1038                           	callstack 0
  1039  000028                     ___xxtofl@sign:
  1040                           	callstack 0
  1041  000028                     ___flsub@b:
  1042                           	callstack 0
  1043                           
  1044                           ; 4 bytes @ 0x27
  1045  000028                     	ds	1
  1046  000029                     ___xxtofl@exp:
  1047                           	callstack 0
  1048                           
  1049                           ; 1 bytes @ 0x28
  1050  000029                     	ds	1
  1051  00002A                     ___xxtofl@arg:
  1052                           	callstack 0
  1053                           
  1054                           ; 4 bytes @ 0x29
  1055  00002A                     	ds	2
  1056  00002C                     ___flsub@a:
  1057                           	callstack 0
  1058                           
  1059                           ; 4 bytes @ 0x2B
  1060  00002C                     	ds	2
  1061  00002E                     ??___flmul:
  1062                           
  1063                           ; 1 bytes @ 0x2D
  1064  00002E                     	ds	2
  1065  000030                     
  1066                           ; 1 bytes @ 0x2F
  1067  000030                     	ds	2
  1068  000032                     
  1069                           ; 1 bytes @ 0x31
  1070 ;;
  1071 ;;Main: autosize = 0, tempsize = 4, incstack = 0, save=0
  1072 ;;
  1073 ;; *************** function _main *****************
  1074 ;; Defined at:
  1075 ;;		line 60 in file "main.c"
  1076 ;; Parameters:    Size  Location     Type
  1077 ;;		None
  1078 ;; Auto vars:     Size  Location     Type
  1079 ;;  currentMilli    4   15[BANK1 ] unsigned long 
  1080 ;;  previousMill    4   11[BANK1 ] unsigned long 
  1081 ;;  updateDelay     4    7[BANK1 ] unsigned long 
  1082 ;;  tempTesting     2   19[BANK1 ] int 
  1083 ;; Return value:  Size  Location     Type
  1084 ;;                  1    wreg      void 
  1085 ;; Registers used:
  1086 ;;		wreg, fsr2l, fsr2h, status,2, status,0, prodl, prodh, cstack
  1087 ;; Tracked objects:
  1088 ;;		On entry : 0/0
  1089 ;;		On exit  : 0/0
  1090 ;;		Unchanged: 0/0
  1091 ;; Data sizes:     COMRAM   BANK0   BANK1   BANK2   BANK3   BANK4   BANK5   BANK6   BANK7   BANK8   BANK9  BANK10  BANK1
      +1  BANK12  BANK13  BANK14
  1092 ;;      Params:         0       0       0       0       0       0       0       0       0       0       0       0       
      +0       0       0       0
  1093 ;;      Locals:         0       0      14       0       0       0       0       0       0       0       0       0       
      +0       0       0       0
  1094 ;;      Temps:          0       0       4       0       0       0       0       0       0       0       0       0       
      +0       0       0       0
  1095 ;;      Totals:         0       0      18       0       0       0       0       0       0       0       0       0       
      +0       0       0       0
  1096 ;;Total ram usage:       18 bytes
  1097 ;; Hardware stack levels required when called: 15
  1098 ;; This function calls:
  1099 ;;		_SYSTEM_Initialize
  1100 ;;		_millis
  1101 ;;		_updateDispAnim
  1102 ;;		_updateDispTemp
  1103 ;; This function is called by:
  1104 ;;		Startup code after reset
  1105 ;; This function uses a non-reentrant model
  1106 ;;
  1107                           
  1108                           	psect	text0
  1109  002A20                     __ptext0:
  1110                           	callstack 0
  1111  002A20                     _main:
  1112                           	callstack 16
  1113  002A20                     
  1114                           ;main.c: 63:     SYSTEM_Initialize();
  1115  002A20  EC57  F01E         	call	_SYSTEM_Initialize	;wreg free
  1116  002A24                     
  1117                           ;main.c: 70:     (INTCONbits.GIE = 1);
  1118  002A24  8EF2               	bsf	242,7,c	;volatile
  1119  002A26                     
  1120                           ;main.c: 76:     (INTCONbits.PEIE = 1);
  1121  002A26  8CF2               	bsf	242,6,c	;volatile
  1122  002A28  8E89               	bsf	137,7,c	;volatile
  1123  002A2A  8C89               	bsf	137,6,c	;volatile
  1124  002A2C  908B               	bcf	139,0,c	;volatile
  1125  002A2E                     
  1126                           ;main.c: 84:     unsigned long previousMillis = 0;
  1127  002A2E  0E00               	movlw	0
  1128  002A30  0101               	movlb	1	; () banked
  1129  002A32  6F4F               	movwf	main@previousMillis& (0+255),b
  1130  002A34  0E00               	movlw	0
  1131  002A36  6F50               	movwf	(main@previousMillis+1)& (0+255),b
  1132  002A38  0E00               	movlw	0
  1133  002A3A  6F51               	movwf	(main@previousMillis+2)& (0+255),b
  1134  002A3C  0E00               	movlw	0
  1135  002A3E  6F52               	movwf	(main@previousMillis+3)& (0+255),b
  1136  002A40                     
  1137                           ; BSR set to: 1
  1138                           ;main.c: 85:     unsigned long updateDelay = 10000;
  1139  002A40  0E10               	movlw	16
  1140  002A42  6F4B               	movwf	main@updateDelay& (0+255),b
  1141  002A44  0E27               	movlw	39
  1142  002A46  6F4C               	movwf	(main@updateDelay+1)& (0+255),b
  1143  002A48  0E00               	movlw	0
  1144  002A4A  6F4D               	movwf	(main@updateDelay+2)& (0+255),b
  1145  002A4C  0E00               	movlw	0
  1146  002A4E  6F4E               	movwf	(main@updateDelay+3)& (0+255),b
  1147  002A50                     
  1148                           ; BSR set to: 1
  1149                           ;main.c: 87:     int tempTesting = 15;
  1150  002A50  0E00               	movlw	0
  1151  002A52  6F58               	movwf	(main@tempTesting+1)& (0+255),b
  1152  002A54  0E0F               	movlw	15
  1153  002A56  6F57               	movwf	main@tempTesting& (0+255),b
  1154  002A58                     l7082:
  1155                           
  1156                           ;main.c: 102:     {;main.c: 111:         currentMillis = millis();
  1157  002A58  EC54  F01B         	call	_millis	;wreg free
  1158  002A5C  C0B2  F153         	movff	?_millis,main@currentMillis
  1159  002A60  C0B3  F154         	movff	?_millis+1,main@currentMillis+1
  1160  002A64  C0B4  F155         	movff	?_millis+2,main@currentMillis+2
  1161  002A68  C0B5  F156         	movff	?_millis+3,main@currentMillis+3
  1162  002A6C                     
  1163                           ;main.c: 113:         if(currentMillis - previousMillis >= updateDelay){
  1164  002A6C  0101               	movlb	1	; () banked
  1165  002A6E  514F               	movf	main@previousMillis& (0+255),w,b
  1166  002A70  5D53               	subwf	main@currentMillis& (0+255),w,b
  1167  002A72  6F47               	movwf	??_main& (0+255),b
  1168  002A74  5150               	movf	(main@previousMillis+1)& (0+255),w,b
  1169  002A76  5954               	subwfb	(main@currentMillis+1)& (0+255),w,b
  1170  002A78  6F48               	movwf	(??_main+1)& (0+255),b
  1171  002A7A  5151               	movf	(main@previousMillis+2)& (0+255),w,b
  1172  002A7C  5955               	subwfb	(main@currentMillis+2)& (0+255),w,b
  1173  002A7E  6F49               	movwf	(??_main+2)& (0+255),b
  1174  002A80  5152               	movf	(main@previousMillis+3)& (0+255),w,b
  1175  002A82  5956               	subwfb	(main@currentMillis+3)& (0+255),w,b
  1176  002A84  6F4A               	movwf	(??_main+3)& (0+255),b
  1177  002A86  514B               	movf	main@updateDelay& (0+255),w,b
  1178  002A88  5D47               	subwf	??_main& (0+255),w,b
  1179  002A8A  514C               	movf	(main@updateDelay+1)& (0+255),w,b
  1180  002A8C  5948               	subwfb	(??_main+1)& (0+255),w,b
  1181  002A8E  514D               	movf	(main@updateDelay+2)& (0+255),w,b
  1182  002A90  5949               	subwfb	(??_main+2)& (0+255),w,b
  1183  002A92  514E               	movf	(main@updateDelay+3)& (0+255),w,b
  1184  002A94  594A               	subwfb	(??_main+3)& (0+255),w,b
  1185  002A96  A0D8               	btfss	status,0,c
  1186  002A98  EF50  F015         	goto	u7061
  1187  002A9C  EF52  F015         	goto	u7060
  1188  002AA0                     u7061:
  1189  002AA0  EF90  F015         	goto	l7104
  1190  002AA4                     u7060:
  1191  002AA4                     
  1192                           ; BSR set to: 1
  1193                           ;main.c: 115:             previousMillis = currentMillis;
  1194  002AA4  C153  F14F         	movff	main@currentMillis,main@previousMillis
  1195  002AA8  C154  F150         	movff	main@currentMillis+1,main@previousMillis+1
  1196  002AAC  C155  F151         	movff	main@currentMillis+2,main@previousMillis+2
  1197  002AB0  C156  F152         	movff	main@currentMillis+3,main@previousMillis+3
  1198  002AB4                     
  1199                           ; BSR set to: 1
  1200                           ;main.c: 116:             tempTesting++;
  1201  002AB4  4B57               	infsnz	main@tempTesting& (0+255),f,b
  1202  002AB6  2B58               	incf	(main@tempTesting+1)& (0+255),f,b
  1203  002AB8                     
  1204                           ; BSR set to: 1
  1205                           ;main.c: 118:             if(tempTesting > 120){
  1206  002AB8  BF58               	btfsc	(main@tempTesting+1)& (0+255),7,b
  1207  002ABA  EF68  F015         	goto	u7071
  1208  002ABE  5158               	movf	(main@tempTesting+1)& (0+255),w,b
  1209  002AC0  E109               	bnz	u7070
  1210  002AC2  0E79               	movlw	121
  1211  002AC4  5D57               	subwf	main@tempTesting& (0+255),w,b
  1212  002AC6  A0D8               	btfss	status,0,c
  1213  002AC8  EF68  F015         	goto	u7071
  1214  002ACC  EF6A  F015         	goto	u7070
  1215  002AD0                     u7071:
  1216  002AD0  EF6E  F015         	goto	l7094
  1217  002AD4                     u7070:
  1218  002AD4                     
  1219                           ; BSR set to: 1
  1220                           ;main.c: 119:                 tempTesting = 15;
  1221  002AD4  0E00               	movlw	0
  1222  002AD6  6F58               	movwf	(main@tempTesting+1)& (0+255),b
  1223  002AD8  0E0F               	movlw	15
  1224  002ADA  6F57               	movwf	main@tempTesting& (0+255),b
  1225  002ADC                     l7094:
  1226                           
  1227                           ; BSR set to: 1
  1228                           ;main.c: 122:             updateDispTemp(tempTesting);
  1229  002ADC  C157  F145         	movff	main@tempTesting,updateDispTemp@temp
  1230  002AE0  C158  F146         	movff	main@tempTesting+1,updateDispTemp@temp+1
  1231  002AE4  ECFC  F01D         	call	_updateDispTemp	;wreg free
  1232  002AE8  9E89               	bcf	137,7,c	;volatile
  1233  002AEA                     
  1234                           ;main.c: 125:             _delay((unsigned long)((50)*(48000000/4000.0)));
  1235  002AEA  0E04               	movlw	4
  1236  002AEC  0101               	movlb	1	; () banked
  1237  002AEE  6F48               	movwf	(??_main+1)& (0+255),b
  1238  002AF0  0E0C               	movlw	12
  1239  002AF2  6F47               	movwf	??_main& (0+255),b
  1240  002AF4  0E33               	movlw	51
  1241  002AF6                     u7087:
  1242  002AF6  2EE8               	decfsz	wreg,f,c
  1243  002AF8  D7FE               	bra	u7087
  1244  002AFA  2F47               	decfsz	??_main& (0+255),f,b
  1245  002AFC  D7FC               	bra	u7087
  1246  002AFE  2F48               	decfsz	(??_main+1)& (0+255),f,b
  1247  002B00  D7FA               	bra	u7087
  1248  002B02  D000               	nop2	
  1249  002B04  8E89               	bsf	137,7,c	;volatile
  1250  002B06                     
  1251                           ;main.c: 127:             _delay((unsigned long)((50)*(48000000/4000.0)));
  1252  002B06  0E04               	movlw	4
  1253  002B08  0101               	movlb	1	; () banked
  1254  002B0A  6F48               	movwf	(??_main+1)& (0+255),b
  1255  002B0C  0E0C               	movlw	12
  1256  002B0E  6F47               	movwf	??_main& (0+255),b
  1257  002B10  0E33               	movlw	51
  1258  002B12                     u7097:
  1259  002B12  2EE8               	decfsz	wreg,f,c
  1260  002B14  D7FE               	bra	u7097
  1261  002B16  2F47               	decfsz	??_main& (0+255),f,b
  1262  002B18  D7FC               	bra	u7097
  1263  002B1A  2F48               	decfsz	(??_main+1)& (0+255),f,b
  1264  002B1C  D7FA               	bra	u7097
  1265  002B1E  D000               	nop2	
  1266  002B20                     l7104:
  1267                           
  1268                           ;main.c: 140:         updateDispAnim(1);
  1269  002B20  0E01               	movlw	1
  1270  002B22  ECBE  F01D         	call	_updateDispAnim
  1271  002B26                     
  1272                           ;main.c: 141:         _delay((unsigned long)((20)*(48000000/4000.0)));
  1273  002B26  0E02               	movlw	2
  1274  002B28  0101               	movlb	1	; () banked
  1275  002B2A  6F48               	movwf	(??_main+1)& (0+255),b
  1276  002B2C  0E38               	movlw	56
  1277  002B2E  6F47               	movwf	??_main& (0+255),b
  1278  002B30  0EAD               	movlw	173
  1279  002B32                     u7107:
  1280  002B32  2EE8               	decfsz	wreg,f,c
  1281  002B34  D7FE               	bra	u7107
  1282  002B36  2F47               	decfsz	??_main& (0+255),f,b
  1283  002B38  D7FC               	bra	u7107
  1284  002B3A  2F48               	decfsz	(??_main+1)& (0+255),f,b
  1285  002B3C  D7FA               	bra	u7107
  1286  002B3E  EF2C  F015         	goto	l7082
  1287  002B42  EF9F  F000         	goto	start
  1288  002B46                     __end_of_main:
  1289                           	callstack 0
  1290                           
  1291 ;; *************** function _updateDispTemp *****************
  1292 ;; Defined at:
  1293 ;;		line 67 in file "rgbledfx.c"
  1294 ;; Parameters:    Size  Location     Type
  1295 ;;  temp            2    1[BANK1 ] int 
  1296 ;; Auto vars:     Size  Location     Type
  1297 ;;		None
  1298 ;; Return value:  Size  Location     Type
  1299 ;;                  1    wreg      void 
  1300 ;; Registers used:
  1301 ;;		wreg, fsr2l, fsr2h, status,2, status,0, prodl, prodh, cstack
  1302 ;; Tracked objects:
  1303 ;;		On entry : 0/0
  1304 ;;		On exit  : 0/0
  1305 ;;		Unchanged: 0/0
  1306 ;; Data sizes:     COMRAM   BANK0   BANK1   BANK2   BANK3   BANK4   BANK5   BANK6   BANK7   BANK8   BANK9  BANK10  BANK1
      +1  BANK12  BANK13  BANK14
  1307 ;;      Params:         0       0       2       0       0       0       0       0       0       0       0       0       
      +0       0       0       0
  1308 ;;      Locals:         0       0       0       0       0       0       0       0       0       0       0       0       
      +0       0       0       0
  1309 ;;      Temps:          0       0       0       0       0       0       0       0       0       0       0       0       
      +0       0       0       0
  1310 ;;      Totals:         0       0       2       0       0       0       0       0       0       0       0       0       
      +0       0       0       0
  1311 ;;Total ram usage:        2 bytes
  1312 ;; Hardware stack levels used: 1
  1313 ;; Hardware stack levels required when called: 14
  1314 ;; This function calls:
  1315 ;;		_updateLED
  1316 ;; This function is called by:
  1317 ;;		_main
  1318 ;; This function uses a non-reentrant model
  1319 ;;
  1320                           
  1321                           	psect	text1
  1322  003BF8                     __ptext1:
  1323                           	callstack 0
  1324  003BF8                     _updateDispTemp:
  1325                           	callstack 16
  1326  003BF8                     
  1327                           ;rgbledfx.c: 68:     updateLED(3, 0, 0, temp, 0);
  1328  003BF8  0E00               	movlw	0
  1329  003BFA  0100               	movlb	0	; () banked
  1330  003BFC  6FD2               	movwf	updateLED@mode& (0+255),b
  1331  003BFE  0E00               	movlw	0
  1332  003C00  6FD4               	movwf	(updateLED@hr+1)& (0+255),b
  1333  003C02  0E00               	movlw	0
  1334  003C04  6FD3               	movwf	updateLED@hr& (0+255),b
  1335  003C06  C145  F0D5         	movff	updateDispTemp@temp,updateLED@temp
  1336  003C0A  C146  F0D6         	movff	updateDispTemp@temp+1,updateLED@temp+1
  1337  003C0E  0E00               	movlw	0
  1338  003C10  6FD8               	movwf	(updateLED@alt+1)& (0+255),b
  1339  003C12  0E00               	movlw	0
  1340  003C14  6FD7               	movwf	updateLED@alt& (0+255),b
  1341  003C16  0E03               	movlw	3
  1342  003C18  EC33  F016         	call	_updateLED
  1343  003C1C  0012               	return		;funcret
  1344  003C1E                     __end_of_updateDispTemp:
  1345                           	callstack 0
  1346                           
  1347 ;; *************** function _updateDispAnim *****************
  1348 ;; Defined at:
  1349 ;;		line 77 in file "rgbledfx.c"
  1350 ;; Parameters:    Size  Location     Type
  1351 ;;  mode            1    wreg     unsigned char 
  1352 ;; Auto vars:     Size  Location     Type
  1353 ;;  mode            1    1[BANK1 ] unsigned char 
  1354 ;; Return value:  Size  Location     Type
  1355 ;;                  1    wreg      void 
  1356 ;; Registers used:
  1357 ;;		wreg, fsr2l, fsr2h, status,2, status,0, prodl, prodh, cstack
  1358 ;; Tracked objects:
  1359 ;;		On entry : 0/0
  1360 ;;		On exit  : 0/0
  1361 ;;		Unchanged: 0/0
  1362 ;; Data sizes:     COMRAM   BANK0   BANK1   BANK2   BANK3   BANK4   BANK5   BANK6   BANK7   BANK8   BANK9  BANK10  BANK1
      +1  BANK12  BANK13  BANK14
  1363 ;;      Params:         0       0       0       0       0       0       0       0       0       0       0       0       
      +0       0       0       0
  1364 ;;      Locals:         0       0       1       0       0       0       0       0       0       0       0       0       
      +0       0       0       0
  1365 ;;      Temps:          0       0       0       0       0       0       0       0       0       0       0       0       
      +0       0       0       0
  1366 ;;      Totals:         0       0       1       0       0       0       0       0       0       0       0       0       
      +0       0       0       0
  1367 ;;Total ram usage:        1 bytes
  1368 ;; Hardware stack levels used: 1
  1369 ;; Hardware stack levels required when called: 14
  1370 ;; This function calls:
  1371 ;;		_updateLED
  1372 ;; This function is called by:
  1373 ;;		_main
  1374 ;; This function uses a non-reentrant model
  1375 ;;
  1376                           
  1377                           	psect	text2
  1378  003B7C                     __ptext2:
  1379                           	callstack 0
  1380  003B7C                     _updateDispAnim:
  1381                           	callstack 16
  1382                           
  1383                           ;incstack = 0
  1384                           ;updateDispAnim@mode stored from wreg
  1385  003B7C  0101               	movlb	1	; () banked
  1386  003B7E  6F45               	movwf	updateDispAnim@mode& (0+255),b
  1387  003B80                     
  1388                           ;rgbledfx.c: 84:     updateLED(0, mode, 0, 0, 0);
  1389  003B80  C145  F0D2         	movff	updateDispAnim@mode,updateLED@mode
  1390  003B84  0E00               	movlw	0
  1391  003B86  0100               	movlb	0	; () banked
  1392  003B88  6FD4               	movwf	(updateLED@hr+1)& (0+255),b
  1393  003B8A  0E00               	movlw	0
  1394  003B8C  6FD3               	movwf	updateLED@hr& (0+255),b
  1395  003B8E  0E00               	movlw	0
  1396  003B90  6FD6               	movwf	(updateLED@temp+1)& (0+255),b
  1397  003B92  0E00               	movlw	0
  1398  003B94  6FD5               	movwf	updateLED@temp& (0+255),b
  1399  003B96  0E00               	movlw	0
  1400  003B98  6FD8               	movwf	(updateLED@alt+1)& (0+255),b
  1401  003B9A  0E00               	movlw	0
  1402  003B9C  6FD7               	movwf	updateLED@alt& (0+255),b
  1403  003B9E  0E00               	movlw	0
  1404  003BA0  EC33  F016         	call	_updateLED
  1405  003BA4  0012               	return		;funcret
  1406  003BA6                     __end_of_updateDispAnim:
  1407                           	callstack 0
  1408                           
  1409 ;; *************** function _updateLED *****************
  1410 ;; Defined at:
  1411 ;;		line 8 in file "rgbledfx.c"
  1412 ;; Parameters:    Size  Location     Type
  1413 ;;  update          1    wreg     unsigned char 
  1414 ;;  mode            1  114[BANK0 ] unsigned char 
  1415 ;;  hr              2  115[BANK0 ] int 
  1416 ;;  temp            2  117[BANK0 ] int 
  1417 ;;  alt             2  119[BANK0 ] int 
  1418 ;; Auto vars:     Size  Location     Type
  1419 ;;  update          1    0[BANK1 ] unsigned char 
  1420 ;; Return value:  Size  Location     Type
  1421 ;;                  1    wreg      void 
  1422 ;; Registers used:
  1423 ;;		wreg, fsr2l, fsr2h, status,2, status,0, prodl, prodh, cstack
  1424 ;; Tracked objects:
  1425 ;;		On entry : 0/0
  1426 ;;		On exit  : 0/0
  1427 ;;		Unchanged: 0/0
  1428 ;; Data sizes:     COMRAM   BANK0   BANK1   BANK2   BANK3   BANK4   BANK5   BANK6   BANK7   BANK8   BANK9  BANK10  BANK1
      +1  BANK12  BANK13  BANK14
  1429 ;;      Params:         0       7       0       0       0       0       0       0       0       0       0       0       
      +0       0       0       0
  1430 ;;      Locals:         0       0       1       0       0       0       0       0       0       0       0       0       
      +0       0       0       0
  1431 ;;      Temps:          0       2       0       0       0       0       0       0       0       0       0       0       
      +0       0       0       0
  1432 ;;      Totals:         0       9       1       0       0       0       0       0       0       0       0       0       
      +0       0       0       0
  1433 ;;Total ram usage:       10 bytes
  1434 ;; Hardware stack levels used: 1
  1435 ;; Hardware stack levels required when called: 13
  1436 ;; This function calls:
  1437 ;;		_displayAlt
  1438 ;;		_displayHR
  1439 ;;		_displayOff
  1440 ;;		_displayTemp
  1441 ;; This function is called by:
  1442 ;;		_updateDispTemp
  1443 ;;		_updateDispAnim
  1444 ;;		_updateAllDispVals
  1445 ;;		_updateDispHeartRate
  1446 ;;		_updateDispAltitude
  1447 ;; This function uses a non-reentrant model
  1448 ;;
  1449                           
  1450                           	psect	text3
  1451  002C66                     __ptext3:
  1452                           	callstack 0
  1453  002C66                     _updateLED:
  1454                           	callstack 16
  1455                           
  1456                           ;incstack = 0
  1457                           ;updateLED@update stored from wreg
  1458  002C66  0101               	movlb	1	; () banked
  1459  002C68  6F44               	movwf	updateLED@update& (0+255),b
  1460  002C6A                     
  1461                           ;rgbledfx.c: 9:     static int currentHR = 0;;rgbledfx.c: 10:     static int currentTemp
      +                           = 0;;rgbledfx.c: 11:     static int currentAlt = 0;;rgbledfx.c: 20:     if(update == 0)
      +                          {
  1462  002C6A  0101               	movlb	1	; () banked
  1463  002C6C  5144               	movf	updateLED@update& (0+255),w,b
  1464  002C6E  A4D8               	btfss	status,2,c
  1465  002C70  EF3C  F016         	goto	u6891
  1466  002C74  EF3E  F016         	goto	u6890
  1467  002C78                     u6891:
  1468  002C78  EF78  F016         	goto	l6926
  1469  002C7C                     u6890:
  1470  002C7C  EF5C  F016         	goto	l6924
  1471  002C80                     l6914:
  1472                           
  1473                           ; BSR set to: 0
  1474                           ;rgbledfx.c: 25:                 displayHR(currentHR);
  1475  002C80  C0F9  F0BA         	movff	updateLED@currentHR,displayHR@heartRate
  1476  002C84  C0FA  F0BB         	movff	updateLED@currentHR+1,displayHR@heartRate+1
  1477  002C88  EC42  F013         	call	_displayHR	;wreg free
  1478                           
  1479                           ;rgbledfx.c: 26:                 break;
  1480  002C8C  EFB9  F016         	goto	l908
  1481  002C90                     l6916:
  1482                           
  1483                           ; BSR set to: 0
  1484                           ;rgbledfx.c: 29:                 displayTemp(currentTemp);
  1485  002C90  C0F7  F0BA         	movff	updateLED@currentTemp,displayTemp@temp
  1486  002C94  C0F8  F0BB         	movff	updateLED@currentTemp+1,displayTemp@temp+1
  1487  002C98  EC97  F011         	call	_displayTemp	;wreg free
  1488                           
  1489                           ;rgbledfx.c: 30:                 break;
  1490  002C9C  EFB9  F016         	goto	l908
  1491  002CA0                     l6918:
  1492                           
  1493                           ; BSR set to: 0
  1494                           ;rgbledfx.c: 33:                 displayAlt(currentAlt);
  1495  002CA0  C0F5  F0BA         	movff	updateLED@currentAlt,displayAlt@alt
  1496  002CA4  C0F6  F0BB         	movff	updateLED@currentAlt+1,displayAlt@alt+1
  1497  002CA8  EC09  F00C         	call	_displayAlt	;wreg free
  1498                           
  1499                           ;rgbledfx.c: 34:                 break;
  1500  002CAC  EFB9  F016         	goto	l908
  1501  002CB0                     l6920:
  1502                           
  1503                           ; BSR set to: 0
  1504                           ;rgbledfx.c: 37:                 displayOff();
  1505  002CB0  ECC8  F01E         	call	_displayOff	;wreg free
  1506                           
  1507                           ;rgbledfx.c: 38:                 break;
  1508  002CB4  EFB9  F016         	goto	l908
  1509  002CB8                     l6924:
  1510                           
  1511                           ; BSR set to: 1
  1512  002CB8  0100               	movlb	0	; () banked
  1513  002CBA  51D2               	movf	updateLED@mode& (0+255),w,b
  1514  002CBC  6FD9               	movwf	??_updateLED& (0+255),b
  1515  002CBE  6BDA               	clrf	(??_updateLED+1)& (0+255),b
  1516                           
  1517                           ; Switch on 2 bytes has been partitioned into a top level switch of size 1, and 1 sub-sw
      +                          itches
  1518                           ; Switch size 1, requested type "simple"
  1519                           ; Number of cases is 1, Range of values is 0 to 0
  1520                           ; switch strategies available:
  1521                           ; Name         Instructions Cycles
  1522                           ; simple_byte            4     3 (average)
  1523                           ;	Chosen strategy is simple_byte
  1524  002CC0  51DA               	movf	(??_updateLED+1)& (0+255),w,b
  1525  002CC2  0A00               	xorlw	0	; case 0
  1526  002CC4  B4D8               	btfsc	status,2,c
  1527  002CC6  EF67  F016         	goto	l7254
  1528  002CCA  EF58  F016         	goto	l6920
  1529  002CCE                     l7254:
  1530                           
  1531                           ; BSR set to: 0
  1532                           ; Switch size 1, requested type "simple"
  1533                           ; Number of cases is 3, Range of values is 0 to 2
  1534                           ; switch strategies available:
  1535                           ; Name         Instructions Cycles
  1536                           ; simple_byte           10     6 (average)
  1537                           ;	Chosen strategy is simple_byte
  1538  002CCE  51D9               	movf	??_updateLED& (0+255),w,b
  1539  002CD0  0A00               	xorlw	0	; case 0
  1540  002CD2  B4D8               	btfsc	status,2,c
  1541  002CD4  EF40  F016         	goto	l6914
  1542  002CD8  0A01               	xorlw	1	; case 1
  1543  002CDA  B4D8               	btfsc	status,2,c
  1544  002CDC  EF48  F016         	goto	l6916
  1545  002CE0  0A03               	xorlw	3	; case 2
  1546  002CE2  B4D8               	btfsc	status,2,c
  1547  002CE4  EF50  F016         	goto	l6918
  1548  002CE8  EF58  F016         	goto	l6920
  1549  002CEC                     l896:
  1550                           
  1551                           ; BSR set to: 1
  1552                           ;rgbledfx.c: 42:     } else if(update == 1){
  1553  002CEC  EFB9  F016         	goto	l908
  1554  002CF0                     l6926:
  1555                           
  1556                           ; BSR set to: 1
  1557  002CF0  0544               	decf	updateLED@update& (0+255),w,b
  1558  002CF2  A4D8               	btfss	status,2,c
  1559  002CF4  EF7E  F016         	goto	u6901
  1560  002CF8  EF80  F016         	goto	u6900
  1561  002CFC                     u6901:
  1562  002CFC  EF8E  F016         	goto	l6930
  1563  002D00                     u6900:
  1564  002D00                     
  1565                           ; BSR set to: 1
  1566                           ;rgbledfx.c: 44:         currentHR = hr;
  1567  002D00  C0D3  F0F9         	movff	updateLED@hr,updateLED@currentHR
  1568  002D04  C0D4  F0FA         	movff	updateLED@hr+1,updateLED@currentHR+1
  1569                           
  1570                           ;rgbledfx.c: 45:         currentTemp = temp;
  1571  002D08  C0D5  F0F7         	movff	updateLED@temp,updateLED@currentTemp
  1572  002D0C  C0D6  F0F8         	movff	updateLED@temp+1,updateLED@currentTemp+1
  1573                           
  1574                           ;rgbledfx.c: 46:         currentAlt = alt;
  1575  002D10  C0D7  F0F5         	movff	updateLED@alt,updateLED@currentAlt
  1576  002D14  C0D8  F0F6         	movff	updateLED@alt+1,updateLED@currentAlt+1
  1577                           
  1578                           ;rgbledfx.c: 47:     } else if(update == 2){
  1579  002D18  EFB9  F016         	goto	l908
  1580  002D1C                     l6930:
  1581                           
  1582                           ; BSR set to: 1
  1583  002D1C  0E02               	movlw	2
  1584  002D1E  1944               	xorwf	updateLED@update& (0+255),w,b
  1585  002D20  A4D8               	btfss	status,2,c
  1586  002D22  EF95  F016         	goto	u6911
  1587  002D26  EF97  F016         	goto	u6910
  1588  002D2A                     u6911:
  1589  002D2A  EF9D  F016         	goto	l6934
  1590  002D2E                     u6910:
  1591  002D2E                     
  1592                           ; BSR set to: 1
  1593                           ;rgbledfx.c: 48:         currentHR = hr;
  1594  002D2E  C0D3  F0F9         	movff	updateLED@hr,updateLED@currentHR
  1595  002D32  C0D4  F0FA         	movff	updateLED@hr+1,updateLED@currentHR+1
  1596                           
  1597                           ;rgbledfx.c: 49:     } else if(update == 3){
  1598  002D36  EFB9  F016         	goto	l908
  1599  002D3A                     l6934:
  1600                           
  1601                           ; BSR set to: 1
  1602  002D3A  0E03               	movlw	3
  1603  002D3C  1944               	xorwf	updateLED@update& (0+255),w,b
  1604  002D3E  A4D8               	btfss	status,2,c
  1605  002D40  EFA4  F016         	goto	u6921
  1606  002D44  EFA6  F016         	goto	u6920
  1607  002D48                     u6921:
  1608  002D48  EFAC  F016         	goto	l6938
  1609  002D4C                     u6920:
  1610  002D4C                     
  1611                           ; BSR set to: 1
  1612                           ;rgbledfx.c: 50:         currentTemp = temp;
  1613  002D4C  C0D5  F0F7         	movff	updateLED@temp,updateLED@currentTemp
  1614  002D50  C0D6  F0F8         	movff	updateLED@temp+1,updateLED@currentTemp+1
  1615                           
  1616                           ;rgbledfx.c: 51:     } else if(update == 4){
  1617  002D54  EFB9  F016         	goto	l908
  1618  002D58                     l6938:
  1619                           
  1620                           ; BSR set to: 1
  1621  002D58  0E04               	movlw	4
  1622  002D5A  1944               	xorwf	updateLED@update& (0+255),w,b
  1623  002D5C  A4D8               	btfss	status,2,c
  1624  002D5E  EFB3  F016         	goto	u6931
  1625  002D62  EFB5  F016         	goto	u6930
  1626  002D66                     u6931:
  1627  002D66  EF76  F016         	goto	l896
  1628  002D6A                     u6930:
  1629  002D6A                     
  1630                           ; BSR set to: 1
  1631                           ;rgbledfx.c: 52:         currentAlt = alt;
  1632  002D6A  C0D7  F0F5         	movff	updateLED@alt,updateLED@currentAlt
  1633  002D6E  C0D8  F0F6         	movff	updateLED@alt+1,updateLED@currentAlt+1
  1634  002D72                     l908:
  1635  002D72  0012               	return		;funcret
  1636  002D74                     __end_of_updateLED:
  1637                           	callstack 0
  1638                           
  1639 ;; *************** function _displayTemp *****************
  1640 ;; Defined at:
  1641 ;;		line 127 in file "rgbledfx.c"
  1642 ;; Parameters:    Size  Location     Type
  1643 ;;  temp            2   90[BANK0 ] int 
  1644 ;; Auto vars:     Size  Location     Type
  1645 ;;  currentDelay    4  104[BANK0 ] long 
  1646 ;;  rapidDelay      4   97[BANK0 ] long 
  1647 ;;  blinkDelay      4    0        long 
  1648 ;;  calcB           1  103[BANK0 ] unsigned char 
  1649 ;;  calcG           1  102[BANK0 ] unsigned char 
  1650 ;;  calcR           1  101[BANK0 ] unsigned char 
  1651 ;; Return value:  Size  Location     Type
  1652 ;;                  1    wreg      void 
  1653 ;; Registers used:
  1654 ;;		wreg, fsr2l, fsr2h, status,2, status,0, prodl, prodh, cstack
  1655 ;; Tracked objects:
  1656 ;;		On entry : 0/0
  1657 ;;		On exit  : 0/0
  1658 ;;		Unchanged: 0/0
  1659 ;; Data sizes:     COMRAM   BANK0   BANK1   BANK2   BANK3   BANK4   BANK5   BANK6   BANK7   BANK8   BANK9  BANK10  BANK1
      +1  BANK12  BANK13  BANK14
  1660 ;;      Params:         0       2       0       0       0       0       0       0       0       0       0       0       
      +0       0       0       0
  1661 ;;      Locals:         0      11       0       0       0       0       0       0       0       0       0       0       
      +0       0       0       0
  1662 ;;      Temps:          0       5       0       0       0       0       0       0       0       0       0       0       
      +0       0       0       0
  1663 ;;      Totals:         0      18       0       0       0       0       0       0       0       0       0       0       
      +0       0       0       0
  1664 ;;Total ram usage:       18 bytes
  1665 ;; Hardware stack levels used: 1
  1666 ;; Hardware stack levels required when called: 12
  1667 ;; This function calls:
  1668 ;;		_millis
  1669 ;;		_setLED
  1670 ;; This function is called by:
  1671 ;;		_updateLED
  1672 ;; This function uses a non-reentrant model
  1673 ;;
  1674                           
  1675                           	psect	text4
  1676  00232E                     __ptext4:
  1677                           	callstack 0
  1678  00232E                     _displayTemp:
  1679                           	callstack 16
  1680  00232E                     
  1681                           ;rgbledfx.c: 133:     long rapidDelay = 250;
  1682  00232E  0EFA               	movlw	250
  1683  002330  0100               	movlb	0	; () banked
  1684  002332  6FC1               	movwf	displayTemp@rapidDelay& (0+255),b
  1685  002334  0E00               	movlw	0
  1686  002336  6FC2               	movwf	(displayTemp@rapidDelay+1)& (0+255),b
  1687  002338  0E00               	movlw	0
  1688  00233A  6FC3               	movwf	(displayTemp@rapidDelay+2)& (0+255),b
  1689  00233C  0E00               	movlw	0
  1690  00233E  6FC4               	movwf	(displayTemp@rapidDelay+3)& (0+255),b
  1691                           
  1692                           ;rgbledfx.c: 134:     long currentDelay = 0;
  1693  002340  0E00               	movlw	0
  1694  002342  6FC8               	movwf	displayTemp@currentDelay& (0+255),b
  1695  002344  0E00               	movlw	0
  1696  002346  6FC9               	movwf	(displayTemp@currentDelay+1)& (0+255),b
  1697  002348  0E00               	movlw	0
  1698  00234A  6FCA               	movwf	(displayTemp@currentDelay+2)& (0+255),b
  1699  00234C  0E00               	movlw	0
  1700  00234E  6FCB               	movwf	(displayTemp@currentDelay+3)& (0+255),b
  1701                           
  1702                           ;rgbledfx.c: 135:     static uint8_t ledOn = 0;;rgbledfx.c: 137:     uint8_t calcR = 0;
  1703  002350  0E00               	movlw	0
  1704  002352  6FC5               	movwf	displayTemp@calcR& (0+255),b
  1705                           
  1706                           ;rgbledfx.c: 138:     uint8_t calcG = 0;
  1707  002354  0E00               	movlw	0
  1708  002356  6FC6               	movwf	displayTemp@calcG& (0+255),b
  1709                           
  1710                           ;rgbledfx.c: 139:     uint8_t calcB = 0;
  1711  002358  0E00               	movlw	0
  1712  00235A  6FC7               	movwf	displayTemp@calcB& (0+255),b
  1713  00235C                     
  1714                           ; BSR set to: 0
  1715                           ;rgbledfx.c: 153:     if(temp < 20){
  1716  00235C  BFBB               	btfsc	(displayTemp@temp+1)& (0+255),7,b
  1717  00235E  EFBC  F011         	goto	u6480
  1718  002362  51BB               	movf	(displayTemp@temp+1)& (0+255),w,b
  1719  002364  E107               	bnz	u6481
  1720  002366  0E14               	movlw	20
  1721  002368  5DBA               	subwf	displayTemp@temp& (0+255),w,b
  1722  00236A  B0D8               	btfsc	status,0,c
  1723  00236C  EFBA  F011         	goto	u6481
  1724  002370  EFBC  F011         	goto	u6480
  1725  002374                     u6481:
  1726  002374  EFC8  F011         	goto	l6696
  1727  002378                     u6480:
  1728  002378                     
  1729                           ; BSR set to: 0
  1730                           ;rgbledfx.c: 154:         calcB = 0x12;
  1731  002378  0E12               	movlw	18
  1732  00237A  6FC7               	movwf	displayTemp@calcB& (0+255),b
  1733  00237C                     l6694:
  1734                           
  1735                           ; BSR set to: 0
  1736                           ;rgbledfx.c: 155:         currentDelay = rapidDelay;
  1737  00237C  0EFA               	movlw	250
  1738  00237E  6FC8               	movwf	displayTemp@currentDelay& (0+255),b
  1739  002380  0E00               	movlw	0
  1740  002382  6FC9               	movwf	(displayTemp@currentDelay+1)& (0+255),b
  1741  002384  0E00               	movlw	0
  1742  002386  6FCA               	movwf	(displayTemp@currentDelay+2)& (0+255),b
  1743  002388  0E00               	movlw	0
  1744  00238A  6FCB               	movwf	(displayTemp@currentDelay+3)& (0+255),b
  1745                           
  1746                           ;rgbledfx.c: 156:     } else if(temp >= 20 && temp < 32){
  1747  00238C  EFE4  F012         	goto	l6754
  1748  002390                     l6696:
  1749                           
  1750                           ; BSR set to: 0
  1751  002390  BFBB               	btfsc	(displayTemp@temp+1)& (0+255),7,b
  1752  002392  EFD4  F011         	goto	u6491
  1753  002396  51BB               	movf	(displayTemp@temp+1)& (0+255),w,b
  1754  002398  E109               	bnz	u6490
  1755  00239A  0E14               	movlw	20
  1756  00239C  5DBA               	subwf	displayTemp@temp& (0+255),w,b
  1757  00239E  A0D8               	btfss	status,0,c
  1758  0023A0  EFD4  F011         	goto	u6491
  1759  0023A4  EFD6  F011         	goto	u6490
  1760  0023A8                     u6491:
  1761  0023A8  EFF0  F011         	goto	l6704
  1762  0023AC                     u6490:
  1763  0023AC                     
  1764                           ; BSR set to: 0
  1765  0023AC  BFBB               	btfsc	(displayTemp@temp+1)& (0+255),7,b
  1766  0023AE  EFE4  F011         	goto	u6500
  1767  0023B2  51BB               	movf	(displayTemp@temp+1)& (0+255),w,b
  1768  0023B4  E107               	bnz	u6501
  1769  0023B6  0E20               	movlw	32
  1770  0023B8  5DBA               	subwf	displayTemp@temp& (0+255),w,b
  1771  0023BA  B0D8               	btfsc	status,0,c
  1772  0023BC  EFE2  F011         	goto	u6501
  1773  0023C0  EFE4  F011         	goto	u6500
  1774  0023C4                     u6501:
  1775  0023C4  EFF0  F011         	goto	l6704
  1776  0023C8                     u6500:
  1777  0023C8                     
  1778                           ; BSR set to: 0
  1779                           ;rgbledfx.c: 157:         calcB = 0x12;
  1780  0023C8  0E12               	movlw	18
  1781  0023CA  6FC7               	movwf	displayTemp@calcB& (0+255),b
  1782  0023CC                     l6702:
  1783                           
  1784                           ; BSR set to: 0
  1785                           ;rgbledfx.c: 158:         currentDelay = blinkDelay;
  1786  0023CC  0EEE               	movlw	238
  1787  0023CE  6FC8               	movwf	displayTemp@currentDelay& (0+255),b
  1788  0023D0  0E02               	movlw	2
  1789  0023D2  6FC9               	movwf	(displayTemp@currentDelay+1)& (0+255),b
  1790  0023D4  0E00               	movlw	0
  1791  0023D6  6FCA               	movwf	(displayTemp@currentDelay+2)& (0+255),b
  1792  0023D8  0E00               	movlw	0
  1793  0023DA  6FCB               	movwf	(displayTemp@currentDelay+3)& (0+255),b
  1794                           
  1795                           ;rgbledfx.c: 159:     } else if(temp >= 32 && temp < 45){
  1796  0023DC  EFE4  F012         	goto	l6754
  1797  0023E0                     l6704:
  1798                           
  1799                           ; BSR set to: 0
  1800  0023E0  BFBB               	btfsc	(displayTemp@temp+1)& (0+255),7,b
  1801  0023E2  EFFC  F011         	goto	u6511
  1802  0023E6  51BB               	movf	(displayTemp@temp+1)& (0+255),w,b
  1803  0023E8  E109               	bnz	u6510
  1804  0023EA  0E20               	movlw	32
  1805  0023EC  5DBA               	subwf	displayTemp@temp& (0+255),w,b
  1806  0023EE  A0D8               	btfss	status,0,c
  1807  0023F0  EFFC  F011         	goto	u6511
  1808  0023F4  EFFE  F011         	goto	u6510
  1809  0023F8                     u6511:
  1810  0023F8  EF10  F012         	goto	l6710
  1811  0023FC                     u6510:
  1812  0023FC                     
  1813                           ; BSR set to: 0
  1814  0023FC  BFBB               	btfsc	(displayTemp@temp+1)& (0+255),7,b
  1815  0023FE  EF0C  F012         	goto	u6520
  1816  002402  51BB               	movf	(displayTemp@temp+1)& (0+255),w,b
  1817  002404  E107               	bnz	u6521
  1818  002406  0E2D               	movlw	45
  1819  002408  5DBA               	subwf	displayTemp@temp& (0+255),w,b
  1820  00240A  B0D8               	btfsc	status,0,c
  1821  00240C  EF0A  F012         	goto	u6521
  1822  002410  EF0C  F012         	goto	u6520
  1823  002414                     u6521:
  1824  002414  EF10  F012         	goto	l6710
  1825  002418                     u6520:
  1826  002418                     
  1827                           ; BSR set to: 0
  1828                           ;rgbledfx.c: 160:         calcB = 0x12;
  1829  002418  0E12               	movlw	18
  1830  00241A  6FC7               	movwf	displayTemp@calcB& (0+255),b
  1831                           
  1832                           ;rgbledfx.c: 161:     } else if(temp >= 45 && temp < 65){
  1833  00241C  EFE4  F012         	goto	l6754
  1834  002420                     l6710:
  1835                           
  1836                           ; BSR set to: 0
  1837  002420  BFBB               	btfsc	(displayTemp@temp+1)& (0+255),7,b
  1838  002422  EF1C  F012         	goto	u6531
  1839  002426  51BB               	movf	(displayTemp@temp+1)& (0+255),w,b
  1840  002428  E109               	bnz	u6530
  1841  00242A  0E2D               	movlw	45
  1842  00242C  5DBA               	subwf	displayTemp@temp& (0+255),w,b
  1843  00242E  A0D8               	btfss	status,0,c
  1844  002430  EF1C  F012         	goto	u6531
  1845  002434  EF1E  F012         	goto	u6530
  1846  002438                     u6531:
  1847  002438  EF32  F012         	goto	l6716
  1848  00243C                     u6530:
  1849  00243C                     
  1850                           ; BSR set to: 0
  1851  00243C  BFBB               	btfsc	(displayTemp@temp+1)& (0+255),7,b
  1852  00243E  EF2C  F012         	goto	u6540
  1853  002442  51BB               	movf	(displayTemp@temp+1)& (0+255),w,b
  1854  002444  E107               	bnz	u6541
  1855  002446  0E41               	movlw	65
  1856  002448  5DBA               	subwf	displayTemp@temp& (0+255),w,b
  1857  00244A  B0D8               	btfsc	status,0,c
  1858  00244C  EF2A  F012         	goto	u6541
  1859  002450  EF2C  F012         	goto	u6540
  1860  002454                     u6541:
  1861  002454  EF32  F012         	goto	l6716
  1862  002458                     u6540:
  1863  002458                     
  1864                           ; BSR set to: 0
  1865                           ;rgbledfx.c: 162:         calcB = 0x12;
  1866  002458  0E12               	movlw	18
  1867  00245A  6FC7               	movwf	displayTemp@calcB& (0+255),b
  1868                           
  1869                           ;rgbledfx.c: 163:         calcG = 0x12;
  1870  00245C  0E12               	movlw	18
  1871  00245E  6FC6               	movwf	displayTemp@calcG& (0+255),b
  1872                           
  1873                           ;rgbledfx.c: 164:     } else if(temp >= 65 && temp < 75){
  1874  002460  EFE4  F012         	goto	l6754
  1875  002464                     l6716:
  1876                           
  1877                           ; BSR set to: 0
  1878  002464  BFBB               	btfsc	(displayTemp@temp+1)& (0+255),7,b
  1879  002466  EF3E  F012         	goto	u6551
  1880  00246A  51BB               	movf	(displayTemp@temp+1)& (0+255),w,b
  1881  00246C  E109               	bnz	u6550
  1882  00246E  0E41               	movlw	65
  1883  002470  5DBA               	subwf	displayTemp@temp& (0+255),w,b
  1884  002472  A0D8               	btfss	status,0,c
  1885  002474  EF3E  F012         	goto	u6551
  1886  002478  EF40  F012         	goto	u6550
  1887  00247C                     u6551:
  1888  00247C  EF52  F012         	goto	l6722
  1889  002480                     u6550:
  1890  002480                     
  1891                           ; BSR set to: 0
  1892  002480  BFBB               	btfsc	(displayTemp@temp+1)& (0+255),7,b
  1893  002482  EF4E  F012         	goto	u6560
  1894  002486  51BB               	movf	(displayTemp@temp+1)& (0+255),w,b
  1895  002488  E107               	bnz	u6561
  1896  00248A  0E4B               	movlw	75
  1897  00248C  5DBA               	subwf	displayTemp@temp& (0+255),w,b
  1898  00248E  B0D8               	btfsc	status,0,c
  1899  002490  EF4C  F012         	goto	u6561
  1900  002494  EF4E  F012         	goto	u6560
  1901  002498                     u6561:
  1902  002498  EF52  F012         	goto	l6722
  1903  00249C                     u6560:
  1904  00249C                     l6720:
  1905                           
  1906                           ; BSR set to: 0
  1907                           ;rgbledfx.c: 165:         calcG = 0x12;
  1908  00249C  0E12               	movlw	18
  1909  00249E  6FC6               	movwf	displayTemp@calcG& (0+255),b
  1910                           
  1911                           ;rgbledfx.c: 166:     } else if(temp >= 75 && temp < 85){
  1912  0024A0  EFE4  F012         	goto	l6754
  1913  0024A4                     l6722:
  1914                           
  1915                           ; BSR set to: 0
  1916  0024A4  BFBB               	btfsc	(displayTemp@temp+1)& (0+255),7,b
  1917  0024A6  EF5E  F012         	goto	u6571
  1918  0024AA  51BB               	movf	(displayTemp@temp+1)& (0+255),w,b
  1919  0024AC  E109               	bnz	u6570
  1920  0024AE  0E4B               	movlw	75
  1921  0024B0  5DBA               	subwf	displayTemp@temp& (0+255),w,b
  1922  0024B2  A0D8               	btfss	status,0,c
  1923  0024B4  EF5E  F012         	goto	u6571
  1924  0024B8  EF60  F012         	goto	u6570
  1925  0024BC                     u6571:
  1926  0024BC  EF70  F012         	goto	l6728
  1927  0024C0                     u6570:
  1928  0024C0                     
  1929                           ; BSR set to: 0
  1930  0024C0  BFBB               	btfsc	(displayTemp@temp+1)& (0+255),7,b
  1931  0024C2  EF6E  F012         	goto	u6580
  1932  0024C6  51BB               	movf	(displayTemp@temp+1)& (0+255),w,b
  1933  0024C8  E107               	bnz	u6581
  1934  0024CA  0E55               	movlw	85
  1935  0024CC  5DBA               	subwf	displayTemp@temp& (0+255),w,b
  1936  0024CE  B0D8               	btfsc	status,0,c
  1937  0024D0  EF6C  F012         	goto	u6581
  1938  0024D4  EF6E  F012         	goto	u6580
  1939  0024D8                     u6581:
  1940  0024D8  EF70  F012         	goto	l6728
  1941  0024DC                     u6580:
  1942  0024DC  EF4E  F012         	goto	l6720
  1943  0024E0                     l6728:
  1944                           
  1945                           ; BSR set to: 0
  1946  0024E0  BFBB               	btfsc	(displayTemp@temp+1)& (0+255),7,b
  1947  0024E2  EF7C  F012         	goto	u6591
  1948  0024E6  51BB               	movf	(displayTemp@temp+1)& (0+255),w,b
  1949  0024E8  E109               	bnz	u6590
  1950  0024EA  0E55               	movlw	85
  1951  0024EC  5DBA               	subwf	displayTemp@temp& (0+255),w,b
  1952  0024EE  A0D8               	btfss	status,0,c
  1953  0024F0  EF7C  F012         	goto	u6591
  1954  0024F4  EF7E  F012         	goto	u6590
  1955  0024F8                     u6591:
  1956  0024F8  EF92  F012         	goto	l6734
  1957  0024FC                     u6590:
  1958  0024FC                     
  1959                           ; BSR set to: 0
  1960  0024FC  BFBB               	btfsc	(displayTemp@temp+1)& (0+255),7,b
  1961  0024FE  EF8C  F012         	goto	u6600
  1962  002502  51BB               	movf	(displayTemp@temp+1)& (0+255),w,b
  1963  002504  E107               	bnz	u6601
  1964  002506  0E5F               	movlw	95
  1965  002508  5DBA               	subwf	displayTemp@temp& (0+255),w,b
  1966  00250A  B0D8               	btfsc	status,0,c
  1967  00250C  EF8A  F012         	goto	u6601
  1968  002510  EF8C  F012         	goto	u6600
  1969  002514                     u6601:
  1970  002514  EF92  F012         	goto	l6734
  1971  002518                     u6600:
  1972  002518                     
  1973                           ; BSR set to: 0
  1974                           ;rgbledfx.c: 169:         calcG = 0x12;
  1975  002518  0E12               	movlw	18
  1976  00251A  6FC6               	movwf	displayTemp@calcG& (0+255),b
  1977                           
  1978                           ;rgbledfx.c: 170:         calcR = 0x12;
  1979  00251C  0E12               	movlw	18
  1980  00251E  6FC5               	movwf	displayTemp@calcR& (0+255),b
  1981                           
  1982                           ;rgbledfx.c: 171:     } else if(temp >= 95 && temp < 105){
  1983  002520  EFE4  F012         	goto	l6754
  1984  002524                     l6734:
  1985                           
  1986                           ; BSR set to: 0
  1987  002524  BFBB               	btfsc	(displayTemp@temp+1)& (0+255),7,b
  1988  002526  EF9E  F012         	goto	u6611
  1989  00252A  51BB               	movf	(displayTemp@temp+1)& (0+255),w,b
  1990  00252C  E109               	bnz	u6610
  1991  00252E  0E5F               	movlw	95
  1992  002530  5DBA               	subwf	displayTemp@temp& (0+255),w,b
  1993  002532  A0D8               	btfss	status,0,c
  1994  002534  EF9E  F012         	goto	u6611
  1995  002538  EFA0  F012         	goto	u6610
  1996  00253C                     u6611:
  1997  00253C  EFB2  F012         	goto	l6740
  1998  002540                     u6610:
  1999  002540                     
  2000                           ; BSR set to: 0
  2001  002540  BFBB               	btfsc	(displayTemp@temp+1)& (0+255),7,b
  2002  002542  EFAE  F012         	goto	u6620
  2003  002546  51BB               	movf	(displayTemp@temp+1)& (0+255),w,b
  2004  002548  E107               	bnz	u6621
  2005  00254A  0E69               	movlw	105
  2006  00254C  5DBA               	subwf	displayTemp@temp& (0+255),w,b
  2007  00254E  B0D8               	btfsc	status,0,c
  2008  002550  EFAC  F012         	goto	u6621
  2009  002554  EFAE  F012         	goto	u6620
  2010  002558                     u6621:
  2011  002558  EFB2  F012         	goto	l6740
  2012  00255C                     u6620:
  2013  00255C                     
  2014                           ; BSR set to: 0
  2015                           ;rgbledfx.c: 172:         calcR = 0x12;
  2016  00255C  0E12               	movlw	18
  2017  00255E  6FC5               	movwf	displayTemp@calcR& (0+255),b
  2018                           
  2019                           ;rgbledfx.c: 173:     } else if(temp >= 105 && temp < 115){
  2020  002560  EFE4  F012         	goto	l6754
  2021  002564                     l6740:
  2022                           
  2023                           ; BSR set to: 0
  2024  002564  BFBB               	btfsc	(displayTemp@temp+1)& (0+255),7,b
  2025  002566  EFBE  F012         	goto	u6631
  2026  00256A  51BB               	movf	(displayTemp@temp+1)& (0+255),w,b
  2027  00256C  E109               	bnz	u6630
  2028  00256E  0E69               	movlw	105
  2029  002570  5DBA               	subwf	displayTemp@temp& (0+255),w,b
  2030  002572  A0D8               	btfss	status,0,c
  2031  002574  EFBE  F012         	goto	u6631
  2032  002578  EFC0  F012         	goto	u6630
  2033  00257C                     u6631:
  2034  00257C  EFD2  F012         	goto	l6748
  2035  002580                     u6630:
  2036  002580                     
  2037                           ; BSR set to: 0
  2038  002580  BFBB               	btfsc	(displayTemp@temp+1)& (0+255),7,b
  2039  002582  EFCE  F012         	goto	u6640
  2040  002586  51BB               	movf	(displayTemp@temp+1)& (0+255),w,b
  2041  002588  E107               	bnz	u6641
  2042  00258A  0E73               	movlw	115
  2043  00258C  5DBA               	subwf	displayTemp@temp& (0+255),w,b
  2044  00258E  B0D8               	btfsc	status,0,c
  2045  002590  EFCC  F012         	goto	u6641
  2046  002594  EFCE  F012         	goto	u6640
  2047  002598                     u6641:
  2048  002598  EFD2  F012         	goto	l6748
  2049  00259C                     u6640:
  2050  00259C                     
  2051                           ; BSR set to: 0
  2052                           ;rgbledfx.c: 174:         calcR = 0x12;
  2053  00259C  0E12               	movlw	18
  2054  00259E  6FC5               	movwf	displayTemp@calcR& (0+255),b
  2055  0025A0  EFE6  F011         	goto	l6702
  2056  0025A4                     l6748:
  2057                           
  2058                           ; BSR set to: 0
  2059  0025A4  BFBB               	btfsc	(displayTemp@temp+1)& (0+255),7,b
  2060  0025A6  EFDE  F012         	goto	u6651
  2061  0025AA  51BB               	movf	(displayTemp@temp+1)& (0+255),w,b
  2062  0025AC  E109               	bnz	u6650
  2063  0025AE  0E73               	movlw	115
  2064  0025B0  5DBA               	subwf	displayTemp@temp& (0+255),w,b
  2065  0025B2  A0D8               	btfss	status,0,c
  2066  0025B4  EFDE  F012         	goto	u6651
  2067  0025B8  EFE0  F012         	goto	u6650
  2068  0025BC                     u6651:
  2069  0025BC  EFE4  F012         	goto	l956
  2070  0025C0                     u6650:
  2071  0025C0                     
  2072                           ; BSR set to: 0
  2073                           ;rgbledfx.c: 177:         calcR = 0x12;
  2074  0025C0  0E12               	movlw	18
  2075  0025C2  6FC5               	movwf	displayTemp@calcR& (0+255),b
  2076  0025C4  EFBE  F011         	goto	l6694
  2077  0025C8                     l956:
  2078  0025C8                     l6754:
  2079                           
  2080                           ; BSR set to: 0
  2081                           ;rgbledfx.c: 181:     if(currentDelay > 0){
  2082  0025C8  BFCB               	btfsc	(displayTemp@currentDelay+3)& (0+255),7,b
  2083  0025CA  EFF1  F012         	goto	u6661
  2084  0025CE  51CB               	movf	(displayTemp@currentDelay+3)& (0+255),w,b
  2085  0025D0  11CA               	iorwf	(displayTemp@currentDelay+2)& (0+255),w,b
  2086  0025D2  11C9               	iorwf	(displayTemp@currentDelay+1)& (0+255),w,b
  2087  0025D4  E108               	bnz	u6660
  2088  0025D6  05C8               	decf	displayTemp@currentDelay& (0+255),w,b
  2089  0025D8  A0D8               	btfss	status,0,c
  2090  0025DA  EFF1  F012         	goto	u6661
  2091  0025DE  EFF3  F012         	goto	u6660
  2092  0025E2                     u6661:
  2093  0025E2  EF32  F013         	goto	l6764
  2094  0025E6                     u6660:
  2095  0025E6                     
  2096                           ; BSR set to: 0
  2097                           ;rgbledfx.c: 182:         currentMillis = millis();
  2098  0025E6  EC54  F01B         	call	_millis	;wreg free
  2099  0025EA  C0B2  F0E3         	movff	?_millis,displayTemp@currentMillis
  2100  0025EE  C0B3  F0E4         	movff	?_millis+1,displayTemp@currentMillis+1
  2101  0025F2  C0B4  F0E5         	movff	?_millis+2,displayTemp@currentMillis+2
  2102  0025F6  C0B5  F0E6         	movff	?_millis+3,displayTemp@currentMillis+3
  2103  0025FA                     
  2104                           ;rgbledfx.c: 183:         if(currentMillis - previousMillis >= currentDelay){
  2105  0025FA  5036               	movf	displayTemp@previousMillis^0,w,c
  2106  0025FC  0100               	movlb	0	; () banked
  2107  0025FE  5DE3               	subwf	displayTemp@currentMillis& (0+255),w,b
  2108  002600  6FBC               	movwf	??_displayTemp& (0+255),b
  2109  002602  5037               	movf	(displayTemp@previousMillis+1)^0,w,c
  2110  002604  59E4               	subwfb	(displayTemp@currentMillis+1)& (0+255),w,b
  2111  002606  6FBD               	movwf	(??_displayTemp+1)& (0+255),b
  2112  002608  5038               	movf	(displayTemp@previousMillis+2)^0,w,c
  2113  00260A  59E5               	subwfb	(displayTemp@currentMillis+2)& (0+255),w,b
  2114  00260C  6FBE               	movwf	(??_displayTemp+2)& (0+255),b
  2115  00260E  5039               	movf	(displayTemp@previousMillis+3)^0,w,c
  2116  002610  59E6               	subwfb	(displayTemp@currentMillis+3)& (0+255),w,b
  2117  002612  6FBF               	movwf	(??_displayTemp+3)& (0+255),b
  2118  002614  51C8               	movf	displayTemp@currentDelay& (0+255),w,b
  2119  002616  5DBC               	subwf	??_displayTemp& (0+255),w,b
  2120  002618  51C9               	movf	(displayTemp@currentDelay+1)& (0+255),w,b
  2121  00261A  59BD               	subwfb	(??_displayTemp+1)& (0+255),w,b
  2122  00261C  51CA               	movf	(displayTemp@currentDelay+2)& (0+255),w,b
  2123  00261E  59BE               	subwfb	(??_displayTemp+2)& (0+255),w,b
  2124  002620  51BF               	movf	(??_displayTemp+3)& (0+255),w,b
  2125  002622  0A80               	xorlw	128
  2126  002624  6FC0               	movwf	(??_displayTemp+4)& (0+255),b
  2127  002626  51CB               	movf	(displayTemp@currentDelay+3)& (0+255),w,b
  2128  002628  0A80               	xorlw	128
  2129  00262A  59C0               	subwfb	(??_displayTemp+4)& (0+255),w,b
  2130  00262C  A0D8               	btfss	status,0,c
  2131  00262E  EF1B  F013         	goto	u6671
  2132  002632  EF1D  F013         	goto	u6670
  2133  002636                     u6671:
  2134  002636  EF34  F013         	goto	l6766
  2135  00263A                     u6670:
  2136  00263A                     
  2137                           ; BSR set to: 0
  2138                           ;rgbledfx.c: 184:             previousMillis = currentMillis;
  2139  00263A  C0E3  F036         	movff	displayTemp@currentMillis,displayTemp@previousMillis
  2140  00263E  C0E4  F037         	movff	displayTemp@currentMillis+1,displayTemp@previousMillis+1
  2141  002642  C0E5  F038         	movff	displayTemp@currentMillis+2,displayTemp@previousMillis+2
  2142  002646  C0E6  F039         	movff	displayTemp@currentMillis+3,displayTemp@previousMillis+3
  2143  00264A                     
  2144                           ; BSR set to: 0
  2145                           ;rgbledfx.c: 185:             ledOn = !ledOn;
  2146  00264A  51FE               	movf	displayTemp@ledOn& (0+255),w,b
  2147  00264C  B4D8               	btfsc	status,2,c
  2148  00264E  EF2B  F013         	goto	u6681
  2149  002652  EF2E  F013         	goto	u6680
  2150  002656                     u6681:
  2151  002656  0E01               	movlw	1
  2152  002658  EF2F  F013         	goto	u6690
  2153  00265C                     u6680:
  2154  00265C  0E00               	movlw	0
  2155  00265E                     u6690:
  2156  00265E  6FFE               	movwf	displayTemp@ledOn& (0+255),b
  2157  002660  EF34  F013         	goto	l6766
  2158  002664                     l6764:
  2159                           
  2160                           ; BSR set to: 0
  2161                           ;rgbledfx.c: 188:         ledOn = 1;
  2162  002664  0E01               	movlw	1
  2163  002666  6FFE               	movwf	displayTemp@ledOn& (0+255),b
  2164  002668                     l6766:
  2165                           
  2166                           ; BSR set to: 0
  2167                           ;rgbledfx.c: 191:     setLED(calcR*ledOn, calcG*ledOn, calcB*ledOn);
  2168  002668  51C6               	movf	displayTemp@calcG& (0+255),w,b
  2169  00266A  03FE               	mulwf	displayTemp@ledOn& (0+255),b
  2170  00266C  CFF3 F024          	movff	prodl,setLED@green
  2171  002670  51C7               	movf	displayTemp@calcB& (0+255),w,b
  2172  002672  03FE               	mulwf	displayTemp@ledOn& (0+255),b
  2173  002674  CFF3 F025          	movff	prodl,setLED@blue
  2174  002678  51C5               	movf	displayTemp@calcR& (0+255),w,b
  2175  00267A  03FE               	mulwf	displayTemp@ledOn& (0+255),b
  2176  00267C  50F3               	movf	243,w,c
  2177  00267E  ECA3  F018         	call	_setLED
  2178  002682  0012               	return		;funcret
  2179  002684                     __end_of_displayTemp:
  2180                           	callstack 0
  2181                           
  2182 ;; *************** function _displayOff *****************
  2183 ;; Defined at:
  2184 ;;		line 296 in file "rgbledfx.c"
  2185 ;; Parameters:    Size  Location     Type
  2186 ;;		None
  2187 ;; Auto vars:     Size  Location     Type
  2188 ;;		None
  2189 ;; Return value:  Size  Location     Type
  2190 ;;                  1    wreg      void 
  2191 ;; Registers used:
  2192 ;;		wreg, fsr2l, fsr2h, status,2, status,0, prodl, prodh, cstack
  2193 ;; Tracked objects:
  2194 ;;		On entry : 0/0
  2195 ;;		On exit  : 0/0
  2196 ;;		Unchanged: 0/0
  2197 ;; Data sizes:     COMRAM   BANK0   BANK1   BANK2   BANK3   BANK4   BANK5   BANK6   BANK7   BANK8   BANK9  BANK10  BANK1
      +1  BANK12  BANK13  BANK14
  2198 ;;      Params:         0       0       0       0       0       0       0       0       0       0       0       0       
      +0       0       0       0
  2199 ;;      Locals:         0       0       0       0       0       0       0       0       0       0       0       0       
      +0       0       0       0
  2200 ;;      Temps:          0       0       0       0       0       0       0       0       0       0       0       0       
      +0       0       0       0
  2201 ;;      Totals:         0       0       0       0       0       0       0       0       0       0       0       0       
      +0       0       0       0
  2202 ;;Total ram usage:        0 bytes
  2203 ;; Hardware stack levels used: 1
  2204 ;; Hardware stack levels required when called: 12
  2205 ;; This function calls:
  2206 ;;		_setLED
  2207 ;; This function is called by:
  2208 ;;		_updateLED
  2209 ;; This function uses a non-reentrant model
  2210 ;;
  2211                           
  2212                           	psect	text5
  2213  003D90                     __ptext5:
  2214                           	callstack 0
  2215  003D90                     _displayOff:
  2216                           	callstack 16
  2217  003D90                     
  2218                           ;rgbledfx.c: 298:     setLED(0, 0, 0);
  2219  003D90  0E00               	movlw	0
  2220  003D92  6E24               	movwf	setLED@green^0,c
  2221  003D94  0E00               	movlw	0
  2222  003D96  6E25               	movwf	setLED@blue^0,c
  2223  003D98  0E00               	movlw	0
  2224  003D9A  ECA3  F018         	call	_setLED
  2225  003D9E  0012               	return		;funcret
  2226  003DA0                     __end_of_displayOff:
  2227                           	callstack 0
  2228                           
  2229 ;; *************** function _displayHR *****************
  2230 ;; Defined at:
  2231 ;;		line 88 in file "rgbledfx.c"
  2232 ;; Parameters:    Size  Location     Type
  2233 ;;  heartRate       2   90[BANK0 ] int 
  2234 ;; Auto vars:     Size  Location     Type
  2235 ;;  beatDelay       4  105[BANK0 ] long 
  2236 ;;  currentHR       4  101[BANK0 ] long 
  2237 ;;  fadeFactor      4   97[BANK0 ] float 
  2238 ;;  maxLevel        1    0        unsigned char 
  2239 ;;  levelFade       1  113[BANK0 ] unsigned char 
  2240 ;; Return value:  Size  Location     Type
  2241 ;;                  1    wreg      void 
  2242 ;; Registers used:
  2243 ;;		wreg, fsr2l, fsr2h, status,2, status,0, prodl, prodh, cstack
  2244 ;; Tracked objects:
  2245 ;;		On entry : 0/0
  2246 ;;		On exit  : 0/0
  2247 ;;		Unchanged: 0/0
  2248 ;; Data sizes:     COMRAM   BANK0   BANK1   BANK2   BANK3   BANK4   BANK5   BANK6   BANK7   BANK8   BANK9  BANK10  BANK1
      +1  BANK12  BANK13  BANK14
  2249 ;;      Params:         0       2       0       0       0       0       0       0       0       0       0       0       
      +0       0       0       0
  2250 ;;      Locals:         0      17       0       0       0       0       0       0       0       0       0       0       
      +0       0       0       0
  2251 ;;      Temps:          0       5       0       0       0       0       0       0       0       0       0       0       
      +0       0       0       0
  2252 ;;      Totals:         0      24       0       0       0       0       0       0       0       0       0       0       
      +0       0       0       0
  2253 ;;Total ram usage:       24 bytes
  2254 ;; Hardware stack levels used: 1
  2255 ;; Hardware stack levels required when called: 12
  2256 ;; This function calls:
  2257 ;;		___fldiv
  2258 ;;		___flmul
  2259 ;;		___fltol
  2260 ;;		___xxtofl
  2261 ;;		_fminf
  2262 ;;		_millis
  2263 ;;		_roundf
  2264 ;;		_setLED
  2265 ;; This function is called by:
  2266 ;;		_updateLED
  2267 ;; This function uses a non-reentrant model
  2268 ;;
  2269                           
  2270                           	psect	text6
  2271  002684                     __ptext6:
  2272                           	callstack 0
  2273  002684                     _displayHR:
  2274                           	callstack 16
  2275  002684                     
  2276                           ;rgbledfx.c: 98:     uint8_t levelFade = 0;
  2277  002684  0E00               	movlw	0
  2278  002686  0100               	movlb	0	; () banked
  2279  002688  6FD1               	movwf	displayHR@levelFade& (0+255),b
  2280                           
  2281                           ;rgbledfx.c: 100:     float fadeFactor = 0.018;
  2282  00268A  0EBC               	movlw	188
  2283  00268C  6FC1               	movwf	displayHR@fadeFactor& (0+255),b
  2284  00268E  0E74               	movlw	116
  2285  002690  6FC2               	movwf	(displayHR@fadeFactor+1)& (0+255),b
  2286  002692  0E93               	movlw	147
  2287  002694  6FC3               	movwf	(displayHR@fadeFactor+2)& (0+255),b
  2288  002696  0E3C               	movlw	60
  2289  002698  6FC4               	movwf	(displayHR@fadeFactor+3)& (0+255),b
  2290  00269A                     
  2291                           ; BSR set to: 0
  2292                           ;rgbledfx.c: 109:     double currentHR = (double) heartRate;
  2293  00269A  C0BA  F020         	movff	displayHR@heartRate,___xxtofl@val
  2294  00269E  C0BB  F021         	movff	displayHR@heartRate+1,___xxtofl@val+1
  2295  0026A2  0E00               	movlw	0
  2296  0026A4  BE21               	btfsc	(___xxtofl@val+1)^0,7,c
  2297  0026A6  0EFF               	movlw	-1
  2298  0026A8  6E22               	movwf	(___xxtofl@val+2)^0,c
  2299  0026AA  6E23               	movwf	(___xxtofl@val+3)^0,c
  2300  0026AC  0E01               	movlw	1
  2301  0026AE  EC36  F014         	call	___xxtofl
  2302  0026B2  C020  F0C5         	movff	?___xxtofl,displayHR@currentHR
  2303  0026B6  C021  F0C6         	movff	?___xxtofl+1,displayHR@currentHR+1
  2304  0026BA  C022  F0C7         	movff	?___xxtofl+2,displayHR@currentHR+2
  2305  0026BE  C023  F0C8         	movff	?___xxtofl+3,displayHR@currentHR+3
  2306  0026C2                     
  2307                           ;rgbledfx.c: 110:     long beatDelay = (long) roundf(1000.0/(currentHR*0.0167));
  2308  0026C2  0E70               	movlw	112
  2309  0026C4  0100               	movlb	0	; () banked
  2310  0026C6  6F64               	movwf	___flmul@a& (0+255),b
  2311  0026C8  0ECE               	movlw	206
  2312  0026CA  6F65               	movwf	(___flmul@a+1)& (0+255),b
  2313  0026CC  0E88               	movlw	136
  2314  0026CE  6F66               	movwf	(___flmul@a+2)& (0+255),b
  2315  0026D0  0E3C               	movlw	60
  2316  0026D2  6F67               	movwf	(___flmul@a+3)& (0+255),b
  2317  0026D4  C0C5  F060         	movff	displayHR@currentHR,___flmul@b
  2318  0026D8  C0C6  F061         	movff	displayHR@currentHR+1,___flmul@b+1
  2319  0026DC  C0C7  F062         	movff	displayHR@currentHR+2,___flmul@b+2
  2320  0026E0  C0C8  F063         	movff	displayHR@currentHR+3,___flmul@b+3
  2321  0026E4  ECF3  F009         	call	___flmul	;wreg free
  2322  0026E8  C060  F079         	movff	?___flmul,___fldiv@a
  2323  0026EC  C061  F07A         	movff	?___flmul+1,___fldiv@a+1
  2324  0026F0  C062  F07B         	movff	?___flmul+2,___fldiv@a+2
  2325  0026F4  C063  F07C         	movff	?___flmul+3,___fldiv@a+3
  2326  0026F8  0E00               	movlw	0
  2327  0026FA  0100               	movlb	0	; () banked
  2328  0026FC  6F75               	movwf	___fldiv@b& (0+255),b
  2329  0026FE  0E00               	movlw	0
  2330  002700  6F76               	movwf	(___fldiv@b+1)& (0+255),b
  2331  002702  0E7A               	movlw	122
  2332  002704  6F77               	movwf	(___fldiv@b+2)& (0+255),b
  2333  002706  0E44               	movlw	68
  2334  002708  6F78               	movwf	(___fldiv@b+3)& (0+255),b
  2335  00270A  ECC9  F00F         	call	___fldiv	;wreg free
  2336  00270E  C075  F0CD         	movff	?___fldiv,_displayHR$3181
  2337  002712  C076  F0CE         	movff	?___fldiv+1,_displayHR$3181+1
  2338  002716  C077  F0CF         	movff	?___fldiv+2,_displayHR$3181+2
  2339  00271A  C078  F0D0         	movff	?___fldiv+3,_displayHR$3181+3
  2340  00271E                     
  2341                           ;rgbledfx.c: 110:     long beatDelay = (long) roundf(1000.0/(currentHR*0.0167));
  2342  00271E  C0CD  F08E         	movff	_displayHR$3181,roundf@x
  2343  002722  C0CE  F08F         	movff	_displayHR$3181+1,roundf@x+1
  2344  002726  C0CF  F090         	movff	_displayHR$3181+2,roundf@x+2
  2345  00272A  C0D0  F091         	movff	_displayHR$3181+3,roundf@x+3
  2346  00272E  ECEF  F00D         	call	_roundf	;wreg free
  2347  002732  C08E  F0A8         	movff	?_roundf,___fltol@f1
  2348  002736  C08F  F0A9         	movff	?_roundf+1,___fltol@f1+1
  2349  00273A  C090  F0AA         	movff	?_roundf+2,___fltol@f1+2
  2350  00273E  C091  F0AB         	movff	?_roundf+3,___fltol@f1+3
  2351  002742  ECBA  F016         	call	___fltol	;wreg free
  2352  002746  C0A8  F0C9         	movff	?___fltol,displayHR@beatDelay
  2353  00274A  C0A9  F0CA         	movff	?___fltol+1,displayHR@beatDelay+1
  2354  00274E  C0AA  F0CB         	movff	?___fltol+2,displayHR@beatDelay+2
  2355  002752  C0AB  F0CC         	movff	?___fltol+3,displayHR@beatDelay+3
  2356  002756                     
  2357                           ;rgbledfx.c: 112:     currentMillis = millis();
  2358  002756  EC54  F01B         	call	_millis	;wreg free
  2359  00275A  C0B2  F0EB         	movff	?_millis,displayHR@currentMillis
  2360  00275E  C0B3  F0EC         	movff	?_millis+1,displayHR@currentMillis+1
  2361  002762  C0B4  F0ED         	movff	?_millis+2,displayHR@currentMillis+2
  2362  002766  C0B5  F0EE         	movff	?_millis+3,displayHR@currentMillis+3
  2363  00276A                     
  2364                           ;rgbledfx.c: 114:     if(currentMillis - previousMillis >= beatDelay){
  2365  00276A  0100               	movlb	0	; () banked
  2366  00276C  51E7               	movf	displayHR@previousMillis& (0+255),w,b
  2367  00276E  5DEB               	subwf	displayHR@currentMillis& (0+255),w,b
  2368  002770  6FBC               	movwf	??_displayHR& (0+255),b
  2369  002772  51E8               	movf	(displayHR@previousMillis+1)& (0+255),w,b
  2370  002774  59EC               	subwfb	(displayHR@currentMillis+1)& (0+255),w,b
  2371  002776  6FBD               	movwf	(??_displayHR+1)& (0+255),b
  2372  002778  51E9               	movf	(displayHR@previousMillis+2)& (0+255),w,b
  2373  00277A  59ED               	subwfb	(displayHR@currentMillis+2)& (0+255),w,b
  2374  00277C  6FBE               	movwf	(??_displayHR+2)& (0+255),b
  2375  00277E  51EA               	movf	(displayHR@previousMillis+3)& (0+255),w,b
  2376  002780  59EE               	subwfb	(displayHR@currentMillis+3)& (0+255),w,b
  2377  002782  6FBF               	movwf	(??_displayHR+3)& (0+255),b
  2378  002784  51C9               	movf	displayHR@beatDelay& (0+255),w,b
  2379  002786  5DBC               	subwf	??_displayHR& (0+255),w,b
  2380  002788  51CA               	movf	(displayHR@beatDelay+1)& (0+255),w,b
  2381  00278A  59BD               	subwfb	(??_displayHR+1)& (0+255),w,b
  2382  00278C  51CB               	movf	(displayHR@beatDelay+2)& (0+255),w,b
  2383  00278E  59BE               	subwfb	(??_displayHR+2)& (0+255),w,b
  2384  002790  51BF               	movf	(??_displayHR+3)& (0+255),w,b
  2385  002792  0A80               	xorlw	128
  2386  002794  6FC0               	movwf	(??_displayHR+4)& (0+255),b
  2387  002796  51CC               	movf	(displayHR@beatDelay+3)& (0+255),w,b
  2388  002798  0A80               	xorlw	128
  2389  00279A  59C0               	subwfb	(??_displayHR+4)& (0+255),w,b
  2390  00279C  A0D8               	btfss	status,0,c
  2391  00279E  EFD3  F013         	goto	u6471
  2392  0027A2  EFD5  F013         	goto	u6470
  2393  0027A6                     u6471:
  2394  0027A6  EFE1  F013         	goto	l6684
  2395  0027AA                     u6470:
  2396  0027AA                     
  2397                           ; BSR set to: 0
  2398                           ;rgbledfx.c: 115:         level = maxLevel;
  2399  0027AA  0E12               	movlw	18
  2400  0027AC  6FFF               	movwf	displayHR@level& (0+255),b
  2401                           
  2402                           ;rgbledfx.c: 116:         previousMillis = currentMillis;
  2403  0027AE  C0EB  F0E7         	movff	displayHR@currentMillis,displayHR@previousMillis
  2404  0027B2  C0EC  F0E8         	movff	displayHR@currentMillis+1,displayHR@previousMillis+1
  2405  0027B6  C0ED  F0E9         	movff	displayHR@currentMillis+2,displayHR@previousMillis+2
  2406  0027BA  C0EE  F0EA         	movff	displayHR@currentMillis+3,displayHR@previousMillis+3
  2407                           
  2408                           ;rgbledfx.c: 117:     } else {
  2409  0027BE  EF2D  F014         	goto	l6686
  2410  0027C2                     l6684:
  2411                           
  2412                           ; BSR set to: 0
  2413                           ;rgbledfx.c: 119:         levelFade = (uint8_t) fminf(fadeFactor*(currentMillis-previous
      +                          Millis),(float) maxLevel);
  2414  0027C2  0E12               	movlw	18
  2415  0027C4  6E20               	movwf	___xxtofl@val^0,c
  2416  0027C6  0E00               	movlw	0
  2417  0027C8  6E21               	movwf	(___xxtofl@val+1)^0,c
  2418  0027CA  0E00               	movlw	0
  2419  0027CC  6E22               	movwf	(___xxtofl@val+2)^0,c
  2420  0027CE  0E00               	movlw	0
  2421  0027D0  6E23               	movwf	(___xxtofl@val+3)^0,c
  2422  0027D2  0E00               	movlw	0
  2423  0027D4  EC36  F014         	call	___xxtofl
  2424  0027D8  C020  F079         	movff	?___xxtofl,fminf@y
  2425  0027DC  C021  F07A         	movff	?___xxtofl+1,fminf@y+1
  2426  0027E0  C022  F07B         	movff	?___xxtofl+2,fminf@y+2
  2427  0027E4  C023  F07C         	movff	?___xxtofl+3,fminf@y+3
  2428  0027E8  C0C1  F064         	movff	displayHR@fadeFactor,___flmul@a
  2429  0027EC  C0C2  F065         	movff	displayHR@fadeFactor+1,___flmul@a+1
  2430  0027F0  C0C3  F066         	movff	displayHR@fadeFactor+2,___flmul@a+2
  2431  0027F4  C0C4  F067         	movff	displayHR@fadeFactor+3,___flmul@a+3
  2432  0027F8  0100               	movlb	0	; () banked
  2433  0027FA  51E7               	movf	displayHR@previousMillis& (0+255),w,b
  2434  0027FC  5DEB               	subwf	displayHR@currentMillis& (0+255),w,b
  2435  0027FE  6E20               	movwf	___xxtofl@val^0,c
  2436  002800  51E8               	movf	(displayHR@previousMillis+1)& (0+255),w,b
  2437  002802  59EC               	subwfb	(displayHR@currentMillis+1)& (0+255),w,b
  2438  002804  6E21               	movwf	(___xxtofl@val+1)^0,c
  2439  002806  51E9               	movf	(displayHR@previousMillis+2)& (0+255),w,b
  2440  002808  59ED               	subwfb	(displayHR@currentMillis+2)& (0+255),w,b
  2441  00280A  6E22               	movwf	(___xxtofl@val+2)^0,c
  2442  00280C  51EA               	movf	(displayHR@previousMillis+3)& (0+255),w,b
  2443  00280E  59EE               	subwfb	(displayHR@currentMillis+3)& (0+255),w,b
  2444  002810  6E23               	movwf	(___xxtofl@val+3)^0,c
  2445  002812  0E01               	movlw	1
  2446  002814  EC36  F014         	call	___xxtofl
  2447  002818  C020  F060         	movff	?___xxtofl,___flmul@b
  2448  00281C  C021  F061         	movff	?___xxtofl+1,___flmul@b+1
  2449  002820  C022  F062         	movff	?___xxtofl+2,___flmul@b+2
  2450  002824  C023  F063         	movff	?___xxtofl+3,___flmul@b+3
  2451  002828  ECF3  F009         	call	___flmul	;wreg free
  2452  00282C  C060  F075         	movff	?___flmul,fminf@x
  2453  002830  C061  F076         	movff	?___flmul+1,fminf@x+1
  2454  002834  C062  F077         	movff	?___flmul+2,fminf@x+2
  2455  002838  C063  F078         	movff	?___flmul+3,fminf@x+3
  2456  00283C  ECA3  F015         	call	_fminf	;wreg free
  2457  002840  C075  F0A8         	movff	?_fminf,___fltol@f1
  2458  002844  C076  F0A9         	movff	?_fminf+1,___fltol@f1+1
  2459  002848  C077  F0AA         	movff	?_fminf+2,___fltol@f1+2
  2460  00284C  C078  F0AB         	movff	?_fminf+3,___fltol@f1+3
  2461  002850  ECBA  F016         	call	___fltol	;wreg free
  2462  002854  0100               	movlb	0	; () banked
  2463  002856  51A8               	movf	?___fltol& (0+255),w,b
  2464  002858  6FD1               	movwf	displayHR@levelFade& (0+255),b
  2465  00285A                     l6686:
  2466                           
  2467                           ; BSR set to: 0
  2468                           ;rgbledfx.c: 123:     setLED(maxLevel - levelFade, 0, 0);
  2469  00285A  0E00               	movlw	0
  2470  00285C  6E24               	movwf	setLED@green^0,c
  2471  00285E  0E00               	movlw	0
  2472  002860  6E25               	movwf	setLED@blue^0,c
  2473  002862  51D1               	movf	displayHR@levelFade& (0+255),w,b
  2474  002864  0812               	sublw	18
  2475  002866  ECA3  F018         	call	_setLED
  2476  00286A  0012               	return		;funcret
  2477  00286C                     __end_of_displayHR:
  2478                           	callstack 0
  2479                           
  2480 ;; *************** function _roundf *****************
  2481 ;; Defined at:
  2482 ;;		line 12 in file "C:\Program Files\Microchip\xc8\v2.35\pic\sources\c99\common\roundf.c"
  2483 ;; Parameters:    Size  Location     Type
  2484 ;;  x               4   46[BANK0 ] float 
  2485 ;; Auto vars:     Size  Location     Type
  2486 ;;  y               4   68[BANK0 ] float 
  2487 ;;  u               4   64[BANK0 ] struct .
  2488 ;;  e               2   58[BANK0 ] int 
  2489 ;; Return value:  Size  Location     Type
  2490 ;;                  4   46[BANK0 ] float 
  2491 ;; Registers used:
  2492 ;;		wreg, status,2, status,0, prodl, prodh, cstack
  2493 ;; Tracked objects:
  2494 ;;		On entry : 0/0
  2495 ;;		On exit  : 0/0
  2496 ;;		Unchanged: 0/0
  2497 ;; Data sizes:     COMRAM   BANK0   BANK1   BANK2   BANK3   BANK4   BANK5   BANK6   BANK7   BANK8   BANK9  BANK10  BANK1
      +1  BANK12  BANK13  BANK14
  2498 ;;      Params:         0       4       0       0       0       0       0       0       0       0       0       0       
      +0       0       0       0
  2499 ;;      Locals:         0      18       0       0       0       0       0       0       0       0       0       0       
      +0       0       0       0
  2500 ;;      Temps:          0       4       0       0       0       0       0       0       0       0       0       0       
      +0       0       0       0
  2501 ;;      Totals:         0      26       0       0       0       0       0       0       0       0       0       0       
      +0       0       0       0
  2502 ;;Total ram usage:       26 bytes
  2503 ;; Hardware stack levels used: 1
  2504 ;; Hardware stack levels required when called: 9
  2505 ;; This function calls:
  2506 ;;		___fladd
  2507 ;;		___flge
  2508 ;;		___flmul
  2509 ;;		___flneg
  2510 ;;		___flsub
  2511 ;; This function is called by:
  2512 ;;		_displayHR
  2513 ;; This function uses a non-reentrant model
  2514 ;;
  2515                           
  2516                           	psect	text7
  2517  001BDE                     __ptext7:
  2518                           	callstack 0
  2519  001BDE                     _roundf:
  2520                           	callstack 18
  2521  001BDE  C13C  F0A0         	movff	roundf@F527,roundf@u
  2522  001BE2  C13D  F0A1         	movff	roundf@F527+1,roundf@u+1
  2523  001BE6  C13E  F0A2         	movff	roundf@F527+2,roundf@u+2
  2524  001BEA  C13F  F0A3         	movff	roundf@F527+3,roundf@u+3
  2525  001BEE  C08E  F0A0         	movff	roundf@x,roundf@u
  2526  001BF2  C08F  F0A1         	movff	roundf@x+1,roundf@u+1
  2527  001BF6  C090  F0A2         	movff	roundf@x+2,roundf@u+2
  2528  001BFA  C091  F0A3         	movff	roundf@x+3,roundf@u+3
  2529  001BFE  C0A0  F092         	movff	roundf@u,??_roundf
  2530  001C02  C0A1  F093         	movff	roundf@u+1,??_roundf+1
  2531  001C06  C0A2  F094         	movff	roundf@u+2,??_roundf+2
  2532  001C0A  C0A3  F095         	movff	roundf@u+3,??_roundf+3
  2533  001C0E  0E18               	movlw	24
  2534  001C10  EF10  F00E         	goto	u6010
  2535  001C14                     u6015:
  2536  001C14  0100               	movlb	0	; () banked
  2537  001C16  90D8               	bcf	status,0,c
  2538  001C18  3395               	rrcf	(??_roundf+3)& (0+255),f,b
  2539  001C1A  3394               	rrcf	(??_roundf+2)& (0+255),f,b
  2540  001C1C  3393               	rrcf	(??_roundf+1)& (0+255),f,b
  2541  001C1E  3392               	rrcf	??_roundf& (0+255),f,b
  2542  001C20                     u6010:
  2543  001C20  2EE8               	decfsz	wreg,f,c
  2544  001C22  EF0A  F00E         	goto	u6015
  2545  001C26  5192               	movf	??_roundf& (0+255),w,b
  2546  001C28  6F9A               	movwf	roundf@e& (0+255),b
  2547  001C2A  6B9B               	clrf	(roundf@e+1)& (0+255),b
  2548  001C2C  BF9B               	btfsc	(roundf@e+1)& (0+255),7,b
  2549  001C2E  EF22  F00E         	goto	u6021
  2550  001C32  519B               	movf	(roundf@e+1)& (0+255),w,b
  2551  001C34  E109               	bnz	u6020
  2552  001C36  0E96               	movlw	150
  2553  001C38  5D9A               	subwf	roundf@e& (0+255),w,b
  2554  001C3A  A0D8               	btfss	status,0,c
  2555  001C3C  EF22  F00E         	goto	u6021
  2556  001C40  EF24  F00E         	goto	u6020
  2557  001C44                     u6021:
  2558  001C44  EF2E  F00E         	goto	l6404
  2559  001C48                     u6020:
  2560  001C48                     
  2561                           ; BSR set to: 0
  2562  001C48  C08E  F08E         	movff	roundf@x,?_roundf
  2563  001C4C  C08F  F08F         	movff	roundf@x+1,?_roundf+1
  2564  001C50  C090  F090         	movff	roundf@x+2,?_roundf+2
  2565  001C54  C091  F091         	movff	roundf@x+3,?_roundf+3
  2566  001C58  EFC8  F00F         	goto	l1767
  2567  001C5C                     l6404:
  2568                           
  2569                           ; BSR set to: 0
  2570  001C5C  C0A0  F092         	movff	roundf@u,??_roundf
  2571  001C60  C0A1  F093         	movff	roundf@u+1,??_roundf+1
  2572  001C64  C0A2  F094         	movff	roundf@u+2,??_roundf+2
  2573  001C68  C0A3  F095         	movff	roundf@u+3,??_roundf+3
  2574  001C6C  0E20               	movlw	32
  2575  001C6E  EF3E  F00E         	goto	u6030
  2576  001C72                     u6035:
  2577  001C72  90D8               	bcf	status,0,c
  2578  001C74  3395               	rrcf	(??_roundf+3)& (0+255),f,b
  2579  001C76  3394               	rrcf	(??_roundf+2)& (0+255),f,b
  2580  001C78  3393               	rrcf	(??_roundf+1)& (0+255),f,b
  2581  001C7A  3392               	rrcf	??_roundf& (0+255),f,b
  2582  001C7C                     u6030:
  2583  001C7C  2EE8               	decfsz	wreg,f,c
  2584  001C7E  EF39  F00E         	goto	u6035
  2585  001C82  5192               	movf	??_roundf& (0+255),w,b
  2586  001C84  1193               	iorwf	(??_roundf+1)& (0+255),w,b
  2587  001C86  1194               	iorwf	(??_roundf+2)& (0+255),w,b
  2588  001C88  1195               	iorwf	(??_roundf+3)& (0+255),w,b
  2589  001C8A  B4D8               	btfsc	status,2,c
  2590  001C8C  EF4A  F00E         	goto	u6041
  2591  001C90  EF4C  F00E         	goto	u6040
  2592  001C94                     u6041:
  2593  001C94  EF5E  F00E         	goto	l6408
  2594  001C98                     u6040:
  2595  001C98                     
  2596                           ; BSR set to: 0
  2597  001C98  C08E  F018         	movff	roundf@x,___flneg@f1
  2598  001C9C  C08F  F019         	movff	roundf@x+1,___flneg@f1+1
  2599  001CA0  C090  F01A         	movff	roundf@x+2,___flneg@f1+2
  2600  001CA4  C091  F01B         	movff	roundf@x+3,___flneg@f1+3
  2601  001CA8  EC1E  F01D         	call	___flneg	;wreg free
  2602  001CAC  C018  F08E         	movff	?___flneg,roundf@x
  2603  001CB0  C019  F08F         	movff	?___flneg+1,roundf@x+1
  2604  001CB4  C01A  F090         	movff	?___flneg+2,roundf@x+2
  2605  001CB8  C01B  F091         	movff	?___flneg+3,roundf@x+3
  2606  001CBC                     l6408:
  2607  001CBC  0100               	movlb	0	; () banked
  2608  001CBE  BF9B               	btfsc	(roundf@e+1)& (0+255),7,b
  2609  001CC0  EF6D  F00E         	goto	u6050
  2610  001CC4  519B               	movf	(roundf@e+1)& (0+255),w,b
  2611  001CC6  E107               	bnz	u6051
  2612  001CC8  0E7E               	movlw	126
  2613  001CCA  5D9A               	subwf	roundf@e& (0+255),w,b
  2614  001CCC  B0D8               	btfsc	status,0,c
  2615  001CCE  EF6B  F00E         	goto	u6051
  2616  001CD2  EF6D  F00E         	goto	u6050
  2617  001CD6                     u6051:
  2618  001CD6  EF89  F00E         	goto	l6414
  2619  001CDA                     u6050:
  2620  001CDA                     
  2621                           ; BSR set to: 0
  2622  001CDA  C0A0  F060         	movff	roundf@u,___flmul@b
  2623  001CDE  C0A1  F061         	movff	roundf@u+1,___flmul@b+1
  2624  001CE2  C0A2  F062         	movff	roundf@u+2,___flmul@b+2
  2625  001CE6  C0A3  F063         	movff	roundf@u+3,___flmul@b+3
  2626  001CEA  0E00               	movlw	0
  2627  001CEC  6F64               	movwf	___flmul@a& (0+255),b
  2628  001CEE  0E00               	movlw	0
  2629  001CF0  6F65               	movwf	(___flmul@a+1)& (0+255),b
  2630  001CF2  0E00               	movlw	0
  2631  001CF4  6F66               	movwf	(___flmul@a+2)& (0+255),b
  2632  001CF6  0E00               	movlw	0
  2633  001CF8  6F67               	movwf	(___flmul@a+3)& (0+255),b
  2634  001CFA  ECF3  F009         	call	___flmul	;wreg free
  2635  001CFE  C060  F08E         	movff	?___flmul,?_roundf
  2636  001D02  C061  F08F         	movff	?___flmul+1,?_roundf+1
  2637  001D06  C062  F090         	movff	?___flmul+2,?_roundf+2
  2638  001D0A  C063  F091         	movff	?___flmul+3,?_roundf+3
  2639  001D0E  EFC8  F00F         	goto	l1767
  2640  001D12                     l6414:
  2641                           
  2642                           ; BSR set to: 0
  2643  001D12  0E00               	movlw	0
  2644  001D14  6E1C               	movwf	___fladd@a^0,c
  2645  001D16  0E00               	movlw	0
  2646  001D18  6E1D               	movwf	(___fladd@a+1)^0,c
  2647  001D1A  0E00               	movlw	0
  2648  001D1C  6E1E               	movwf	(___fladd@a+2)^0,c
  2649  001D1E  0E4B               	movlw	75
  2650  001D20  6E1F               	movwf	(___fladd@a+3)^0,c
  2651  001D22  C08E  F018         	movff	roundf@x,___fladd@b
  2652  001D26  C08F  F019         	movff	roundf@x+1,___fladd@b+1
  2653  001D2A  C090  F01A         	movff	roundf@x+2,___fladd@b+2
  2654  001D2E  C091  F01B         	movff	roundf@x+3,___fladd@b+3
  2655  001D32  EC93  F007         	call	___fladd	;wreg free
  2656  001D36  C018  F09C         	movff	?___fladd,_roundf$3182
  2657  001D3A  C019  F09D         	movff	?___fladd+1,_roundf$3182+1
  2658  001D3E  C01A  F09E         	movff	?___fladd+2,_roundf$3182+2
  2659  001D42  C01B  F09F         	movff	?___fladd+3,_roundf$3182+3
  2660  001D46  0E00               	movlw	0
  2661  001D48  6E1C               	movwf	___fladd@a^0,c
  2662  001D4A  0E00               	movlw	0
  2663  001D4C  6E1D               	movwf	(___fladd@a+1)^0,c
  2664  001D4E  0E00               	movlw	0
  2665  001D50  6E1E               	movwf	(___fladd@a+2)^0,c
  2666  001D52  0ECB               	movlw	203
  2667  001D54  6E1F               	movwf	(___fladd@a+3)^0,c
  2668  001D56  C09C  F018         	movff	_roundf$3182,___fladd@b
  2669  001D5A  C09D  F019         	movff	_roundf$3182+1,___fladd@b+1
  2670  001D5E  C09E  F01A         	movff	_roundf$3182+2,___fladd@b+2
  2671  001D62  C09F  F01B         	movff	_roundf$3182+3,___fladd@b+3
  2672  001D66  EC93  F007         	call	___fladd	;wreg free
  2673  001D6A  C018  F096         	movff	?___fladd,_roundf$3183
  2674  001D6E  C019  F097         	movff	?___fladd+1,_roundf$3183+1
  2675  001D72  C01A  F098         	movff	?___fladd+2,_roundf$3183+2
  2676  001D76  C01B  F099         	movff	?___fladd+3,_roundf$3183+3
  2677  001D7A  C096  F028         	movff	_roundf$3183,___flsub@b
  2678  001D7E  C097  F029         	movff	_roundf$3183+1,___flsub@b+1
  2679  001D82  C098  F02A         	movff	_roundf$3183+2,___flsub@b+2
  2680  001D86  C099  F02B         	movff	_roundf$3183+3,___flsub@b+3
  2681  001D8A  C08E  F02C         	movff	roundf@x,___flsub@a
  2682  001D8E  C08F  F02D         	movff	roundf@x+1,___flsub@a+1
  2683  001D92  C090  F02E         	movff	roundf@x+2,___flsub@a+2
  2684  001D96  C091  F02F         	movff	roundf@x+3,___flsub@a+3
  2685  001D9A  EC7D  F01C         	call	___flsub	;wreg free
  2686  001D9E  C028  F0A4         	movff	?___flsub,roundf@y
  2687  001DA2  C029  F0A5         	movff	?___flsub+1,roundf@y+1
  2688  001DA6  C02A  F0A6         	movff	?___flsub+2,roundf@y+2
  2689  001DAA  C02B  F0A7         	movff	?___flsub+3,roundf@y+3
  2690  001DAE  0E00               	movlw	0
  2691  001DB0  6E18               	movwf	___flge@ff1^0,c
  2692  001DB2  0E00               	movlw	0
  2693  001DB4  6E19               	movwf	(___flge@ff1+1)^0,c
  2694  001DB6  0E00               	movlw	0
  2695  001DB8  6E1A               	movwf	(___flge@ff1+2)^0,c
  2696  001DBA  0E3F               	movlw	63
  2697  001DBC  6E1B               	movwf	(___flge@ff1+3)^0,c
  2698  001DBE  C0A4  F01C         	movff	roundf@y,___flge@ff2
  2699  001DC2  C0A5  F01D         	movff	roundf@y+1,___flge@ff2+1
  2700  001DC6  C0A6  F01E         	movff	roundf@y+2,___flge@ff2+2
  2701  001DCA  C0A7  F01F         	movff	roundf@y+3,___flge@ff2+3
  2702  001DCE  EC3E  F017         	call	___flge	;wreg free
  2703  001DD2  B0D8               	btfsc	status,0,c
  2704  001DD4  EFEE  F00E         	goto	u6061
  2705  001DD8  EFF0  F00E         	goto	u6060
  2706  001DDC                     u6061:
  2707  001DDC  EF26  F00F         	goto	l6418
  2708  001DE0                     u6060:
  2709  001DE0  C08E  F01C         	movff	roundf@x,___fladd@a
  2710  001DE4  C08F  F01D         	movff	roundf@x+1,___fladd@a+1
  2711  001DE8  C090  F01E         	movff	roundf@x+2,___fladd@a+2
  2712  001DEC  C091  F01F         	movff	roundf@x+3,___fladd@a+3
  2713  001DF0  C0A4  F018         	movff	roundf@y,___fladd@b
  2714  001DF4  C0A5  F019         	movff	roundf@y+1,___fladd@b+1
  2715  001DF8  C0A6  F01A         	movff	roundf@y+2,___fladd@b+2
  2716  001DFC  C0A7  F01B         	movff	roundf@y+3,___fladd@b+3
  2717  001E00  EC93  F007         	call	___fladd	;wreg free
  2718  001E04  C018  F09C         	movff	?___fladd,_roundf$3182
  2719  001E08  C019  F09D         	movff	?___fladd+1,_roundf$3182+1
  2720  001E0C  C01A  F09E         	movff	?___fladd+2,_roundf$3182+2
  2721  001E10  C01B  F09F         	movff	?___fladd+3,_roundf$3182+3
  2722  001E14  C09C  F018         	movff	_roundf$3182,___fladd@b
  2723  001E18  C09D  F019         	movff	_roundf$3182+1,___fladd@b+1
  2724  001E1C  C09E  F01A         	movff	_roundf$3182+2,___fladd@b+2
  2725  001E20  C09F  F01B         	movff	_roundf$3182+3,___fladd@b+3
  2726  001E24  0E00               	movlw	0
  2727  001E26  6E1C               	movwf	___fladd@a^0,c
  2728  001E28  0E00               	movlw	0
  2729  001E2A  6E1D               	movwf	(___fladd@a+1)^0,c
  2730  001E2C  0E80               	movlw	128
  2731  001E2E  6E1E               	movwf	(___fladd@a+2)^0,c
  2732  001E30  0EBF               	movlw	191
  2733  001E32  6E1F               	movwf	(___fladd@a+3)^0,c
  2734  001E34  EC93  F007         	call	___fladd	;wreg free
  2735  001E38  C018  F0A4         	movff	?___fladd,roundf@y
  2736  001E3C  C019  F0A5         	movff	?___fladd+1,roundf@y+1
  2737  001E40  C01A  F0A6         	movff	?___fladd+2,roundf@y+2
  2738  001E44  C01B  F0A7         	movff	?___fladd+3,roundf@y+3
  2739  001E48  EF8F  F00F         	goto	l6424
  2740  001E4C                     l6418:
  2741  001E4C  0E00               	movlw	0
  2742  001E4E  6E18               	movwf	___flge@ff1^0,c
  2743  001E50  0E00               	movlw	0
  2744  001E52  6E19               	movwf	(___flge@ff1+1)^0,c
  2745  001E54  0E00               	movlw	0
  2746  001E56  6E1A               	movwf	(___flge@ff1+2)^0,c
  2747  001E58  0EBF               	movlw	191
  2748  001E5A  6E1B               	movwf	(___flge@ff1+3)^0,c
  2749  001E5C  C0A4  F01C         	movff	roundf@y,___flge@ff2
  2750  001E60  C0A5  F01D         	movff	roundf@y+1,___flge@ff2+1
  2751  001E64  C0A6  F01E         	movff	roundf@y+2,___flge@ff2+2
  2752  001E68  C0A7  F01F         	movff	roundf@y+3,___flge@ff2+3
  2753  001E6C  EC3E  F017         	call	___flge	;wreg free
  2754  001E70  A0D8               	btfss	status,0,c
  2755  001E72  EF3D  F00F         	goto	u6071
  2756  001E76  EF3F  F00F         	goto	u6070
  2757  001E7A                     u6071:
  2758  001E7A  EF75  F00F         	goto	l6422
  2759  001E7E                     u6070:
  2760  001E7E  C08E  F01C         	movff	roundf@x,___fladd@a
  2761  001E82  C08F  F01D         	movff	roundf@x+1,___fladd@a+1
  2762  001E86  C090  F01E         	movff	roundf@x+2,___fladd@a+2
  2763  001E8A  C091  F01F         	movff	roundf@x+3,___fladd@a+3
  2764  001E8E  C0A4  F018         	movff	roundf@y,___fladd@b
  2765  001E92  C0A5  F019         	movff	roundf@y+1,___fladd@b+1
  2766  001E96  C0A6  F01A         	movff	roundf@y+2,___fladd@b+2
  2767  001E9A  C0A7  F01B         	movff	roundf@y+3,___fladd@b+3
  2768  001E9E  EC93  F007         	call	___fladd	;wreg free
  2769  001EA2  C018  F09C         	movff	?___fladd,_roundf$3182
  2770  001EA6  C019  F09D         	movff	?___fladd+1,_roundf$3182+1
  2771  001EAA  C01A  F09E         	movff	?___fladd+2,_roundf$3182+2
  2772  001EAE  C01B  F09F         	movff	?___fladd+3,_roundf$3182+3
  2773  001EB2  C09C  F018         	movff	_roundf$3182,___fladd@b
  2774  001EB6  C09D  F019         	movff	_roundf$3182+1,___fladd@b+1
  2775  001EBA  C09E  F01A         	movff	_roundf$3182+2,___fladd@b+2
  2776  001EBE  C09F  F01B         	movff	_roundf$3182+3,___fladd@b+3
  2777  001EC2  0E00               	movlw	0
  2778  001EC4  6E1C               	movwf	___fladd@a^0,c
  2779  001EC6  0E00               	movlw	0
  2780  001EC8  6E1D               	movwf	(___fladd@a+1)^0,c
  2781  001ECA  0E80               	movlw	128
  2782  001ECC  6E1E               	movwf	(___fladd@a+2)^0,c
  2783  001ECE  0E3F               	movlw	63
  2784  001ED0  6E1F               	movwf	(___fladd@a+3)^0,c
  2785  001ED2  EC93  F007         	call	___fladd	;wreg free
  2786  001ED6  C018  F0A4         	movff	?___fladd,roundf@y
  2787  001EDA  C019  F0A5         	movff	?___fladd+1,roundf@y+1
  2788  001EDE  C01A  F0A6         	movff	?___fladd+2,roundf@y+2
  2789  001EE2  C01B  F0A7         	movff	?___fladd+3,roundf@y+3
  2790  001EE6  EF8F  F00F         	goto	l6424
  2791  001EEA                     l6422:
  2792  001EEA  C0A4  F018         	movff	roundf@y,___fladd@b
  2793  001EEE  C0A5  F019         	movff	roundf@y+1,___fladd@b+1
  2794  001EF2  C0A6  F01A         	movff	roundf@y+2,___fladd@b+2
  2795  001EF6  C0A7  F01B         	movff	roundf@y+3,___fladd@b+3
  2796  001EFA  C08E  F01C         	movff	roundf@x,___fladd@a
  2797  001EFE  C08F  F01D         	movff	roundf@x+1,___fladd@a+1
  2798  001F02  C090  F01E         	movff	roundf@x+2,___fladd@a+2
  2799  001F06  C091  F01F         	movff	roundf@x+3,___fladd@a+3
  2800  001F0A  EC93  F007         	call	___fladd	;wreg free
  2801  001F0E  C018  F0A4         	movff	?___fladd,roundf@y
  2802  001F12  C019  F0A5         	movff	?___fladd+1,roundf@y+1
  2803  001F16  C01A  F0A6         	movff	?___fladd+2,roundf@y+2
  2804  001F1A  C01B  F0A7         	movff	?___fladd+3,roundf@y+3
  2805  001F1E                     l6424:
  2806  001F1E  C0A0  F092         	movff	roundf@u,??_roundf
  2807  001F22  C0A1  F093         	movff	roundf@u+1,??_roundf+1
  2808  001F26  C0A2  F094         	movff	roundf@u+2,??_roundf+2
  2809  001F2A  C0A3  F095         	movff	roundf@u+3,??_roundf+3
  2810  001F2E  0E20               	movlw	32
  2811  001F30  EFA0  F00F         	goto	u6080
  2812  001F34                     u6085:
  2813  001F34  0100               	movlb	0	; () banked
  2814  001F36  90D8               	bcf	status,0,c
  2815  001F38  3395               	rrcf	(??_roundf+3)& (0+255),f,b
  2816  001F3A  3394               	rrcf	(??_roundf+2)& (0+255),f,b
  2817  001F3C  3393               	rrcf	(??_roundf+1)& (0+255),f,b
  2818  001F3E  3392               	rrcf	??_roundf& (0+255),f,b
  2819  001F40                     u6080:
  2820  001F40  2EE8               	decfsz	wreg,f,c
  2821  001F42  EF9A  F00F         	goto	u6085
  2822  001F46  5192               	movf	??_roundf& (0+255),w,b
  2823  001F48  1193               	iorwf	(??_roundf+1)& (0+255),w,b
  2824  001F4A  1194               	iorwf	(??_roundf+2)& (0+255),w,b
  2825  001F4C  1195               	iorwf	(??_roundf+3)& (0+255),w,b
  2826  001F4E  B4D8               	btfsc	status,2,c
  2827  001F50  EFAC  F00F         	goto	u6091
  2828  001F54  EFAE  F00F         	goto	u6090
  2829  001F58                     u6091:
  2830  001F58  EFC0  F00F         	goto	l6428
  2831  001F5C                     u6090:
  2832  001F5C                     
  2833                           ; BSR set to: 0
  2834  001F5C  C0A4  F018         	movff	roundf@y,___flneg@f1
  2835  001F60  C0A5  F019         	movff	roundf@y+1,___flneg@f1+1
  2836  001F64  C0A6  F01A         	movff	roundf@y+2,___flneg@f1+2
  2837  001F68  C0A7  F01B         	movff	roundf@y+3,___flneg@f1+3
  2838  001F6C  EC1E  F01D         	call	___flneg	;wreg free
  2839  001F70  C018  F0A4         	movff	?___flneg,roundf@y
  2840  001F74  C019  F0A5         	movff	?___flneg+1,roundf@y+1
  2841  001F78  C01A  F0A6         	movff	?___flneg+2,roundf@y+2
  2842  001F7C  C01B  F0A7         	movff	?___flneg+3,roundf@y+3
  2843  001F80                     l6428:
  2844  001F80  C0A4  F08E         	movff	roundf@y,?_roundf
  2845  001F84  C0A5  F08F         	movff	roundf@y+1,?_roundf+1
  2846  001F88  C0A6  F090         	movff	roundf@y+2,?_roundf+2
  2847  001F8C  C0A7  F091         	movff	roundf@y+3,?_roundf+3
  2848  001F90                     l1767:
  2849  001F90  0012               	return		;funcret
  2850  001F92                     __end_of_roundf:
  2851                           	callstack 0
  2852                           
  2853 ;; *************** function ___flsub *****************
  2854 ;; Defined at:
  2855 ;;		line 245 in file "C:\Program Files\Microchip\xc8\v2.35\pic\sources\c99\common\sprcadd.c"
  2856 ;; Parameters:    Size  Location     Type
  2857 ;;  b               4   39[COMRAM] float 
  2858 ;;  a               4   43[COMRAM] float 
  2859 ;; Auto vars:     Size  Location     Type
  2860 ;;		None
  2861 ;; Return value:  Size  Location     Type
  2862 ;;                  4   39[COMRAM] float 
  2863 ;; Registers used:
  2864 ;;		wreg, status,2, status,0, cstack
  2865 ;; Tracked objects:
  2866 ;;		On entry : 0/0
  2867 ;;		On exit  : 0/0
  2868 ;;		Unchanged: 0/0
  2869 ;; Data sizes:     COMRAM   BANK0   BANK1   BANK2   BANK3   BANK4   BANK5   BANK6   BANK7   BANK8   BANK9  BANK10  BANK1
      +1  BANK12  BANK13  BANK14
  2870 ;;      Params:         8       0       0       0       0       0       0       0       0       0       0       0       
      +0       0       0       0
  2871 ;;      Locals:         0       0       0       0       0       0       0       0       0       0       0       0       
      +0       0       0       0
  2872 ;;      Temps:          0       0       0       0       0       0       0       0       0       0       0       0       
      +0       0       0       0
  2873 ;;      Totals:         8       0       0       0       0       0       0       0       0       0       0       0       
      +0       0       0       0
  2874 ;;Total ram usage:        8 bytes
  2875 ;; Hardware stack levels used: 1
  2876 ;; Hardware stack levels required when called: 8
  2877 ;; This function calls:
  2878 ;;		___fladd
  2879 ;; This function is called by:
  2880 ;;		_roundf
  2881 ;; This function uses a non-reentrant model
  2882 ;;
  2883                           
  2884                           	psect	text8
  2885  0038FA                     __ptext8:
  2886                           	callstack 0
  2887  0038FA                     ___flsub:
  2888                           	callstack 18
  2889  0038FA  0E00               	movlw	0
  2890  0038FC  1A2C               	xorwf	___flsub@a^0,f,c
  2891  0038FE  0E00               	movlw	0
  2892  003900  1A2D               	xorwf	(___flsub@a+1)^0,f,c
  2893  003902  0E00               	movlw	0
  2894  003904  1A2E               	xorwf	(___flsub@a+2)^0,f,c
  2895  003906  0E80               	movlw	128
  2896  003908  1A2F               	xorwf	(___flsub@a+3)^0,f,c
  2897  00390A  C028  F018         	movff	___flsub@b,___fladd@b
  2898  00390E  C029  F019         	movff	___flsub@b+1,___fladd@b+1
  2899  003912  C02A  F01A         	movff	___flsub@b+2,___fladd@b+2
  2900  003916  C02B  F01B         	movff	___flsub@b+3,___fladd@b+3
  2901  00391A  C02C  F01C         	movff	___flsub@a,___fladd@a
  2902  00391E  C02D  F01D         	movff	___flsub@a+1,___fladd@a+1
  2903  003922  C02E  F01E         	movff	___flsub@a+2,___fladd@a+2
  2904  003926  C02F  F01F         	movff	___flsub@a+3,___fladd@a+3
  2905  00392A  EC93  F007         	call	___fladd	;wreg free
  2906  00392E  C018  F028         	movff	?___fladd,?___flsub
  2907  003932  C019  F029         	movff	?___fladd+1,?___flsub+1
  2908  003936  C01A  F02A         	movff	?___fladd+2,?___flsub+2
  2909  00393A  C01B  F02B         	movff	?___fladd+3,?___flsub+3
  2910  00393E  0012               	return		;funcret
  2911  003940                     __end_of___flsub:
  2912                           	callstack 0
  2913                           
  2914 ;; *************** function ___fladd *****************
  2915 ;; Defined at:
  2916 ;;		line 10 in file "C:\Program Files\Microchip\xc8\v2.35\pic\sources\c99\common\sprcadd.c"
  2917 ;; Parameters:    Size  Location     Type
  2918 ;;  b               4   23[COMRAM] float 
  2919 ;;  a               4   27[COMRAM] float 
  2920 ;; Auto vars:     Size  Location     Type
  2921 ;;  grs             1   38[COMRAM] unsigned char 
  2922 ;;  bexp            1   37[COMRAM] unsigned char 
  2923 ;;  aexp            1   36[COMRAM] unsigned char 
  2924 ;;  signs           1   35[COMRAM] unsigned char 
  2925 ;; Return value:  Size  Location     Type
  2926 ;;                  4   23[COMRAM] unsigned char 
  2927 ;; Registers used:
  2928 ;;		wreg, status,2, status,0
  2929 ;; Tracked objects:
  2930 ;;		On entry : 0/0
  2931 ;;		On exit  : 0/0
  2932 ;;		Unchanged: 0/0
  2933 ;; Data sizes:     COMRAM   BANK0   BANK1   BANK2   BANK3   BANK4   BANK5   BANK6   BANK7   BANK8   BANK9  BANK10  BANK1
      +1  BANK12  BANK13  BANK14
  2934 ;;      Params:         8       0       0       0       0       0       0       0       0       0       0       0       
      +0       0       0       0
  2935 ;;      Locals:         4       0       0       0       0       0       0       0       0       0       0       0       
      +0       0       0       0
  2936 ;;      Temps:          4       0       0       0       0       0       0       0       0       0       0       0       
      +0       0       0       0
  2937 ;;      Totals:        16       0       0       0       0       0       0       0       0       0       0       0       
      +0       0       0       0
  2938 ;;Total ram usage:       16 bytes
  2939 ;; Hardware stack levels used: 1
  2940 ;; Hardware stack levels required when called: 7
  2941 ;; This function calls:
  2942 ;;		Nothing
  2943 ;; This function is called by:
  2944 ;;		___flsub
  2945 ;;		_roundf
  2946 ;; This function uses a non-reentrant model
  2947 ;;
  2948                           
  2949                           	psect	text9
  2950  000F26                     __ptext9:
  2951                           	callstack 0
  2952  000F26                     ___fladd:
  2953                           	callstack 18
  2954  000F26  501B               	movf	(___fladd@b+3)^0,w,c
  2955  000F28  0B80               	andlw	128
  2956  000F2A  6E24               	movwf	___fladd@signs^0,c
  2957  000F2C  501B               	movf	(___fladd@b+3)^0,w,c
  2958  000F2E  241B               	addwf	(___fladd@b+3)^0,w,c
  2959  000F30  6E26               	movwf	___fladd@bexp^0,c
  2960  000F32  AE1A               	btfss	(___fladd@b+2)^0,7,c
  2961  000F34  EF9E  F007         	goto	u5091
  2962  000F38  EFA0  F007         	goto	u5090
  2963  000F3C                     u5091:
  2964  000F3C  EFA1  F007         	goto	l5880
  2965  000F40                     u5090:
  2966  000F40  8026               	bsf	___fladd@bexp^0,0,c
  2967  000F42                     l5880:
  2968  000F42  5026               	movf	___fladd@bexp^0,w,c
  2969  000F44  B4D8               	btfsc	status,2,c
  2970  000F46  EFA7  F007         	goto	u5101
  2971  000F4A  EFA9  F007         	goto	u5100
  2972  000F4E                     u5101:
  2973  000F4E  EFBE  F007         	goto	l5890
  2974  000F52                     u5100:
  2975  000F52  2826               	incf	___fladd@bexp^0,w,c
  2976  000F54  A4D8               	btfss	status,2,c
  2977  000F56  EFAF  F007         	goto	u5111
  2978  000F5A  EFB1  F007         	goto	u5110
  2979  000F5E                     u5111:
  2980  000F5E  EFB9  F007         	goto	l5886
  2981  000F62                     u5110:
  2982  000F62  0E00               	movlw	0
  2983  000F64  6E18               	movwf	___fladd@b^0,c
  2984  000F66  0E00               	movlw	0
  2985  000F68  6E19               	movwf	(___fladd@b+1)^0,c
  2986  000F6A  0E00               	movlw	0
  2987  000F6C  6E1A               	movwf	(___fladd@b+2)^0,c
  2988  000F6E  0E00               	movlw	0
  2989  000F70  6E1B               	movwf	(___fladd@b+3)^0,c
  2990  000F72                     l5886:
  2991  000F72  8E1A               	bsf	(___fladd@b+2)^0,7,c
  2992  000F74  0E00               	movlw	0
  2993  000F76  6E1B               	movwf	(___fladd@b+3)^0,c
  2994  000F78  EFC6  F007         	goto	l5892
  2995  000F7C                     l5890:
  2996  000F7C  0E00               	movlw	0
  2997  000F7E  6E18               	movwf	___fladd@b^0,c
  2998  000F80  0E00               	movlw	0
  2999  000F82  6E19               	movwf	(___fladd@b+1)^0,c
  3000  000F84  0E00               	movlw	0
  3001  000F86  6E1A               	movwf	(___fladd@b+2)^0,c
  3002  000F88  0E00               	movlw	0
  3003  000F8A  6E1B               	movwf	(___fladd@b+3)^0,c
  3004  000F8C                     l5892:
  3005  000F8C  501F               	movf	(___fladd@a+3)^0,w,c
  3006  000F8E  0B80               	andlw	128
  3007  000F90  6E25               	movwf	___fladd@aexp^0,c
  3008  000F92  5024               	movf	___fladd@signs^0,w,c
  3009  000F94  1825               	xorwf	___fladd@aexp^0,w,c
  3010  000F96  B4D8               	btfsc	status,2,c
  3011  000F98  EFD0  F007         	goto	u5121
  3012  000F9C  EFD2  F007         	goto	u5120
  3013  000FA0                     u5121:
  3014  000FA0  EFD3  F007         	goto	l5898
  3015  000FA4                     u5120:
  3016  000FA4  8C24               	bsf	___fladd@signs^0,6,c
  3017  000FA6                     l5898:
  3018  000FA6  501F               	movf	(___fladd@a+3)^0,w,c
  3019  000FA8  241F               	addwf	(___fladd@a+3)^0,w,c
  3020  000FAA  6E25               	movwf	___fladd@aexp^0,c
  3021  000FAC  AE1E               	btfss	(___fladd@a+2)^0,7,c
  3022  000FAE  EFDB  F007         	goto	u5131
  3023  000FB2  EFDD  F007         	goto	u5130
  3024  000FB6                     u5131:
  3025  000FB6  EFDE  F007         	goto	l5904
  3026  000FBA                     u5130:
  3027  000FBA  8025               	bsf	___fladd@aexp^0,0,c
  3028  000FBC                     l5904:
  3029  000FBC  5025               	movf	___fladd@aexp^0,w,c
  3030  000FBE  B4D8               	btfsc	status,2,c
  3031  000FC0  EFE4  F007         	goto	u5141
  3032  000FC4  EFE6  F007         	goto	u5140
  3033  000FC8                     u5141:
  3034  000FC8  EFFB  F007         	goto	l5914
  3035  000FCC                     u5140:
  3036  000FCC  2825               	incf	___fladd@aexp^0,w,c
  3037  000FCE  A4D8               	btfss	status,2,c
  3038  000FD0  EFEC  F007         	goto	u5151
  3039  000FD4  EFEE  F007         	goto	u5150
  3040  000FD8                     u5151:
  3041  000FD8  EFF6  F007         	goto	l5910
  3042  000FDC                     u5150:
  3043  000FDC  0E00               	movlw	0
  3044  000FDE  6E1C               	movwf	___fladd@a^0,c
  3045  000FE0  0E00               	movlw	0
  3046  000FE2  6E1D               	movwf	(___fladd@a+1)^0,c
  3047  000FE4  0E00               	movlw	0
  3048  000FE6  6E1E               	movwf	(___fladd@a+2)^0,c
  3049  000FE8  0E00               	movlw	0
  3050  000FEA  6E1F               	movwf	(___fladd@a+3)^0,c
  3051  000FEC                     l5910:
  3052  000FEC  8E1E               	bsf	(___fladd@a+2)^0,7,c
  3053  000FEE  0E00               	movlw	0
  3054  000FF0  6E1F               	movwf	(___fladd@a+3)^0,c
  3055  000FF2  EF03  F008         	goto	l5916
  3056  000FF6                     l5914:
  3057  000FF6  0E00               	movlw	0
  3058  000FF8  6E1C               	movwf	___fladd@a^0,c
  3059  000FFA  0E00               	movlw	0
  3060  000FFC  6E1D               	movwf	(___fladd@a+1)^0,c
  3061  000FFE  0E00               	movlw	0
  3062  001000  6E1E               	movwf	(___fladd@a+2)^0,c
  3063  001002  0E00               	movlw	0
  3064  001004  6E1F               	movwf	(___fladd@a+3)^0,c
  3065  001006                     l5916:
  3066  001006  5026               	movf	___fladd@bexp^0,w,c
  3067  001008  5C25               	subwf	___fladd@aexp^0,w,c
  3068  00100A  B0D8               	btfsc	status,0,c
  3069  00100C  EF0A  F008         	goto	u5161
  3070  001010  EF0C  F008         	goto	u5160
  3071  001014                     u5161:
  3072  001014  EF33  F008         	goto	l5952
  3073  001018                     u5160:
  3074  001018  AC24               	btfss	___fladd@signs^0,6,c
  3075  00101A  EF11  F008         	goto	u5171
  3076  00101E  EF13  F008         	goto	u5170
  3077  001022                     u5171:
  3078  001022  EF15  F008         	goto	l5922
  3079  001026                     u5170:
  3080  001026  0E80               	movlw	128
  3081  001028  1A24               	xorwf	___fladd@signs^0,f,c
  3082  00102A                     l5922:
  3083  00102A  C026  F027         	movff	___fladd@bexp,___fladd@grs
  3084  00102E  C025  F026         	movff	___fladd@aexp,___fladd@bexp
  3085  001032  C027  F025         	movff	___fladd@grs,___fladd@aexp
  3086  001036  C018  F027         	movff	___fladd@b,___fladd@grs
  3087  00103A  C01C  F018         	movff	___fladd@a,___fladd@b
  3088  00103E  C027  F01C         	movff	___fladd@grs,___fladd@a
  3089  001042  C019  F027         	movff	___fladd@b+1,___fladd@grs
  3090  001046  C01D  F019         	movff	___fladd@a+1,___fladd@b+1
  3091  00104A  C027  F01D         	movff	___fladd@grs,___fladd@a+1
  3092  00104E  C01A  F027         	movff	___fladd@b+2,___fladd@grs
  3093  001052  C01E  F01A         	movff	___fladd@a+2,___fladd@b+2
  3094  001056  C027  F01E         	movff	___fladd@grs,___fladd@a+2
  3095  00105A  C01B  F027         	movff	___fladd@b+3,___fladd@grs
  3096  00105E  C01F  F01B         	movff	___fladd@a+3,___fladd@b+3
  3097  001062  C027  F01F         	movff	___fladd@grs,___fladd@a+3
  3098  001066                     l5952:
  3099  001066  0E00               	movlw	0
  3100  001068  6E27               	movwf	___fladd@grs^0,c
  3101  00106A  5026               	movf	___fladd@bexp^0,w,c
  3102  00106C  C025  F020         	movff	___fladd@aexp,??___fladd
  3103  001070  6A21               	clrf	(??___fladd+1)^0,c
  3104  001072  5E20               	subwf	??___fladd^0,f,c
  3105  001074  0E00               	movlw	0
  3106  001076  5A21               	subwfb	(??___fladd+1)^0,f,c
  3107  001078  BE21               	btfsc	(??___fladd+1)^0,7,c
  3108  00107A  EF48  F008         	goto	u5181
  3109  00107E  5021               	movf	(??___fladd+1)^0,w,c
  3110  001080  E109               	bnz	u5180
  3111  001082  0E1A               	movlw	26
  3112  001084  5C20               	subwf	??___fladd^0,w,c
  3113  001086  A0D8               	btfss	status,0,c
  3114  001088  EF48  F008         	goto	u5181
  3115  00108C  EF4A  F008         	goto	u5180
  3116  001090                     u5181:
  3117  001090  EF81  F008         	goto	l1583
  3118  001094                     u5180:
  3119  001094  5018               	movf	___fladd@b^0,w,c
  3120  001096  1019               	iorwf	(___fladd@b+1)^0,w,c
  3121  001098  101A               	iorwf	(___fladd@b+2)^0,w,c
  3122  00109A  101B               	iorwf	(___fladd@b+3)^0,w,c
  3123  00109C  A4D8               	btfss	status,2,c
  3124  00109E  EF53  F008         	goto	u5191
  3125  0010A2  EF56  F008         	goto	u5190
  3126  0010A6                     u5191:
  3127  0010A6  0E01               	movlw	1
  3128  0010A8  EF57  F008         	goto	u5200
  3129  0010AC                     u5190:
  3130  0010AC  0E00               	movlw	0
  3131  0010AE                     u5200:
  3132  0010AE  6E27               	movwf	___fladd@grs^0,c
  3133  0010B0  0E00               	movlw	0
  3134  0010B2  6E18               	movwf	___fladd@b^0,c
  3135  0010B4  0E00               	movlw	0
  3136  0010B6  6E19               	movwf	(___fladd@b+1)^0,c
  3137  0010B8  0E00               	movlw	0
  3138  0010BA  6E1A               	movwf	(___fladd@b+2)^0,c
  3139  0010BC  0E00               	movlw	0
  3140  0010BE  6E1B               	movwf	(___fladd@b+3)^0,c
  3141  0010C0  C025  F026         	movff	___fladd@aexp,___fladd@bexp
  3142  0010C4  EF8A  F008         	goto	l1582
  3143  0010C8                     l1584:
  3144  0010C8  A027               	btfss	___fladd@grs^0,0,c
  3145  0010CA  EF69  F008         	goto	u5211
  3146  0010CE  EF6B  F008         	goto	u5210
  3147  0010D2                     u5211:
  3148  0010D2  EF71  F008         	goto	l5964
  3149  0010D6                     u5210:
  3150  0010D6  90D8               	bcf	status,0,c
  3151  0010D8  3027               	rrcf	___fladd@grs^0,w,c
  3152  0010DA  0901               	iorlw	1
  3153  0010DC  6E27               	movwf	___fladd@grs^0,c
  3154  0010DE  EF73  F008         	goto	l5966
  3155  0010E2                     l5964:
  3156  0010E2  90D8               	bcf	status,0,c
  3157  0010E4  3227               	rrcf	___fladd@grs^0,f,c
  3158  0010E6                     l5966:
  3159  0010E6  A018               	btfss	___fladd@b^0,0,c
  3160  0010E8  EF78  F008         	goto	u5221
  3161  0010EC  EF7A  F008         	goto	u5220
  3162  0010F0                     u5221:
  3163  0010F0  EF7B  F008         	goto	l5970
  3164  0010F4                     u5220:
  3165  0010F4  8E27               	bsf	___fladd@grs^0,7,c
  3166  0010F6                     l5970:
  3167  0010F6  341B               	rlcf	(___fladd@b+3)^0,w,c
  3168  0010F8  321B               	rrcf	(___fladd@b+3)^0,f,c
  3169  0010FA  321A               	rrcf	(___fladd@b+2)^0,f,c
  3170  0010FC  3219               	rrcf	(___fladd@b+1)^0,f,c
  3171  0010FE  3218               	rrcf	___fladd@b^0,f,c
  3172  001100  2A26               	incf	___fladd@bexp^0,f,c
  3173  001102                     l1583:
  3174  001102  5025               	movf	___fladd@aexp^0,w,c
  3175  001104  5C26               	subwf	___fladd@bexp^0,w,c
  3176  001106  A0D8               	btfss	status,0,c
  3177  001108  EF88  F008         	goto	u5231
  3178  00110C  EF8A  F008         	goto	u5230
  3179  001110                     u5231:
  3180  001110  EF64  F008         	goto	l1584
  3181  001114                     u5230:
  3182  001114                     l1582:
  3183  001114  BC24               	btfsc	___fladd@signs^0,6,c
  3184  001116  EF8F  F008         	goto	u5241
  3185  00111A  EF91  F008         	goto	u5240
  3186  00111E                     u5241:
  3187  00111E  EFD1  F008         	goto	l5998
  3188  001122                     u5240:
  3189  001122  5026               	movf	___fladd@bexp^0,w,c
  3190  001124  A4D8               	btfss	status,2,c
  3191  001126  EF97  F008         	goto	u5251
  3192  00112A  EF99  F008         	goto	u5250
  3193  00112E                     u5251:
  3194  00112E  EFA3  F008         	goto	l5980
  3195  001132                     u5250:
  3196  001132  0E00               	movlw	0
  3197  001134  6E18               	movwf	?___fladd^0,c
  3198  001136  0E00               	movlw	0
  3199  001138  6E19               	movwf	(?___fladd+1)^0,c
  3200  00113A  0E00               	movlw	0
  3201  00113C  6E1A               	movwf	(?___fladd+2)^0,c
  3202  00113E  0E00               	movlw	0
  3203  001140  6E1B               	movwf	(?___fladd+3)^0,c
  3204  001142  EFF2  F009         	goto	l1591
  3205  001146                     l5980:
  3206  001146  501C               	movf	___fladd@a^0,w,c
  3207  001148  2618               	addwf	___fladd@b^0,f,c
  3208  00114A  501D               	movf	(___fladd@a+1)^0,w,c
  3209  00114C  2219               	addwfc	(___fladd@b+1)^0,f,c
  3210  00114E  501E               	movf	(___fladd@a+2)^0,w,c
  3211  001150  221A               	addwfc	(___fladd@b+2)^0,f,c
  3212  001152  501F               	movf	(___fladd@a+3)^0,w,c
  3213  001154  221B               	addwfc	(___fladd@b+3)^0,f,c
  3214  001156  A01B               	btfss	(___fladd@b+3)^0,0,c
  3215  001158  EFB0  F008         	goto	u5261
  3216  00115C  EFB2  F008         	goto	u5260
  3217  001160                     u5261:
  3218  001160  EF5E  F009         	goto	l6034
  3219  001164                     u5260:
  3220  001164  A027               	btfss	___fladd@grs^0,0,c
  3221  001166  EFB7  F008         	goto	u5271
  3222  00116A  EFB9  F008         	goto	u5270
  3223  00116E                     u5271:
  3224  00116E  EFBF  F008         	goto	l5988
  3225  001172                     u5270:
  3226  001172  90D8               	bcf	status,0,c
  3227  001174  3027               	rrcf	___fladd@grs^0,w,c
  3228  001176  0901               	iorlw	1
  3229  001178  6E27               	movwf	___fladd@grs^0,c
  3230  00117A  EFC1  F008         	goto	l5990
  3231  00117E                     l5988:
  3232  00117E  90D8               	bcf	status,0,c
  3233  001180  3227               	rrcf	___fladd@grs^0,f,c
  3234  001182                     l5990:
  3235  001182  A018               	btfss	___fladd@b^0,0,c
  3236  001184  EFC6  F008         	goto	u5281
  3237  001188  EFC8  F008         	goto	u5280
  3238  00118C                     u5281:
  3239  00118C  EFC9  F008         	goto	l5994
  3240  001190                     u5280:
  3241  001190  8E27               	bsf	___fladd@grs^0,7,c
  3242  001192                     l5994:
  3243  001192  341B               	rlcf	(___fladd@b+3)^0,w,c
  3244  001194  321B               	rrcf	(___fladd@b+3)^0,f,c
  3245  001196  321A               	rrcf	(___fladd@b+2)^0,f,c
  3246  001198  3219               	rrcf	(___fladd@b+1)^0,f,c
  3247  00119A  3218               	rrcf	___fladd@b^0,f,c
  3248  00119C  2A26               	incf	___fladd@bexp^0,f,c
  3249  00119E  EF5E  F009         	goto	l6034
  3250  0011A2                     l5998:
  3251  0011A2  501C               	movf	___fladd@a^0,w,c
  3252  0011A4  5C18               	subwf	___fladd@b^0,w,c
  3253  0011A6  501D               	movf	(___fladd@a+1)^0,w,c
  3254  0011A8  5819               	subwfb	(___fladd@b+1)^0,w,c
  3255  0011AA  501E               	movf	(___fladd@a+2)^0,w,c
  3256  0011AC  581A               	subwfb	(___fladd@b+2)^0,w,c
  3257  0011AE  501B               	movf	(___fladd@b+3)^0,w,c
  3258  0011B0  0A80               	xorlw	128
  3259  0011B2  6E20               	movwf	??___fladd^0,c
  3260  0011B4  501F               	movf	(___fladd@a+3)^0,w,c
  3261  0011B6  0A80               	xorlw	128
  3262  0011B8  5820               	subwfb	??___fladd^0,w,c
  3263  0011BA  B0D8               	btfsc	status,0,c
  3264  0011BC  EFE2  F008         	goto	u5291
  3265  0011C0  EFE4  F008         	goto	u5290
  3266  0011C4                     u5291:
  3267  0011C4  EF0F  F009         	goto	l6008
  3268  0011C8                     u5290:
  3269  0011C8  5018               	movf	___fladd@b^0,w,c
  3270  0011CA  5C1C               	subwf	___fladd@a^0,w,c
  3271  0011CC  6E20               	movwf	??___fladd^0,c
  3272  0011CE  5019               	movf	(___fladd@b+1)^0,w,c
  3273  0011D0  581D               	subwfb	(___fladd@a+1)^0,w,c
  3274  0011D2  6E21               	movwf	(??___fladd+1)^0,c
  3275  0011D4  501A               	movf	(___fladd@b+2)^0,w,c
  3276  0011D6  581E               	subwfb	(___fladd@a+2)^0,w,c
  3277  0011D8  6E22               	movwf	(??___fladd+2)^0,c
  3278  0011DA  501B               	movf	(___fladd@b+3)^0,w,c
  3279  0011DC  581F               	subwfb	(___fladd@a+3)^0,w,c
  3280  0011DE  6E23               	movwf	(??___fladd+3)^0,c
  3281  0011E0  0EFF               	movlw	255
  3282  0011E2  2420               	addwf	??___fladd^0,w,c
  3283  0011E4  6E18               	movwf	___fladd@b^0,c
  3284  0011E6  0EFF               	movlw	255
  3285  0011E8  2021               	addwfc	(??___fladd+1)^0,w,c
  3286  0011EA  6E19               	movwf	(___fladd@b+1)^0,c
  3287  0011EC  0EFF               	movlw	255
  3288  0011EE  2022               	addwfc	(??___fladd+2)^0,w,c
  3289  0011F0  6E1A               	movwf	(___fladd@b+2)^0,c
  3290  0011F2  0EFF               	movlw	255
  3291  0011F4  2023               	addwfc	(??___fladd+3)^0,w,c
  3292  0011F6  6E1B               	movwf	(___fladd@b+3)^0,c
  3293  0011F8  0E80               	movlw	128
  3294  0011FA  1A24               	xorwf	___fladd@signs^0,f,c
  3295  0011FC  6C27               	negf	___fladd@grs^0,c
  3296  0011FE  5027               	movf	___fladd@grs^0,w,c
  3297  001200  A4D8               	btfss	status,2,c
  3298  001202  EF05  F009         	goto	u5301
  3299  001206  EF07  F009         	goto	u5300
  3300  00120A                     u5301:
  3301  00120A  EF17  F009         	goto	l1599
  3302  00120E                     u5300:
  3303  00120E  0E01               	movlw	1
  3304  001210  2618               	addwf	___fladd@b^0,f,c
  3305  001212  0E00               	movlw	0
  3306  001214  2219               	addwfc	(___fladd@b+1)^0,f,c
  3307  001216  221A               	addwfc	(___fladd@b+2)^0,f,c
  3308  001218  221B               	addwfc	(___fladd@b+3)^0,f,c
  3309  00121A  EF17  F009         	goto	l1599
  3310  00121E                     l6008:
  3311  00121E  501C               	movf	___fladd@a^0,w,c
  3312  001220  5E18               	subwf	___fladd@b^0,f,c
  3313  001222  501D               	movf	(___fladd@a+1)^0,w,c
  3314  001224  5A19               	subwfb	(___fladd@b+1)^0,f,c
  3315  001226  501E               	movf	(___fladd@a+2)^0,w,c
  3316  001228  5A1A               	subwfb	(___fladd@b+2)^0,f,c
  3317  00122A  501F               	movf	(___fladd@a+3)^0,w,c
  3318  00122C  5A1B               	subwfb	(___fladd@b+3)^0,f,c
  3319  00122E                     l1599:
  3320  00122E  5018               	movf	___fladd@b^0,w,c
  3321  001230  1019               	iorwf	(___fladd@b+1)^0,w,c
  3322  001232  101A               	iorwf	(___fladd@b+2)^0,w,c
  3323  001234  101B               	iorwf	(___fladd@b+3)^0,w,c
  3324  001236  A4D8               	btfss	status,2,c
  3325  001238  EF20  F009         	goto	u5311
  3326  00123C  EF22  F009         	goto	u5310
  3327  001240                     u5311:
  3328  001240  EF57  F009         	goto	l6032
  3329  001244                     u5310:
  3330  001244  5027               	movf	___fladd@grs^0,w,c
  3331  001246  A4D8               	btfss	status,2,c
  3332  001248  EF28  F009         	goto	u5321
  3333  00124C  EF2A  F009         	goto	u5320
  3334  001250                     u5321:
  3335  001250  EF57  F009         	goto	l6032
  3336  001254                     u5320:
  3337  001254  0E00               	movlw	0
  3338  001256  6E18               	movwf	?___fladd^0,c
  3339  001258  0E00               	movlw	0
  3340  00125A  6E19               	movwf	(?___fladd+1)^0,c
  3341  00125C  0E00               	movlw	0
  3342  00125E  6E1A               	movwf	(?___fladd+2)^0,c
  3343  001260  0E00               	movlw	0
  3344  001262  6E1B               	movwf	(?___fladd+3)^0,c
  3345  001264  EFF2  F009         	goto	l1591
  3346  001268                     l6016:
  3347  001268  90D8               	bcf	status,0,c
  3348  00126A  3618               	rlcf	___fladd@b^0,f,c
  3349  00126C  3619               	rlcf	(___fladd@b+1)^0,f,c
  3350  00126E  361A               	rlcf	(___fladd@b+2)^0,f,c
  3351  001270  361B               	rlcf	(___fladd@b+3)^0,f,c
  3352  001272  AE27               	btfss	___fladd@grs^0,7,c
  3353  001274  EF3E  F009         	goto	u5331
  3354  001278  EF40  F009         	goto	u5330
  3355  00127C                     u5331:
  3356  00127C  EF41  F009         	goto	l6022
  3357  001280                     u5330:
  3358  001280  8018               	bsf	___fladd@b^0,0,c
  3359  001282                     l6022:
  3360  001282  A027               	btfss	___fladd@grs^0,0,c
  3361  001284  EF46  F009         	goto	u5341
  3362  001288  EF48  F009         	goto	u5340
  3363  00128C                     u5341:
  3364  00128C  EF4C  F009         	goto	l6026
  3365  001290                     u5340:
  3366  001290  80D8               	bsf	status,0,c
  3367  001292  3627               	rlcf	___fladd@grs^0,f,c
  3368  001294  EF4E  F009         	goto	l6028
  3369  001298                     l6026:
  3370  001298  90D8               	bcf	status,0,c
  3371  00129A  3627               	rlcf	___fladd@grs^0,f,c
  3372  00129C                     l6028:
  3373  00129C  5026               	movf	___fladd@bexp^0,w,c
  3374  00129E  B4D8               	btfsc	status,2,c
  3375  0012A0  EF54  F009         	goto	u5351
  3376  0012A4  EF56  F009         	goto	u5350
  3377  0012A8                     u5351:
  3378  0012A8  EF57  F009         	goto	l6032
  3379  0012AC                     u5350:
  3380  0012AC  0626               	decf	___fladd@bexp^0,f,c
  3381  0012AE                     l6032:
  3382  0012AE  AE1A               	btfss	(___fladd@b+2)^0,7,c
  3383  0012B0  EF5C  F009         	goto	u5361
  3384  0012B4  EF5E  F009         	goto	u5360
  3385  0012B8                     u5361:
  3386  0012B8  EF34  F009         	goto	l6016
  3387  0012BC                     u5360:
  3388  0012BC                     l6034:
  3389  0012BC  0E00               	movlw	0
  3390  0012BE  6E25               	movwf	___fladd@aexp^0,c
  3391  0012C0  AE27               	btfss	___fladd@grs^0,7,c
  3392  0012C2  EF65  F009         	goto	u5371
  3393  0012C6  EF67  F009         	goto	u5370
  3394  0012CA                     u5371:
  3395  0012CA  EF7F  F009         	goto	l1608
  3396  0012CE                     u5370:
  3397  0012CE  C027  F020         	movff	___fladd@grs,??___fladd
  3398  0012D2  0E7F               	movlw	127
  3399  0012D4  1620               	andwf	??___fladd^0,f,c
  3400  0012D6  B4D8               	btfsc	status,2,c
  3401  0012D8  EF70  F009         	goto	u5381
  3402  0012DC  EF72  F009         	goto	u5380
  3403  0012E0                     u5381:
  3404  0012E0  EF76  F009         	goto	l1609
  3405  0012E4                     u5380:
  3406  0012E4                     l6040:
  3407  0012E4  0E01               	movlw	1
  3408  0012E6  6E25               	movwf	___fladd@aexp^0,c
  3409  0012E8  EF7F  F009         	goto	l1608
  3410  0012EC                     l1609:
  3411  0012EC  A018               	btfss	___fladd@b^0,0,c
  3412  0012EE  EF7B  F009         	goto	u5391
  3413  0012F2  EF7D  F009         	goto	u5390
  3414  0012F6                     u5391:
  3415  0012F6  EF7F  F009         	goto	l1608
  3416  0012FA                     u5390:
  3417  0012FA  EF72  F009         	goto	l6040
  3418  0012FE                     l1608:
  3419  0012FE  5025               	movf	___fladd@aexp^0,w,c
  3420  001300  B4D8               	btfsc	status,2,c
  3421  001302  EF85  F009         	goto	u5401
  3422  001306  EF87  F009         	goto	u5400
  3423  00130A                     u5401:
  3424  00130A  EFB2  F009         	goto	l6052
  3425  00130E                     u5400:
  3426  00130E  0E01               	movlw	1
  3427  001310  2618               	addwf	___fladd@b^0,f,c
  3428  001312  0E00               	movlw	0
  3429  001314  2219               	addwfc	(___fladd@b+1)^0,f,c
  3430  001316  221A               	addwfc	(___fladd@b+2)^0,f,c
  3431  001318  221B               	addwfc	(___fladd@b+3)^0,f,c
  3432  00131A  A01B               	btfss	(___fladd@b+3)^0,0,c
  3433  00131C  EF92  F009         	goto	u5411
  3434  001320  EF94  F009         	goto	u5410
  3435  001324                     u5411:
  3436  001324  EFB2  F009         	goto	l6052
  3437  001328                     u5410:
  3438  001328  C018  F020         	movff	___fladd@b,??___fladd
  3439  00132C  C019  F021         	movff	___fladd@b+1,??___fladd+1
  3440  001330  C01A  F022         	movff	___fladd@b+2,??___fladd+2
  3441  001334  C01B  F023         	movff	___fladd@b+3,??___fladd+3
  3442  001338  3423               	rlcf	(??___fladd+3)^0,w,c
  3443  00133A  3223               	rrcf	(??___fladd+3)^0,f,c
  3444  00133C  3222               	rrcf	(??___fladd+2)^0,f,c
  3445  00133E  3221               	rrcf	(??___fladd+1)^0,f,c
  3446  001340  3220               	rrcf	??___fladd^0,f,c
  3447  001342  C020  F018         	movff	??___fladd,___fladd@b
  3448  001346  C021  F019         	movff	??___fladd+1,___fladd@b+1
  3449  00134A  C022  F01A         	movff	??___fladd+2,___fladd@b+2
  3450  00134E  C023  F01B         	movff	??___fladd+3,___fladd@b+3
  3451  001352  2826               	incf	___fladd@bexp^0,w,c
  3452  001354  B4D8               	btfsc	status,2,c
  3453  001356  EFAF  F009         	goto	u5421
  3454  00135A  EFB1  F009         	goto	u5420
  3455  00135E                     u5421:
  3456  00135E  EFB2  F009         	goto	l6052
  3457  001362                     u5420:
  3458  001362  2A26               	incf	___fladd@bexp^0,f,c
  3459  001364                     l6052:
  3460  001364  2826               	incf	___fladd@bexp^0,w,c
  3461  001366  B4D8               	btfsc	status,2,c
  3462  001368  EFB8  F009         	goto	u5431
  3463  00136C  EFBA  F009         	goto	u5430
  3464  001370                     u5431:
  3465  001370  EFC2  F009         	goto	l6056
  3466  001374                     u5430:
  3467  001374  5026               	movf	___fladd@bexp^0,w,c
  3468  001376  A4D8               	btfss	status,2,c
  3469  001378  EFC0  F009         	goto	u5441
  3470  00137C  EFC2  F009         	goto	u5440
  3471  001380                     u5441:
  3472  001380  EFD4  F009         	goto	l6060
  3473  001384                     u5440:
  3474  001384                     l6056:
  3475  001384  0E00               	movlw	0
  3476  001386  6E18               	movwf	___fladd@b^0,c
  3477  001388  0E00               	movlw	0
  3478  00138A  6E19               	movwf	(___fladd@b+1)^0,c
  3479  00138C  0E00               	movlw	0
  3480  00138E  6E1A               	movwf	(___fladd@b+2)^0,c
  3481  001390  0E00               	movlw	0
  3482  001392  6E1B               	movwf	(___fladd@b+3)^0,c
  3483  001394  5026               	movf	___fladd@bexp^0,w,c
  3484  001396  A4D8               	btfss	status,2,c
  3485  001398  EFD0  F009         	goto	u5451
  3486  00139C  EFD2  F009         	goto	u5450
  3487  0013A0                     u5451:
  3488  0013A0  EFD4  F009         	goto	l6060
  3489  0013A4                     u5450:
  3490  0013A4  0E00               	movlw	0
  3491  0013A6  6E24               	movwf	___fladd@signs^0,c
  3492  0013A8                     l6060:
  3493  0013A8  A026               	btfss	___fladd@bexp^0,0,c
  3494  0013AA  EFD9  F009         	goto	u5461
  3495  0013AE  EFDB  F009         	goto	u5460
  3496  0013B2                     u5461:
  3497  0013B2  EFDE  F009         	goto	l6064
  3498  0013B6                     u5460:
  3499  0013B6  8E1A               	bsf	(___fladd@b+2)^0,7,c
  3500  0013B8  EFDF  F009         	goto	l6066
  3501  0013BC                     l6064:
  3502  0013BC  9E1A               	bcf	(___fladd@b+2)^0,7,c
  3503  0013BE                     l6066:
  3504  0013BE  90D8               	bcf	status,0,c
  3505  0013C0  3026               	rrcf	___fladd@bexp^0,w,c
  3506  0013C2  6E1B               	movwf	(___fladd@b+3)^0,c
  3507  0013C4  AE24               	btfss	___fladd@signs^0,7,c
  3508  0013C6  EFE7  F009         	goto	u5471
  3509  0013CA  EFE9  F009         	goto	u5470
  3510  0013CE                     u5471:
  3511  0013CE  EFEA  F009         	goto	l6072
  3512  0013D2                     u5470:
  3513  0013D2  8E1B               	bsf	(___fladd@b+3)^0,7,c
  3514  0013D4                     l6072:
  3515  0013D4  C018  F018         	movff	___fladd@b,?___fladd
  3516  0013D8  C019  F019         	movff	___fladd@b+1,?___fladd+1
  3517  0013DC  C01A  F01A         	movff	___fladd@b+2,?___fladd+2
  3518  0013E0  C01B  F01B         	movff	___fladd@b+3,?___fladd+3
  3519  0013E4                     l1591:
  3520  0013E4  0012               	return		;funcret
  3521  0013E6                     __end_of___fladd:
  3522                           	callstack 0
  3523                           
  3524 ;; *************** function ___flneg *****************
  3525 ;; Defined at:
  3526 ;;		line 15 in file "C:\Program Files\Microchip\xc8\v2.35\pic\sources\c99\common\flneg.c"
  3527 ;; Parameters:    Size  Location     Type
  3528 ;;  f1              4   23[COMRAM] unsigned char 
  3529 ;; Auto vars:     Size  Location     Type
  3530 ;;		None
  3531 ;; Return value:  Size  Location     Type
  3532 ;;                  4   23[COMRAM] unsigned char 
  3533 ;; Registers used:
  3534 ;;		wreg, status,2, status,0
  3535 ;; Tracked objects:
  3536 ;;		On entry : 0/0
  3537 ;;		On exit  : 0/0
  3538 ;;		Unchanged: 0/0
  3539 ;; Data sizes:     COMRAM   BANK0   BANK1   BANK2   BANK3   BANK4   BANK5   BANK6   BANK7   BANK8   BANK9  BANK10  BANK1
      +1  BANK12  BANK13  BANK14
  3540 ;;      Params:         4       0       0       0       0       0       0       0       0       0       0       0       
      +0       0       0       0
  3541 ;;      Locals:         0       0       0       0       0       0       0       0       0       0       0       0       
      +0       0       0       0
  3542 ;;      Temps:          0       0       0       0       0       0       0       0       0       0       0       0       
      +0       0       0       0
  3543 ;;      Totals:         4       0       0       0       0       0       0       0       0       0       0       0       
      +0       0       0       0
  3544 ;;Total ram usage:        4 bytes
  3545 ;; Hardware stack levels used: 1
  3546 ;; Hardware stack levels required when called: 7
  3547 ;; This function calls:
  3548 ;;		Nothing
  3549 ;; This function is called by:
  3550 ;;		_roundf
  3551 ;; This function uses a non-reentrant model
  3552 ;;
  3553                           
  3554                           	psect	text10
  3555  003A3C                     __ptext10:
  3556                           	callstack 0
  3557  003A3C                     ___flneg:
  3558                           	callstack 19
  3559  003A3C  5018               	movf	___flneg@f1^0,w,c
  3560  003A3E  1019               	iorwf	(___flneg@f1+1)^0,w,c
  3561  003A40  101A               	iorwf	(___flneg@f1+2)^0,w,c
  3562  003A42  101B               	iorwf	(___flneg@f1+3)^0,w,c
  3563  003A44  B4D8               	btfsc	status,2,c
  3564  003A46  EF27  F01D         	goto	u5751
  3565  003A4A  EF29  F01D         	goto	u5750
  3566  003A4E                     u5751:
  3567  003A4E  EF31  F01D         	goto	l6268
  3568  003A52                     u5750:
  3569  003A52  0E00               	movlw	0
  3570  003A54  1A18               	xorwf	___flneg@f1^0,f,c
  3571  003A56  0E00               	movlw	0
  3572  003A58  1A19               	xorwf	(___flneg@f1+1)^0,f,c
  3573  003A5A  0E00               	movlw	0
  3574  003A5C  1A1A               	xorwf	(___flneg@f1+2)^0,f,c
  3575  003A5E  0E80               	movlw	128
  3576  003A60  1A1B               	xorwf	(___flneg@f1+3)^0,f,c
  3577  003A62                     l6268:
  3578  003A62  C018  F018         	movff	___flneg@f1,?___flneg
  3579  003A66  C019  F019         	movff	___flneg@f1+1,?___flneg+1
  3580  003A6A  C01A  F01A         	movff	___flneg@f1+2,?___flneg+2
  3581  003A6E  C01B  F01B         	movff	___flneg@f1+3,?___flneg+3
  3582  003A72  0012               	return		;funcret
  3583  003A74                     __end_of___flneg:
  3584                           	callstack 0
  3585                           
  3586 ;; *************** function _fminf *****************
  3587 ;; Defined at:
  3588 ;;		line 3 in file "C:\Program Files\Microchip\xc8\v2.35\pic\sources\c99\common\fminf.c"
  3589 ;; Parameters:    Size  Location     Type
  3590 ;;  x               4   21[BANK0 ] float 
  3591 ;;  y               4   25[BANK0 ] float 
  3592 ;; Auto vars:     Size  Location     Type
  3593 ;;		None
  3594 ;; Return value:  Size  Location     Type
  3595 ;;                  4   21[BANK0 ] float 
  3596 ;; Registers used:
  3597 ;;		wreg, status,2, status,0, cstack
  3598 ;; Tracked objects:
  3599 ;;		On entry : 0/0
  3600 ;;		On exit  : 0/0
  3601 ;;		Unchanged: 0/0
  3602 ;; Data sizes:     COMRAM   BANK0   BANK1   BANK2   BANK3   BANK4   BANK5   BANK6   BANK7   BANK8   BANK9  BANK10  BANK1
      +1  BANK12  BANK13  BANK14
  3603 ;;      Params:         0       8       0       0       0       0       0       0       0       0       0       0       
      +0       0       0       0
  3604 ;;      Locals:         0       0       0       0       0       0       0       0       0       0       0       0       
      +0       0       0       0
  3605 ;;      Temps:          0       2       0       0       0       0       0       0       0       0       0       0       
      +0       0       0       0
  3606 ;;      Totals:         0      10       0       0       0       0       0       0       0       0       0       0       
      +0       0       0       0
  3607 ;;Total ram usage:       10 bytes
  3608 ;; Hardware stack levels used: 1
  3609 ;; Hardware stack levels required when called: 8
  3610 ;; This function calls:
  3611 ;;		___flge
  3612 ;;		___fpclassifyf
  3613 ;;		___signbitf
  3614 ;; This function is called by:
  3615 ;;		_displayHR
  3616 ;; This function uses a non-reentrant model
  3617 ;;
  3618                           
  3619                           	psect	text11
  3620  002B46                     __ptext11:
  3621                           	callstack 0
  3622  002B46                     _fminf:
  3623                           	callstack 19
  3624  002B46  C075  F018         	movff	fminf@x,___fpclassifyf@x
  3625  002B4A  C076  F019         	movff	fminf@x+1,___fpclassifyf@x+1
  3626  002B4E  C077  F01A         	movff	fminf@x+2,___fpclassifyf@x+2
  3627  002B52  C078  F01B         	movff	fminf@x+3,___fpclassifyf@x+3
  3628  002B56  ECC0  F017         	call	___fpclassifyf	;wreg free
  3629  002B5A  5018               	movf	?___fpclassifyf^0,w,c
  3630  002B5C  1019               	iorwf	(?___fpclassifyf+1)^0,w,c
  3631  002B5E  A4D8               	btfss	status,2,c
  3632  002B60  EFB4  F015         	goto	u6101
  3633  002B64  EFB6  F015         	goto	u6100
  3634  002B68                     u6101:
  3635  002B68  EFC0  F015         	goto	l6436
  3636  002B6C                     u6100:
  3637  002B6C                     l6434:
  3638  002B6C  C079  F075         	movff	fminf@y,?_fminf
  3639  002B70  C07A  F076         	movff	fminf@y+1,?_fminf+1
  3640  002B74  C07B  F077         	movff	fminf@y+2,?_fminf+2
  3641  002B78  C07C  F078         	movff	fminf@y+3,?_fminf+3
  3642  002B7C  EF32  F016         	goto	l1733
  3643  002B80                     l6436:
  3644  002B80  C079  F018         	movff	fminf@y,___fpclassifyf@x
  3645  002B84  C07A  F019         	movff	fminf@y+1,___fpclassifyf@x+1
  3646  002B88  C07B  F01A         	movff	fminf@y+2,___fpclassifyf@x+2
  3647  002B8C  C07C  F01B         	movff	fminf@y+3,___fpclassifyf@x+3
  3648  002B90  ECC0  F017         	call	___fpclassifyf	;wreg free
  3649  002B94  5018               	movf	?___fpclassifyf^0,w,c
  3650  002B96  1019               	iorwf	(?___fpclassifyf+1)^0,w,c
  3651  002B98  A4D8               	btfss	status,2,c
  3652  002B9A  EFD1  F015         	goto	u6111
  3653  002B9E  EFD3  F015         	goto	u6110
  3654  002BA2                     u6111:
  3655  002BA2  EFDD  F015         	goto	l6440
  3656  002BA6                     u6110:
  3657  002BA6                     l6438:
  3658  002BA6  C075  F075         	movff	fminf@x,?_fminf
  3659  002BAA  C076  F076         	movff	fminf@x+1,?_fminf+1
  3660  002BAE  C077  F077         	movff	fminf@x+2,?_fminf+2
  3661  002BB2  C078  F078         	movff	fminf@x+3,?_fminf+3
  3662  002BB6  EF32  F016         	goto	l1733
  3663  002BBA                     l6440:
  3664  002BBA  C075  F018         	movff	fminf@x,___signbitf@x
  3665  002BBE  C076  F019         	movff	fminf@x+1,___signbitf@x+1
  3666  002BC2  C077  F01A         	movff	fminf@x+2,___signbitf@x+2
  3667  002BC6  C078  F01B         	movff	fminf@x+3,___signbitf@x+3
  3668  002BCA  EC55  F01C         	call	___signbitf	;wreg free
  3669  002BCE  C018  F07D         	movff	?___signbitf,??_fminf
  3670  002BD2  C019  F07E         	movff	?___signbitf+1,??_fminf+1
  3671  002BD6  C079  F018         	movff	fminf@y,___signbitf@x
  3672  002BDA  C07A  F019         	movff	fminf@y+1,___signbitf@x+1
  3673  002BDE  C07B  F01A         	movff	fminf@y+2,___signbitf@x+2
  3674  002BE2  C07C  F01B         	movff	fminf@y+3,___signbitf@x+3
  3675  002BE6  EC55  F01C         	call	___signbitf	;wreg free
  3676  002BEA  5018               	movf	?___signbitf^0,w,c
  3677  002BEC  0100               	movlb	0	; () banked
  3678  002BEE  197D               	xorwf	??_fminf& (0+255),w,b
  3679  002BF0  E109               	bnz	u6120
  3680  002BF2  5019               	movf	(?___signbitf+1)^0,w,c
  3681  002BF4  197E               	xorwf	(??_fminf+1)& (0+255),w,b
  3682  002BF6  B4D8               	btfsc	status,2,c
  3683  002BF8  EF00  F016         	goto	u6121
  3684  002BFC  EF02  F016         	goto	u6120
  3685  002C00                     u6121:
  3686  002C00  EF17  F016         	goto	l6446
  3687  002C04                     u6120:
  3688  002C04                     
  3689                           ; BSR set to: 0
  3690  002C04  C075  F018         	movff	fminf@x,___signbitf@x
  3691  002C08  C076  F019         	movff	fminf@x+1,___signbitf@x+1
  3692  002C0C  C077  F01A         	movff	fminf@x+2,___signbitf@x+2
  3693  002C10  C078  F01B         	movff	fminf@x+3,___signbitf@x+3
  3694  002C14  EC55  F01C         	call	___signbitf	;wreg free
  3695  002C18  5018               	movf	?___signbitf^0,w,c
  3696  002C1A  1019               	iorwf	(?___signbitf+1)^0,w,c
  3697  002C1C  A4D8               	btfss	status,2,c
  3698  002C1E  EF13  F016         	goto	u6131
  3699  002C22  EF15  F016         	goto	u6130
  3700  002C26                     u6131:
  3701  002C26  EFD3  F015         	goto	l6438
  3702  002C2A                     u6130:
  3703  002C2A  EFB6  F015         	goto	l6434
  3704  002C2E                     l6446:
  3705                           
  3706                           ; BSR set to: 0
  3707  002C2E  C075  F018         	movff	fminf@x,___flge@ff1
  3708  002C32  C076  F019         	movff	fminf@x+1,___flge@ff1+1
  3709  002C36  C077  F01A         	movff	fminf@x+2,___flge@ff1+2
  3710  002C3A  C078  F01B         	movff	fminf@x+3,___flge@ff1+3
  3711  002C3E  C079  F01C         	movff	fminf@y,___flge@ff2
  3712  002C42  C07A  F01D         	movff	fminf@y+1,___flge@ff2+1
  3713  002C46  C07B  F01E         	movff	fminf@y+2,___flge@ff2+2
  3714  002C4A  C07C  F01F         	movff	fminf@y+3,___flge@ff2+3
  3715  002C4E  EC3E  F017         	call	___flge	;wreg free
  3716  002C52  A0D8               	btfss	status,0,c
  3717  002C54  EF2E  F016         	goto	u6141
  3718  002C58  EF30  F016         	goto	u6140
  3719  002C5C                     u6141:
  3720  002C5C  EFD3  F015         	goto	l6438
  3721  002C60                     u6140:
  3722  002C60  EFB6  F015         	goto	l6434
  3723  002C64                     l1733:
  3724  002C64  0012               	return		;funcret
  3725  002C66                     __end_of_fminf:
  3726                           	callstack 0
  3727                           
  3728 ;; *************** function ___signbitf *****************
  3729 ;; Defined at:
  3730 ;;		line 4 in file "C:\Program Files\Microchip\xc8\v2.35\pic\sources\c99\common\__signbitf.c"
  3731 ;; Parameters:    Size  Location     Type
  3732 ;;  x               4   23[COMRAM] float 
  3733 ;; Auto vars:     Size  Location     Type
  3734 ;;  y               4   31[COMRAM] struct .
  3735 ;; Return value:  Size  Location     Type
  3736 ;;                  2   23[COMRAM] int 
  3737 ;; Registers used:
  3738 ;;		wreg, status,2, status,0
  3739 ;; Tracked objects:
  3740 ;;		On entry : 0/0
  3741 ;;		On exit  : 0/0
  3742 ;;		Unchanged: 0/0
  3743 ;; Data sizes:     COMRAM   BANK0   BANK1   BANK2   BANK3   BANK4   BANK5   BANK6   BANK7   BANK8   BANK9  BANK10  BANK1
      +1  BANK12  BANK13  BANK14
  3744 ;;      Params:         4       0       0       0       0       0       0       0       0       0       0       0       
      +0       0       0       0
  3745 ;;      Locals:         4       0       0       0       0       0       0       0       0       0       0       0       
      +0       0       0       0
  3746 ;;      Temps:          4       0       0       0       0       0       0       0       0       0       0       0       
      +0       0       0       0
  3747 ;;      Totals:        12       0       0       0       0       0       0       0       0       0       0       0       
      +0       0       0       0
  3748 ;;Total ram usage:       12 bytes
  3749 ;; Hardware stack levels used: 1
  3750 ;; Hardware stack levels required when called: 7
  3751 ;; This function calls:
  3752 ;;		Nothing
  3753 ;; This function is called by:
  3754 ;;		_fminf
  3755 ;; This function uses a non-reentrant model
  3756 ;;
  3757                           
  3758                           	psect	text12
  3759  0038AA                     __ptext12:
  3760                           	callstack 0
  3761  0038AA                     ___signbitf:
  3762                           	callstack 19
  3763  0038AA  C140  F020         	movff	___signbitf@F526,___signbitf@y
  3764  0038AE  C141  F021         	movff	___signbitf@F526+1,___signbitf@y+1
  3765  0038B2  C142  F022         	movff	___signbitf@F526+2,___signbitf@y+2
  3766  0038B6  C143  F023         	movff	___signbitf@F526+3,___signbitf@y+3
  3767  0038BA  C018  F020         	movff	___signbitf@x,___signbitf@y
  3768  0038BE  C019  F021         	movff	___signbitf@x+1,___signbitf@y+1
  3769  0038C2  C01A  F022         	movff	___signbitf@x+2,___signbitf@y+2
  3770  0038C6  C01B  F023         	movff	___signbitf@x+3,___signbitf@y+3
  3771  0038CA  C020  F01C         	movff	___signbitf@y,??___signbitf
  3772  0038CE  C021  F01D         	movff	___signbitf@y+1,??___signbitf+1
  3773  0038D2  C022  F01E         	movff	___signbitf@y+2,??___signbitf+2
  3774  0038D6  C023  F01F         	movff	___signbitf@y+3,??___signbitf+3
  3775  0038DA  0E20               	movlw	32
  3776  0038DC  EF75  F01C         	goto	u6000
  3777  0038E0                     u6005:
  3778  0038E0  90D8               	bcf	status,0,c
  3779  0038E2  321F               	rrcf	(??___signbitf+3)^0,f,c
  3780  0038E4  321E               	rrcf	(??___signbitf+2)^0,f,c
  3781  0038E6  321D               	rrcf	(??___signbitf+1)^0,f,c
  3782  0038E8  321C               	rrcf	??___signbitf^0,f,c
  3783  0038EA                     u6000:
  3784  0038EA  2EE8               	decfsz	wreg,f,c
  3785  0038EC  EF70  F01C         	goto	u6005
  3786  0038F0  C01C  F018         	movff	??___signbitf,?___signbitf
  3787  0038F4  C01D  F019         	movff	??___signbitf+1,?___signbitf+1
  3788  0038F8  0012               	return		;funcret
  3789  0038FA                     __end_of___signbitf:
  3790                           	callstack 0
  3791                           
  3792 ;; *************** function ___fpclassifyf *****************
  3793 ;; Defined at:
  3794 ;;		line 4 in file "C:\Program Files\Microchip\xc8\v2.35\pic\sources\c99\common\__fpclassifyf.c"
  3795 ;; Parameters:    Size  Location     Type
  3796 ;;  x               4   23[COMRAM] float 
  3797 ;; Auto vars:     Size  Location     Type
  3798 ;;  u               4   33[COMRAM] struct .
  3799 ;;  e               2   31[COMRAM] int 
  3800 ;; Return value:  Size  Location     Type
  3801 ;;                  2   23[COMRAM] int 
  3802 ;; Registers used:
  3803 ;;		wreg, status,2, status,0
  3804 ;; Tracked objects:
  3805 ;;		On entry : 0/0
  3806 ;;		On exit  : 0/0
  3807 ;;		Unchanged: 0/0
  3808 ;; Data sizes:     COMRAM   BANK0   BANK1   BANK2   BANK3   BANK4   BANK5   BANK6   BANK7   BANK8   BANK9  BANK10  BANK1
      +1  BANK12  BANK13  BANK14
  3809 ;;      Params:         4       0       0       0       0       0       0       0       0       0       0       0       
      +0       0       0       0
  3810 ;;      Locals:         6       0       0       0       0       0       0       0       0       0       0       0       
      +0       0       0       0
  3811 ;;      Temps:          4       0       0       0       0       0       0       0       0       0       0       0       
      +0       0       0       0
  3812 ;;      Totals:        14       0       0       0       0       0       0       0       0       0       0       0       
      +0       0       0       0
  3813 ;;Total ram usage:       14 bytes
  3814 ;; Hardware stack levels used: 1
  3815 ;; Hardware stack levels required when called: 7
  3816 ;; This function calls:
  3817 ;;		Nothing
  3818 ;; This function is called by:
  3819 ;;		_fminf
  3820 ;; This function uses a non-reentrant model
  3821 ;;
  3822                           
  3823                           	psect	text13
  3824  002F80                     __ptext13:
  3825                           	callstack 0
  3826  002F80                     ___fpclassifyf:
  3827                           	callstack 19
  3828  002F80  C032  F022         	movff	___fpclassifyf@F465,___fpclassifyf@u
  3829  002F84  C033  F023         	movff	___fpclassifyf@F465+1,___fpclassifyf@u+1
  3830  002F88  C034  F024         	movff	___fpclassifyf@F465+2,___fpclassifyf@u+2
  3831  002F8C  C035  F025         	movff	___fpclassifyf@F465+3,___fpclassifyf@u+3
  3832  002F90  C018  F022         	movff	___fpclassifyf@x,___fpclassifyf@u
  3833  002F94  C019  F023         	movff	___fpclassifyf@x+1,___fpclassifyf@u+1
  3834  002F98  C01A  F024         	movff	___fpclassifyf@x+2,___fpclassifyf@u+2
  3835  002F9C  C01B  F025         	movff	___fpclassifyf@x+3,___fpclassifyf@u+3
  3836  002FA0  C022  F01C         	movff	___fpclassifyf@u,??___fpclassifyf
  3837  002FA4  C023  F01D         	movff	___fpclassifyf@u+1,??___fpclassifyf+1
  3838  002FA8  C024  F01E         	movff	___fpclassifyf@u+2,??___fpclassifyf+2
  3839  002FAC  C025  F01F         	movff	___fpclassifyf@u+3,??___fpclassifyf+3
  3840  002FB0  0E18               	movlw	24
  3841  002FB2  EFE0  F017         	goto	u5930
  3842  002FB6                     u5935:
  3843  002FB6  90D8               	bcf	status,0,c
  3844  002FB8  321F               	rrcf	(??___fpclassifyf+3)^0,f,c
  3845  002FBA  321E               	rrcf	(??___fpclassifyf+2)^0,f,c
  3846  002FBC  321D               	rrcf	(??___fpclassifyf+1)^0,f,c
  3847  002FBE  321C               	rrcf	??___fpclassifyf^0,f,c
  3848  002FC0                     u5930:
  3849  002FC0  2EE8               	decfsz	wreg,f,c
  3850  002FC2  EFDB  F017         	goto	u5935
  3851  002FC6  501C               	movf	??___fpclassifyf^0,w,c
  3852  002FC8  6E20               	movwf	___fpclassifyf@e^0,c
  3853  002FCA  6A21               	clrf	(___fpclassifyf@e+1)^0,c
  3854  002FCC  5020               	movf	___fpclassifyf@e^0,w,c
  3855  002FCE  1021               	iorwf	(___fpclassifyf@e+1)^0,w,c
  3856  002FD0  A4D8               	btfss	status,2,c
  3857  002FD2  EFED  F017         	goto	u5941
  3858  002FD6  EFEF  F017         	goto	u5940
  3859  002FDA                     u5941:
  3860  002FDA  EF0F  F018         	goto	l6374
  3861  002FDE                     u5940:
  3862  002FDE  90D8               	bcf	status,0,c
  3863  002FE0  3422               	rlcf	___fpclassifyf@u^0,w,c
  3864  002FE2  6E1C               	movwf	??___fpclassifyf^0,c
  3865  002FE4  3423               	rlcf	(___fpclassifyf@u+1)^0,w,c
  3866  002FE6  6E1D               	movwf	(??___fpclassifyf+1)^0,c
  3867  002FE8  3424               	rlcf	(___fpclassifyf@u+2)^0,w,c
  3868  002FEA  6E1E               	movwf	(??___fpclassifyf+2)^0,c
  3869  002FEC  3425               	rlcf	(___fpclassifyf@u+3)^0,w,c
  3870  002FEE  6E1F               	movwf	(??___fpclassifyf+3)^0,c
  3871  002FF0  501C               	movf	??___fpclassifyf^0,w,c
  3872  002FF2  101D               	iorwf	(??___fpclassifyf+1)^0,w,c
  3873  002FF4  101E               	iorwf	(??___fpclassifyf+2)^0,w,c
  3874  002FF6  101F               	iorwf	(??___fpclassifyf+3)^0,w,c
  3875  002FF8  A4D8               	btfss	status,2,c
  3876  002FFA  EF01  F018         	goto	u5951
  3877  002FFE  EF03  F018         	goto	u5950
  3878  003002                     u5951:
  3879  003002  EF09  F018         	goto	l6370
  3880  003006                     u5950:
  3881  003006  0E00               	movlw	0
  3882  003008  6E19               	movwf	(?___fpclassifyf+1)^0,c
  3883  00300A  0E02               	movlw	2
  3884  00300C  6E18               	movwf	?___fpclassifyf^0,c
  3885  00300E  EF3E  F018         	goto	l1753
  3886  003012                     l6370:
  3887  003012  0E00               	movlw	0
  3888  003014  6E19               	movwf	(?___fpclassifyf+1)^0,c
  3889  003016  0E03               	movlw	3
  3890  003018  6E18               	movwf	?___fpclassifyf^0,c
  3891  00301A  EF3E  F018         	goto	l1753
  3892  00301E                     l6374:
  3893  00301E  2820               	incf	___fpclassifyf@e^0,w,c
  3894  003020  1021               	iorwf	(___fpclassifyf@e+1)^0,w,c
  3895  003022  A4D8               	btfss	status,2,c
  3896  003024  EF16  F018         	goto	u5961
  3897  003028  EF18  F018         	goto	u5960
  3898  00302C                     u5961:
  3899  00302C  EF3A  F018         	goto	l6380
  3900  003030                     u5960:
  3901  003030  C022  F01C         	movff	___fpclassifyf@u,??___fpclassifyf
  3902  003034  C023  F01D         	movff	___fpclassifyf@u+1,??___fpclassifyf+1
  3903  003038  C024  F01E         	movff	___fpclassifyf@u+2,??___fpclassifyf+2
  3904  00303C  C025  F01F         	movff	___fpclassifyf@u+3,??___fpclassifyf+3
  3905  003040  0E09               	movlw	9
  3906  003042                     u5975:
  3907  003042  90D8               	bcf	status,0,c
  3908  003044  361C               	rlcf	??___fpclassifyf^0,f,c
  3909  003046  361D               	rlcf	(??___fpclassifyf+1)^0,f,c
  3910  003048  361E               	rlcf	(??___fpclassifyf+2)^0,f,c
  3911  00304A  361F               	rlcf	(??___fpclassifyf+3)^0,f,c
  3912  00304C  2EE8               	decfsz	wreg,f,c
  3913  00304E  EF21  F018         	goto	u5975
  3914  003052  501C               	movf	??___fpclassifyf^0,w,c
  3915  003054  101D               	iorwf	(??___fpclassifyf+1)^0,w,c
  3916  003056  101E               	iorwf	(??___fpclassifyf+2)^0,w,c
  3917  003058  101F               	iorwf	(??___fpclassifyf+3)^0,w,c
  3918  00305A  B4D8               	btfsc	status,2,c
  3919  00305C  EF32  F018         	goto	u5981
  3920  003060  EF35  F018         	goto	u5980
  3921  003064                     u5981:
  3922  003064  0E01               	movlw	1
  3923  003066  EF36  F018         	goto	u5990
  3924  00306A                     u5980:
  3925  00306A  0E00               	movlw	0
  3926  00306C                     u5990:
  3927  00306C  6E18               	movwf	?___fpclassifyf^0,c
  3928  00306E  6A19               	clrf	(?___fpclassifyf+1)^0,c
  3929  003070  EF3E  F018         	goto	l1753
  3930  003074                     l6380:
  3931  003074  0E00               	movlw	0
  3932  003076  6E19               	movwf	(?___fpclassifyf+1)^0,c
  3933  003078  0E04               	movlw	4
  3934  00307A  6E18               	movwf	?___fpclassifyf^0,c
  3935  00307C                     l1753:
  3936  00307C  0012               	return		;funcret
  3937  00307E                     __end_of___fpclassifyf:
  3938                           	callstack 0
  3939                           
  3940 ;; *************** function ___flge *****************
  3941 ;; Defined at:
  3942 ;;		line 4 in file "C:\Program Files\Microchip\xc8\v2.35\pic\sources\c99\common\flge.c"
  3943 ;; Parameters:    Size  Location     Type
  3944 ;;  ff1             4   23[COMRAM] int 
  3945 ;;  ff2             4   27[COMRAM] int 
  3946 ;; Auto vars:     Size  Location     Type
  3947 ;;		None
  3948 ;; Return value:  Size  Location     Type
  3949 ;;		None               void
  3950 ;; Registers used:
  3951 ;;		wreg, status,2, status,0
  3952 ;; Tracked objects:
  3953 ;;		On entry : 0/0
  3954 ;;		On exit  : 0/0
  3955 ;;		Unchanged: 0/0
  3956 ;; Data sizes:     COMRAM   BANK0   BANK1   BANK2   BANK3   BANK4   BANK5   BANK6   BANK7   BANK8   BANK9  BANK10  BANK1
      +1  BANK12  BANK13  BANK14
  3957 ;;      Params:         8       0       0       0       0       0       0       0       0       0       0       0       
      +0       0       0       0
  3958 ;;      Locals:         0       0       0       0       0       0       0       0       0       0       0       0       
      +0       0       0       0
  3959 ;;      Temps:          4       0       0       0       0       0       0       0       0       0       0       0       
      +0       0       0       0
  3960 ;;      Totals:        12       0       0       0       0       0       0       0       0       0       0       0       
      +0       0       0       0
  3961 ;;Total ram usage:       12 bytes
  3962 ;; Hardware stack levels used: 1
  3963 ;; Hardware stack levels required when called: 7
  3964 ;; This function calls:
  3965 ;;		Nothing
  3966 ;; This function is called by:
  3967 ;;		_fminf
  3968 ;;		_roundf
  3969 ;; This function uses a non-reentrant model
  3970 ;;
  3971                           
  3972                           	psect	text14
  3973  002E7C                     __ptext14:
  3974                           	callstack 0
  3975  002E7C                     ___flge:
  3976                           	callstack 19
  3977  002E7C  0E00               	movlw	0
  3978  002E7E  1418               	andwf	___flge@ff1^0,w,c
  3979  002E80  6E20               	movwf	??___flge^0,c
  3980  002E82  0E00               	movlw	0
  3981  002E84  1419               	andwf	(___flge@ff1+1)^0,w,c
  3982  002E86  6E21               	movwf	(??___flge+1)^0,c
  3983  002E88  0E80               	movlw	128
  3984  002E8A  141A               	andwf	(___flge@ff1+2)^0,w,c
  3985  002E8C  6E22               	movwf	(??___flge+2)^0,c
  3986  002E8E  0E7F               	movlw	127
  3987  002E90  141B               	andwf	(___flge@ff1+3)^0,w,c
  3988  002E92  6E23               	movwf	(??___flge+3)^0,c
  3989  002E94  5020               	movf	??___flge^0,w,c
  3990  002E96  1021               	iorwf	(??___flge+1)^0,w,c
  3991  002E98  1022               	iorwf	(??___flge+2)^0,w,c
  3992  002E9A  1023               	iorwf	(??___flge+3)^0,w,c
  3993  002E9C  A4D8               	btfss	status,2,c
  3994  002E9E  EF53  F017         	goto	u5701
  3995  002EA2  EF55  F017         	goto	u5700
  3996  002EA6                     u5701:
  3997  002EA6  EF5D  F017         	goto	l6246
  3998  002EAA                     u5700:
  3999  002EAA  0E00               	movlw	0
  4000  002EAC  6E18               	movwf	___flge@ff1^0,c
  4001  002EAE  0E00               	movlw	0
  4002  002EB0  6E19               	movwf	(___flge@ff1+1)^0,c
  4003  002EB2  0E00               	movlw	0
  4004  002EB4  6E1A               	movwf	(___flge@ff1+2)^0,c
  4005  002EB6  0E00               	movlw	0
  4006  002EB8  6E1B               	movwf	(___flge@ff1+3)^0,c
  4007  002EBA                     l6246:
  4008  002EBA  0E00               	movlw	0
  4009  002EBC  141C               	andwf	___flge@ff2^0,w,c
  4010  002EBE  6E20               	movwf	??___flge^0,c
  4011  002EC0  0E00               	movlw	0
  4012  002EC2  141D               	andwf	(___flge@ff2+1)^0,w,c
  4013  002EC4  6E21               	movwf	(??___flge+1)^0,c
  4014  002EC6  0E80               	movlw	128
  4015  002EC8  141E               	andwf	(___flge@ff2+2)^0,w,c
  4016  002ECA  6E22               	movwf	(??___flge+2)^0,c
  4017  002ECC  0E7F               	movlw	127
  4018  002ECE  141F               	andwf	(___flge@ff2+3)^0,w,c
  4019  002ED0  6E23               	movwf	(??___flge+3)^0,c
  4020  002ED2  5020               	movf	??___flge^0,w,c
  4021  002ED4  1021               	iorwf	(??___flge+1)^0,w,c
  4022  002ED6  1022               	iorwf	(??___flge+2)^0,w,c
  4023  002ED8  1023               	iorwf	(??___flge+3)^0,w,c
  4024  002EDA  A4D8               	btfss	status,2,c
  4025  002EDC  EF72  F017         	goto	u5711
  4026  002EE0  EF74  F017         	goto	u5710
  4027  002EE4                     u5711:
  4028  002EE4  EF7C  F017         	goto	l6250
  4029  002EE8                     u5710:
  4030  002EE8  0E00               	movlw	0
  4031  002EEA  6E1C               	movwf	___flge@ff2^0,c
  4032  002EEC  0E00               	movlw	0
  4033  002EEE  6E1D               	movwf	(___flge@ff2+1)^0,c
  4034  002EF0  0E00               	movlw	0
  4035  002EF2  6E1E               	movwf	(___flge@ff2+2)^0,c
  4036  002EF4  0E00               	movlw	0
  4037  002EF6  6E1F               	movwf	(___flge@ff2+3)^0,c
  4038  002EF8                     l6250:
  4039  002EF8  AE1B               	btfss	(___flge@ff1+3)^0,7,c
  4040  002EFA  EF81  F017         	goto	u5721
  4041  002EFE  EF83  F017         	goto	u5720
  4042  002F02                     u5721:
  4043  002F02  EF8C  F017         	goto	l6254
  4044  002F06                     u5720:
  4045  002F06  6C18               	negf	___flge@ff1^0,c
  4046  002F08  1E19               	comf	(___flge@ff1+1)^0,f,c
  4047  002F0A  B0D8               	btfsc	status,0,c
  4048  002F0C  2A19               	incf	(___flge@ff1+1)^0,f,c
  4049  002F0E  1E1A               	comf	(___flge@ff1+2)^0,f,c
  4050  002F10  B0D8               	btfsc	status,0,c
  4051  002F12  2A1A               	incf	(___flge@ff1+2)^0,f,c
  4052  002F14  0E80               	movlw	128
  4053  002F16  561B               	subfwb	(___flge@ff1+3)^0,f,c
  4054  002F18                     l6254:
  4055  002F18  AE1F               	btfss	(___flge@ff2+3)^0,7,c
  4056  002F1A  EF91  F017         	goto	u5731
  4057  002F1E  EF93  F017         	goto	u5730
  4058  002F22                     u5731:
  4059  002F22  EF9C  F017         	goto	l1319
  4060  002F26                     u5730:
  4061  002F26  6C1C               	negf	___flge@ff2^0,c
  4062  002F28  1E1D               	comf	(___flge@ff2+1)^0,f,c
  4063  002F2A  B0D8               	btfsc	status,0,c
  4064  002F2C  2A1D               	incf	(___flge@ff2+1)^0,f,c
  4065  002F2E  1E1E               	comf	(___flge@ff2+2)^0,f,c
  4066  002F30  B0D8               	btfsc	status,0,c
  4067  002F32  2A1E               	incf	(___flge@ff2+2)^0,f,c
  4068  002F34  0E80               	movlw	128
  4069  002F36  561F               	subfwb	(___flge@ff2+3)^0,f,c
  4070  002F38                     l1319:
  4071  002F38  0E00               	movlw	0
  4072  002F3A  1A18               	xorwf	___flge@ff1^0,f,c
  4073  002F3C  0E00               	movlw	0
  4074  002F3E  1A19               	xorwf	(___flge@ff1+1)^0,f,c
  4075  002F40  0E00               	movlw	0
  4076  002F42  1A1A               	xorwf	(___flge@ff1+2)^0,f,c
  4077  002F44  0E80               	movlw	128
  4078  002F46  1A1B               	xorwf	(___flge@ff1+3)^0,f,c
  4079  002F48  0E00               	movlw	0
  4080  002F4A  1A1C               	xorwf	___flge@ff2^0,f,c
  4081  002F4C  0E00               	movlw	0
  4082  002F4E  1A1D               	xorwf	(___flge@ff2+1)^0,f,c
  4083  002F50  0E00               	movlw	0
  4084  002F52  1A1E               	xorwf	(___flge@ff2+2)^0,f,c
  4085  002F54  0E80               	movlw	128
  4086  002F56  1A1F               	xorwf	(___flge@ff2+3)^0,f,c
  4087  002F58  501C               	movf	___flge@ff2^0,w,c
  4088  002F5A  5C18               	subwf	___flge@ff1^0,w,c
  4089  002F5C  501D               	movf	(___flge@ff2+1)^0,w,c
  4090  002F5E  5819               	subwfb	(___flge@ff1+1)^0,w,c
  4091  002F60  501E               	movf	(___flge@ff2+2)^0,w,c
  4092  002F62  581A               	subwfb	(___flge@ff1+2)^0,w,c
  4093  002F64  501F               	movf	(___flge@ff2+3)^0,w,c
  4094  002F66  581B               	subwfb	(___flge@ff1+3)^0,w,c
  4095  002F68  B0D8               	btfsc	status,0,c
  4096  002F6A  EFB9  F017         	goto	u5741
  4097  002F6E  EFBB  F017         	goto	u5740
  4098  002F72                     u5741:
  4099  002F72  EFBE  F017         	goto	l6260
  4100  002F76                     u5740:
  4101  002F76  90D8               	bcf	status,0,c
  4102  002F78  EFBF  F017         	goto	l1324
  4103  002F7C                     l6260:
  4104  002F7C  80D8               	bsf	status,0,c
  4105  002F7E                     l1324:
  4106  002F7E  0012               	return		;funcret
  4107  002F80                     __end_of___flge:
  4108                           	callstack 0
  4109                           
  4110 ;; *************** function ___fldiv *****************
  4111 ;; Defined at:
  4112 ;;		line 11 in file "C:\Program Files\Microchip\xc8\v2.35\pic\sources\c99\common\sprcdiv.c"
  4113 ;; Parameters:    Size  Location     Type
  4114 ;;  b               4   21[BANK0 ] int 
  4115 ;;  a               4   25[BANK0 ] int 
  4116 ;; Auto vars:     Size  Location     Type
  4117 ;;  grs             4   40[BANK0 ] unsigned long 
  4118 ;;  rem             4   33[BANK0 ] unsigned long 
  4119 ;;  new_exp         2   38[BANK0 ] short 
  4120 ;;  aexp            1   45[BANK0 ] unsigned char 
  4121 ;;  bexp            1   44[BANK0 ] unsigned char 
  4122 ;;  sign            1   37[BANK0 ] unsigned char 
  4123 ;; Return value:  Size  Location     Type
  4124 ;;                  4   21[BANK0 ] unsigned char 
  4125 ;; Registers used:
  4126 ;;		wreg, status,2, status,0
  4127 ;; Tracked objects:
  4128 ;;		On entry : 0/0
  4129 ;;		On exit  : 0/0
  4130 ;;		Unchanged: 0/0
  4131 ;; Data sizes:     COMRAM   BANK0   BANK1   BANK2   BANK3   BANK4   BANK5   BANK6   BANK7   BANK8   BANK9  BANK10  BANK1
      +1  BANK12  BANK13  BANK14
  4132 ;;      Params:         0       8       0       0       0       0       0       0       0       0       0       0       
      +0       0       0       0
  4133 ;;      Locals:         0      13       0       0       0       0       0       0       0       0       0       0       
      +0       0       0       0
  4134 ;;      Temps:          0       4       0       0       0       0       0       0       0       0       0       0       
      +0       0       0       0
  4135 ;;      Totals:         0      25       0       0       0       0       0       0       0       0       0       0       
      +0       0       0       0
  4136 ;;Total ram usage:       25 bytes
  4137 ;; Hardware stack levels used: 1
  4138 ;; Hardware stack levels required when called: 7
  4139 ;; This function calls:
  4140 ;;		Nothing
  4141 ;; This function is called by:
  4142 ;;		_displayHR
  4143 ;; This function uses a non-reentrant model
  4144 ;;
  4145                           
  4146                           	psect	text15
  4147  001F92                     __ptext15:
  4148                           	callstack 0
  4149  001F92                     ___fldiv:
  4150                           	callstack 20
  4151  001F92  0100               	movlb	0	; () banked
  4152  001F94  5178               	movf	(___fldiv@b+3)& (0+255),w,b
  4153  001F96  0B80               	andlw	128
  4154  001F98  6F85               	movwf	___fldiv@sign& (0+255),b
  4155  001F9A  5178               	movf	(___fldiv@b+3)& (0+255),w,b
  4156  001F9C  2578               	addwf	(___fldiv@b+3)& (0+255),w,b
  4157  001F9E  6F8C               	movwf	___fldiv@bexp& (0+255),b
  4158  001FA0                     
  4159                           ; BSR set to: 0
  4160  001FA0  AF77               	btfss	(___fldiv@b+2)& (0+255),7,b
  4161  001FA2  EFD5  F00F         	goto	u6181
  4162  001FA6  EFD7  F00F         	goto	u6180
  4163  001FAA                     u6181:
  4164  001FAA  EFD8  F00F         	goto	l6492
  4165  001FAE                     u6180:
  4166  001FAE                     
  4167                           ; BSR set to: 0
  4168  001FAE  818C               	bsf	___fldiv@bexp& (0+255),0,b
  4169  001FB0                     l6492:
  4170                           
  4171                           ; BSR set to: 0
  4172  001FB0  518C               	movf	___fldiv@bexp& (0+255),w,b
  4173  001FB2  B4D8               	btfsc	status,2,c
  4174  001FB4  EFDE  F00F         	goto	u6191
  4175  001FB8  EFE0  F00F         	goto	u6190
  4176  001FBC                     u6191:
  4177  001FBC  EFF5  F00F         	goto	l6502
  4178  001FC0                     u6190:
  4179  001FC0                     
  4180                           ; BSR set to: 0
  4181  001FC0  298C               	incf	___fldiv@bexp& (0+255),w,b
  4182  001FC2  A4D8               	btfss	status,2,c
  4183  001FC4  EFE6  F00F         	goto	u6201
  4184  001FC8  EFE8  F00F         	goto	u6200
  4185  001FCC                     u6201:
  4186  001FCC  EFF0  F00F         	goto	l6498
  4187  001FD0                     u6200:
  4188  001FD0                     
  4189                           ; BSR set to: 0
  4190  001FD0  0E00               	movlw	0
  4191  001FD2  6F75               	movwf	___fldiv@b& (0+255),b
  4192  001FD4  0E00               	movlw	0
  4193  001FD6  6F76               	movwf	(___fldiv@b+1)& (0+255),b
  4194  001FD8  0E00               	movlw	0
  4195  001FDA  6F77               	movwf	(___fldiv@b+2)& (0+255),b
  4196  001FDC  0E00               	movlw	0
  4197  001FDE  6F78               	movwf	(___fldiv@b+3)& (0+255),b
  4198  001FE0                     l6498:
  4199                           
  4200                           ; BSR set to: 0
  4201  001FE0  8F77               	bsf	(___fldiv@b+2)& (0+255),7,b
  4202  001FE2                     
  4203                           ; BSR set to: 0
  4204  001FE2  0E00               	movlw	0
  4205  001FE4  6F78               	movwf	(___fldiv@b+3)& (0+255),b
  4206  001FE6  EFFD  F00F         	goto	l6504
  4207  001FEA                     l6502:
  4208                           
  4209                           ; BSR set to: 0
  4210  001FEA  0E00               	movlw	0
  4211  001FEC  6F75               	movwf	___fldiv@b& (0+255),b
  4212  001FEE  0E00               	movlw	0
  4213  001FF0  6F76               	movwf	(___fldiv@b+1)& (0+255),b
  4214  001FF2  0E00               	movlw	0
  4215  001FF4  6F77               	movwf	(___fldiv@b+2)& (0+255),b
  4216  001FF6  0E00               	movlw	0
  4217  001FF8  6F78               	movwf	(___fldiv@b+3)& (0+255),b
  4218  001FFA                     l6504:
  4219                           
  4220                           ; BSR set to: 0
  4221  001FFA  517C               	movf	(___fldiv@a+3)& (0+255),w,b
  4222  001FFC  0B80               	andlw	128
  4223  001FFE  1B85               	xorwf	___fldiv@sign& (0+255),f,b
  4224  002000                     
  4225                           ; BSR set to: 0
  4226  002000  517C               	movf	(___fldiv@a+3)& (0+255),w,b
  4227  002002  257C               	addwf	(___fldiv@a+3)& (0+255),w,b
  4228  002004  6F8D               	movwf	___fldiv@aexp& (0+255),b
  4229  002006                     
  4230                           ; BSR set to: 0
  4231  002006  AF7B               	btfss	(___fldiv@a+2)& (0+255),7,b
  4232  002008  EF08  F010         	goto	u6211
  4233  00200C  EF0A  F010         	goto	u6210
  4234  002010                     u6211:
  4235  002010  EF0B  F010         	goto	l6512
  4236  002014                     u6210:
  4237  002014                     
  4238                           ; BSR set to: 0
  4239  002014  818D               	bsf	___fldiv@aexp& (0+255),0,b
  4240  002016                     l6512:
  4241                           
  4242                           ; BSR set to: 0
  4243  002016  518D               	movf	___fldiv@aexp& (0+255),w,b
  4244  002018  B4D8               	btfsc	status,2,c
  4245  00201A  EF11  F010         	goto	u6221
  4246  00201E  EF13  F010         	goto	u6220
  4247  002022                     u6221:
  4248  002022  EF28  F010         	goto	l6522
  4249  002026                     u6220:
  4250  002026                     
  4251                           ; BSR set to: 0
  4252  002026  298D               	incf	___fldiv@aexp& (0+255),w,b
  4253  002028  A4D8               	btfss	status,2,c
  4254  00202A  EF19  F010         	goto	u6231
  4255  00202E  EF1B  F010         	goto	u6230
  4256  002032                     u6231:
  4257  002032  EF23  F010         	goto	l6518
  4258  002036                     u6230:
  4259  002036                     
  4260                           ; BSR set to: 0
  4261  002036  0E00               	movlw	0
  4262  002038  6F79               	movwf	___fldiv@a& (0+255),b
  4263  00203A  0E00               	movlw	0
  4264  00203C  6F7A               	movwf	(___fldiv@a+1)& (0+255),b
  4265  00203E  0E00               	movlw	0
  4266  002040  6F7B               	movwf	(___fldiv@a+2)& (0+255),b
  4267  002042  0E00               	movlw	0
  4268  002044  6F7C               	movwf	(___fldiv@a+3)& (0+255),b
  4269  002046                     l6518:
  4270                           
  4271                           ; BSR set to: 0
  4272  002046  8F7B               	bsf	(___fldiv@a+2)& (0+255),7,b
  4273  002048                     
  4274                           ; BSR set to: 0
  4275  002048  0E00               	movlw	0
  4276  00204A  6F7C               	movwf	(___fldiv@a+3)& (0+255),b
  4277  00204C  EF30  F010         	goto	l6524
  4278  002050                     l6522:
  4279                           
  4280                           ; BSR set to: 0
  4281  002050  0E00               	movlw	0
  4282  002052  6F79               	movwf	___fldiv@a& (0+255),b
  4283  002054  0E00               	movlw	0
  4284  002056  6F7A               	movwf	(___fldiv@a+1)& (0+255),b
  4285  002058  0E00               	movlw	0
  4286  00205A  6F7B               	movwf	(___fldiv@a+2)& (0+255),b
  4287  00205C  0E00               	movlw	0
  4288  00205E  6F7C               	movwf	(___fldiv@a+3)& (0+255),b
  4289  002060                     l6524:
  4290                           
  4291                           ; BSR set to: 0
  4292  002060  5179               	movf	___fldiv@a& (0+255),w,b
  4293  002062  117A               	iorwf	(___fldiv@a+1)& (0+255),w,b
  4294  002064  117B               	iorwf	(___fldiv@a+2)& (0+255),w,b
  4295  002066  117C               	iorwf	(___fldiv@a+3)& (0+255),w,b
  4296  002068  A4D8               	btfss	status,2,c
  4297  00206A  EF39  F010         	goto	u6241
  4298  00206E  EF3B  F010         	goto	u6240
  4299  002072                     u6241:
  4300  002072  EF53  F010         	goto	l6536
  4301  002076                     u6240:
  4302  002076                     
  4303                           ; BSR set to: 0
  4304  002076  0E00               	movlw	0
  4305  002078  6F75               	movwf	___fldiv@b& (0+255),b
  4306  00207A  0E00               	movlw	0
  4307  00207C  6F76               	movwf	(___fldiv@b+1)& (0+255),b
  4308  00207E  0E00               	movlw	0
  4309  002080  6F77               	movwf	(___fldiv@b+2)& (0+255),b
  4310  002082  0E00               	movlw	0
  4311  002084  6F78               	movwf	(___fldiv@b+3)& (0+255),b
  4312  002086                     
  4313                           ; BSR set to: 0
  4314  002086  0E80               	movlw	128
  4315  002088  1377               	iorwf	(___fldiv@b+2)& (0+255),f,b
  4316  00208A  0E7F               	movlw	127
  4317  00208C  1378               	iorwf	(___fldiv@b+3)& (0+255),f,b
  4318  00208E                     l6530:
  4319                           
  4320                           ; BSR set to: 0
  4321  00208E  5185               	movf	___fldiv@sign& (0+255),w,b
  4322  002090  1378               	iorwf	(___fldiv@b+3)& (0+255),f,b
  4323  002092                     
  4324                           ; BSR set to: 0
  4325  002092  C075  F075         	movff	___fldiv@b,?___fldiv
  4326  002096  C076  F076         	movff	___fldiv@b+1,?___fldiv+1
  4327  00209A  C077  F077         	movff	___fldiv@b+2,?___fldiv+2
  4328  00209E  C078  F078         	movff	___fldiv@b+3,?___fldiv+3
  4329  0020A2  EF96  F011         	goto	l1636
  4330  0020A6                     l6536:
  4331                           
  4332                           ; BSR set to: 0
  4333  0020A6  518C               	movf	___fldiv@bexp& (0+255),w,b
  4334  0020A8  A4D8               	btfss	status,2,c
  4335  0020AA  EF59  F010         	goto	u6251
  4336  0020AE  EF5B  F010         	goto	u6250
  4337  0020B2                     u6251:
  4338  0020B2  EF65  F010         	goto	l6544
  4339  0020B6                     u6250:
  4340  0020B6                     
  4341                           ; BSR set to: 0
  4342  0020B6  0E00               	movlw	0
  4343  0020B8  6F75               	movwf	?___fldiv& (0+255),b
  4344  0020BA  0E00               	movlw	0
  4345  0020BC  6F76               	movwf	(?___fldiv+1)& (0+255),b
  4346  0020BE  0E00               	movlw	0
  4347  0020C0  6F77               	movwf	(?___fldiv+2)& (0+255),b
  4348  0020C2  0E00               	movlw	0
  4349  0020C4  6F78               	movwf	(?___fldiv+3)& (0+255),b
  4350  0020C6  EF96  F011         	goto	l1636
  4351  0020CA                     l6544:
  4352                           
  4353                           ; BSR set to: 0
  4354  0020CA  518D               	movf	___fldiv@aexp& (0+255),w,b
  4355  0020CC  C08C  F07D         	movff	___fldiv@bexp,??___fldiv
  4356  0020D0  6B7E               	clrf	(??___fldiv+1)& (0+255),b
  4357  0020D2  5F7D               	subwf	??___fldiv& (0+255),f,b
  4358  0020D4  0E00               	movlw	0
  4359  0020D6  5B7E               	subwfb	(??___fldiv+1)& (0+255),f,b
  4360  0020D8  0E7F               	movlw	127
  4361  0020DA  257D               	addwf	??___fldiv& (0+255),w,b
  4362  0020DC  6F86               	movwf	___fldiv@new_exp& (0+255),b
  4363  0020DE  0E00               	movlw	0
  4364  0020E0  217E               	addwfc	(??___fldiv+1)& (0+255),w,b
  4365  0020E2  6F87               	movwf	(___fldiv@new_exp+1)& (0+255),b
  4366  0020E4                     
  4367                           ; BSR set to: 0
  4368  0020E4  C075  F081         	movff	___fldiv@b,___fldiv@rem
  4369  0020E8  C076  F082         	movff	___fldiv@b+1,___fldiv@rem+1
  4370  0020EC  C077  F083         	movff	___fldiv@b+2,___fldiv@rem+2
  4371  0020F0  C078  F084         	movff	___fldiv@b+3,___fldiv@rem+3
  4372  0020F4                     
  4373                           ; BSR set to: 0
  4374  0020F4  0E00               	movlw	0
  4375  0020F6  6F75               	movwf	___fldiv@b& (0+255),b
  4376  0020F8  0E00               	movlw	0
  4377  0020FA  6F76               	movwf	(___fldiv@b+1)& (0+255),b
  4378  0020FC  0E00               	movlw	0
  4379  0020FE  6F77               	movwf	(___fldiv@b+2)& (0+255),b
  4380  002100  0E00               	movlw	0
  4381  002102  6F78               	movwf	(___fldiv@b+3)& (0+255),b
  4382  002104                     
  4383                           ; BSR set to: 0
  4384  002104  0E00               	movlw	0
  4385  002106  6F88               	movwf	___fldiv@grs& (0+255),b
  4386  002108  0E00               	movlw	0
  4387  00210A  6F89               	movwf	(___fldiv@grs+1)& (0+255),b
  4388  00210C  0E00               	movlw	0
  4389  00210E  6F8A               	movwf	(___fldiv@grs+2)& (0+255),b
  4390  002110  0E00               	movlw	0
  4391  002112  6F8B               	movwf	(___fldiv@grs+3)& (0+255),b
  4392  002114                     
  4393                           ; BSR set to: 0
  4394  002114  0E00               	movlw	0
  4395  002116  6F8D               	movwf	___fldiv@aexp& (0+255),b
  4396  002118  EFC6  F010         	goto	l1638
  4397  00211C                     l6554:
  4398                           
  4399                           ; BSR set to: 0
  4400  00211C  518D               	movf	___fldiv@aexp& (0+255),w,b
  4401  00211E  B4D8               	btfsc	status,2,c
  4402  002120  EF94  F010         	goto	u6261
  4403  002124  EF96  F010         	goto	u6260
  4404  002128                     u6261:
  4405  002128  EFAD  F010         	goto	l6562
  4406  00212C                     u6260:
  4407  00212C                     
  4408                           ; BSR set to: 0
  4409  00212C  90D8               	bcf	status,0,c
  4410  00212E  3781               	rlcf	___fldiv@rem& (0+255),f,b
  4411  002130  3782               	rlcf	(___fldiv@rem+1)& (0+255),f,b
  4412  002132  3783               	rlcf	(___fldiv@rem+2)& (0+255),f,b
  4413  002134  3784               	rlcf	(___fldiv@rem+3)& (0+255),f,b
  4414  002136  90D8               	bcf	status,0,c
  4415  002138  3775               	rlcf	___fldiv@b& (0+255),f,b
  4416  00213A  3776               	rlcf	(___fldiv@b+1)& (0+255),f,b
  4417  00213C  3777               	rlcf	(___fldiv@b+2)& (0+255),f,b
  4418  00213E  3778               	rlcf	(___fldiv@b+3)& (0+255),f,b
  4419  002140                     
  4420                           ; BSR set to: 0
  4421  002140  AF8B               	btfss	(___fldiv@grs+3)& (0+255),7,b
  4422  002142  EFA5  F010         	goto	u6271
  4423  002146  EFA7  F010         	goto	u6270
  4424  00214A                     u6271:
  4425  00214A  EFA8  F010         	goto	l1641
  4426  00214E                     u6270:
  4427  00214E                     
  4428                           ; BSR set to: 0
  4429  00214E  8175               	bsf	___fldiv@b& (0+255),0,b
  4430  002150                     l1641:
  4431                           
  4432                           ; BSR set to: 0
  4433  002150  90D8               	bcf	status,0,c
  4434  002152  3788               	rlcf	___fldiv@grs& (0+255),f,b
  4435  002154  3789               	rlcf	(___fldiv@grs+1)& (0+255),f,b
  4436  002156  378A               	rlcf	(___fldiv@grs+2)& (0+255),f,b
  4437  002158  378B               	rlcf	(___fldiv@grs+3)& (0+255),f,b
  4438  00215A                     l6562:
  4439                           
  4440                           ; BSR set to: 0
  4441  00215A  5179               	movf	___fldiv@a& (0+255),w,b
  4442  00215C  5D81               	subwf	___fldiv@rem& (0+255),w,b
  4443  00215E  517A               	movf	(___fldiv@a+1)& (0+255),w,b
  4444  002160  5982               	subwfb	(___fldiv@rem+1)& (0+255),w,b
  4445  002162  517B               	movf	(___fldiv@a+2)& (0+255),w,b
  4446  002164  5983               	subwfb	(___fldiv@rem+2)& (0+255),w,b
  4447  002166  517C               	movf	(___fldiv@a+3)& (0+255),w,b
  4448  002168  5984               	subwfb	(___fldiv@rem+3)& (0+255),w,b
  4449  00216A  A0D8               	btfss	status,0,c
  4450  00216C  EFBA  F010         	goto	u6281
  4451  002170  EFBC  F010         	goto	u6280
  4452  002174                     u6281:
  4453  002174  EFC5  F010         	goto	l6568
  4454  002178                     u6280:
  4455  002178                     
  4456                           ; BSR set to: 0
  4457  002178  8D8B               	bsf	(___fldiv@grs+3)& (0+255),6,b
  4458  00217A                     
  4459                           ; BSR set to: 0
  4460  00217A  5179               	movf	___fldiv@a& (0+255),w,b
  4461  00217C  5F81               	subwf	___fldiv@rem& (0+255),f,b
  4462  00217E  517A               	movf	(___fldiv@a+1)& (0+255),w,b
  4463  002180  5B82               	subwfb	(___fldiv@rem+1)& (0+255),f,b
  4464  002182  517B               	movf	(___fldiv@a+2)& (0+255),w,b
  4465  002184  5B83               	subwfb	(___fldiv@rem+2)& (0+255),f,b
  4466  002186  517C               	movf	(___fldiv@a+3)& (0+255),w,b
  4467  002188  5B84               	subwfb	(___fldiv@rem+3)& (0+255),f,b
  4468  00218A                     l6568:
  4469                           
  4470                           ; BSR set to: 0
  4471  00218A  2B8D               	incf	___fldiv@aexp& (0+255),f,b
  4472  00218C                     l1638:
  4473                           
  4474                           ; BSR set to: 0
  4475  00218C  0E19               	movlw	25
  4476  00218E  658D               	cpfsgt	___fldiv@aexp& (0+255),b
  4477  002190  EFCC  F010         	goto	u6291
  4478  002194  EFCE  F010         	goto	u6290
  4479  002198                     u6291:
  4480  002198  EF8E  F010         	goto	l6554
  4481  00219C                     u6290:
  4482  00219C                     
  4483                           ; BSR set to: 0
  4484  00219C  5181               	movf	___fldiv@rem& (0+255),w,b
  4485  00219E  1182               	iorwf	(___fldiv@rem+1)& (0+255),w,b
  4486  0021A0  1183               	iorwf	(___fldiv@rem+2)& (0+255),w,b
  4487  0021A2  1184               	iorwf	(___fldiv@rem+3)& (0+255),w,b
  4488  0021A4  B4D8               	btfsc	status,2,c
  4489  0021A6  EFD7  F010         	goto	u6301
  4490  0021AA  EFD9  F010         	goto	u6300
  4491  0021AE                     u6301:
  4492  0021AE  EFF1  F010         	goto	l6580
  4493  0021B2                     u6300:
  4494  0021B2                     
  4495                           ; BSR set to: 0
  4496  0021B2  8188               	bsf	___fldiv@grs& (0+255),0,b
  4497  0021B4  EFF1  F010         	goto	l6580
  4498  0021B8                     l6574:
  4499                           
  4500                           ; BSR set to: 0
  4501  0021B8  90D8               	bcf	status,0,c
  4502  0021BA  3775               	rlcf	___fldiv@b& (0+255),f,b
  4503  0021BC  3776               	rlcf	(___fldiv@b+1)& (0+255),f,b
  4504  0021BE  3777               	rlcf	(___fldiv@b+2)& (0+255),f,b
  4505  0021C0  3778               	rlcf	(___fldiv@b+3)& (0+255),f,b
  4506  0021C2                     
  4507                           ; BSR set to: 0
  4508  0021C2  AF8B               	btfss	(___fldiv@grs+3)& (0+255),7,b
  4509  0021C4  EFE6  F010         	goto	u6311
  4510  0021C8  EFE8  F010         	goto	u6310
  4511  0021CC                     u6311:
  4512  0021CC  EFE9  F010         	goto	l1647
  4513  0021D0                     u6310:
  4514  0021D0                     
  4515                           ; BSR set to: 0
  4516  0021D0  8175               	bsf	___fldiv@b& (0+255),0,b
  4517  0021D2                     l1647:
  4518                           
  4519                           ; BSR set to: 0
  4520  0021D2  90D8               	bcf	status,0,c
  4521  0021D4  3788               	rlcf	___fldiv@grs& (0+255),f,b
  4522  0021D6  3789               	rlcf	(___fldiv@grs+1)& (0+255),f,b
  4523  0021D8  378A               	rlcf	(___fldiv@grs+2)& (0+255),f,b
  4524  0021DA  378B               	rlcf	(___fldiv@grs+3)& (0+255),f,b
  4525  0021DC  0786               	decf	___fldiv@new_exp& (0+255),f,b
  4526  0021DE  A0D8               	btfss	status,0,c
  4527  0021E0  0787               	decf	(___fldiv@new_exp+1)& (0+255),f,b
  4528  0021E2                     l6580:
  4529                           
  4530                           ; BSR set to: 0
  4531  0021E2  AF77               	btfss	(___fldiv@b+2)& (0+255),7,b
  4532  0021E4  EFF6  F010         	goto	u6321
  4533  0021E8  EFF8  F010         	goto	u6320
  4534  0021EC                     u6321:
  4535  0021EC  EFDC  F010         	goto	l6574
  4536  0021F0                     u6320:
  4537  0021F0                     
  4538                           ; BSR set to: 0
  4539  0021F0  0E00               	movlw	0
  4540  0021F2  6F8D               	movwf	___fldiv@aexp& (0+255),b
  4541  0021F4                     
  4542                           ; BSR set to: 0
  4543  0021F4  AF8B               	btfss	(___fldiv@grs+3)& (0+255),7,b
  4544  0021F6  EFFF  F010         	goto	u6331
  4545  0021FA  EF01  F011         	goto	u6330
  4546  0021FE                     u6331:
  4547  0021FE  EF25  F011         	goto	l1649
  4548  002202                     u6330:
  4549  002202                     
  4550                           ; BSR set to: 0
  4551  002202  0EFF               	movlw	255
  4552  002204  1588               	andwf	___fldiv@grs& (0+255),w,b
  4553  002206  6F7D               	movwf	??___fldiv& (0+255),b
  4554  002208  0EFF               	movlw	255
  4555  00220A  1589               	andwf	(___fldiv@grs+1)& (0+255),w,b
  4556  00220C  6F7E               	movwf	(??___fldiv+1)& (0+255),b
  4557  00220E  0EFF               	movlw	255
  4558  002210  158A               	andwf	(___fldiv@grs+2)& (0+255),w,b
  4559  002212  6F7F               	movwf	(??___fldiv+2)& (0+255),b
  4560  002214  0E7F               	movlw	127
  4561  002216  158B               	andwf	(___fldiv@grs+3)& (0+255),w,b
  4562  002218  6F80               	movwf	(??___fldiv+3)& (0+255),b
  4563  00221A  517D               	movf	??___fldiv& (0+255),w,b
  4564  00221C  117E               	iorwf	(??___fldiv+1)& (0+255),w,b
  4565  00221E  117F               	iorwf	(??___fldiv+2)& (0+255),w,b
  4566  002220  1180               	iorwf	(??___fldiv+3)& (0+255),w,b
  4567  002222  B4D8               	btfsc	status,2,c
  4568  002224  EF16  F011         	goto	u6341
  4569  002228  EF18  F011         	goto	u6340
  4570  00222C                     u6341:
  4571  00222C  EF1C  F011         	goto	l1650
  4572  002230                     u6340:
  4573  002230                     l6588:
  4574                           
  4575                           ; BSR set to: 0
  4576  002230  0E01               	movlw	1
  4577  002232  6F8D               	movwf	___fldiv@aexp& (0+255),b
  4578  002234  EF25  F011         	goto	l1649
  4579  002238                     l1650:
  4580                           
  4581                           ; BSR set to: 0
  4582  002238  A175               	btfss	___fldiv@b& (0+255),0,b
  4583  00223A  EF21  F011         	goto	u6351
  4584  00223E  EF23  F011         	goto	u6350
  4585  002242                     u6351:
  4586  002242  EF25  F011         	goto	l1649
  4587  002246                     u6350:
  4588  002246  EF18  F011         	goto	l6588
  4589  00224A                     l1649:
  4590                           
  4591                           ; BSR set to: 0
  4592  00224A  518D               	movf	___fldiv@aexp& (0+255),w,b
  4593  00224C  B4D8               	btfsc	status,2,c
  4594  00224E  EF2B  F011         	goto	u6361
  4595  002252  EF2D  F011         	goto	u6360
  4596  002256                     u6361:
  4597  002256  EF51  F011         	goto	l6600
  4598  00225A                     u6360:
  4599  00225A                     
  4600                           ; BSR set to: 0
  4601  00225A  0E01               	movlw	1
  4602  00225C  2775               	addwf	___fldiv@b& (0+255),f,b
  4603  00225E  0E00               	movlw	0
  4604  002260  2376               	addwfc	(___fldiv@b+1)& (0+255),f,b
  4605  002262  2377               	addwfc	(___fldiv@b+2)& (0+255),f,b
  4606  002264  2378               	addwfc	(___fldiv@b+3)& (0+255),f,b
  4607  002266                     
  4608                           ; BSR set to: 0
  4609  002266  A178               	btfss	(___fldiv@b+3)& (0+255),0,b
  4610  002268  EF38  F011         	goto	u6371
  4611  00226C  EF3A  F011         	goto	u6370
  4612  002270                     u6371:
  4613  002270  EF51  F011         	goto	l6600
  4614  002274                     u6370:
  4615  002274                     
  4616                           ; BSR set to: 0
  4617  002274  C075  F07D         	movff	___fldiv@b,??___fldiv
  4618  002278  C076  F07E         	movff	___fldiv@b+1,??___fldiv+1
  4619  00227C  C077  F07F         	movff	___fldiv@b+2,??___fldiv+2
  4620  002280  C078  F080         	movff	___fldiv@b+3,??___fldiv+3
  4621  002284  3580               	rlcf	(??___fldiv+3)& (0+255),w,b
  4622  002286  3380               	rrcf	(??___fldiv+3)& (0+255),f,b
  4623  002288  337F               	rrcf	(??___fldiv+2)& (0+255),f,b
  4624  00228A  337E               	rrcf	(??___fldiv+1)& (0+255),f,b
  4625  00228C  337D               	rrcf	??___fldiv& (0+255),f,b
  4626  00228E  C07D  F075         	movff	??___fldiv,___fldiv@b
  4627  002292  C07E  F076         	movff	??___fldiv+1,___fldiv@b+1
  4628  002296  C07F  F077         	movff	??___fldiv+2,___fldiv@b+2
  4629  00229A  C080  F078         	movff	??___fldiv+3,___fldiv@b+3
  4630  00229E                     
  4631                           ; BSR set to: 0
  4632  00229E  4B86               	infsnz	___fldiv@new_exp& (0+255),f,b
  4633  0022A0  2B87               	incf	(___fldiv@new_exp+1)& (0+255),f,b
  4634  0022A2                     l6600:
  4635                           
  4636                           ; BSR set to: 0
  4637  0022A2  BF87               	btfsc	(___fldiv@new_exp+1)& (0+255),7,b
  4638  0022A4  EF5C  F011         	goto	u6381
  4639  0022A8  5187               	movf	(___fldiv@new_exp+1)& (0+255),w,b
  4640  0022AA  E108               	bnz	u6380
  4641  0022AC  2986               	incf	___fldiv@new_exp& (0+255),w,b
  4642  0022AE  A0D8               	btfss	status,0,c
  4643  0022B0  EF5C  F011         	goto	u6381
  4644  0022B4  EF5E  F011         	goto	u6380
  4645  0022B8                     u6381:
  4646  0022B8  EF69  F011         	goto	l6604
  4647  0022BC                     u6380:
  4648  0022BC                     
  4649                           ; BSR set to: 0
  4650  0022BC  0E00               	movlw	0
  4651  0022BE  6F87               	movwf	(___fldiv@new_exp+1)& (0+255),b
  4652  0022C0  6986               	setf	___fldiv@new_exp& (0+255),b
  4653  0022C2  0E00               	movlw	0
  4654  0022C4  6F75               	movwf	___fldiv@b& (0+255),b
  4655  0022C6  0E00               	movlw	0
  4656  0022C8  6F76               	movwf	(___fldiv@b+1)& (0+255),b
  4657  0022CA  0E00               	movlw	0
  4658  0022CC  6F77               	movwf	(___fldiv@b+2)& (0+255),b
  4659  0022CE  0E00               	movlw	0
  4660  0022D0  6F78               	movwf	(___fldiv@b+3)& (0+255),b
  4661  0022D2                     l6604:
  4662                           
  4663                           ; BSR set to: 0
  4664  0022D2  BF87               	btfsc	(___fldiv@new_exp+1)& (0+255),7,b
  4665  0022D4  EF76  F011         	goto	u6390
  4666  0022D8  5187               	movf	(___fldiv@new_exp+1)& (0+255),w,b
  4667  0022DA  E106               	bnz	u6391
  4668  0022DC  0586               	decf	___fldiv@new_exp& (0+255),w,b
  4669  0022DE  B0D8               	btfsc	status,0,c
  4670  0022E0  EF74  F011         	goto	u6391
  4671  0022E4  EF76  F011         	goto	u6390
  4672  0022E8                     u6391:
  4673  0022E8  EF84  F011         	goto	l6608
  4674  0022EC                     u6390:
  4675  0022EC                     
  4676                           ; BSR set to: 0
  4677  0022EC  0E00               	movlw	0
  4678  0022EE  6F87               	movwf	(___fldiv@new_exp+1)& (0+255),b
  4679  0022F0  0E00               	movlw	0
  4680  0022F2  6F86               	movwf	___fldiv@new_exp& (0+255),b
  4681  0022F4  0E00               	movlw	0
  4682  0022F6  6F75               	movwf	___fldiv@b& (0+255),b
  4683  0022F8  0E00               	movlw	0
  4684  0022FA  6F76               	movwf	(___fldiv@b+1)& (0+255),b
  4685  0022FC  0E00               	movlw	0
  4686  0022FE  6F77               	movwf	(___fldiv@b+2)& (0+255),b
  4687  002300  0E00               	movlw	0
  4688  002302  6F78               	movwf	(___fldiv@b+3)& (0+255),b
  4689  002304  0E00               	movlw	0
  4690  002306  6F85               	movwf	___fldiv@sign& (0+255),b
  4691  002308                     l6608:
  4692                           
  4693                           ; BSR set to: 0
  4694  002308  C086  F08C         	movff	___fldiv@new_exp,___fldiv@bexp
  4695  00230C                     
  4696                           ; BSR set to: 0
  4697  00230C  A18C               	btfss	___fldiv@bexp& (0+255),0,b
  4698  00230E  EF8B  F011         	goto	u6401
  4699  002312  EF8D  F011         	goto	u6400
  4700  002316                     u6401:
  4701  002316  EF90  F011         	goto	l6614
  4702  00231A                     u6400:
  4703  00231A                     
  4704                           ; BSR set to: 0
  4705  00231A  8F77               	bsf	(___fldiv@b+2)& (0+255),7,b
  4706  00231C  EF91  F011         	goto	l6616
  4707  002320                     l6614:
  4708                           
  4709                           ; BSR set to: 0
  4710  002320  9F77               	bcf	(___fldiv@b+2)& (0+255),7,b
  4711  002322                     l6616:
  4712                           
  4713                           ; BSR set to: 0
  4714  002322  90D8               	bcf	status,0,c
  4715  002324  318C               	rrcf	___fldiv@bexp& (0+255),w,b
  4716  002326  6F78               	movwf	(___fldiv@b+3)& (0+255),b
  4717  002328  EF47  F010         	goto	l6530
  4718  00232C                     l1636:
  4719                           
  4720                           ; BSR set to: 0
  4721  00232C  0012               	return		;funcret
  4722  00232E                     __end_of___fldiv:
  4723                           	callstack 0
  4724                           
  4725 ;; *************** function _displayAlt *****************
  4726 ;; Defined at:
  4727 ;;		line 195 in file "rgbledfx.c"
  4728 ;; Parameters:    Size  Location     Type
  4729 ;;  alt             2   90[BANK0 ] int 
  4730 ;; Auto vars:     Size  Location     Type
  4731 ;;  offNumDelay     2  100[BANK0 ] int 
  4732 ;;  onNumDelay      2    0        int 
  4733 ;;  completeDisp    2   98[BANK0 ] int 
  4734 ;;  placeSeperat    2   96[BANK0 ] int 
  4735 ;; Return value:  Size  Location     Type
  4736 ;;                  1    wreg      void 
  4737 ;; Registers used:
  4738 ;;		wreg, fsr2l, fsr2h, status,2, status,0, prodl, prodh, cstack
  4739 ;; Tracked objects:
  4740 ;;		On entry : 0/0
  4741 ;;		On exit  : 0/0
  4742 ;;		Unchanged: 0/0
  4743 ;; Data sizes:     COMRAM   BANK0   BANK1   BANK2   BANK3   BANK4   BANK5   BANK6   BANK7   BANK8   BANK9  BANK10  BANK1
      +1  BANK12  BANK13  BANK14
  4744 ;;      Params:         0       2       0       0       0       0       0       0       0       0       0       0       
      +0       0       0       0
  4745 ;;      Locals:         0       6       0       0       0       0       0       0       0       0       0       0       
      +0       0       0       0
  4746 ;;      Temps:          0       4       0       0       0       0       0       0       0       0       0       0       
      +0       0       0       0
  4747 ;;      Totals:         0      12       0       0       0       0       0       0       0       0       0       0       
      +0       0       0       0
  4748 ;;Total ram usage:       12 bytes
  4749 ;; Hardware stack levels used: 1
  4750 ;; Hardware stack levels required when called: 12
  4751 ;; This function calls:
  4752 ;;		___awmod
  4753 ;;		___wmul
  4754 ;;		_millis
  4755 ;;		_setLED
  4756 ;; This function is called by:
  4757 ;;		_updateLED
  4758 ;; This function uses a non-reentrant model
  4759 ;;
  4760                           
  4761                           	psect	text16
  4762  001812                     __ptext16:
  4763                           	callstack 0
  4764  001812                     _displayAlt:
  4765                           	callstack 16
  4766  001812                     
  4767                           ;rgbledfx.c: 210:     int offNumDelay = 500;
  4768  001812  0E01               	movlw	1
  4769  001814  0100               	movlb	0	; () banked
  4770  001816  6FC5               	movwf	(displayAlt@offNumDelay+1)& (0+255),b
  4771  001818  0EF4               	movlw	244
  4772  00181A  6FC4               	movwf	displayAlt@offNumDelay& (0+255),b
  4773                           
  4774                           ;rgbledfx.c: 211:     int placeSeperatorDelay = 1000;
  4775  00181C  0E03               	movlw	3
  4776  00181E  6FC1               	movwf	(displayAlt@placeSeperatorDelay+1)& (0+255),b
  4777  001820  0EE8               	movlw	232
  4778  001822  6FC0               	movwf	displayAlt@placeSeperatorDelay& (0+255),b
  4779                           
  4780                           ;rgbledfx.c: 212:     int completeDispDelay = 5000;
  4781  001824  0E13               	movlw	19
  4782  001826  6FC3               	movwf	(displayAlt@completeDispDelay+1)& (0+255),b
  4783  001828  0E88               	movlw	136
  4784  00182A  6FC2               	movwf	displayAlt@completeDispDelay& (0+255),b
  4785  00182C                     
  4786                           ; BSR set to: 0
  4787                           ;rgbledfx.c: 214:     static long currentMillis = 0;;rgbledfx.c: 215:     static long pr
      +                          eviousMillis = 0;;rgbledfx.c: 216:     static uint8_t ledOn = 0;;rgbledfx.c: 217:     st
      +                          atic uint8_t counter = 0;;rgbledfx.c: 219:     currentMillis = millis();
  4788  00182C  EC54  F01B         	call	_millis	;wreg free
  4789  001830  C0B2  F0DF         	movff	?_millis,displayAlt@currentMillis
  4790  001834  C0B3  F0E0         	movff	?_millis+1,displayAlt@currentMillis+1
  4791  001838  C0B4  F0E1         	movff	?_millis+2,displayAlt@currentMillis+2
  4792  00183C  C0B5  F0E2         	movff	?_millis+3,displayAlt@currentMillis+3
  4793  001840                     
  4794                           ;rgbledfx.c: 221:     if (dispStep == 0){
  4795  001840  0100               	movlb	0	; () banked
  4796  001842  51FD               	movf	displayAlt@dispStep& (0+255),w,b
  4797  001844  A4D8               	btfss	status,2,c
  4798  001846  EF27  F00C         	goto	u6701
  4799  00184A  EF29  F00C         	goto	u6700
  4800  00184E                     u6701:
  4801  00184E  EF5B  F00C         	goto	l6782
  4802  001852                     u6700:
  4803  001852                     
  4804                           ; BSR set to: 0
  4805                           ;rgbledfx.c: 223:         currentAlt = alt;
  4806  001852  C0BA  F0F3         	movff	displayAlt@alt,displayAlt@currentAlt
  4807  001856  C0BB  F0F4         	movff	displayAlt@alt+1,displayAlt@currentAlt+1
  4808  00185A                     
  4809                           ; BSR set to: 0
  4810                           ;rgbledfx.c: 224:         altThou = alt % 1000;
  4811  00185A  C0BA  F01E         	movff	displayAlt@alt,___awmod@dividend
  4812  00185E  C0BB  F01F         	movff	displayAlt@alt+1,___awmod@dividend+1
  4813  001862  0E03               	movlw	3
  4814  001864  6E21               	movwf	(___awmod@divisor+1)^0,c
  4815  001866  0EE8               	movlw	232
  4816  001868  6E20               	movwf	___awmod@divisor^0,c
  4817  00186A  EC66  F019         	call	___awmod	;wreg free
  4818  00186E  C01E  F0F1         	movff	?___awmod,displayAlt@altThou
  4819  001872  C01F  F0F2         	movff	?___awmod+1,displayAlt@altThou+1
  4820  001876                     
  4821                           ;rgbledfx.c: 225:         altHund = (alt - altThou*1000) % 100;
  4822  001876  C0F1  F018         	movff	displayAlt@altThou,___wmul@multiplier
  4823  00187A  C0F2  F019         	movff	displayAlt@altThou+1,___wmul@multiplier+1
  4824  00187E  0EFC               	movlw	252
  4825  001880  6E1B               	movwf	(___wmul@multiplicand+1)^0,c
  4826  001882  0E18               	movlw	24
  4827  001884  6E1A               	movwf	___wmul@multiplicand^0,c
  4828  001886  EC0F  F01E         	call	___wmul	;wreg free
  4829  00188A  0100               	movlb	0	; () banked
  4830  00188C  51BA               	movf	displayAlt@alt& (0+255),w,b
  4831  00188E  2418               	addwf	?___wmul^0,w,c
  4832  001890  6E1E               	movwf	___awmod@dividend^0,c
  4833  001892  51BB               	movf	(displayAlt@alt+1)& (0+255),w,b
  4834  001894  2019               	addwfc	(?___wmul+1)^0,w,c
  4835  001896  6E1F               	movwf	(___awmod@dividend+1)^0,c
  4836  001898  0E00               	movlw	0
  4837  00189A  6E21               	movwf	(___awmod@divisor+1)^0,c
  4838  00189C  0E64               	movlw	100
  4839  00189E  6E20               	movwf	___awmod@divisor^0,c
  4840  0018A0  EC66  F019         	call	___awmod	;wreg free
  4841  0018A4  C01E  F0EF         	movff	?___awmod,displayAlt@altHund
  4842  0018A8  C01F  F0F0         	movff	?___awmod+1,displayAlt@altHund+1
  4843  0018AC                     
  4844                           ;rgbledfx.c: 226:         dispStep = 1;
  4845  0018AC  0E01               	movlw	1
  4846  0018AE  0100               	movlb	0	; () banked
  4847  0018B0  6FFD               	movwf	displayAlt@dispStep& (0+255),b
  4848                           
  4849                           ;rgbledfx.c: 227:     } else if(dispStep == 1){
  4850  0018B2  EFB4  F00D         	goto	l6844
  4851  0018B6                     l6782:
  4852                           
  4853                           ; BSR set to: 0
  4854  0018B6  05FD               	decf	displayAlt@dispStep& (0+255),w,b
  4855  0018B8  A4D8               	btfss	status,2,c
  4856  0018BA  EF61  F00C         	goto	u6711
  4857  0018BE  EF63  F00C         	goto	u6710
  4858  0018C2                     u6711:
  4859  0018C2  EFD5  F00C         	goto	l6804
  4860  0018C6                     u6710:
  4861  0018C6                     
  4862                           ; BSR set to: 0
  4863                           ;rgbledfx.c: 229:         if(ledOn == 1){
  4864  0018C6  05FC               	decf	displayAlt@ledOn& (0+255),w,b
  4865  0018C8  A4D8               	btfss	status,2,c
  4866  0018CA  EF69  F00C         	goto	u6721
  4867  0018CE  EF6B  F00C         	goto	u6720
  4868  0018D2                     u6721:
  4869  0018D2  EF93  F00C         	goto	l6792
  4870  0018D6                     u6720:
  4871  0018D6                     
  4872                           ; BSR set to: 0
  4873                           ;rgbledfx.c: 230:             if(currentMillis - previousMillis >= onNumDelay){
  4874  0018D6  51DB               	movf	displayAlt@previousMillis& (0+255),w,b
  4875  0018D8  5DDF               	subwf	displayAlt@currentMillis& (0+255),w,b
  4876  0018DA  6FBC               	movwf	??_displayAlt& (0+255),b
  4877  0018DC  51DC               	movf	(displayAlt@previousMillis+1)& (0+255),w,b
  4878  0018DE  59E0               	subwfb	(displayAlt@currentMillis+1)& (0+255),w,b
  4879  0018E0  6FBD               	movwf	(??_displayAlt+1)& (0+255),b
  4880  0018E2  51DD               	movf	(displayAlt@previousMillis+2)& (0+255),w,b
  4881  0018E4  59E1               	subwfb	(displayAlt@currentMillis+2)& (0+255),w,b
  4882  0018E6  6FBE               	movwf	(??_displayAlt+2)& (0+255),b
  4883  0018E8  51DE               	movf	(displayAlt@previousMillis+3)& (0+255),w,b
  4884  0018EA  59E2               	subwfb	(displayAlt@currentMillis+3)& (0+255),w,b
  4885  0018EC  6FBF               	movwf	(??_displayAlt+3)& (0+255),b
  4886  0018EE  BFBF               	btfsc	(??_displayAlt+3)& (0+255),7,b
  4887  0018F0  EF85  F00C         	goto	u6731
  4888  0018F4  51BF               	movf	(??_displayAlt+3)& (0+255),w,b
  4889  0018F6  11BE               	iorwf	(??_displayAlt+2)& (0+255),w,b
  4890  0018F8  11BD               	iorwf	(??_displayAlt+1)& (0+255),w,b
  4891  0018FA  E109               	bnz	u6730
  4892  0018FC  0EFA               	movlw	250
  4893  0018FE  5DBC               	subwf	??_displayAlt& (0+255),w,b
  4894  001900  A0D8               	btfss	status,0,c
  4895  001902  EF85  F00C         	goto	u6731
  4896  001906  EF87  F00C         	goto	u6730
  4897  00190A                     u6731:
  4898  00190A  EFBB  F00C         	goto	l6800
  4899  00190E                     u6730:
  4900  00190E                     
  4901                           ; BSR set to: 0
  4902                           ;rgbledfx.c: 231:                 previousMillis = currentMillis;
  4903  00190E  C0DF  F0DB         	movff	displayAlt@currentMillis,displayAlt@previousMillis
  4904  001912  C0E0  F0DC         	movff	displayAlt@currentMillis+1,displayAlt@previousMillis+1
  4905  001916  C0E1  F0DD         	movff	displayAlt@currentMillis+2,displayAlt@previousMillis+2
  4906  00191A  C0E2  F0DE         	movff	displayAlt@currentMillis+3,displayAlt@previousMillis+3
  4907  00191E                     
  4908                           ; BSR set to: 0
  4909                           ;rgbledfx.c: 232:                 ledOn = 0;
  4910  00191E  0E00               	movlw	0
  4911  001920  6FFC               	movwf	displayAlt@ledOn& (0+255),b
  4912  001922  EFBB  F00C         	goto	l6800
  4913  001926                     l6792:
  4914                           
  4915                           ; BSR set to: 0
  4916                           ;rgbledfx.c: 235:             if(currentMillis - previousMillis >= offNumDelay){
  4917  001926  51DB               	movf	displayAlt@previousMillis& (0+255),w,b
  4918  001928  5DDF               	subwf	displayAlt@currentMillis& (0+255),w,b
  4919  00192A  6FBC               	movwf	??_displayAlt& (0+255),b
  4920  00192C  51DC               	movf	(displayAlt@previousMillis+1)& (0+255),w,b
  4921  00192E  59E0               	subwfb	(displayAlt@currentMillis+1)& (0+255),w,b
  4922  001930  6FBD               	movwf	(??_displayAlt+1)& (0+255),b
  4923  001932  51DD               	movf	(displayAlt@previousMillis+2)& (0+255),w,b
  4924  001934  59E1               	subwfb	(displayAlt@currentMillis+2)& (0+255),w,b
  4925  001936  6FBE               	movwf	(??_displayAlt+2)& (0+255),b
  4926  001938  51DE               	movf	(displayAlt@previousMillis+3)& (0+255),w,b
  4927  00193A  59E2               	subwfb	(displayAlt@currentMillis+3)& (0+255),w,b
  4928  00193C  6FBF               	movwf	(??_displayAlt+3)& (0+255),b
  4929  00193E  BFBF               	btfsc	(??_displayAlt+3)& (0+255),7,b
  4930  001940  EFAE  F00C         	goto	u6741
  4931  001944  51BF               	movf	(??_displayAlt+3)& (0+255),w,b
  4932  001946  11BE               	iorwf	(??_displayAlt+2)& (0+255),w,b
  4933  001948  E10B               	bnz	u6740
  4934  00194A  0EF4               	movlw	244
  4935  00194C  5DBC               	subwf	??_displayAlt& (0+255),w,b
  4936  00194E  0E01               	movlw	1
  4937  001950  59BD               	subwfb	(??_displayAlt+1)& (0+255),w,b
  4938  001952  A0D8               	btfss	status,0,c
  4939  001954  EFAE  F00C         	goto	u6741
  4940  001958  EFB0  F00C         	goto	u6740
  4941  00195C                     u6741:
  4942  00195C  EFBB  F00C         	goto	l6800
  4943  001960                     u6740:
  4944  001960                     
  4945                           ; BSR set to: 0
  4946                           ;rgbledfx.c: 236:                 previousMillis = currentMillis;
  4947  001960  C0DF  F0DB         	movff	displayAlt@currentMillis,displayAlt@previousMillis
  4948  001964  C0E0  F0DC         	movff	displayAlt@currentMillis+1,displayAlt@previousMillis+1
  4949  001968  C0E1  F0DD         	movff	displayAlt@currentMillis+2,displayAlt@previousMillis+2
  4950  00196C  C0E2  F0DE         	movff	displayAlt@currentMillis+3,displayAlt@previousMillis+3
  4951  001970                     
  4952                           ; BSR set to: 0
  4953                           ;rgbledfx.c: 237:                 ledOn = 1;
  4954  001970  0E01               	movlw	1
  4955  001972  6FFC               	movwf	displayAlt@ledOn& (0+255),b
  4956  001974                     
  4957                           ; BSR set to: 0
  4958                           ;rgbledfx.c: 238:                 counter++;
  4959  001974  2BFB               	incf	displayAlt@counter& (0+255),f,b
  4960  001976                     l6800:
  4961                           
  4962                           ; BSR set to: 0
  4963                           ;rgbledfx.c: 242:         if(counter >= altThou){
  4964  001976  51FB               	movf	displayAlt@counter& (0+255),w,b
  4965  001978  6FBC               	movwf	??_displayAlt& (0+255),b
  4966  00197A  6BBD               	clrf	(??_displayAlt+1)& (0+255),b
  4967  00197C  51F1               	movf	displayAlt@altThou& (0+255),w,b
  4968  00197E  5DBC               	subwf	??_displayAlt& (0+255),w,b
  4969  001980  51BD               	movf	(??_displayAlt+1)& (0+255),w,b
  4970  001982  0A80               	xorlw	128
  4971  001984  6FBE               	movwf	(??_displayAlt+2)& (0+255),b
  4972  001986  51F2               	movf	(displayAlt@altThou+1)& (0+255),w,b
  4973  001988  0A80               	xorlw	128
  4974  00198A  59BE               	subwfb	(??_displayAlt+2)& (0+255),w,b
  4975  00198C  A0D8               	btfss	status,0,c
  4976  00198E  EFCB  F00C         	goto	u6751
  4977  001992  EFCD  F00C         	goto	u6750
  4978  001996                     u6751:
  4979  001996  EFB4  F00D         	goto	l6844
  4980  00199A                     u6750:
  4981  00199A                     
  4982                           ; BSR set to: 0
  4983                           ;rgbledfx.c: 243:             dispStep = 2;
  4984  00199A  0E02               	movlw	2
  4985  00199C  6FFD               	movwf	displayAlt@dispStep& (0+255),b
  4986                           
  4987                           ;rgbledfx.c: 244:             counter = 0;
  4988  00199E  0E00               	movlw	0
  4989  0019A0  6FFB               	movwf	displayAlt@counter& (0+255),b
  4990                           
  4991                           ;rgbledfx.c: 245:             ledOn = 0;
  4992  0019A2  0E00               	movlw	0
  4993  0019A4  6FFC               	movwf	displayAlt@ledOn& (0+255),b
  4994  0019A6  EFB4  F00D         	goto	l6844
  4995  0019AA                     l6804:
  4996                           
  4997                           ; BSR set to: 0
  4998  0019AA  0E02               	movlw	2
  4999  0019AC  19FD               	xorwf	displayAlt@dispStep& (0+255),w,b
  5000  0019AE  A4D8               	btfss	status,2,c
  5001  0019B0  EFDC  F00C         	goto	u6761
  5002  0019B4  EFDE  F00C         	goto	u6760
  5003  0019B8                     u6761:
  5004  0019B8  EF07  F00D         	goto	l6812
  5005  0019BC                     u6760:
  5006  0019BC                     
  5007                           ; BSR set to: 0
  5008                           ;rgbledfx.c: 250:         if(currentMillis - previousMillis >= placeSeperatorDelay){
  5009  0019BC  51DB               	movf	displayAlt@previousMillis& (0+255),w,b
  5010  0019BE  5DDF               	subwf	displayAlt@currentMillis& (0+255),w,b
  5011  0019C0  6FBC               	movwf	??_displayAlt& (0+255),b
  5012  0019C2  51DC               	movf	(displayAlt@previousMillis+1)& (0+255),w,b
  5013  0019C4  59E0               	subwfb	(displayAlt@currentMillis+1)& (0+255),w,b
  5014  0019C6  6FBD               	movwf	(??_displayAlt+1)& (0+255),b
  5015  0019C8  51DD               	movf	(displayAlt@previousMillis+2)& (0+255),w,b
  5016  0019CA  59E1               	subwfb	(displayAlt@currentMillis+2)& (0+255),w,b
  5017  0019CC  6FBE               	movwf	(??_displayAlt+2)& (0+255),b
  5018  0019CE  51DE               	movf	(displayAlt@previousMillis+3)& (0+255),w,b
  5019  0019D0  59E2               	subwfb	(displayAlt@currentMillis+3)& (0+255),w,b
  5020  0019D2  6FBF               	movwf	(??_displayAlt+3)& (0+255),b
  5021  0019D4  BFBF               	btfsc	(??_displayAlt+3)& (0+255),7,b
  5022  0019D6  EFF9  F00C         	goto	u6771
  5023  0019DA  51BF               	movf	(??_displayAlt+3)& (0+255),w,b
  5024  0019DC  11BE               	iorwf	(??_displayAlt+2)& (0+255),w,b
  5025  0019DE  E10B               	bnz	u6770
  5026  0019E0  0EE8               	movlw	232
  5027  0019E2  5DBC               	subwf	??_displayAlt& (0+255),w,b
  5028  0019E4  0E03               	movlw	3
  5029  0019E6  59BD               	subwfb	(??_displayAlt+1)& (0+255),w,b
  5030  0019E8  A0D8               	btfss	status,0,c
  5031  0019EA  EFF9  F00C         	goto	u6771
  5032  0019EE  EFFB  F00C         	goto	u6770
  5033  0019F2                     u6771:
  5034  0019F2  EFB4  F00D         	goto	l6844
  5035  0019F6                     u6770:
  5036  0019F6                     
  5037                           ; BSR set to: 0
  5038                           ;rgbledfx.c: 251:             previousMillis = currentMillis;
  5039  0019F6  C0DF  F0DB         	movff	displayAlt@currentMillis,displayAlt@previousMillis
  5040  0019FA  C0E0  F0DC         	movff	displayAlt@currentMillis+1,displayAlt@previousMillis+1
  5041  0019FE  C0E1  F0DD         	movff	displayAlt@currentMillis+2,displayAlt@previousMillis+2
  5042  001A02  C0E2  F0DE         	movff	displayAlt@currentMillis+3,displayAlt@previousMillis+3
  5043  001A06                     
  5044                           ; BSR set to: 0
  5045                           ;rgbledfx.c: 252:             dispStep = 3;
  5046  001A06  0E03               	movlw	3
  5047  001A08  6FFD               	movwf	displayAlt@dispStep& (0+255),b
  5048  001A0A  EFB4  F00D         	goto	l6844
  5049  001A0E                     l6812:
  5050                           
  5051                           ; BSR set to: 0
  5052  001A0E  0E03               	movlw	3
  5053  001A10  19FD               	xorwf	displayAlt@dispStep& (0+255),w,b
  5054  001A12  A4D8               	btfss	status,2,c
  5055  001A14  EF0E  F00D         	goto	u6781
  5056  001A18  EF10  F00D         	goto	u6780
  5057  001A1C                     u6781:
  5058  001A1C  EF82  F00D         	goto	l6834
  5059  001A20                     u6780:
  5060  001A20                     
  5061                           ; BSR set to: 0
  5062                           ;rgbledfx.c: 256:         if(ledOn == 1){
  5063  001A20  05FC               	decf	displayAlt@ledOn& (0+255),w,b
  5064  001A22  A4D8               	btfss	status,2,c
  5065  001A24  EF16  F00D         	goto	u6791
  5066  001A28  EF18  F00D         	goto	u6790
  5067  001A2C                     u6791:
  5068  001A2C  EF40  F00D         	goto	l6822
  5069  001A30                     u6790:
  5070  001A30                     
  5071                           ; BSR set to: 0
  5072                           ;rgbledfx.c: 257:             if(currentMillis - previousMillis >= onNumDelay){
  5073  001A30  51DB               	movf	displayAlt@previousMillis& (0+255),w,b
  5074  001A32  5DDF               	subwf	displayAlt@currentMillis& (0+255),w,b
  5075  001A34  6FBC               	movwf	??_displayAlt& (0+255),b
  5076  001A36  51DC               	movf	(displayAlt@previousMillis+1)& (0+255),w,b
  5077  001A38  59E0               	subwfb	(displayAlt@currentMillis+1)& (0+255),w,b
  5078  001A3A  6FBD               	movwf	(??_displayAlt+1)& (0+255),b
  5079  001A3C  51DD               	movf	(displayAlt@previousMillis+2)& (0+255),w,b
  5080  001A3E  59E1               	subwfb	(displayAlt@currentMillis+2)& (0+255),w,b
  5081  001A40  6FBE               	movwf	(??_displayAlt+2)& (0+255),b
  5082  001A42  51DE               	movf	(displayAlt@previousMillis+3)& (0+255),w,b
  5083  001A44  59E2               	subwfb	(displayAlt@currentMillis+3)& (0+255),w,b
  5084  001A46  6FBF               	movwf	(??_displayAlt+3)& (0+255),b
  5085  001A48  BFBF               	btfsc	(??_displayAlt+3)& (0+255),7,b
  5086  001A4A  EF32  F00D         	goto	u6801
  5087  001A4E  51BF               	movf	(??_displayAlt+3)& (0+255),w,b
  5088  001A50  11BE               	iorwf	(??_displayAlt+2)& (0+255),w,b
  5089  001A52  11BD               	iorwf	(??_displayAlt+1)& (0+255),w,b
  5090  001A54  E109               	bnz	u6800
  5091  001A56  0EFA               	movlw	250
  5092  001A58  5DBC               	subwf	??_displayAlt& (0+255),w,b
  5093  001A5A  A0D8               	btfss	status,0,c
  5094  001A5C  EF32  F00D         	goto	u6801
  5095  001A60  EF34  F00D         	goto	u6800
  5096  001A64                     u6801:
  5097  001A64  EF68  F00D         	goto	l6830
  5098  001A68                     u6800:
  5099  001A68                     
  5100                           ; BSR set to: 0
  5101                           ;rgbledfx.c: 258:                 previousMillis = currentMillis;
  5102  001A68  C0DF  F0DB         	movff	displayAlt@currentMillis,displayAlt@previousMillis
  5103  001A6C  C0E0  F0DC         	movff	displayAlt@currentMillis+1,displayAlt@previousMillis+1
  5104  001A70  C0E1  F0DD         	movff	displayAlt@currentMillis+2,displayAlt@previousMillis+2
  5105  001A74  C0E2  F0DE         	movff	displayAlt@currentMillis+3,displayAlt@previousMillis+3
  5106  001A78                     
  5107                           ; BSR set to: 0
  5108                           ;rgbledfx.c: 259:                 ledOn = 0;
  5109  001A78  0E00               	movlw	0
  5110  001A7A  6FFC               	movwf	displayAlt@ledOn& (0+255),b
  5111  001A7C  EF68  F00D         	goto	l6830
  5112  001A80                     l6822:
  5113                           
  5114                           ; BSR set to: 0
  5115                           ;rgbledfx.c: 262:             if(currentMillis - previousMillis >= offNumDelay){
  5116  001A80  51DB               	movf	displayAlt@previousMillis& (0+255),w,b
  5117  001A82  5DDF               	subwf	displayAlt@currentMillis& (0+255),w,b
  5118  001A84  6FBC               	movwf	??_displayAlt& (0+255),b
  5119  001A86  51DC               	movf	(displayAlt@previousMillis+1)& (0+255),w,b
  5120  001A88  59E0               	subwfb	(displayAlt@currentMillis+1)& (0+255),w,b
  5121  001A8A  6FBD               	movwf	(??_displayAlt+1)& (0+255),b
  5122  001A8C  51DD               	movf	(displayAlt@previousMillis+2)& (0+255),w,b
  5123  001A8E  59E1               	subwfb	(displayAlt@currentMillis+2)& (0+255),w,b
  5124  001A90  6FBE               	movwf	(??_displayAlt+2)& (0+255),b
  5125  001A92  51DE               	movf	(displayAlt@previousMillis+3)& (0+255),w,b
  5126  001A94  59E2               	subwfb	(displayAlt@currentMillis+3)& (0+255),w,b
  5127  001A96  6FBF               	movwf	(??_displayAlt+3)& (0+255),b
  5128  001A98  BFBF               	btfsc	(??_displayAlt+3)& (0+255),7,b
  5129  001A9A  EF5B  F00D         	goto	u6811
  5130  001A9E  51BF               	movf	(??_displayAlt+3)& (0+255),w,b
  5131  001AA0  11BE               	iorwf	(??_displayAlt+2)& (0+255),w,b
  5132  001AA2  E10B               	bnz	u6810
  5133  001AA4  0EF4               	movlw	244
  5134  001AA6  5DBC               	subwf	??_displayAlt& (0+255),w,b
  5135  001AA8  0E01               	movlw	1
  5136  001AAA  59BD               	subwfb	(??_displayAlt+1)& (0+255),w,b
  5137  001AAC  A0D8               	btfss	status,0,c
  5138  001AAE  EF5B  F00D         	goto	u6811
  5139  001AB2  EF5D  F00D         	goto	u6810
  5140  001AB6                     u6811:
  5141  001AB6  EF68  F00D         	goto	l6830
  5142  001ABA                     u6810:
  5143  001ABA                     
  5144                           ; BSR set to: 0
  5145                           ;rgbledfx.c: 263:                 previousMillis = currentMillis;
  5146  001ABA  C0DF  F0DB         	movff	displayAlt@currentMillis,displayAlt@previousMillis
  5147  001ABE  C0E0  F0DC         	movff	displayAlt@currentMillis+1,displayAlt@previousMillis+1
  5148  001AC2  C0E1  F0DD         	movff	displayAlt@currentMillis+2,displayAlt@previousMillis+2
  5149  001AC6  C0E2  F0DE         	movff	displayAlt@currentMillis+3,displayAlt@previousMillis+3
  5150  001ACA                     
  5151                           ; BSR set to: 0
  5152                           ;rgbledfx.c: 264:                 ledOn = 1;
  5153  001ACA  0E01               	movlw	1
  5154  001ACC  6FFC               	movwf	displayAlt@ledOn& (0+255),b
  5155  001ACE                     
  5156                           ; BSR set to: 0
  5157                           ;rgbledfx.c: 265:                 counter++;
  5158  001ACE  2BFB               	incf	displayAlt@counter& (0+255),f,b
  5159  001AD0                     l6830:
  5160                           
  5161                           ; BSR set to: 0
  5162                           ;rgbledfx.c: 270:         if(counter >= altHund){
  5163  001AD0  51FB               	movf	displayAlt@counter& (0+255),w,b
  5164  001AD2  6FBC               	movwf	??_displayAlt& (0+255),b
  5165  001AD4  6BBD               	clrf	(??_displayAlt+1)& (0+255),b
  5166  001AD6  51EF               	movf	displayAlt@altHund& (0+255),w,b
  5167  001AD8  5DBC               	subwf	??_displayAlt& (0+255),w,b
  5168  001ADA  51BD               	movf	(??_displayAlt+1)& (0+255),w,b
  5169  001ADC  0A80               	xorlw	128
  5170  001ADE  6FBE               	movwf	(??_displayAlt+2)& (0+255),b
  5171  001AE0  51F0               	movf	(displayAlt@altHund+1)& (0+255),w,b
  5172  001AE2  0A80               	xorlw	128
  5173  001AE4  59BE               	subwfb	(??_displayAlt+2)& (0+255),w,b
  5174  001AE6  A0D8               	btfss	status,0,c
  5175  001AE8  EF78  F00D         	goto	u6821
  5176  001AEC  EF7A  F00D         	goto	u6820
  5177  001AF0                     u6821:
  5178  001AF0  EFB4  F00D         	goto	l6844
  5179  001AF4                     u6820:
  5180  001AF4                     
  5181                           ; BSR set to: 0
  5182                           ;rgbledfx.c: 271:             dispStep = 4;
  5183  001AF4  0E04               	movlw	4
  5184  001AF6  6FFD               	movwf	displayAlt@dispStep& (0+255),b
  5185                           
  5186                           ;rgbledfx.c: 272:             counter = 0;
  5187  001AF8  0E00               	movlw	0
  5188  001AFA  6FFB               	movwf	displayAlt@counter& (0+255),b
  5189                           
  5190                           ;rgbledfx.c: 273:             ledOn = 0;
  5191  001AFC  0E00               	movlw	0
  5192  001AFE  6FFC               	movwf	displayAlt@ledOn& (0+255),b
  5193  001B00  EFB4  F00D         	goto	l6844
  5194  001B04                     l6834:
  5195                           
  5196                           ; BSR set to: 0
  5197  001B04  0E04               	movlw	4
  5198  001B06  19FD               	xorwf	displayAlt@dispStep& (0+255),w,b
  5199  001B08  A4D8               	btfss	status,2,c
  5200  001B0A  EF89  F00D         	goto	u6831
  5201  001B0E  EF8B  F00D         	goto	u6830
  5202  001B12                     u6831:
  5203  001B12  EFB0  F00D         	goto	l6840
  5204  001B16                     u6830:
  5205  001B16                     
  5206                           ; BSR set to: 0
  5207                           ;rgbledfx.c: 277:         if(currentMillis - previousMillis >= completeDispDelay){
  5208  001B16  51DB               	movf	displayAlt@previousMillis& (0+255),w,b
  5209  001B18  5DDF               	subwf	displayAlt@currentMillis& (0+255),w,b
  5210  001B1A  6FBC               	movwf	??_displayAlt& (0+255),b
  5211  001B1C  51DC               	movf	(displayAlt@previousMillis+1)& (0+255),w,b
  5212  001B1E  59E0               	subwfb	(displayAlt@currentMillis+1)& (0+255),w,b
  5213  001B20  6FBD               	movwf	(??_displayAlt+1)& (0+255),b
  5214  001B22  51DD               	movf	(displayAlt@previousMillis+2)& (0+255),w,b
  5215  001B24  59E1               	subwfb	(displayAlt@currentMillis+2)& (0+255),w,b
  5216  001B26  6FBE               	movwf	(??_displayAlt+2)& (0+255),b
  5217  001B28  51DE               	movf	(displayAlt@previousMillis+3)& (0+255),w,b
  5218  001B2A  59E2               	subwfb	(displayAlt@currentMillis+3)& (0+255),w,b
  5219  001B2C  6FBF               	movwf	(??_displayAlt+3)& (0+255),b
  5220  001B2E  BFBF               	btfsc	(??_displayAlt+3)& (0+255),7,b
  5221  001B30  EFA6  F00D         	goto	u6841
  5222  001B34  51BF               	movf	(??_displayAlt+3)& (0+255),w,b
  5223  001B36  11BE               	iorwf	(??_displayAlt+2)& (0+255),w,b
  5224  001B38  E10B               	bnz	u6840
  5225  001B3A  0E88               	movlw	136
  5226  001B3C  5DBC               	subwf	??_displayAlt& (0+255),w,b
  5227  001B3E  0E13               	movlw	19
  5228  001B40  59BD               	subwfb	(??_displayAlt+1)& (0+255),w,b
  5229  001B42  A0D8               	btfss	status,0,c
  5230  001B44  EFA6  F00D         	goto	u6841
  5231  001B48  EFA8  F00D         	goto	u6840
  5232  001B4C                     u6841:
  5233  001B4C  EFB4  F00D         	goto	l992
  5234  001B50                     u6840:
  5235  001B50                     
  5236                           ; BSR set to: 0
  5237                           ;rgbledfx.c: 278:             previousMillis = currentMillis;
  5238  001B50  C0DF  F0DB         	movff	displayAlt@currentMillis,displayAlt@previousMillis
  5239  001B54  C0E0  F0DC         	movff	displayAlt@currentMillis+1,displayAlt@previousMillis+1
  5240  001B58  C0E1  F0DD         	movff	displayAlt@currentMillis+2,displayAlt@previousMillis+2
  5241  001B5C  C0E2  F0DE         	movff	displayAlt@currentMillis+3,displayAlt@previousMillis+3
  5242  001B60                     l6840:
  5243                           
  5244                           ; BSR set to: 0
  5245                           ;rgbledfx.c: 279:             dispStep = 0;
  5246  001B60  0E00               	movlw	0
  5247  001B62  6FFD               	movwf	displayAlt@dispStep& (0+255),b
  5248  001B64  EFB4  F00D         	goto	l6844
  5249  001B68                     l992:
  5250  001B68                     l6844:
  5251                           
  5252                           ; BSR set to: 0
  5253                           ;rgbledfx.c: 285:     if(ledOn == 1 && dispStep == 1){
  5254  001B68  05FC               	decf	displayAlt@ledOn& (0+255),w,b
  5255  001B6A  A4D8               	btfss	status,2,c
  5256  001B6C  EFBA  F00D         	goto	u6851
  5257  001B70  EFBC  F00D         	goto	u6850
  5258  001B74                     u6851:
  5259  001B74  EFCD  F00D         	goto	l6850
  5260  001B78                     u6850:
  5261  001B78                     
  5262                           ; BSR set to: 0
  5263  001B78  05FD               	decf	displayAlt@dispStep& (0+255),w,b
  5264  001B7A  A4D8               	btfss	status,2,c
  5265  001B7C  EFC2  F00D         	goto	u6861
  5266  001B80  EFC4  F00D         	goto	u6860
  5267  001B84                     u6861:
  5268  001B84  EFCD  F00D         	goto	l6850
  5269  001B88                     u6860:
  5270  001B88                     
  5271                           ; BSR set to: 0
  5272                           ;rgbledfx.c: 286:         setLED(0x12, 0x12, 0x12);
  5273  001B88  0E12               	movlw	18
  5274  001B8A  6E24               	movwf	setLED@green^0,c
  5275  001B8C  0E12               	movlw	18
  5276  001B8E  6E25               	movwf	setLED@blue^0,c
  5277  001B90  0E12               	movlw	18
  5278  001B92  ECA3  F018         	call	_setLED
  5279                           
  5280                           ;rgbledfx.c: 287:     } else if (ledOn == 1 && dispStep == 3) {
  5281  001B96  EFEE  F00D         	goto	l1010
  5282  001B9A                     l6850:
  5283                           
  5284                           ; BSR set to: 0
  5285  001B9A  05FC               	decf	displayAlt@ledOn& (0+255),w,b
  5286  001B9C  A4D8               	btfss	status,2,c
  5287  001B9E  EFD3  F00D         	goto	u6871
  5288  001BA2  EFD5  F00D         	goto	u6870
  5289  001BA6                     u6871:
  5290  001BA6  EFE7  F00D         	goto	l6856
  5291  001BAA                     u6870:
  5292  001BAA                     
  5293                           ; BSR set to: 0
  5294  001BAA  0E03               	movlw	3
  5295  001BAC  19FD               	xorwf	displayAlt@dispStep& (0+255),w,b
  5296  001BAE  A4D8               	btfss	status,2,c
  5297  001BB0  EFDC  F00D         	goto	u6881
  5298  001BB4  EFDE  F00D         	goto	u6880
  5299  001BB8                     u6881:
  5300  001BB8  EFE7  F00D         	goto	l6856
  5301  001BBC                     u6880:
  5302  001BBC                     
  5303                           ; BSR set to: 0
  5304                           ;rgbledfx.c: 288:         setLED(0, 0, 0x12);
  5305  001BBC  0E00               	movlw	0
  5306  001BBE  6E24               	movwf	setLED@green^0,c
  5307  001BC0  0E12               	movlw	18
  5308  001BC2  6E25               	movwf	setLED@blue^0,c
  5309  001BC4  0E00               	movlw	0
  5310  001BC6  ECA3  F018         	call	_setLED
  5311                           
  5312                           ;rgbledfx.c: 289:     } else {
  5313  001BCA  EFEE  F00D         	goto	l1010
  5314  001BCE                     l6856:
  5315                           
  5316                           ; BSR set to: 0
  5317                           ;rgbledfx.c: 290:         setLED(0, 0x12, 0);
  5318  001BCE  0E12               	movlw	18
  5319  001BD0  6E24               	movwf	setLED@green^0,c
  5320  001BD2  0E00               	movlw	0
  5321  001BD4  6E25               	movwf	setLED@blue^0,c
  5322  001BD6  0E00               	movlw	0
  5323  001BD8  ECA3  F018         	call	_setLED
  5324  001BDC                     l1010:
  5325  001BDC  0012               	return		;funcret
  5326  001BDE                     __end_of_displayAlt:
  5327                           	callstack 0
  5328                           
  5329 ;; *************** function _setLED *****************
  5330 ;; Defined at:
  5331 ;;		line 301 in file "rgbledfx.c"
  5332 ;; Parameters:    Size  Location     Type
  5333 ;;  red             1    wreg     unsigned char 
  5334 ;;  green           1   35[COMRAM] unsigned char 
  5335 ;;  blue            1   36[COMRAM] unsigned char 
  5336 ;; Auto vars:     Size  Location     Type
  5337 ;;  red             1   37[COMRAM] unsigned char 
  5338 ;;  enableByte      1   38[COMRAM] unsigned char 
  5339 ;; Return value:  Size  Location     Type
  5340 ;;                  1    wreg      void 
  5341 ;; Registers used:
  5342 ;;		wreg, fsr2l, fsr2h, status,2, status,0, prodl, prodh, cstack
  5343 ;; Tracked objects:
  5344 ;;		On entry : 0/0
  5345 ;;		On exit  : 0/0
  5346 ;;		Unchanged: 0/0
  5347 ;; Data sizes:     COMRAM   BANK0   BANK1   BANK2   BANK3   BANK4   BANK5   BANK6   BANK7   BANK8   BANK9  BANK10  BANK1
      +1  BANK12  BANK13  BANK14
  5348 ;;      Params:         2       0       0       0       0       0       0       0       0       0       0       0       
      +0       0       0       0
  5349 ;;      Locals:         2       0       0       0       0       0       0       0       0       0       0       0       
      +0       0       0       0
  5350 ;;      Temps:          0       0       0       0       0       0       0       0       0       0       0       0       
      +0       0       0       0
  5351 ;;      Totals:         4       0       0       0       0       0       0       0       0       0       0       0       
      +0       0       0       0
  5352 ;;Total ram usage:        4 bytes
  5353 ;; Hardware stack levels used: 1
  5354 ;; Hardware stack levels required when called: 11
  5355 ;; This function calls:
  5356 ;;		_I2C1_Write1ByteRegister
  5357 ;;		_byteMin
  5358 ;; This function is called by:
  5359 ;;		_displayHR
  5360 ;;		_displayTemp
  5361 ;;		_displayAlt
  5362 ;;		_displayOff
  5363 ;; This function uses a non-reentrant model
  5364 ;;
  5365                           
  5366                           	psect	text17
  5367  003146                     __ptext17:
  5368                           	callstack 0
  5369  003146                     _setLED:
  5370                           	callstack 16
  5371                           
  5372                           ;incstack = 0
  5373                           ;setLED@red stored from wreg
  5374  003146  6E26               	movwf	setLED@red^0,c
  5375  003148                     
  5376                           ;rgbledfx.c: 302:     static uint8_t currentR = 0;;rgbledfx.c: 303:     static uint8_t c
      +                          urrentG = 0;;rgbledfx.c: 304:     static uint8_t currentB = 0;;rgbledfx.c: 306:     curr
      +                          entR = byteMin(red, 0x12);
  5377  003148  0E12               	movlw	18
  5378  00314A  6E18               	movwf	byteMin@b^0,c
  5379  00314C  5026               	movf	setLED@red^0,w,c
  5380  00314E  ECE8  F01D         	call	_byteMin
  5381  003152  6E40               	movwf	setLED@currentR^0,c
  5382                           
  5383                           ;rgbledfx.c: 307:     currentG = byteMin(green, 0x12);
  5384  003154  0E12               	movlw	18
  5385  003156  6E18               	movwf	byteMin@b^0,c
  5386  003158  5024               	movf	setLED@green^0,w,c
  5387  00315A  ECE8  F01D         	call	_byteMin
  5388  00315E  6E3F               	movwf	setLED@currentG^0,c
  5389                           
  5390                           ;rgbledfx.c: 308:     currentB = byteMin(blue, 0x12);
  5391  003160  0E12               	movlw	18
  5392  003162  6E18               	movwf	byteMin@b^0,c
  5393  003164  5025               	movf	setLED@blue^0,w,c
  5394  003166  ECE8  F01D         	call	_byteMin
  5395  00316A  6E3E               	movwf	setLED@currentB^0,c
  5396  00316C                     
  5397                           ;rgbledfx.c: 310:     uint8_t enableByte = 0x00;
  5398  00316C  0E00               	movlw	0
  5399  00316E  6E27               	movwf	setLED@enableByte^0,c
  5400  003170                     
  5401                           ;rgbledfx.c: 313:     if(currentR == 0){
  5402  003170  5040               	movf	setLED@currentR^0,w,c
  5403  003172  A4D8               	btfss	status,2,c
  5404  003174  EFBE  F018         	goto	u6151
  5405  003178  EFC0  F018         	goto	u6150
  5406  00317C                     u6151:
  5407  00317C  EFC5  F018         	goto	l6458
  5408  003180                     u6150:
  5409  003180                     
  5410                           ;rgbledfx.c: 314:         enableByte = enableByte & 0x0F;
  5411  003180  5027               	movf	setLED@enableByte^0,w,c
  5412  003182  0B0F               	andlw	15
  5413  003184  6E27               	movwf	setLED@enableByte^0,c
  5414                           
  5415                           ;rgbledfx.c: 315:     } else {
  5416  003186  EFC8  F018         	goto	l6460
  5417  00318A                     l6458:
  5418                           
  5419                           ;rgbledfx.c: 316:         enableByte = enableByte | 0x30;
  5420  00318A  5027               	movf	setLED@enableByte^0,w,c
  5421  00318C  0930               	iorlw	48
  5422  00318E  6E27               	movwf	setLED@enableByte^0,c
  5423  003190                     l6460:
  5424                           
  5425                           ;rgbledfx.c: 319:     if(currentG == 0){
  5426  003190  503F               	movf	setLED@currentG^0,w,c
  5427  003192  A4D8               	btfss	status,2,c
  5428  003194  EFCE  F018         	goto	u6161
  5429  003198  EFD0  F018         	goto	u6160
  5430  00319C                     u6161:
  5431  00319C  EFD5  F018         	goto	l6464
  5432  0031A0                     u6160:
  5433  0031A0                     
  5434                           ;rgbledfx.c: 320:         enableByte = enableByte & 0x33;
  5435  0031A0  5027               	movf	setLED@enableByte^0,w,c
  5436  0031A2  0B33               	andlw	51
  5437  0031A4  6E27               	movwf	setLED@enableByte^0,c
  5438                           
  5439                           ;rgbledfx.c: 321:     } else {
  5440  0031A6  EFD8  F018         	goto	l6466
  5441  0031AA                     l6464:
  5442                           
  5443                           ;rgbledfx.c: 322:         enableByte = enableByte | 0x0C;
  5444  0031AA  5027               	movf	setLED@enableByte^0,w,c
  5445  0031AC  090C               	iorlw	12
  5446  0031AE  6E27               	movwf	setLED@enableByte^0,c
  5447  0031B0                     l6466:
  5448                           
  5449                           ;rgbledfx.c: 325:     if(currentB == 0){
  5450  0031B0  503E               	movf	setLED@currentB^0,w,c
  5451  0031B2  A4D8               	btfss	status,2,c
  5452  0031B4  EFDE  F018         	goto	u6171
  5453  0031B8  EFE0  F018         	goto	u6170
  5454  0031BC                     u6171:
  5455  0031BC  EFE5  F018         	goto	l6470
  5456  0031C0                     u6170:
  5457  0031C0                     
  5458                           ;rgbledfx.c: 326:         enableByte = enableByte & 0x3C;
  5459  0031C0  5027               	movf	setLED@enableByte^0,w,c
  5460  0031C2  0B3C               	andlw	60
  5461  0031C4  6E27               	movwf	setLED@enableByte^0,c
  5462                           
  5463                           ;rgbledfx.c: 327:     } else {
  5464  0031C6  EFE8  F018         	goto	l6472
  5465  0031CA                     l6470:
  5466                           
  5467                           ;rgbledfx.c: 328:         enableByte = enableByte | 0x03;
  5468  0031CA  5027               	movf	setLED@enableByte^0,w,c
  5469  0031CC  0903               	iorlw	3
  5470  0031CE  6E27               	movwf	setLED@enableByte^0,c
  5471  0031D0                     l6472:
  5472                           
  5473                           ;rgbledfx.c: 332:     I2C1_Write1ByteRegister(0x66, 0x03, enableByte);
  5474  0031D0  0E03               	movlw	3
  5475  0031D2  6E21               	movwf	I2C1_Write1ByteRegister@reg^0,c
  5476  0031D4  C027  F022         	movff	setLED@enableByte,I2C1_Write1ByteRegister@data
  5477  0031D8  0E66               	movlw	102
  5478  0031DA  EC8D  F01B         	call	_I2C1_Write1ByteRegister
  5479  0031DE                     
  5480                           ;rgbledfx.c: 335:     I2C1_Write1ByteRegister(0x66, 0x02, currentR);
  5481  0031DE  0E02               	movlw	2
  5482  0031E0  6E21               	movwf	I2C1_Write1ByteRegister@reg^0,c
  5483  0031E2  C040  F022         	movff	setLED@currentR,I2C1_Write1ByteRegister@data
  5484  0031E6  0E66               	movlw	102
  5485  0031E8  EC8D  F01B         	call	_I2C1_Write1ByteRegister
  5486  0031EC                     
  5487                           ;rgbledfx.c: 336:     I2C1_Write1ByteRegister(0x66, 0x01, currentG);
  5488  0031EC  0E01               	movlw	1
  5489  0031EE  6E21               	movwf	I2C1_Write1ByteRegister@reg^0,c
  5490  0031F0  C03F  F022         	movff	setLED@currentG,I2C1_Write1ByteRegister@data
  5491  0031F4  0E66               	movlw	102
  5492  0031F6  EC8D  F01B         	call	_I2C1_Write1ByteRegister
  5493  0031FA                     
  5494                           ;rgbledfx.c: 337:     I2C1_Write1ByteRegister(0x66, 0x00, currentB);
  5495  0031FA  0E00               	movlw	0
  5496  0031FC  6E21               	movwf	I2C1_Write1ByteRegister@reg^0,c
  5497  0031FE  C03E  F022         	movff	setLED@currentB,I2C1_Write1ByteRegister@data
  5498  003202  0E66               	movlw	102
  5499  003204  EC8D  F01B         	call	_I2C1_Write1ByteRegister
  5500  003208  0012               	return		;funcret
  5501  00320A                     __end_of_setLED:
  5502                           	callstack 0
  5503                           
  5504 ;; *************** function _byteMin *****************
  5505 ;; Defined at:
  5506 ;;		line 344 in file "rgbledfx.c"
  5507 ;; Parameters:    Size  Location     Type
  5508 ;;  a               1    wreg     unsigned char 
  5509 ;;  b               1   23[COMRAM] unsigned char 
  5510 ;; Auto vars:     Size  Location     Type
  5511 ;;  a               1   26[COMRAM] unsigned char 
  5512 ;; Return value:  Size  Location     Type
  5513 ;;                  1    wreg      unsigned char 
  5514 ;; Registers used:
  5515 ;;		wreg, status,2, status,0
  5516 ;; Tracked objects:
  5517 ;;		On entry : 0/0
  5518 ;;		On exit  : 0/0
  5519 ;;		Unchanged: 0/0
  5520 ;; Data sizes:     COMRAM   BANK0   BANK1   BANK2   BANK3   BANK4   BANK5   BANK6   BANK7   BANK8   BANK9  BANK10  BANK1
      +1  BANK12  BANK13  BANK14
  5521 ;;      Params:         1       0       0       0       0       0       0       0       0       0       0       0       
      +0       0       0       0
  5522 ;;      Locals:         3       0       0       0       0       0       0       0       0       0       0       0       
      +0       0       0       0
  5523 ;;      Temps:          0       0       0       0       0       0       0       0       0       0       0       0       
      +0       0       0       0
  5524 ;;      Totals:         4       0       0       0       0       0       0       0       0       0       0       0       
      +0       0       0       0
  5525 ;;Total ram usage:        4 bytes
  5526 ;; Hardware stack levels used: 1
  5527 ;; Hardware stack levels required when called: 7
  5528 ;; This function calls:
  5529 ;;		Nothing
  5530 ;; This function is called by:
  5531 ;;		_setLED
  5532 ;; This function uses a non-reentrant model
  5533 ;;
  5534                           
  5535                           	psect	text18
  5536  003BD0                     __ptext18:
  5537                           	callstack 0
  5538  003BD0                     _byteMin:
  5539                           	callstack 19
  5540                           
  5541                           ;incstack = 0
  5542                           ;byteMin@a stored from wreg
  5543  003BD0  6E1B               	movwf	byteMin@a^0,c
  5544  003BD2                     
  5545                           ;rgbledfx.c: 345:     return (((a) < (b)) ? (a) : (b));
  5546  003BD2  5018               	movf	byteMin@b^0,w,c
  5547  003BD4  5C1B               	subwf	byteMin@a^0,w,c
  5548  003BD6  A0D8               	btfss	status,0,c
  5549  003BD8  EFF0  F01D         	goto	u5501
  5550  003BDC  EFF2  F01D         	goto	u5500
  5551  003BE0                     u5501:
  5552  003BE0  EFF7  F01D         	goto	l1039
  5553  003BE4                     u5500:
  5554  003BE4  C018  F019         	movff	byteMin@b,_byteMin$2358
  5555  003BE8  6A1A               	clrf	(_byteMin$2358+1)^0,c
  5556  003BEA  EFFA  F01D         	goto	l6102
  5557  003BEE                     l1039:
  5558  003BEE  C01B  F019         	movff	byteMin@a,_byteMin$2358
  5559  003BF2  6A1A               	clrf	(_byteMin$2358+1)^0,c
  5560  003BF4                     l6102:
  5561  003BF4  5019               	movf	_byteMin$2358^0,w,c
  5562  003BF6  0012               	return		;funcret
  5563  003BF8                     __end_of_byteMin:
  5564                           	callstack 0
  5565                           
  5566 ;; *************** function _I2C1_Write1ByteRegister *****************
  5567 ;; Defined at:
  5568 ;;		line 91 in file "mcc_generated_files/examples/i2c1_master_example.c"
  5569 ;; Parameters:    Size  Location     Type
  5570 ;;  address         1    wreg     unsigned char 
  5571 ;;  reg             1   32[COMRAM] unsigned char 
  5572 ;;  data            1   33[COMRAM] unsigned char 
  5573 ;; Auto vars:     Size  Location     Type
  5574 ;;  address         1   34[COMRAM] unsigned char 
  5575 ;; Return value:  Size  Location     Type
  5576 ;;                  1    wreg      void 
  5577 ;; Registers used:
  5578 ;;		wreg, fsr2l, fsr2h, status,2, status,0, prodl, prodh, cstack
  5579 ;; Tracked objects:
  5580 ;;		On entry : 0/0
  5581 ;;		On exit  : 0/0
  5582 ;;		Unchanged: 0/0
  5583 ;; Data sizes:     COMRAM   BANK0   BANK1   BANK2   BANK3   BANK4   BANK5   BANK6   BANK7   BANK8   BANK9  BANK10  BANK1
      +1  BANK12  BANK13  BANK14
  5584 ;;      Params:         2       0       0       0       0       0       0       0       0       0       0       0       
      +0       0       0       0
  5585 ;;      Locals:         1       0       0       0       0       0       0       0       0       0       0       0       
      +0       0       0       0
  5586 ;;      Temps:          0       0       0       0       0       0       0       0       0       0       0       0       
      +0       0       0       0
  5587 ;;      Totals:         3       0       0       0       0       0       0       0       0       0       0       0       
      +0       0       0       0
  5588 ;;Total ram usage:        3 bytes
  5589 ;; Hardware stack levels used: 1
  5590 ;; Hardware stack levels required when called: 10
  5591 ;; This function calls:
  5592 ;;		_I2C1_Close
  5593 ;;		_I2C1_MasterWrite
  5594 ;;		_I2C1_Open
  5595 ;;		_I2C1_SetAddressNackCallback
  5596 ;;		_I2C1_SetBuffer
  5597 ;;		_I2C1_SetDataCompleteCallback
  5598 ;; This function is called by:
  5599 ;;		_setLED
  5600 ;; This function uses a non-reentrant model
  5601 ;;
  5602                           
  5603                           	psect	text19
  5604  00371A                     __ptext19:
  5605                           	callstack 0
  5606  00371A                     _I2C1_Write1ByteRegister:
  5607                           	callstack 16
  5608                           
  5609                           ;incstack = 0
  5610                           ;I2C1_Write1ByteRegister@address stored from wreg
  5611  00371A  6E23               	movwf	I2C1_Write1ByteRegister@address^0,c
  5612  00371C                     l6078:
  5613  00371C  5023               	movf	I2C1_Write1ByteRegister@address^0,w,c
  5614  00371E  EC12  F01A         	call	_I2C1_Open
  5615  003722  0900               	iorlw	0
  5616  003724  B4D8               	btfsc	status,2,c
  5617  003726  EF97  F01B         	goto	u5481
  5618  00372A  EF99  F01B         	goto	u5480
  5619  00372E                     u5481:
  5620  00372E  EF8E  F01B         	goto	l6078
  5621  003732                     u5480:
  5622  003732                     
  5623                           ;mcc_generated_files/examples/i2c1_master_example.c: 94:     I2C1_SetDataCompleteCallbac
      +                          k(wr1RegCompleteHandler,&data);
  5624  003732  0ECC               	movlw	low _wr1RegCompleteHandler
  5625  003734  6E1D               	movwf	I2C1_SetDataCompleteCallback@cb^0,c
  5626  003736  0E3A               	movlw	high _wr1RegCompleteHandler
  5627  003738  6E1E               	movwf	(I2C1_SetDataCompleteCallback@cb+1)^0,c
  5628  00373A  0E22               	movlw	low I2C1_Write1ByteRegister@data
  5629  00373C  6E1F               	movwf	I2C1_SetDataCompleteCallback@ptr^0,c
  5630  00373E  0E00               	movlw	high I2C1_Write1ByteRegister@data
  5631  003740  6E20               	movwf	(I2C1_SetDataCompleteCallback@ptr+1)^0,c
  5632  003742  EC86  F01E         	call	_I2C1_SetDataCompleteCallback	;wreg free
  5633  003746                     
  5634                           ;mcc_generated_files/examples/i2c1_master_example.c: 95:     I2C1_SetBuffer(&reg,1);
  5635  003746  0E21               	movlw	low I2C1_Write1ByteRegister@reg
  5636  003748  6E18               	movwf	I2C1_SetBuffer@buffer^0,c
  5637  00374A  0E00               	movlw	high I2C1_Write1ByteRegister@reg
  5638  00374C  6E19               	movwf	(I2C1_SetBuffer@buffer+1)^0,c
  5639  00374E  0E00               	movlw	0
  5640  003750  6E1B               	movwf	(I2C1_SetBuffer@bufferSize+1)^0,c
  5641  003752  0E01               	movlw	1
  5642  003754  6E1A               	movwf	I2C1_SetBuffer@bufferSize^0,c
  5643  003756  EC22  F01E         	call	_I2C1_SetBuffer	;wreg free
  5644  00375A                     
  5645                           ;mcc_generated_files/examples/i2c1_master_example.c: 96:     I2C1_SetAddressNackCallback
      +                          (((void*)0),((void*)0));
  5646  00375A  0E00               	movlw	0
  5647  00375C  6E1D               	movwf	I2C1_SetAddressNackCallback@cb^0,c
  5648  00375E  0E00               	movlw	0
  5649  003760  6E1E               	movwf	(I2C1_SetAddressNackCallback@cb+1)^0,c
  5650  003762  0E00               	movlw	0
  5651  003764  6E1F               	movwf	I2C1_SetAddressNackCallback@ptr^0,c
  5652  003766  0E00               	movlw	0
  5653  003768  6E20               	movwf	(I2C1_SetAddressNackCallback@ptr+1)^0,c
  5654  00376A  EC92  F01E         	call	_I2C1_SetAddressNackCallback	;wreg free
  5655  00376E                     
  5656                           ;mcc_generated_files/examples/i2c1_master_example.c: 97:     I2C1_MasterWrite();
  5657  00376E  EC18  F01F         	call	_I2C1_MasterWrite	;wreg free
  5658  003772                     l6088:
  5659  003772  EC3A  F01D         	call	_I2C1_Close	;wreg free
  5660  003776  06E8               	decf	wreg,f,c
  5661  003778  B4D8               	btfsc	status,2,c
  5662  00377A  EFC1  F01B         	goto	u5491
  5663  00377E  EFC3  F01B         	goto	u5490
  5664  003782                     u5491:
  5665  003782  EFB9  F01B         	goto	l6088
  5666  003786                     u5490:
  5667  003786  0012               	return		;funcret
  5668  003788                     __end_of_I2C1_Write1ByteRegister:
  5669                           	callstack 0
  5670                           
  5671 ;; *************** function _I2C1_SetDataCompleteCallback *****************
  5672 ;; Defined at:
  5673 ;;		line 274 in file "mcc_generated_files/i2c1_master.c"
  5674 ;; Parameters:    Size  Location     Type
  5675 ;;  cb              2   28[COMRAM] PTR FTN(PTR void ,)enum 
  5676 ;;		 -> Absolute function(1), rdBlkRegCompleteHandler(1), wr2RegCompleteHandler(1), wr1RegCompleteHandler(1), 
  5677 ;;		 -> rd2RegCompleteHandler(1), rd1RegCompleteHandler(1), 
  5678 ;;  ptr             2   30[COMRAM] PTR void 
  5679 ;;		 -> I2C1_ReadDataBlock@bufferBlock(4), I2C1_Write2ByteRegister@data(2), I2C1_Write1ByteRegister@data(1), I2C1_Read2B
      +yteRegister@returnValue(2), 
  5680 ;;		 -> NULL(0), I2C1_Read1ByteRegister@returnValue(1), 
  5681 ;; Auto vars:     Size  Location     Type
  5682 ;;		None
  5683 ;; Return value:  Size  Location     Type
  5684 ;;                  1    wreg      void 
  5685 ;; Registers used:
  5686 ;;		wreg, fsr2l, fsr2h, status,2, status,0, prodl, prodh, cstack
  5687 ;; Tracked objects:
  5688 ;;		On entry : 0/0
  5689 ;;		On exit  : 0/0
  5690 ;;		Unchanged: 0/0
  5691 ;; Data sizes:     COMRAM   BANK0   BANK1   BANK2   BANK3   BANK4   BANK5   BANK6   BANK7   BANK8   BANK9  BANK10  BANK1
      +1  BANK12  BANK13  BANK14
  5692 ;;      Params:         4       0       0       0       0       0       0       0       0       0       0       0       
      +0       0       0       0
  5693 ;;      Locals:         0       0       0       0       0       0       0       0       0       0       0       0       
      +0       0       0       0
  5694 ;;      Temps:          0       0       0       0       0       0       0       0       0       0       0       0       
      +0       0       0       0
  5695 ;;      Totals:         4       0       0       0       0       0       0       0       0       0       0       0       
      +0       0       0       0
  5696 ;;Total ram usage:        4 bytes
  5697 ;; Hardware stack levels used: 1
  5698 ;; Hardware stack levels required when called: 8
  5699 ;; This function calls:
  5700 ;;		_I2C1_SetCallback
  5701 ;; This function is called by:
  5702 ;;		_I2C1_Write1ByteRegister
  5703 ;;		_I2C1_Read1ByteRegister
  5704 ;;		_I2C1_Read2ByteRegister
  5705 ;;		_I2C1_Write2ByteRegister
  5706 ;;		_I2C1_ReadDataBlock
  5707 ;; This function uses a non-reentrant model
  5708 ;;
  5709                           
  5710                           	psect	text20
  5711  003D0C                     __ptext20:
  5712                           	callstack 0
  5713  003D0C                     _I2C1_SetDataCompleteCallback:
  5714                           	callstack 17
  5715  003D0C                     
  5716                           ;mcc_generated_files/i2c1_master.c: 274: void I2C1_SetDataCompleteCallback(i2c1_callback
      +                          _t cb, void *ptr);mcc_generated_files/i2c1_master.c: 275: {;mcc_generated_files/i2c1_mas
      +                          ter.c: 276:     I2C1_SetCallback(I2C1_DATA_COMPLETE, cb, ptr);
  5717  003D0C  C01D  F018         	movff	I2C1_SetDataCompleteCallback@cb,I2C1_SetCallback@cb
  5718  003D10  C01E  F019         	movff	I2C1_SetDataCompleteCallback@cb+1,I2C1_SetCallback@cb+1
  5719  003D14  C01F  F01A         	movff	I2C1_SetDataCompleteCallback@ptr,I2C1_SetCallback@ptr
  5720  003D18  C020  F01B         	movff	I2C1_SetDataCompleteCallback@ptr+1,I2C1_SetCallback@ptr+1
  5721  003D1C  0E00               	movlw	0
  5722  003D1E  ECA0  F01A         	call	_I2C1_SetCallback
  5723  003D22  0012               	return		;funcret
  5724  003D24                     __end_of_I2C1_SetDataCompleteCallback:
  5725                           	callstack 0
  5726                           
  5727 ;; *************** function _I2C1_SetBuffer *****************
  5728 ;; Defined at:
  5729 ;;		line 264 in file "mcc_generated_files/i2c1_master.c"
  5730 ;; Parameters:    Size  Location     Type
  5731 ;;  buffer          2   23[COMRAM] PTR void 
  5732 ;;		 -> I2C1_ReadDataBlock@reg(1), I2C1_ReadDataBlock@bufferBlock(4), I2C1_Write2ByteRegister@reg(1), I2C1_Write2ByteReg
      +ister@data(2), 
  5733 ;;		 -> I2C1_Write1ByteRegister@reg(1), I2C1_Write1ByteRegister@data(1), I2C1_Read2ByteRegister@reg(1), I2C1_Read2ByteRe
      +gister@returnValue(2), 
  5734 ;;		 -> NULL(0), I2C1_Read1ByteRegister@reg(1), I2C1_Read1ByteRegister@returnValue(1), 
  5735 ;;  bufferSize      2   25[COMRAM] unsigned int 
  5736 ;; Auto vars:     Size  Location     Type
  5737 ;;		None
  5738 ;; Return value:  Size  Location     Type
  5739 ;;                  1    wreg      void 
  5740 ;; Registers used:
  5741 ;;		wreg, status,2, status,0
  5742 ;; Tracked objects:
  5743 ;;		On entry : 0/0
  5744 ;;		On exit  : 0/0
  5745 ;;		Unchanged: 0/0
  5746 ;; Data sizes:     COMRAM   BANK0   BANK1   BANK2   BANK3   BANK4   BANK5   BANK6   BANK7   BANK8   BANK9  BANK10  BANK1
      +1  BANK12  BANK13  BANK14
  5747 ;;      Params:         4       0       0       0       0       0       0       0       0       0       0       0       
      +0       0       0       0
  5748 ;;      Locals:         0       0       0       0       0       0       0       0       0       0       0       0       
      +0       0       0       0
  5749 ;;      Temps:          0       0       0       0       0       0       0       0       0       0       0       0       
      +0       0       0       0
  5750 ;;      Totals:         4       0       0       0       0       0       0       0       0       0       0       0       
      +0       0       0       0
  5751 ;;Total ram usage:        4 bytes
  5752 ;; Hardware stack levels used: 1
  5753 ;; Hardware stack levels required when called: 7
  5754 ;; This function calls:
  5755 ;;		Nothing
  5756 ;; This function is called by:
  5757 ;;		_I2C1_Write1ByteRegister
  5758 ;;		_I2C1_Read1ByteRegister
  5759 ;;		_I2C1_Read2ByteRegister
  5760 ;;		_I2C1_Write2ByteRegister
  5761 ;;		_I2C1_WriteNBytes
  5762 ;;		_I2C1_ReadNBytes
  5763 ;;		_I2C1_ReadDataBlock
  5764 ;; This function uses a non-reentrant model
  5765 ;;
  5766                           
  5767                           	psect	text21
  5768  003C44                     __ptext21:
  5769                           	callstack 0
  5770  003C44                     _I2C1_SetBuffer:
  5771                           	callstack 18
  5772  003C44                     
  5773                           ;mcc_generated_files/i2c1_master.c: 264: void I2C1_SetBuffer(void *buffer, size_t buffer
      +                          Size);mcc_generated_files/i2c1_master.c: 265: {;mcc_generated_files/i2c1_master.c: 266: 
      +                              if(I2C1_Status.bufferFree)
  5774  003C44  0101               	movlb	1	; () banked
  5775  003C46  A723               	btfss	(_I2C1_Status+35)& (0+255),3,b
  5776  003C48  EF28  F01E         	goto	u5071
  5777  003C4C  EF2A  F01E         	goto	u5070
  5778  003C50                     u5071:
  5779  003C50  EF33  F01E         	goto	l422
  5780  003C54                     u5070:
  5781  003C54                     
  5782                           ; BSR set to: 1
  5783                           ;mcc_generated_files/i2c1_master.c: 267:     {;mcc_generated_files/i2c1_master.c: 268:  
      +                                 I2C1_Status.data_ptr = buffer;
  5784  003C54  C018  F11D         	movff	I2C1_SetBuffer@buffer,_I2C1_Status+29
  5785  003C58  C019  F11E         	movff	I2C1_SetBuffer@buffer+1,_I2C1_Status+30
  5786  003C5C                     
  5787                           ; BSR set to: 1
  5788                           ;mcc_generated_files/i2c1_master.c: 269:         I2C1_Status.data_length = bufferSize;
  5789  003C5C  C01A  F11F         	movff	I2C1_SetBuffer@bufferSize,_I2C1_Status+31
  5790  003C60  C01B  F120         	movff	I2C1_SetBuffer@bufferSize+1,_I2C1_Status+32
  5791  003C64                     
  5792                           ; BSR set to: 1
  5793                           ;mcc_generated_files/i2c1_master.c: 270:         I2C1_Status.bufferFree = 0;
  5794  003C64  9723               	bcf	(_I2C1_Status+35)& (0+255),3,b
  5795  003C66                     l422:
  5796                           
  5797                           ; BSR set to: 1
  5798  003C66  0012               	return		;funcret
  5799  003C68                     __end_of_I2C1_SetBuffer:
  5800                           	callstack 0
  5801                           
  5802 ;; *************** function _I2C1_SetAddressNackCallback *****************
  5803 ;; Defined at:
  5804 ;;		line 284 in file "mcc_generated_files/i2c1_master.c"
  5805 ;; Parameters:    Size  Location     Type
  5806 ;;  cb              2   28[COMRAM] PTR FTN(PTR void ,)enum 
  5807 ;;		 -> Absolute function(1), 
  5808 ;;  ptr             2   30[COMRAM] PTR void 
  5809 ;;		 -> NULL(0), 
  5810 ;; Auto vars:     Size  Location     Type
  5811 ;;		None
  5812 ;; Return value:  Size  Location     Type
  5813 ;;                  1    wreg      void 
  5814 ;; Registers used:
  5815 ;;		wreg, fsr2l, fsr2h, status,2, status,0, prodl, prodh, cstack
  5816 ;; Tracked objects:
  5817 ;;		On entry : 0/0
  5818 ;;		On exit  : 0/0
  5819 ;;		Unchanged: 0/0
  5820 ;; Data sizes:     COMRAM   BANK0   BANK1   BANK2   BANK3   BANK4   BANK5   BANK6   BANK7   BANK8   BANK9  BANK10  BANK1
      +1  BANK12  BANK13  BANK14
  5821 ;;      Params:         4       0       0       0       0       0       0       0       0       0       0       0       
      +0       0       0       0
  5822 ;;      Locals:         0       0       0       0       0       0       0       0       0       0       0       0       
      +0       0       0       0
  5823 ;;      Temps:          0       0       0       0       0       0       0       0       0       0       0       0       
      +0       0       0       0
  5824 ;;      Totals:         4       0       0       0       0       0       0       0       0       0       0       0       
      +0       0       0       0
  5825 ;;Total ram usage:        4 bytes
  5826 ;; Hardware stack levels used: 1
  5827 ;; Hardware stack levels required when called: 8
  5828 ;; This function calls:
  5829 ;;		_I2C1_SetCallback
  5830 ;; This function is called by:
  5831 ;;		_I2C1_Write1ByteRegister
  5832 ;;		_I2C1_Read1ByteRegister
  5833 ;;		_I2C1_Read2ByteRegister
  5834 ;;		_I2C1_Write2ByteRegister
  5835 ;;		_I2C1_WriteNBytes
  5836 ;;		_I2C1_ReadDataBlock
  5837 ;; This function uses a non-reentrant model
  5838 ;;
  5839                           
  5840                           	psect	text22
  5841  003D24                     __ptext22:
  5842                           	callstack 0
  5843  003D24                     _I2C1_SetAddressNackCallback:
  5844                           	callstack 17
  5845  003D24                     
  5846                           ;mcc_generated_files/i2c1_master.c: 284: void I2C1_SetAddressNackCallback(i2c1_callback_
      +                          t cb, void *ptr);mcc_generated_files/i2c1_master.c: 285: {;mcc_generated_files/i2c1_mast
      +                          er.c: 286:     I2C1_SetCallback(I2C1_ADDR_NACK, cb, ptr);
  5847  003D24  C01D  F018         	movff	I2C1_SetAddressNackCallback@cb,I2C1_SetCallback@cb
  5848  003D28  C01E  F019         	movff	I2C1_SetAddressNackCallback@cb+1,I2C1_SetCallback@cb+1
  5849  003D2C  C01F  F01A         	movff	I2C1_SetAddressNackCallback@ptr,I2C1_SetCallback@ptr
  5850  003D30  C020  F01B         	movff	I2C1_SetAddressNackCallback@ptr+1,I2C1_SetCallback@ptr+1
  5851  003D34  0E02               	movlw	2
  5852  003D36  ECA0  F01A         	call	_I2C1_SetCallback
  5853  003D3A  0012               	return		;funcret
  5854  003D3C                     __end_of_I2C1_SetAddressNackCallback:
  5855                           	callstack 0
  5856                           
  5857 ;; *************** function _I2C1_SetCallback *****************
  5858 ;; Defined at:
  5859 ;;		line 304 in file "mcc_generated_files/i2c1_master.c"
  5860 ;; Parameters:    Size  Location     Type
  5861 ;;  idx             1    wreg     enum E6673
  5862 ;;  cb              2   23[COMRAM] PTR FTN(PTR void ,)enum 
  5863 ;;		 -> Absolute function(1), rdBlkRegCompleteHandler(1), wr2RegCompleteHandler(1), wr1RegCompleteHandler(1), 
  5864 ;;		 -> rd2RegCompleteHandler(1), rd1RegCompleteHandler(1), 
  5865 ;;  ptr             2   25[COMRAM] PTR void 
  5866 ;;		 -> I2C1_ReadDataBlock@bufferBlock(4), I2C1_Write2ByteRegister@data(2), I2C1_Write1ByteRegister@data(1), I2C1_Read2B
      +yteRegister@returnValue(2), 
  5867 ;;		 -> NULL(0), I2C1_Read1ByteRegister@returnValue(1), 
  5868 ;; Auto vars:     Size  Location     Type
  5869 ;;  idx             1   27[COMRAM] enum E6673
  5870 ;; Return value:  Size  Location     Type
  5871 ;;                  1    wreg      void 
  5872 ;; Registers used:
  5873 ;;		wreg, fsr2l, fsr2h, status,2, status,0, prodl, prodh
  5874 ;; Tracked objects:
  5875 ;;		On entry : 0/0
  5876 ;;		On exit  : 0/0
  5877 ;;		Unchanged: 0/0
  5878 ;; Data sizes:     COMRAM   BANK0   BANK1   BANK2   BANK3   BANK4   BANK5   BANK6   BANK7   BANK8   BANK9  BANK10  BANK1
      +1  BANK12  BANK13  BANK14
  5879 ;;      Params:         4       0       0       0       0       0       0       0       0       0       0       0       
      +0       0       0       0
  5880 ;;      Locals:         1       0       0       0       0       0       0       0       0       0       0       0       
      +0       0       0       0
  5881 ;;      Temps:          0       0       0       0       0       0       0       0       0       0       0       0       
      +0       0       0       0
  5882 ;;      Totals:         5       0       0       0       0       0       0       0       0       0       0       0       
      +0       0       0       0
  5883 ;;Total ram usage:        5 bytes
  5884 ;; Hardware stack levels used: 1
  5885 ;; Hardware stack levels required when called: 7
  5886 ;; This function calls:
  5887 ;;		Nothing
  5888 ;; This function is called by:
  5889 ;;		_I2C1_SetDataCompleteCallback
  5890 ;;		_I2C1_SetAddressNackCallback
  5891 ;;		_I2C1_SetWriteCollisionCallback
  5892 ;;		_I2C1_SetDataNackCallback
  5893 ;;		_I2C1_SetTimeoutCallback
  5894 ;; This function uses a non-reentrant model
  5895 ;;
  5896                           
  5897                           	psect	text23
  5898  003540                     __ptext23:
  5899                           	callstack 0
  5900  003540                     _I2C1_SetCallback:
  5901                           	callstack 17
  5902                           
  5903                           ;incstack = 0
  5904                           ;I2C1_SetCallback@idx stored from wreg
  5905  003540  6E1C               	movwf	I2C1_SetCallback@idx^0,c
  5906  003542                     
  5907                           ;mcc_generated_files/i2c1_master.c: 304: static void I2C1_SetCallback(i2c1_callbackIndex
      +                          _t idx, i2c1_callback_t cb, void *ptr);mcc_generated_files/i2c1_master.c: 305: {;mcc_gen
      +                          erated_files/i2c1_master.c: 306:     if(cb)
  5908  003542  5018               	movf	I2C1_SetCallback@cb^0,w,c
  5909  003544  1019               	iorwf	(I2C1_SetCallback@cb+1)^0,w,c
  5910  003546  B4D8               	btfsc	status,2,c
  5911  003548  EFA8  F01A         	goto	u5051
  5912  00354C  EFAA  F01A         	goto	u5050
  5913  003550                     u5051:
  5914  003550  EFC4  F01A         	goto	l5790
  5915  003554                     u5050:
  5916  003554                     
  5917                           ;mcc_generated_files/i2c1_master.c: 307:     {;mcc_generated_files/i2c1_master.c: 308:  
      +                                 I2C1_Status.callbackTable[idx] = cb;
  5918  003554  501C               	movf	I2C1_SetCallback@idx^0,w,c
  5919  003556  0D02               	mullw	2
  5920  003558  0E00               	movlw	low _I2C1_Status
  5921  00355A  24F3               	addwf	243,w,c
  5922  00355C  6ED9               	movwf	fsr2l,c
  5923  00355E  0E01               	movlw	high _I2C1_Status
  5924  003560  20F4               	addwfc	prodh,w,c
  5925  003562  6EDA               	movwf	fsr2h,c
  5926  003564  C018  FFDE         	movff	I2C1_SetCallback@cb,postinc2
  5927  003568  C019  FFDD         	movff	I2C1_SetCallback@cb+1,postdec2
  5928                           
  5929                           ;mcc_generated_files/i2c1_master.c: 309:         I2C1_Status.callbackPayload[idx] = ptr;
  5930  00356C  501C               	movf	I2C1_SetCallback@idx^0,w,c
  5931  00356E  0D02               	mullw	2
  5932  003570  0E0C               	movlw	low (_I2C1_Status+12)
  5933  003572  24F3               	addwf	243,w,c
  5934  003574  6ED9               	movwf	fsr2l,c
  5935  003576  0E01               	movlw	high (_I2C1_Status+12)
  5936  003578  20F4               	addwfc	prodh,w,c
  5937  00357A  6EDA               	movwf	fsr2h,c
  5938  00357C  C01A  FFDE         	movff	I2C1_SetCallback@ptr,postinc2
  5939  003580  C01B  FFDD         	movff	I2C1_SetCallback@ptr+1,postdec2
  5940                           
  5941                           ;mcc_generated_files/i2c1_master.c: 310:     }
  5942  003584  EFDC  F01A         	goto	l445
  5943  003588                     l5790:
  5944                           
  5945                           ;mcc_generated_files/i2c1_master.c: 312:     {;mcc_generated_files/i2c1_master.c: 313:  
      +                                 I2C1_Status.callbackTable[idx] = I2C1_CallbackReturnStop;
  5946  003588  501C               	movf	I2C1_SetCallback@idx^0,w,c
  5947  00358A  0D02               	mullw	2
  5948  00358C  0E00               	movlw	low _I2C1_Status
  5949  00358E  24F3               	addwf	243,w,c
  5950  003590  6ED9               	movwf	fsr2l,c
  5951  003592  0E01               	movlw	high _I2C1_Status
  5952  003594  20F4               	addwfc	prodh,w,c
  5953  003596  6EDA               	movwf	fsr2h,c
  5954  003598  0EC6               	movlw	low _I2C1_CallbackReturnStop
  5955  00359A  6EDE               	movwf	postinc2,c
  5956  00359C  0E3E               	movlw	high _I2C1_CallbackReturnStop
  5957  00359E  6EDD               	movwf	postdec2,c
  5958                           
  5959                           ;mcc_generated_files/i2c1_master.c: 314:         I2C1_Status.callbackPayload[idx] = ((vo
      +                          id*)0);
  5960  0035A0  501C               	movf	I2C1_SetCallback@idx^0,w,c
  5961  0035A2  0D02               	mullw	2
  5962  0035A4  0E0C               	movlw	low (_I2C1_Status+12)
  5963  0035A6  24F3               	addwf	243,w,c
  5964  0035A8  6ED9               	movwf	fsr2l,c
  5965  0035AA  0E01               	movlw	high (_I2C1_Status+12)
  5966  0035AC  20F4               	addwfc	prodh,w,c
  5967  0035AE  6EDA               	movwf	fsr2h,c
  5968  0035B0  0E00               	movlw	0
  5969  0035B2  6EDE               	movwf	postinc2,c
  5970  0035B4  0E00               	movlw	0
  5971  0035B6  6EDD               	movwf	postdec2,c
  5972  0035B8                     l445:
  5973  0035B8  0012               	return		;funcret
  5974  0035BA                     __end_of_I2C1_SetCallback:
  5975                           	callstack 0
  5976                           
  5977 ;; *************** function _I2C1_Open *****************
  5978 ;; Defined at:
  5979 ;;		line 176 in file "mcc_generated_files/i2c1_master.c"
  5980 ;; Parameters:    Size  Location     Type
  5981 ;;  address         1    wreg     unsigned char 
  5982 ;; Auto vars:     Size  Location     Type
  5983 ;;  address         1   25[COMRAM] unsigned char 
  5984 ;;  returnValue     1   26[COMRAM] enum E355
  5985 ;; Return value:  Size  Location     Type
  5986 ;;                  1    wreg      enum E355
  5987 ;; Registers used:
  5988 ;;		wreg, status,2, status,0, cstack
  5989 ;; Tracked objects:
  5990 ;;		On entry : 0/0
  5991 ;;		On exit  : 0/0
  5992 ;;		Unchanged: 0/0
  5993 ;; Data sizes:     COMRAM   BANK0   BANK1   BANK2   BANK3   BANK4   BANK5   BANK6   BANK7   BANK8   BANK9  BANK10  BANK1
      +1  BANK12  BANK13  BANK14
  5994 ;;      Params:         0       0       0       0       0       0       0       0       0       0       0       0       
      +0       0       0       0
  5995 ;;      Locals:         2       0       0       0       0       0       0       0       0       0       0       0       
      +0       0       0       0
  5996 ;;      Temps:          0       0       0       0       0       0       0       0       0       0       0       0       
      +0       0       0       0
  5997 ;;      Totals:         2       0       0       0       0       0       0       0       0       0       0       0       
      +0       0       0       0
  5998 ;;Total ram usage:        2 bytes
  5999 ;; Hardware stack levels used: 1
  6000 ;; Hardware stack levels required when called: 8
  6001 ;; This function calls:
  6002 ;;		_I2C1_MasterClearIrq
  6003 ;;		_I2C1_MasterEnableIrq
  6004 ;;		_I2C1_MasterOpen
  6005 ;;		_I2C1_SetInterruptHandler
  6006 ;; This function is called by:
  6007 ;;		_I2C1_Write1ByteRegister
  6008 ;;		_I2C1_Read1ByteRegister
  6009 ;;		_I2C1_Read2ByteRegister
  6010 ;;		_I2C1_Write2ByteRegister
  6011 ;;		_I2C1_WriteNBytes
  6012 ;;		_I2C1_ReadNBytes
  6013 ;;		_I2C1_ReadDataBlock
  6014 ;; This function uses a non-reentrant model
  6015 ;;
  6016                           
  6017                           	psect	text24
  6018  003424                     __ptext24:
  6019                           	callstack 0
  6020  003424                     _I2C1_Open:
  6021                           	callstack 17
  6022                           
  6023                           ;incstack = 0
  6024                           ;I2C1_Open@address stored from wreg
  6025  003424  6E1A               	movwf	I2C1_Open@address^0,c
  6026  003426                     
  6027                           ;mcc_generated_files/i2c1_master.c: 176: i2c1_error_t I2C1_Open(i2c1_address_t address);
      +                          mcc_generated_files/i2c1_master.c: 177: {;mcc_generated_files/i2c1_master.c: 178:     i2
      +                          c1_error_t returnValue = I2C1_BUSY;
  6028  003426  0E01               	movlw	1
  6029  003428  6E1B               	movwf	I2C1_Open@returnValue^0,c
  6030  00342A                     
  6031                           ;mcc_generated_files/i2c1_master.c: 180:     if(!I2C1_Status.inUse)
  6032  00342A  0101               	movlb	1	; () banked
  6033  00342C  B523               	btfsc	(_I2C1_Status+35)& (0+255),2,b
  6034  00342E  EF1B  F01A         	goto	u5061
  6035  003432  EF1D  F01A         	goto	u5060
  6036  003436                     u5061:
  6037  003436  EF5F  F01A         	goto	l5840
  6038  00343A                     u5060:
  6039  00343A                     
  6040                           ; BSR set to: 1
  6041                           ;mcc_generated_files/i2c1_master.c: 181:     {;mcc_generated_files/i2c1_master.c: 182:  
      +                                 I2C1_Status.address = address;
  6042  00343A  C01A  F11C         	movff	I2C1_Open@address,_I2C1_Status+28
  6043  00343E                     
  6044                           ; BSR set to: 1
  6045                           ;mcc_generated_files/i2c1_master.c: 183:         I2C1_Status.busy = 0;
  6046  00343E  9323               	bcf	(_I2C1_Status+35)& (0+255),1,b
  6047  003440                     
  6048                           ; BSR set to: 1
  6049                           ;mcc_generated_files/i2c1_master.c: 184:         I2C1_Status.inUse = 1;
  6050  003440  8523               	bsf	(_I2C1_Status+35)& (0+255),2,b
  6051  003442                     
  6052                           ; BSR set to: 1
  6053                           ;mcc_generated_files/i2c1_master.c: 185:         I2C1_Status.addressNackCheck = 0;
  6054  003442  9123               	bcf	(_I2C1_Status+35)& (0+255),0,b
  6055  003444                     
  6056                           ; BSR set to: 1
  6057                           ;mcc_generated_files/i2c1_master.c: 186:         I2C1_Status.state = I2C1_RESET;
  6058  003444  0E0E               	movlw	14
  6059  003446  6F21               	movwf	(_I2C1_Status+33)& (0+255),b
  6060  003448                     
  6061                           ; BSR set to: 1
  6062                           ;mcc_generated_files/i2c1_master.c: 187:         I2C1_Status.time_out_value = 500;
  6063  003448  0E01               	movlw	1
  6064  00344A  6F1B               	movwf	(_I2C1_Status+27)& (0+255),b
  6065  00344C  0EF4               	movlw	244
  6066  00344E  6F1A               	movwf	(_I2C1_Status+26)& (0+255),b
  6067  003450                     
  6068                           ; BSR set to: 1
  6069                           ;mcc_generated_files/i2c1_master.c: 188:         I2C1_Status.bufferFree = 1;
  6070  003450  8723               	bsf	(_I2C1_Status+35)& (0+255),3,b
  6071  003452                     
  6072                           ; BSR set to: 1
  6073                           ;mcc_generated_files/i2c1_master.c: 191:         I2C1_Status.callbackTable[I2C1_DATA_COM
      +                          PLETE]=I2C1_CallbackReturnStop;
  6074  003452  0EC6               	movlw	low _I2C1_CallbackReturnStop
  6075  003454  6F00               	movwf	_I2C1_Status& (0+255),b
  6076  003456  0E3E               	movlw	high _I2C1_CallbackReturnStop
  6077  003458  6F01               	movwf	(_I2C1_Status+1)& (0+255),b
  6078  00345A                     
  6079                           ; BSR set to: 1
  6080                           ;mcc_generated_files/i2c1_master.c: 192:         I2C1_Status.callbackPayload[I2C1_DATA_C
      +                          OMPLETE] = ((void*)0);
  6081  00345A  0E00               	movlw	0
  6082  00345C  6F0C               	movwf	(_I2C1_Status+12)& (0+255),b
  6083  00345E  0E00               	movlw	0
  6084  003460  6F0D               	movwf	(_I2C1_Status+13)& (0+255),b
  6085  003462                     
  6086                           ; BSR set to: 1
  6087                           ;mcc_generated_files/i2c1_master.c: 193:         I2C1_Status.callbackTable[I2C1_WRITE_CO
      +                          LLISION]=I2C1_CallbackReturnStop;
  6088  003462  0EC6               	movlw	low _I2C1_CallbackReturnStop
  6089  003464  6F02               	movwf	(_I2C1_Status+2)& (0+255),b
  6090  003466  0E3E               	movlw	high _I2C1_CallbackReturnStop
  6091  003468  6F03               	movwf	(_I2C1_Status+3)& (0+255),b
  6092  00346A                     
  6093                           ; BSR set to: 1
  6094                           ;mcc_generated_files/i2c1_master.c: 194:         I2C1_Status.callbackPayload[I2C1_WRITE_
      +                          COLLISION] = ((void*)0);
  6095  00346A  0E00               	movlw	0
  6096  00346C  6F0E               	movwf	(_I2C1_Status+14)& (0+255),b
  6097  00346E  0E00               	movlw	0
  6098  003470  6F0F               	movwf	(_I2C1_Status+15)& (0+255),b
  6099  003472                     
  6100                           ; BSR set to: 1
  6101                           ;mcc_generated_files/i2c1_master.c: 195:         I2C1_Status.callbackTable[I2C1_ADDR_NAC
      +                          K]=I2C1_CallbackReturnStop;
  6102  003472  0EC6               	movlw	low _I2C1_CallbackReturnStop
  6103  003474  6F04               	movwf	(_I2C1_Status+4)& (0+255),b
  6104  003476  0E3E               	movlw	high _I2C1_CallbackReturnStop
  6105  003478  6F05               	movwf	(_I2C1_Status+5)& (0+255),b
  6106  00347A                     
  6107                           ; BSR set to: 1
  6108                           ;mcc_generated_files/i2c1_master.c: 196:         I2C1_Status.callbackPayload[I2C1_ADDR_N
      +                          ACK] = ((void*)0);
  6109  00347A  0E00               	movlw	0
  6110  00347C  6F10               	movwf	(_I2C1_Status+16)& (0+255),b
  6111  00347E  0E00               	movlw	0
  6112  003480  6F11               	movwf	(_I2C1_Status+17)& (0+255),b
  6113  003482                     
  6114                           ; BSR set to: 1
  6115                           ;mcc_generated_files/i2c1_master.c: 197:         I2C1_Status.callbackTable[I2C1_DATA_NAC
      +                          K]=I2C1_CallbackReturnStop;
  6116  003482  0EC6               	movlw	low _I2C1_CallbackReturnStop
  6117  003484  6F06               	movwf	(_I2C1_Status+6)& (0+255),b
  6118  003486  0E3E               	movlw	high _I2C1_CallbackReturnStop
  6119  003488  6F07               	movwf	(_I2C1_Status+7)& (0+255),b
  6120  00348A                     
  6121                           ; BSR set to: 1
  6122                           ;mcc_generated_files/i2c1_master.c: 198:         I2C1_Status.callbackPayload[I2C1_DATA_N
      +                          ACK] = ((void*)0);
  6123  00348A  0E00               	movlw	0
  6124  00348C  6F12               	movwf	(_I2C1_Status+18)& (0+255),b
  6125  00348E  0E00               	movlw	0
  6126  003490  6F13               	movwf	(_I2C1_Status+19)& (0+255),b
  6127  003492                     
  6128                           ; BSR set to: 1
  6129                           ;mcc_generated_files/i2c1_master.c: 199:         I2C1_Status.callbackTable[I2C1_TIMEOUT]
      +                          =I2C1_CallbackReturnReset;
  6130  003492  0EC2               	movlw	low _I2C1_CallbackReturnReset
  6131  003494  6F08               	movwf	(_I2C1_Status+8)& (0+255),b
  6132  003496  0E3E               	movlw	high _I2C1_CallbackReturnReset
  6133  003498  6F09               	movwf	(_I2C1_Status+9)& (0+255),b
  6134  00349A                     
  6135                           ; BSR set to: 1
  6136                           ;mcc_generated_files/i2c1_master.c: 200:         I2C1_Status.callbackPayload[I2C1_TIMEOU
      +                          T] = ((void*)0);
  6137  00349A  0E00               	movlw	0
  6138  00349C  6F14               	movwf	(_I2C1_Status+20)& (0+255),b
  6139  00349E  0E00               	movlw	0
  6140  0034A0  6F15               	movwf	(_I2C1_Status+21)& (0+255),b
  6141  0034A2                     
  6142                           ; BSR set to: 1
  6143                           ;mcc_generated_files/i2c1_master.c: 202:         I2C1_SetInterruptHandler(I2C1_MasterIsr
      +                          );
  6144  0034A2  0E78               	movlw	low _I2C1_MasterIsr
  6145  0034A4  6E18               	movwf	I2C1_SetInterruptHandler@InterruptHandler^0,c
  6146  0034A6  0E3E               	movlw	high _I2C1_MasterIsr
  6147  0034A8  6E19               	movwf	(I2C1_SetInterruptHandler@InterruptHandler+1)^0,c
  6148  0034AA  ECFA  F01E         	call	_I2C1_SetInterruptHandler	;wreg free
  6149  0034AE                     
  6150                           ;mcc_generated_files/i2c1_master.c: 203:         I2C1_MasterClearIrq();
  6151  0034AE  EC55  F01F         	call	_I2C1_MasterClearIrq	;wreg free
  6152  0034B2                     
  6153                           ;mcc_generated_files/i2c1_master.c: 204:         I2C1_MasterOpen();
  6154  0034B2  EC46  F01E         	call	_I2C1_MasterOpen	;wreg free
  6155  0034B6                     
  6156                           ;mcc_generated_files/i2c1_master.c: 205:         I2C1_MasterEnableIrq();
  6157  0034B6  EC4D  F01F         	call	_I2C1_MasterEnableIrq	;wreg free
  6158  0034BA                     
  6159                           ;mcc_generated_files/i2c1_master.c: 206:         returnValue = I2C1_NOERR;
  6160  0034BA  0E00               	movlw	0
  6161  0034BC  6E1B               	movwf	I2C1_Open@returnValue^0,c
  6162  0034BE                     l5840:
  6163                           
  6164                           ;mcc_generated_files/i2c1_master.c: 208:     return returnValue;
  6165  0034BE  501B               	movf	I2C1_Open@returnValue^0,w,c
  6166  0034C0  0012               	return		;funcret
  6167  0034C2                     __end_of_I2C1_Open:
  6168                           	callstack 0
  6169                           
  6170 ;; *************** function _I2C1_SetInterruptHandler *****************
  6171 ;; Defined at:
  6172 ;;		line 299 in file "mcc_generated_files/i2c1_master.c"
  6173 ;; Parameters:    Size  Location     Type
  6174 ;;  InterruptHan    2   23[COMRAM] PTR FTN()void 
  6175 ;;		 -> I2C1_MasterIsr(1), 
  6176 ;; Auto vars:     Size  Location     Type
  6177 ;;		None
  6178 ;; Return value:  Size  Location     Type
  6179 ;;                  1    wreg      void 
  6180 ;; Registers used:
  6181 ;;		wreg, status,2, status,0
  6182 ;; Tracked objects:
  6183 ;;		On entry : 0/0
  6184 ;;		On exit  : 0/0
  6185 ;;		Unchanged: 0/0
  6186 ;; Data sizes:     COMRAM   BANK0   BANK1   BANK2   BANK3   BANK4   BANK5   BANK6   BANK7   BANK8   BANK9  BANK10  BANK1
      +1  BANK12  BANK13  BANK14
  6187 ;;      Params:         2       0       0       0       0       0       0       0       0       0       0       0       
      +0       0       0       0
  6188 ;;      Locals:         0       0       0       0       0       0       0       0       0       0       0       0       
      +0       0       0       0
  6189 ;;      Temps:          0       0       0       0       0       0       0       0       0       0       0       0       
      +0       0       0       0
  6190 ;;      Totals:         2       0       0       0       0       0       0       0       0       0       0       0       
      +0       0       0       0
  6191 ;;Total ram usage:        2 bytes
  6192 ;; Hardware stack levels used: 1
  6193 ;; Hardware stack levels required when called: 7
  6194 ;; This function calls:
  6195 ;;		Nothing
  6196 ;; This function is called by:
  6197 ;;		_I2C1_Open
  6198 ;; This function uses a non-reentrant model
  6199 ;;
  6200                           
  6201                           	psect	text25
  6202  003DF4                     __ptext25:
  6203                           	callstack 0
  6204  003DF4                     _I2C1_SetInterruptHandler:
  6205                           	callstack 17
  6206  003DF4                     
  6207                           ;mcc_generated_files/i2c1_master.c: 299: void I2C1_SetInterruptHandler(void (* Interrupt
      +                          Handler)(void));mcc_generated_files/i2c1_master.c: 300: {;mcc_generated_files/i2c1_maste
      +                          r.c: 301:     MSSP1_InterruptHandler = InterruptHandler;
  6208  003DF4  C018  F03C         	movff	I2C1_SetInterruptHandler@InterruptHandler,_MSSP1_InterruptHandler
  6209  003DF8  C019  F03D         	movff	I2C1_SetInterruptHandler@InterruptHandler+1,_MSSP1_InterruptHandler+1
  6210  003DFC  0012               	return		;funcret
  6211  003DFE                     __end_of_I2C1_SetInterruptHandler:
  6212                           	callstack 0
  6213                           
  6214 ;; *************** function _I2C1_MasterOpen *****************
  6215 ;; Defined at:
  6216 ;;		line 544 in file "mcc_generated_files/i2c1_master.c"
  6217 ;; Parameters:    Size  Location     Type
  6218 ;;		None
  6219 ;; Auto vars:     Size  Location     Type
  6220 ;;		None
  6221 ;; Return value:  Size  Location     Type
  6222 ;;                  1    wreg      _Bool 
  6223 ;; Registers used:
  6224 ;;		wreg, status,2
  6225 ;; Tracked objects:
  6226 ;;		On entry : 0/0
  6227 ;;		On exit  : 0/0
  6228 ;;		Unchanged: 0/0
  6229 ;; Data sizes:     COMRAM   BANK0   BANK1   BANK2   BANK3   BANK4   BANK5   BANK6   BANK7   BANK8   BANK9  BANK10  BANK1
      +1  BANK12  BANK13  BANK14
  6230 ;;      Params:         0       0       0       0       0       0       0       0       0       0       0       0       
      +0       0       0       0
  6231 ;;      Locals:         0       0       0       0       0       0       0       0       0       0       0       0       
      +0       0       0       0
  6232 ;;      Temps:          0       0       0       0       0       0       0       0       0       0       0       0       
      +0       0       0       0
  6233 ;;      Totals:         0       0       0       0       0       0       0       0       0       0       0       0       
      +0       0       0       0
  6234 ;;Total ram usage:        0 bytes
  6235 ;; Hardware stack levels used: 1
  6236 ;; Hardware stack levels required when called: 7
  6237 ;; This function calls:
  6238 ;;		Nothing
  6239 ;; This function is called by:
  6240 ;;		_I2C1_Open
  6241 ;; This function uses a non-reentrant model
  6242 ;;
  6243                           
  6244                           	psect	text26
  6245  003C8C                     __ptext26:
  6246                           	callstack 0
  6247  003C8C                     _I2C1_MasterOpen:
  6248                           	callstack 17
  6249  003C8C                     
  6250                           ;mcc_generated_files/i2c1_master.c: 546:     if(!SSP1CON1bits.SSPEN)
  6251  003C8C  BAC6               	btfsc	198,5,c	;volatile
  6252  003C8E  EF4B  F01E         	goto	u5021
  6253  003C92  EF4D  F01E         	goto	u5020
  6254  003C96                     u5021:
  6255  003C96  EF56  F01E         	goto	l564
  6256  003C9A                     u5020:
  6257  003C9A                     
  6258                           ;mcc_generated_files/i2c1_master.c: 547:     {;mcc_generated_files/i2c1_master.c: 548:  
      +                                 SSP1STAT = 0x80;
  6259  003C9A  0E80               	movlw	128
  6260  003C9C  6EC7               	movwf	199,c	;volatile
  6261                           
  6262                           ;mcc_generated_files/i2c1_master.c: 549:         SSP1CON1 = 0x08;
  6263  003C9E  0E08               	movlw	8
  6264  003CA0  6EC6               	movwf	198,c	;volatile
  6265                           
  6266                           ;mcc_generated_files/i2c1_master.c: 550:         SSP1CON2 = 0x00;
  6267  003CA2  0E00               	movlw	0
  6268  003CA4  6EC5               	movwf	197,c	;volatile
  6269                           
  6270                           ;mcc_generated_files/i2c1_master.c: 551:         SSP1ADD = 0xEF;
  6271  003CA6  0EEF               	movlw	239
  6272  003CA8  6EC8               	movwf	200,c	;volatile
  6273  003CAA                     
  6274                           ;mcc_generated_files/i2c1_master.c: 552:         SSP1CON1bits.SSPEN = 1;
  6275  003CAA  8AC6               	bsf	198,5,c	;volatile
  6276  003CAC                     l564:
  6277  003CAC  0012               	return		;funcret
  6278  003CAE                     __end_of_I2C1_MasterOpen:
  6279                           	callstack 0
  6280                           
  6281 ;; *************** function _I2C1_MasterEnableIrq *****************
  6282 ;; Defined at:
  6283 ;;		line 627 in file "mcc_generated_files/i2c1_master.c"
  6284 ;; Parameters:    Size  Location     Type
  6285 ;;		None
  6286 ;; Auto vars:     Size  Location     Type
  6287 ;;		None
  6288 ;; Return value:  Size  Location     Type
  6289 ;;                  1    wreg      void 
  6290 ;; Registers used:
  6291 ;;		None
  6292 ;; Tracked objects:
  6293 ;;		On entry : 0/0
  6294 ;;		On exit  : 0/0
  6295 ;;		Unchanged: 0/0
  6296 ;; Data sizes:     COMRAM   BANK0   BANK1   BANK2   BANK3   BANK4   BANK5   BANK6   BANK7   BANK8   BANK9  BANK10  BANK1
      +1  BANK12  BANK13  BANK14
  6297 ;;      Params:         0       0       0       0       0       0       0       0       0       0       0       0       
      +0       0       0       0
  6298 ;;      Locals:         0       0       0       0       0       0       0       0       0       0       0       0       
      +0       0       0       0
  6299 ;;      Temps:          0       0       0       0       0       0       0       0       0       0       0       0       
      +0       0       0       0
  6300 ;;      Totals:         0       0       0       0       0       0       0       0       0       0       0       0       
      +0       0       0       0
  6301 ;;Total ram usage:        0 bytes
  6302 ;; Hardware stack levels used: 1
  6303 ;; Hardware stack levels required when called: 7
  6304 ;; This function calls:
  6305 ;;		Nothing
  6306 ;; This function is called by:
  6307 ;;		_I2C1_Open
  6308 ;;		_I2C1_SetTimeOut
  6309 ;; This function uses a non-reentrant model
  6310 ;;
  6311                           
  6312                           	psect	text27
  6313  003E9A                     __ptext27:
  6314                           	callstack 0
  6315  003E9A                     _I2C1_MasterEnableIrq:
  6316                           	callstack 17
  6317  003E9A                     
  6318                           ;mcc_generated_files/i2c1_master.c: 629:     PIE1bits.SSP1IE = 1;
  6319  003E9A  869D               	bsf	157,3,c	;volatile
  6320  003E9C  0012               	return		;funcret
  6321  003E9E                     __end_of_I2C1_MasterEnableIrq:
  6322                           	callstack 0
  6323                           
  6324 ;; *************** function _I2C1_MasterWrite *****************
  6325 ;; Defined at:
  6326 ;;		line 252 in file "mcc_generated_files/i2c1_master.c"
  6327 ;; Parameters:    Size  Location     Type
  6328 ;;		None
  6329 ;; Auto vars:     Size  Location     Type
  6330 ;;		None
  6331 ;; Return value:  Size  Location     Type
  6332 ;;                  1    wreg      enum E355
  6333 ;; Registers used:
  6334 ;;		wreg, status,2, cstack
  6335 ;; Tracked objects:
  6336 ;;		On entry : 0/0
  6337 ;;		On exit  : 0/0
  6338 ;;		Unchanged: 0/0
  6339 ;; Data sizes:     COMRAM   BANK0   BANK1   BANK2   BANK3   BANK4   BANK5   BANK6   BANK7   BANK8   BANK9  BANK10  BANK1
      +1  BANK12  BANK13  BANK14
  6340 ;;      Params:         0       0       0       0       0       0       0       0       0       0       0       0       
      +0       0       0       0
  6341 ;;      Locals:         0       0       0       0       0       0       0       0       0       0       0       0       
      +0       0       0       0
  6342 ;;      Temps:          0       0       0       0       0       0       0       0       0       0       0       0       
      +0       0       0       0
  6343 ;;      Totals:         0       0       0       0       0       0       0       0       0       0       0       0       
      +0       0       0       0
  6344 ;;Total ram usage:        0 bytes
  6345 ;; Hardware stack levels used: 1
  6346 ;; Hardware stack levels required when called: 9
  6347 ;; This function calls:
  6348 ;;		_I2C1_MasterOperation
  6349 ;; This function is called by:
  6350 ;;		_I2C1_Write1ByteRegister
  6351 ;;		_I2C1_Read1ByteRegister
  6352 ;;		_I2C1_Read2ByteRegister
  6353 ;;		_I2C1_Write2ByteRegister
  6354 ;;		_I2C1_WriteNBytes
  6355 ;;		_I2C1_ReadDataBlock
  6356 ;; This function uses a non-reentrant model
  6357 ;;
  6358                           
  6359                           	psect	text28
  6360  003E30                     __ptext28:
  6361                           	callstack 0
  6362  003E30                     _I2C1_MasterWrite:
  6363                           	callstack 16
  6364  003E30                     
  6365                           ;mcc_generated_files/i2c1_master.c: 254:     return I2C1_MasterOperation(0);;	Return val
      +                          ue of _I2C1_MasterWrite is never used
  6366  003E30  0E00               	movlw	0
  6367  003E32  ECA0  F01C         	call	_I2C1_MasterOperation
  6368  003E36  0012               	return		;funcret
  6369  003E38                     __end_of_I2C1_MasterWrite:
  6370                           	callstack 0
  6371                           
  6372 ;; *************** function _I2C1_MasterOperation *****************
  6373 ;; Defined at:
  6374 ;;		line 226 in file "mcc_generated_files/i2c1_master.c"
  6375 ;; Parameters:    Size  Location     Type
  6376 ;;  read            1    wreg     _Bool 
  6377 ;; Auto vars:     Size  Location     Type
  6378 ;;  read            1   23[COMRAM] _Bool 
  6379 ;;  returnValue     1   24[COMRAM] enum E355
  6380 ;; Return value:  Size  Location     Type
  6381 ;;                  1    wreg      enum E355
  6382 ;; Registers used:
  6383 ;;		wreg, status,2, cstack
  6384 ;; Tracked objects:
  6385 ;;		On entry : 0/0
  6386 ;;		On exit  : 0/0
  6387 ;;		Unchanged: 0/0
  6388 ;; Data sizes:     COMRAM   BANK0   BANK1   BANK2   BANK3   BANK4   BANK5   BANK6   BANK7   BANK8   BANK9  BANK10  BANK1
      +1  BANK12  BANK13  BANK14
  6389 ;;      Params:         0       0       0       0       0       0       0       0       0       0       0       0       
      +0       0       0       0
  6390 ;;      Locals:         2       0       0       0       0       0       0       0       0       0       0       0       
      +0       0       0       0
  6391 ;;      Temps:          0       0       0       0       0       0       0       0       0       0       0       0       
      +0       0       0       0
  6392 ;;      Totals:         2       0       0       0       0       0       0       0       0       0       0       0       
      +0       0       0       0
  6393 ;;Total ram usage:        2 bytes
  6394 ;; Hardware stack levels used: 1
  6395 ;; Hardware stack levels required when called: 8
  6396 ;; This function calls:
  6397 ;;		_I2C1_MasterStart
  6398 ;; This function is called by:
  6399 ;;		_I2C1_MasterWrite
  6400 ;;		_I2C1_MasterRead
  6401 ;; This function uses a non-reentrant model
  6402 ;;
  6403                           
  6404                           	psect	text29
  6405  003940                     __ptext29:
  6406                           	callstack 0
  6407  003940                     _I2C1_MasterOperation:
  6408                           	callstack 16
  6409                           
  6410                           ;incstack = 0
  6411                           ;I2C1_MasterOperation@read stored from wreg
  6412  003940  6E18               	movwf	I2C1_MasterOperation@read^0,c
  6413  003942                     
  6414                           ;mcc_generated_files/i2c1_master.c: 226: i2c1_error_t I2C1_MasterOperation(_Bool read);m
      +                          cc_generated_files/i2c1_master.c: 227: {;mcc_generated_files/i2c1_master.c: 228:     i2c
      +                          1_error_t returnValue = I2C1_BUSY;
  6415  003942  0E01               	movlw	1
  6416  003944  6E19               	movwf	I2C1_MasterOperation@returnValue^0,c
  6417  003946                     
  6418                           ;mcc_generated_files/i2c1_master.c: 229:     if(!I2C1_Status.busy)
  6419  003946  0101               	movlb	1	; () banked
  6420  003948  B323               	btfsc	(_I2C1_Status+35)& (0+255),1,b
  6421  00394A  EFA9  F01C         	goto	u5031
  6422  00394E  EFAB  F01C         	goto	u5030
  6423  003952                     u5031:
  6424  003952  EFBE  F01C         	goto	l5782
  6425  003956                     u5030:
  6426  003956                     
  6427                           ; BSR set to: 1
  6428                           ;mcc_generated_files/i2c1_master.c: 230:     {;mcc_generated_files/i2c1_master.c: 231:  
      +                                 I2C1_Status.busy = 1;
  6429  003956  8323               	bsf	(_I2C1_Status+35)& (0+255),1,b
  6430  003958                     
  6431                           ; BSR set to: 1
  6432                           ;mcc_generated_files/i2c1_master.c: 232:         returnValue = I2C1_NOERR;
  6433  003958  0E00               	movlw	0
  6434  00395A  6E19               	movwf	I2C1_MasterOperation@returnValue^0,c
  6435  00395C                     
  6436                           ; BSR set to: 1
  6437                           ;mcc_generated_files/i2c1_master.c: 234:         if(read)
  6438  00395C  5018               	movf	I2C1_MasterOperation@read^0,w,c
  6439  00395E  B4D8               	btfsc	status,2,c
  6440  003960  EFB4  F01C         	goto	u5041
  6441  003964  EFB6  F01C         	goto	u5040
  6442  003968                     u5041:
  6443  003968  EFBA  F01C         	goto	l5778
  6444  00396C                     u5040:
  6445  00396C                     
  6446                           ; BSR set to: 1
  6447                           ;mcc_generated_files/i2c1_master.c: 235:         {;mcc_generated_files/i2c1_master.c: 23
      +                          6:             I2C1_Status.state = I2C1_SEND_ADR_READ;
  6448  00396C  0E01               	movlw	1
  6449  00396E  6F21               	movwf	(_I2C1_Status+33)& (0+255),b
  6450                           
  6451                           ;mcc_generated_files/i2c1_master.c: 237:         }
  6452  003970  EFBC  F01C         	goto	l5780
  6453  003974                     l5778:
  6454                           
  6455                           ; BSR set to: 1
  6456                           ;mcc_generated_files/i2c1_master.c: 239:         {;mcc_generated_files/i2c1_master.c: 24
      +                          0:             I2C1_Status.state = I2C1_SEND_ADR_WRITE;
  6457  003974  0E02               	movlw	2
  6458  003976  6F21               	movwf	(_I2C1_Status+33)& (0+255),b
  6459  003978                     l5780:
  6460                           
  6461                           ; BSR set to: 1
  6462                           ;mcc_generated_files/i2c1_master.c: 242:         I2C1_MasterStart();
  6463  003978  EC4F  F01F         	call	_I2C1_MasterStart	;wreg free
  6464  00397C                     l5782:
  6465                           
  6466                           ;mcc_generated_files/i2c1_master.c: 244:     return returnValue;
  6467  00397C  5019               	movf	I2C1_MasterOperation@returnValue^0,w,c
  6468  00397E  0012               	return		;funcret
  6469  003980                     __end_of_I2C1_MasterOperation:
  6470                           	callstack 0
  6471                           
  6472 ;; *************** function _I2C1_MasterStart *****************
  6473 ;; Defined at:
  6474 ;;		line 589 in file "mcc_generated_files/i2c1_master.c"
  6475 ;; Parameters:    Size  Location     Type
  6476 ;;		None
  6477 ;; Auto vars:     Size  Location     Type
  6478 ;;		None
  6479 ;; Return value:  Size  Location     Type
  6480 ;;                  1    wreg      void 
  6481 ;; Registers used:
  6482 ;;		None
  6483 ;; Tracked objects:
  6484 ;;		On entry : 0/0
  6485 ;;		On exit  : 0/0
  6486 ;;		Unchanged: 0/0
  6487 ;; Data sizes:     COMRAM   BANK0   BANK1   BANK2   BANK3   BANK4   BANK5   BANK6   BANK7   BANK8   BANK9  BANK10  BANK1
      +1  BANK12  BANK13  BANK14
  6488 ;;      Params:         0       0       0       0       0       0       0       0       0       0       0       0       
      +0       0       0       0
  6489 ;;      Locals:         0       0       0       0       0       0       0       0       0       0       0       0       
      +0       0       0       0
  6490 ;;      Temps:          0       0       0       0       0       0       0       0       0       0       0       0       
      +0       0       0       0
  6491 ;;      Totals:         0       0       0       0       0       0       0       0       0       0       0       0       
      +0       0       0       0
  6492 ;;Total ram usage:        0 bytes
  6493 ;; Hardware stack levels used: 1
  6494 ;; Hardware stack levels required when called: 7
  6495 ;; This function calls:
  6496 ;;		Nothing
  6497 ;; This function is called by:
  6498 ;;		_I2C1_MasterOperation
  6499 ;; This function uses a non-reentrant model
  6500 ;;
  6501                           
  6502                           	psect	text30
  6503  003E9E                     __ptext30:
  6504                           	callstack 0
  6505  003E9E                     _I2C1_MasterStart:
  6506                           	callstack 16
  6507  003E9E                     
  6508                           ;mcc_generated_files/i2c1_master.c: 591:     SSP1CON2bits.SEN = 1;
  6509  003E9E  80C5               	bsf	197,0,c	;volatile
  6510  003EA0  0012               	return		;funcret
  6511  003EA2                     __end_of_I2C1_MasterStart:
  6512                           	callstack 0
  6513                           
  6514 ;; *************** function _I2C1_Close *****************
  6515 ;; Defined at:
  6516 ;;		line 211 in file "mcc_generated_files/i2c1_master.c"
  6517 ;; Parameters:    Size  Location     Type
  6518 ;;		None
  6519 ;; Auto vars:     Size  Location     Type
  6520 ;;  returnValue     1   23[COMRAM] enum E355
  6521 ;; Return value:  Size  Location     Type
  6522 ;;                  1    wreg      enum E355
  6523 ;; Registers used:
  6524 ;;		wreg, status,2, cstack
  6525 ;; Tracked objects:
  6526 ;;		On entry : 0/0
  6527 ;;		On exit  : 0/0
  6528 ;;		Unchanged: 0/0
  6529 ;; Data sizes:     COMRAM   BANK0   BANK1   BANK2   BANK3   BANK4   BANK5   BANK6   BANK7   BANK8   BANK9  BANK10  BANK1
      +1  BANK12  BANK13  BANK14
  6530 ;;      Params:         0       0       0       0       0       0       0       0       0       0       0       0       
      +0       0       0       0
  6531 ;;      Locals:         1       0       0       0       0       0       0       0       0       0       0       0       
      +0       0       0       0
  6532 ;;      Temps:          0       0       0       0       0       0       0       0       0       0       0       0       
      +0       0       0       0
  6533 ;;      Totals:         1       0       0       0       0       0       0       0       0       0       0       0       
      +0       0       0       0
  6534 ;;Total ram usage:        1 bytes
  6535 ;; Hardware stack levels used: 1
  6536 ;; Hardware stack levels required when called: 8
  6537 ;; This function calls:
  6538 ;;		_I2C1_MasterClearIrq
  6539 ;;		_I2C1_MasterClose
  6540 ;;		_I2C1_MasterDisableIrq
  6541 ;; This function is called by:
  6542 ;;		_I2C1_Write1ByteRegister
  6543 ;;		_I2C1_Read1ByteRegister
  6544 ;;		_I2C1_Read2ByteRegister
  6545 ;;		_I2C1_Write2ByteRegister
  6546 ;;		_I2C1_WriteNBytes
  6547 ;;		_I2C1_ReadNBytes
  6548 ;;		_I2C1_ReadDataBlock
  6549 ;; This function uses a non-reentrant model
  6550 ;;
  6551                           
  6552                           	psect	text31
  6553  003A74                     __ptext31:
  6554                           	callstack 0
  6555  003A74                     _I2C1_Close:
  6556                           	callstack 17
  6557  003A74                     
  6558                           ;mcc_generated_files/i2c1_master.c: 213:     i2c1_error_t returnValue = I2C1_BUSY;
  6559  003A74  0E01               	movlw	1
  6560  003A76  6E18               	movwf	I2C1_Close@returnValue^0,c
  6561  003A78                     
  6562                           ;mcc_generated_files/i2c1_master.c: 214:     if(!I2C1_Status.busy)
  6563  003A78  0101               	movlb	1	; () banked
  6564  003A7A  B323               	btfsc	(_I2C1_Status+35)& (0+255),1,b
  6565  003A7C  EF42  F01D         	goto	u5081
  6566  003A80  EF44  F01D         	goto	u5080
  6567  003A84                     u5081:
  6568  003A84  EF4E  F01D         	goto	l5870
  6569  003A88                     u5080:
  6570  003A88                     
  6571                           ; BSR set to: 1
  6572                           ;mcc_generated_files/i2c1_master.c: 215:     {;mcc_generated_files/i2c1_master.c: 216:  
      +                                 I2C1_Status.inUse = 0;
  6573  003A88  9523               	bcf	(_I2C1_Status+35)& (0+255),2,b
  6574                           
  6575                           ;mcc_generated_files/i2c1_master.c: 217:         I2C1_Status.address = 0xff;
  6576  003A8A  691C               	setf	(_I2C1_Status+28)& (0+255),b
  6577  003A8C                     
  6578                           ; BSR set to: 1
  6579                           ;mcc_generated_files/i2c1_master.c: 218:         I2C1_MasterClearIrq();
  6580  003A8C  EC55  F01F         	call	_I2C1_MasterClearIrq	;wreg free
  6581                           
  6582                           ;mcc_generated_files/i2c1_master.c: 219:         I2C1_MasterDisableIrq();
  6583  003A90  EC51  F01F         	call	_I2C1_MasterDisableIrq	;wreg free
  6584                           
  6585                           ;mcc_generated_files/i2c1_master.c: 220:         I2C1_MasterClose();
  6586  003A94  EC53  F01F         	call	_I2C1_MasterClose	;wreg free
  6587  003A98                     
  6588                           ;mcc_generated_files/i2c1_master.c: 221:         returnValue = I2C1_Status.error;
  6589  003A98  C122  F018         	movff	_I2C1_Status+34,I2C1_Close@returnValue
  6590  003A9C                     l5870:
  6591                           
  6592                           ;mcc_generated_files/i2c1_master.c: 223:     return returnValue;
  6593  003A9C  5018               	movf	I2C1_Close@returnValue^0,w,c
  6594  003A9E  0012               	return		;funcret
  6595  003AA0                     __end_of_I2C1_Close:
  6596                           	callstack 0
  6597                           
  6598 ;; *************** function _I2C1_MasterDisableIrq *****************
  6599 ;; Defined at:
  6600 ;;		line 637 in file "mcc_generated_files/i2c1_master.c"
  6601 ;; Parameters:    Size  Location     Type
  6602 ;;		None
  6603 ;; Auto vars:     Size  Location     Type
  6604 ;;		None
  6605 ;; Return value:  Size  Location     Type
  6606 ;;                  1    wreg      void 
  6607 ;; Registers used:
  6608 ;;		None
  6609 ;; Tracked objects:
  6610 ;;		On entry : 0/0
  6611 ;;		On exit  : 0/0
  6612 ;;		Unchanged: 0/0
  6613 ;; Data sizes:     COMRAM   BANK0   BANK1   BANK2   BANK3   BANK4   BANK5   BANK6   BANK7   BANK8   BANK9  BANK10  BANK1
      +1  BANK12  BANK13  BANK14
  6614 ;;      Params:         0       0       0       0       0       0       0       0       0       0       0       0       
      +0       0       0       0
  6615 ;;      Locals:         0       0       0       0       0       0       0       0       0       0       0       0       
      +0       0       0       0
  6616 ;;      Temps:          0       0       0       0       0       0       0       0       0       0       0       0       
      +0       0       0       0
  6617 ;;      Totals:         0       0       0       0       0       0       0       0       0       0       0       0       
      +0       0       0       0
  6618 ;;Total ram usage:        0 bytes
  6619 ;; Hardware stack levels used: 1
  6620 ;; Hardware stack levels required when called: 7
  6621 ;; This function calls:
  6622 ;;		Nothing
  6623 ;; This function is called by:
  6624 ;;		_I2C1_Close
  6625 ;;		_I2C1_SetTimeOut
  6626 ;; This function uses a non-reentrant model
  6627 ;;
  6628                           
  6629                           	psect	text32
  6630  003EA2                     __ptext32:
  6631                           	callstack 0
  6632  003EA2                     _I2C1_MasterDisableIrq:
  6633                           	callstack 17
  6634  003EA2                     
  6635                           ;mcc_generated_files/i2c1_master.c: 639:     PIE1bits.SSP1IE = 0;
  6636  003EA2  969D               	bcf	157,3,c	;volatile
  6637  003EA4  0012               	return		;funcret
  6638  003EA6                     __end_of_I2C1_MasterDisableIrq:
  6639                           	callstack 0
  6640                           
  6641 ;; *************** function _I2C1_MasterClose *****************
  6642 ;; Defined at:
  6643 ;;		line 558 in file "mcc_generated_files/i2c1_master.c"
  6644 ;; Parameters:    Size  Location     Type
  6645 ;;		None
  6646 ;; Auto vars:     Size  Location     Type
  6647 ;;		None
  6648 ;; Return value:  Size  Location     Type
  6649 ;;                  1    wreg      void 
  6650 ;; Registers used:
  6651 ;;		None
  6652 ;; Tracked objects:
  6653 ;;		On entry : 0/0
  6654 ;;		On exit  : 0/0
  6655 ;;		Unchanged: 0/0
  6656 ;; Data sizes:     COMRAM   BANK0   BANK1   BANK2   BANK3   BANK4   BANK5   BANK6   BANK7   BANK8   BANK9  BANK10  BANK1
      +1  BANK12  BANK13  BANK14
  6657 ;;      Params:         0       0       0       0       0       0       0       0       0       0       0       0       
      +0       0       0       0
  6658 ;;      Locals:         0       0       0       0       0       0       0       0       0       0       0       0       
      +0       0       0       0
  6659 ;;      Temps:          0       0       0       0       0       0       0       0       0       0       0       0       
      +0       0       0       0
  6660 ;;      Totals:         0       0       0       0       0       0       0       0       0       0       0       0       
      +0       0       0       0
  6661 ;;Total ram usage:        0 bytes
  6662 ;; Hardware stack levels used: 1
  6663 ;; Hardware stack levels required when called: 7
  6664 ;; This function calls:
  6665 ;;		Nothing
  6666 ;; This function is called by:
  6667 ;;		_I2C1_Close
  6668 ;; This function uses a non-reentrant model
  6669 ;;
  6670                           
  6671                           	psect	text33
  6672  003EA6                     __ptext33:
  6673                           	callstack 0
  6674  003EA6                     _I2C1_MasterClose:
  6675                           	callstack 17
  6676  003EA6                     
  6677                           ;mcc_generated_files/i2c1_master.c: 561:     SSP1CON1bits.SSPEN = 0;
  6678  003EA6  9AC6               	bcf	198,5,c	;volatile
  6679  003EA8  0012               	return		;funcret
  6680  003EAA                     __end_of_I2C1_MasterClose:
  6681                           	callstack 0
  6682                           
  6683 ;; *************** function _I2C1_MasterClearIrq *****************
  6684 ;; Defined at:
  6685 ;;		line 642 in file "mcc_generated_files/i2c1_master.c"
  6686 ;; Parameters:    Size  Location     Type
  6687 ;;		None
  6688 ;; Auto vars:     Size  Location     Type
  6689 ;;		None
  6690 ;; Return value:  Size  Location     Type
  6691 ;;                  1    wreg      void 
  6692 ;; Registers used:
  6693 ;;		None
  6694 ;; Tracked objects:
  6695 ;;		On entry : 0/0
  6696 ;;		On exit  : 0/0
  6697 ;;		Unchanged: 0/0
  6698 ;; Data sizes:     COMRAM   BANK0   BANK1   BANK2   BANK3   BANK4   BANK5   BANK6   BANK7   BANK8   BANK9  BANK10  BANK1
      +1  BANK12  BANK13  BANK14
  6699 ;;      Params:         0       0       0       0       0       0       0       0       0       0       0       0       
      +0       0       0       0
  6700 ;;      Locals:         0       0       0       0       0       0       0       0       0       0       0       0       
      +0       0       0       0
  6701 ;;      Temps:          0       0       0       0       0       0       0       0       0       0       0       0       
      +0       0       0       0
  6702 ;;      Totals:         0       0       0       0       0       0       0       0       0       0       0       0       
      +0       0       0       0
  6703 ;;Total ram usage:        0 bytes
  6704 ;; Hardware stack levels used: 1
  6705 ;; Hardware stack levels required when called: 7
  6706 ;; This function calls:
  6707 ;;		Nothing
  6708 ;; This function is called by:
  6709 ;;		_I2C1_Open
  6710 ;;		_I2C1_Close
  6711 ;; This function uses a non-reentrant model
  6712 ;;
  6713                           
  6714                           	psect	text34
  6715  003EAA                     __ptext34:
  6716                           	callstack 0
  6717  003EAA                     _I2C1_MasterClearIrq:
  6718                           	callstack 17
  6719  003EAA                     
  6720                           ;mcc_generated_files/i2c1_master.c: 644:     PIR1bits.SSP1IF = 0;
  6721  003EAA  969E               	bcf	158,3,c	;volatile
  6722  003EAC  0012               	return		;funcret
  6723  003EAE                     __end_of_I2C1_MasterClearIrq:
  6724                           	callstack 0
  6725                           
  6726 ;; *************** function _millis *****************
  6727 ;; Defined at:
  6728 ;;		line 3 in file "timers.c"
  6729 ;; Parameters:    Size  Location     Type
  6730 ;;		None
  6731 ;; Auto vars:     Size  Location     Type
  6732 ;;  returnTime      4   86[BANK0 ] unsigned long 
  6733 ;; Return value:  Size  Location     Type
  6734 ;;                  4   82[BANK0 ] unsigned long 
  6735 ;; Registers used:
  6736 ;;		wreg, status,2, status,0, prodl, prodh, cstack
  6737 ;; Tracked objects:
  6738 ;;		On entry : 0/0
  6739 ;;		On exit  : 0/0
  6740 ;;		Unchanged: 0/0
  6741 ;; Data sizes:     COMRAM   BANK0   BANK1   BANK2   BANK3   BANK4   BANK5   BANK6   BANK7   BANK8   BANK9  BANK10  BANK1
      +1  BANK12  BANK13  BANK14
  6742 ;;      Params:         0       4       0       0       0       0       0       0       0       0       0       0       
      +0       0       0       0
  6743 ;;      Locals:         0       4       0       0       0       0       0       0       0       0       0       0       
      +0       0       0       0
  6744 ;;      Temps:          0       0       0       0       0       0       0       0       0       0       0       0       
      +0       0       0       0
  6745 ;;      Totals:         0       8       0       0       0       0       0       0       0       0       0       0       
      +0       0       0       0
  6746 ;;Total ram usage:        8 bytes
  6747 ;; Hardware stack levels used: 1
  6748 ;; Hardware stack levels required when called: 8
  6749 ;; This function calls:
  6750 ;;		_TMR1_ReadTimer
  6751 ;;		___flmul
  6752 ;;		___fltol
  6753 ;;		___xxtofl
  6754 ;; This function is called by:
  6755 ;;		_main
  6756 ;;		_displayHR
  6757 ;;		_displayTemp
  6758 ;;		_displayAlt
  6759 ;; This function uses a non-reentrant model
  6760 ;;
  6761                           
  6762                           	psect	text35
  6763  0036A8                     __ptext35:
  6764                           	callstack 0
  6765  0036A8                     _millis:
  6766                           	callstack 19
  6767  0036A8  0E00               	movlw	0
  6768  0036AA  0100               	movlb	0	; () banked
  6769  0036AC  6F64               	movwf	___flmul@a& (0+255),b
  6770  0036AE  0E00               	movlw	0
  6771  0036B0  6F65               	movwf	(___flmul@a+1)& (0+255),b
  6772  0036B2  0E80               	movlw	128
  6773  0036B4  6F66               	movwf	(___flmul@a+2)& (0+255),b
  6774  0036B6  0E3F               	movlw	63
  6775  0036B8  6F67               	movwf	(___flmul@a+3)& (0+255),b
  6776  0036BA  EC68  F01E         	call	_TMR1_ReadTimer	;wreg free
  6777  0036BE  C018  F020         	movff	?_TMR1_ReadTimer,___xxtofl@val
  6778  0036C2  C019  F021         	movff	?_TMR1_ReadTimer+1,___xxtofl@val+1
  6779  0036C6  6A22               	clrf	(___xxtofl@val+2)^0,c
  6780  0036C8  6A23               	clrf	(___xxtofl@val+3)^0,c
  6781  0036CA  0E00               	movlw	0
  6782  0036CC  EC36  F014         	call	___xxtofl
  6783  0036D0  C020  F060         	movff	?___xxtofl,___flmul@b
  6784  0036D4  C021  F061         	movff	?___xxtofl+1,___flmul@b+1
  6785  0036D8  C022  F062         	movff	?___xxtofl+2,___flmul@b+2
  6786  0036DC  C023  F063         	movff	?___xxtofl+3,___flmul@b+3
  6787  0036E0  ECF3  F009         	call	___flmul	;wreg free
  6788  0036E4  C060  F0A8         	movff	?___flmul,___fltol@f1
  6789  0036E8  C061  F0A9         	movff	?___flmul+1,___fltol@f1+1
  6790  0036EC  C062  F0AA         	movff	?___flmul+2,___fltol@f1+2
  6791  0036F0  C063  F0AB         	movff	?___flmul+3,___fltol@f1+3
  6792  0036F4  ECBA  F016         	call	___fltol	;wreg free
  6793  0036F8  C0A8  F0B6         	movff	?___fltol,millis@returnTime
  6794  0036FC  C0A9  F0B7         	movff	?___fltol+1,millis@returnTime+1
  6795  003700  C0AA  F0B8         	movff	?___fltol+2,millis@returnTime+2
  6796  003704  C0AB  F0B9         	movff	?___fltol+3,millis@returnTime+3
  6797  003708                     
  6798                           ;timers.c: 6:     return returnTime;
  6799  003708  C0B6  F0B2         	movff	millis@returnTime,?_millis
  6800  00370C  C0B7  F0B3         	movff	millis@returnTime+1,?_millis+1
  6801  003710  C0B8  F0B4         	movff	millis@returnTime+2,?_millis+2
  6802  003714  C0B9  F0B5         	movff	millis@returnTime+3,?_millis+3
  6803  003718  0012               	return		;funcret
  6804  00371A                     __end_of_millis:
  6805                           	callstack 0
  6806                           
  6807 ;; *************** function ___xxtofl *****************
  6808 ;; Defined at:
  6809 ;;		line 10 in file "C:\Program Files\Microchip\xc8\v2.35\pic\sources\c99\common\xxtofl.c"
  6810 ;; Parameters:    Size  Location     Type
  6811 ;;  sign            1    wreg     unsigned char 
  6812 ;;  val             4   31[COMRAM] long 
  6813 ;; Auto vars:     Size  Location     Type
  6814 ;;  sign            1   39[COMRAM] unsigned char 
  6815 ;;  arg             4   41[COMRAM] unsigned long 
  6816 ;;  exp             1   40[COMRAM] unsigned char 
  6817 ;; Return value:  Size  Location     Type
  6818 ;;                  4   31[COMRAM] unsigned char 
  6819 ;; Registers used:
  6820 ;;		wreg, status,2, status,0
  6821 ;; Tracked objects:
  6822 ;;		On entry : 0/0
  6823 ;;		On exit  : 0/0
  6824 ;;		Unchanged: 0/0
  6825 ;; Data sizes:     COMRAM   BANK0   BANK1   BANK2   BANK3   BANK4   BANK5   BANK6   BANK7   BANK8   BANK9  BANK10  BANK1
      +1  BANK12  BANK13  BANK14
  6826 ;;      Params:         4       0       0       0       0       0       0       0       0       0       0       0       
      +0       0       0       0
  6827 ;;      Locals:         6       0       0       0       0       0       0       0       0       0       0       0       
      +0       0       0       0
  6828 ;;      Temps:          4       0       0       0       0       0       0       0       0       0       0       0       
      +0       0       0       0
  6829 ;;      Totals:        14       0       0       0       0       0       0       0       0       0       0       0       
      +0       0       0       0
  6830 ;;Total ram usage:       14 bytes
  6831 ;; Hardware stack levels used: 1
  6832 ;; Hardware stack levels required when called: 7
  6833 ;; This function calls:
  6834 ;;		Nothing
  6835 ;; This function is called by:
  6836 ;;		_displayHR
  6837 ;;		_millis
  6838 ;; This function uses a non-reentrant model
  6839 ;;
  6840                           
  6841                           	psect	text36
  6842  00286C                     __ptext36:
  6843                           	callstack 0
  6844  00286C                     ___xxtofl:
  6845                           	callstack 19
  6846                           
  6847                           ;incstack = 0
  6848                           ;___xxtofl@sign stored from wreg
  6849  00286C  6E28               	movwf	___xxtofl@sign^0,c
  6850  00286E  5028               	movf	___xxtofl@sign^0,w,c
  6851  002870  B4D8               	btfsc	status,2,c
  6852  002872  EF3D  F014         	goto	u5831
  6853  002876  EF3F  F014         	goto	u5830
  6854  00287A                     u5831:
  6855  00287A  EF61  F014         	goto	l1709
  6856  00287E                     u5830:
  6857  00287E  BE23               	btfsc	(___xxtofl@val+3)^0,7,c
  6858  002880  EF46  F014         	goto	u5840
  6859  002884  EF44  F014         	goto	u5841
  6860  002888                     u5841:
  6861  002888  EF61  F014         	goto	l1709
  6862  00288C                     u5840:
  6863  00288C  C020  F024         	movff	___xxtofl@val,??___xxtofl
  6864  002890  C021  F025         	movff	___xxtofl@val+1,??___xxtofl+1
  6865  002894  C022  F026         	movff	___xxtofl@val+2,??___xxtofl+2
  6866  002898  C023  F027         	movff	___xxtofl@val+3,??___xxtofl+3
  6867  00289C  1E24               	comf	??___xxtofl^0,f,c
  6868  00289E  1E25               	comf	(??___xxtofl+1)^0,f,c
  6869  0028A0  1E26               	comf	(??___xxtofl+2)^0,f,c
  6870  0028A2  1E27               	comf	(??___xxtofl+3)^0,f,c
  6871  0028A4  2A24               	incf	??___xxtofl^0,f,c
  6872  0028A6  0E00               	movlw	0
  6873  0028A8  2225               	addwfc	(??___xxtofl+1)^0,f,c
  6874  0028AA  2226               	addwfc	(??___xxtofl+2)^0,f,c
  6875  0028AC  2227               	addwfc	(??___xxtofl+3)^0,f,c
  6876  0028AE  C024  F02A         	movff	??___xxtofl,___xxtofl@arg
  6877  0028B2  C025  F02B         	movff	??___xxtofl+1,___xxtofl@arg+1
  6878  0028B6  C026  F02C         	movff	??___xxtofl+2,___xxtofl@arg+2
  6879  0028BA  C027  F02D         	movff	??___xxtofl+3,___xxtofl@arg+3
  6880  0028BE  EF69  F014         	goto	l6322
  6881  0028C2                     l1709:
  6882  0028C2  C020  F02A         	movff	___xxtofl@val,___xxtofl@arg
  6883  0028C6  C021  F02B         	movff	___xxtofl@val+1,___xxtofl@arg+1
  6884  0028CA  C022  F02C         	movff	___xxtofl@val+2,___xxtofl@arg+2
  6885  0028CE  C023  F02D         	movff	___xxtofl@val+3,___xxtofl@arg+3
  6886  0028D2                     l6322:
  6887  0028D2  5020               	movf	___xxtofl@val^0,w,c
  6888  0028D4  1021               	iorwf	(___xxtofl@val+1)^0,w,c
  6889  0028D6  1022               	iorwf	(___xxtofl@val+2)^0,w,c
  6890  0028D8  1023               	iorwf	(___xxtofl@val+3)^0,w,c
  6891  0028DA  A4D8               	btfss	status,2,c
  6892  0028DC  EF72  F014         	goto	u5851
  6893  0028E0  EF74  F014         	goto	u5850
  6894  0028E4                     u5851:
  6895  0028E4  EF7E  F014         	goto	l6328
  6896  0028E8                     u5850:
  6897  0028E8  0E00               	movlw	0
  6898  0028EA  6E20               	movwf	?___xxtofl^0,c
  6899  0028EC  0E00               	movlw	0
  6900  0028EE  6E21               	movwf	(?___xxtofl+1)^0,c
  6901  0028F0  0E00               	movlw	0
  6902  0028F2  6E22               	movwf	(?___xxtofl+2)^0,c
  6903  0028F4  0E00               	movlw	0
  6904  0028F6  6E23               	movwf	(?___xxtofl+3)^0,c
  6905  0028F8  EF0F  F015         	goto	l1712
  6906  0028FC                     l6328:
  6907  0028FC  0E96               	movlw	150
  6908  0028FE  6E29               	movwf	___xxtofl@exp^0,c
  6909  002900  EF88  F014         	goto	l6332
  6910  002904                     l6330:
  6911  002904  2A29               	incf	___xxtofl@exp^0,f,c
  6912  002906  90D8               	bcf	status,0,c
  6913  002908  322D               	rrcf	(___xxtofl@arg+3)^0,f,c
  6914  00290A  322C               	rrcf	(___xxtofl@arg+2)^0,f,c
  6915  00290C  322B               	rrcf	(___xxtofl@arg+1)^0,f,c
  6916  00290E  322A               	rrcf	___xxtofl@arg^0,f,c
  6917  002910                     l6332:
  6918  002910  0E00               	movlw	0
  6919  002912  142A               	andwf	___xxtofl@arg^0,w,c
  6920  002914  6E24               	movwf	??___xxtofl^0,c
  6921  002916  0E00               	movlw	0
  6922  002918  142B               	andwf	(___xxtofl@arg+1)^0,w,c
  6923  00291A  6E25               	movwf	(??___xxtofl+1)^0,c
  6924  00291C  0E00               	movlw	0
  6925  00291E  142C               	andwf	(___xxtofl@arg+2)^0,w,c
  6926  002920  6E26               	movwf	(??___xxtofl+2)^0,c
  6927  002922  0EFE               	movlw	254
  6928  002924  142D               	andwf	(___xxtofl@arg+3)^0,w,c
  6929  002926  6E27               	movwf	(??___xxtofl+3)^0,c
  6930  002928  5024               	movf	??___xxtofl^0,w,c
  6931  00292A  1025               	iorwf	(??___xxtofl+1)^0,w,c
  6932  00292C  1026               	iorwf	(??___xxtofl+2)^0,w,c
  6933  00292E  1027               	iorwf	(??___xxtofl+3)^0,w,c
  6934  002930  A4D8               	btfss	status,2,c
  6935  002932  EF9D  F014         	goto	u5861
  6936  002936  EF9F  F014         	goto	u5860
  6937  00293A                     u5861:
  6938  00293A  EF82  F014         	goto	l6330
  6939  00293E                     u5860:
  6940  00293E  EFAD  F014         	goto	l1716
  6941  002942                     l6334:
  6942  002942  2A29               	incf	___xxtofl@exp^0,f,c
  6943  002944  0E01               	movlw	1
  6944  002946  262A               	addwf	___xxtofl@arg^0,f,c
  6945  002948  0E00               	movlw	0
  6946  00294A  222B               	addwfc	(___xxtofl@arg+1)^0,f,c
  6947  00294C  222C               	addwfc	(___xxtofl@arg+2)^0,f,c
  6948  00294E  222D               	addwfc	(___xxtofl@arg+3)^0,f,c
  6949  002950  90D8               	bcf	status,0,c
  6950  002952  322D               	rrcf	(___xxtofl@arg+3)^0,f,c
  6951  002954  322C               	rrcf	(___xxtofl@arg+2)^0,f,c
  6952  002956  322B               	rrcf	(___xxtofl@arg+1)^0,f,c
  6953  002958  322A               	rrcf	___xxtofl@arg^0,f,c
  6954  00295A                     l1716:
  6955  00295A  0E00               	movlw	0
  6956  00295C  142A               	andwf	___xxtofl@arg^0,w,c
  6957  00295E  6E24               	movwf	??___xxtofl^0,c
  6958  002960  0E00               	movlw	0
  6959  002962  142B               	andwf	(___xxtofl@arg+1)^0,w,c
  6960  002964  6E25               	movwf	(??___xxtofl+1)^0,c
  6961  002966  0E00               	movlw	0
  6962  002968  142C               	andwf	(___xxtofl@arg+2)^0,w,c
  6963  00296A  6E26               	movwf	(??___xxtofl+2)^0,c
  6964  00296C  0EFF               	movlw	255
  6965  00296E  142D               	andwf	(___xxtofl@arg+3)^0,w,c
  6966  002970  6E27               	movwf	(??___xxtofl+3)^0,c
  6967  002972  5024               	movf	??___xxtofl^0,w,c
  6968  002974  1025               	iorwf	(??___xxtofl+1)^0,w,c
  6969  002976  1026               	iorwf	(??___xxtofl+2)^0,w,c
  6970  002978  1027               	iorwf	(??___xxtofl+3)^0,w,c
  6971  00297A  A4D8               	btfss	status,2,c
  6972  00297C  EFC2  F014         	goto	u5871
  6973  002980  EFC4  F014         	goto	u5870
  6974  002984                     u5871:
  6975  002984  EFA1  F014         	goto	l6334
  6976  002988                     u5870:
  6977  002988  EFCC  F014         	goto	l6342
  6978  00298C                     l6340:
  6979  00298C  0629               	decf	___xxtofl@exp^0,f,c
  6980  00298E  90D8               	bcf	status,0,c
  6981  002990  362A               	rlcf	___xxtofl@arg^0,f,c
  6982  002992  362B               	rlcf	(___xxtofl@arg+1)^0,f,c
  6983  002994  362C               	rlcf	(___xxtofl@arg+2)^0,f,c
  6984  002996  362D               	rlcf	(___xxtofl@arg+3)^0,f,c
  6985  002998                     l6342:
  6986  002998  BE2C               	btfsc	(___xxtofl@arg+2)^0,7,c
  6987  00299A  EFD1  F014         	goto	u5881
  6988  00299E  EFD3  F014         	goto	u5880
  6989  0029A2                     u5881:
  6990  0029A2  EFDB  F014         	goto	l1723
  6991  0029A6                     u5880:
  6992  0029A6  0E02               	movlw	2
  6993  0029A8  6029               	cpfslt	___xxtofl@exp^0,c
  6994  0029AA  EFD9  F014         	goto	u5891
  6995  0029AE  EFDB  F014         	goto	u5890
  6996  0029B2                     u5891:
  6997  0029B2  EFC6  F014         	goto	l6340
  6998  0029B6                     u5890:
  6999  0029B6                     l1723:
  7000  0029B6  B029               	btfsc	___xxtofl@exp^0,0,c
  7001  0029B8  EFE0  F014         	goto	u5901
  7002  0029BC  EFE2  F014         	goto	u5900
  7003  0029C0                     u5901:
  7004  0029C0  EFE3  F014         	goto	l6348
  7005  0029C4                     u5900:
  7006  0029C4  9E2C               	bcf	(___xxtofl@arg+2)^0,7,c
  7007  0029C6                     l6348:
  7008  0029C6  90D8               	bcf	status,0,c
  7009  0029C8  3229               	rrcf	___xxtofl@exp^0,f,c
  7010  0029CA  C029  F024         	movff	___xxtofl@exp,??___xxtofl
  7011  0029CE  6A25               	clrf	(??___xxtofl+1)^0,c
  7012  0029D0  6A26               	clrf	(??___xxtofl+2)^0,c
  7013  0029D2  6A27               	clrf	(??___xxtofl+3)^0,c
  7014  0029D4  C024  F027         	movff	??___xxtofl,??___xxtofl+3
  7015  0029D8  6A26               	clrf	(??___xxtofl+2)^0,c
  7016  0029DA  6A25               	clrf	(??___xxtofl+1)^0,c
  7017  0029DC  6A24               	clrf	??___xxtofl^0,c
  7018  0029DE  5024               	movf	??___xxtofl^0,w,c
  7019  0029E0  122A               	iorwf	___xxtofl@arg^0,f,c
  7020  0029E2  5025               	movf	(??___xxtofl+1)^0,w,c
  7021  0029E4  122B               	iorwf	(___xxtofl@arg+1)^0,f,c
  7022  0029E6  5026               	movf	(??___xxtofl+2)^0,w,c
  7023  0029E8  122C               	iorwf	(___xxtofl@arg+2)^0,f,c
  7024  0029EA  5027               	movf	(??___xxtofl+3)^0,w,c
  7025  0029EC  122D               	iorwf	(___xxtofl@arg+3)^0,f,c
  7026  0029EE  5028               	movf	___xxtofl@sign^0,w,c
  7027  0029F0  B4D8               	btfsc	status,2,c
  7028  0029F2  EFFD  F014         	goto	u5911
  7029  0029F6  EFFF  F014         	goto	u5910
  7030  0029FA                     u5911:
  7031  0029FA  EF07  F015         	goto	l6358
  7032  0029FE                     u5910:
  7033  0029FE  BE23               	btfsc	(___xxtofl@val+3)^0,7,c
  7034  002A00  EF06  F015         	goto	u5920
  7035  002A04  EF04  F015         	goto	u5921
  7036  002A08                     u5921:
  7037  002A08  EF07  F015         	goto	l6358
  7038  002A0C                     u5920:
  7039  002A0C  8E2D               	bsf	(___xxtofl@arg+3)^0,7,c
  7040  002A0E                     l6358:
  7041  002A0E  C02A  F020         	movff	___xxtofl@arg,?___xxtofl
  7042  002A12  C02B  F021         	movff	___xxtofl@arg+1,?___xxtofl+1
  7043  002A16  C02C  F022         	movff	___xxtofl@arg+2,?___xxtofl+2
  7044  002A1A  C02D  F023         	movff	___xxtofl@arg+3,?___xxtofl+3
  7045  002A1E                     l1712:
  7046  002A1E  0012               	return		;funcret
  7047  002A20                     __end_of___xxtofl:
  7048                           	callstack 0
  7049                           
  7050 ;; *************** function ___fltol *****************
  7051 ;; Defined at:
  7052 ;;		line 43 in file "C:\Program Files\Microchip\xc8\v2.35\pic\sources\c99\common\fltol.c"
  7053 ;; Parameters:    Size  Location     Type
  7054 ;;  f1              4   72[BANK0 ] unsigned char 
  7055 ;; Auto vars:     Size  Location     Type
  7056 ;;  exp1            1   81[BANK0 ] unsigned char 
  7057 ;;  sign1           1   80[BANK0 ] unsigned char 
  7058 ;; Return value:  Size  Location     Type
  7059 ;;                  4   72[BANK0 ] long 
  7060 ;; Registers used:
  7061 ;;		wreg, status,2, status,0
  7062 ;; Tracked objects:
  7063 ;;		On entry : 0/0
  7064 ;;		On exit  : 0/0
  7065 ;;		Unchanged: 0/0
  7066 ;; Data sizes:     COMRAM   BANK0   BANK1   BANK2   BANK3   BANK4   BANK5   BANK6   BANK7   BANK8   BANK9  BANK10  BANK1
      +1  BANK12  BANK13  BANK14
  7067 ;;      Params:         0       4       0       0       0       0       0       0       0       0       0       0       
      +0       0       0       0
  7068 ;;      Locals:         0       2       0       0       0       0       0       0       0       0       0       0       
      +0       0       0       0
  7069 ;;      Temps:          0       4       0       0       0       0       0       0       0       0       0       0       
      +0       0       0       0
  7070 ;;      Totals:         0      10       0       0       0       0       0       0       0       0       0       0       
      +0       0       0       0
  7071 ;;Total ram usage:       10 bytes
  7072 ;; Hardware stack levels used: 1
  7073 ;; Hardware stack levels required when called: 7
  7074 ;; This function calls:
  7075 ;;		Nothing
  7076 ;; This function is called by:
  7077 ;;		_displayHR
  7078 ;;		_millis
  7079 ;; This function uses a non-reentrant model
  7080 ;;
  7081                           
  7082                           	psect	text37
  7083  002D74                     __ptext37:
  7084                           	callstack 0
  7085  002D74                     ___fltol:
  7086                           	callstack 19
  7087  002D74  0100               	movlb	0	; () banked
  7088  002D76  35AA               	rlcf	(___fltol@f1+2)& (0+255),w,b
  7089  002D78  35AB               	rlcf	(___fltol@f1+3)& (0+255),w,b
  7090  002D7A  6FB1               	movwf	___fltol@exp1& (0+255),b
  7091  002D7C  51B1               	movf	___fltol@exp1& (0+255),w,b
  7092  002D7E  A4D8               	btfss	status,2,c
  7093  002D80  EFC4  F016         	goto	u5761
  7094  002D84  EFC6  F016         	goto	u5760
  7095  002D88                     u5761:
  7096  002D88  EFD0  F016         	goto	l6278
  7097  002D8C                     u5760:
  7098  002D8C                     l6274:
  7099                           
  7100                           ; BSR set to: 0
  7101  002D8C  0E00               	movlw	0
  7102  002D8E  6FA8               	movwf	?___fltol& (0+255),b
  7103  002D90  0E00               	movlw	0
  7104  002D92  6FA9               	movwf	(?___fltol+1)& (0+255),b
  7105  002D94  0E00               	movlw	0
  7106  002D96  6FAA               	movwf	(?___fltol+2)& (0+255),b
  7107  002D98  0E00               	movlw	0
  7108  002D9A  6FAB               	movwf	(?___fltol+3)& (0+255),b
  7109  002D9C  EF3D  F017         	goto	l1351
  7110  002DA0                     l6278:
  7111                           
  7112                           ; BSR set to: 0
  7113  002DA0  C0A8  F0AC         	movff	___fltol@f1,??___fltol
  7114  002DA4  C0A9  F0AD         	movff	___fltol@f1+1,??___fltol+1
  7115  002DA8  C0AA  F0AE         	movff	___fltol@f1+2,??___fltol+2
  7116  002DAC  C0AB  F0AF         	movff	___fltol@f1+3,??___fltol+3
  7117  002DB0  0E20               	movlw	32
  7118  002DB2  EFE0  F016         	goto	u5770
  7119  002DB6                     u5775:
  7120  002DB6  90D8               	bcf	status,0,c
  7121  002DB8  33AF               	rrcf	(??___fltol+3)& (0+255),f,b
  7122  002DBA  33AE               	rrcf	(??___fltol+2)& (0+255),f,b
  7123  002DBC  33AD               	rrcf	(??___fltol+1)& (0+255),f,b
  7124  002DBE  33AC               	rrcf	??___fltol& (0+255),f,b
  7125  002DC0                     u5770:
  7126  002DC0  2EE8               	decfsz	wreg,f,c
  7127  002DC2  EFDB  F016         	goto	u5775
  7128  002DC6  51AC               	movf	??___fltol& (0+255),w,b
  7129  002DC8  6FB0               	movwf	___fltol@sign1& (0+255),b
  7130  002DCA                     
  7131                           ; BSR set to: 0
  7132  002DCA  8FAA               	bsf	(___fltol@f1+2)& (0+255),7,b
  7133  002DCC                     
  7134                           ; BSR set to: 0
  7135  002DCC  0EFF               	movlw	255
  7136  002DCE  17A8               	andwf	___fltol@f1& (0+255),f,b
  7137  002DD0  0EFF               	movlw	255
  7138  002DD2  17A9               	andwf	(___fltol@f1+1)& (0+255),f,b
  7139  002DD4  0EFF               	movlw	255
  7140  002DD6  17AA               	andwf	(___fltol@f1+2)& (0+255),f,b
  7141  002DD8  0E00               	movlw	0
  7142  002DDA  17AB               	andwf	(___fltol@f1+3)& (0+255),f,b
  7143  002DDC                     
  7144                           ; BSR set to: 0
  7145  002DDC  0E96               	movlw	150
  7146  002DDE  5FB1               	subwf	___fltol@exp1& (0+255),f,b
  7147  002DE0                     
  7148                           ; BSR set to: 0
  7149  002DE0  BFB1               	btfsc	___fltol@exp1& (0+255),7,b
  7150  002DE2  EFF7  F016         	goto	u5780
  7151  002DE6  EFF5  F016         	goto	u5781
  7152  002DEA                     u5781:
  7153  002DEA  EF0D  F017         	goto	l6298
  7154  002DEE                     u5780:
  7155  002DEE                     
  7156                           ; BSR set to: 0
  7157  002DEE  51B1               	movf	___fltol@exp1& (0+255),w,b
  7158  002DF0  0A80               	xorlw	128
  7159  002DF2  0F97               	addlw	151
  7160  002DF4  B0D8               	btfsc	status,0,c
  7161  002DF6  EFFF  F016         	goto	u5791
  7162  002DFA  EF01  F017         	goto	u5790
  7163  002DFE                     u5791:
  7164  002DFE  EF03  F017         	goto	l6294
  7165  002E02                     u5790:
  7166  002E02  EFC6  F016         	goto	l6274
  7167  002E06                     l6294:
  7168                           
  7169                           ; BSR set to: 0
  7170  002E06  90D8               	bcf	status,0,c
  7171  002E08  33AB               	rrcf	(___fltol@f1+3)& (0+255),f,b
  7172  002E0A  33AA               	rrcf	(___fltol@f1+2)& (0+255),f,b
  7173  002E0C  33A9               	rrcf	(___fltol@f1+1)& (0+255),f,b
  7174  002E0E  33A8               	rrcf	___fltol@f1& (0+255),f,b
  7175  002E10                     
  7176                           ; BSR set to: 0
  7177  002E10  3FB1               	incfsz	___fltol@exp1& (0+255),f,b
  7178  002E12  EF03  F017         	goto	l6294
  7179  002E16  EF25  F017         	goto	l6308
  7180  002E1A                     l6298:
  7181                           
  7182                           ; BSR set to: 0
  7183  002E1A  0E1F               	movlw	31
  7184  002E1C  65B1               	cpfsgt	___fltol@exp1& (0+255),b
  7185  002E1E  EF13  F017         	goto	u5801
  7186  002E22  EF15  F017         	goto	u5800
  7187  002E26                     u5801:
  7188  002E26  EF1D  F017         	goto	l6306
  7189  002E2A                     u5800:
  7190  002E2A  EFC6  F016         	goto	l6274
  7191  002E2E                     l6304:
  7192                           
  7193                           ; BSR set to: 0
  7194  002E2E  90D8               	bcf	status,0,c
  7195  002E30  37A8               	rlcf	___fltol@f1& (0+255),f,b
  7196  002E32  37A9               	rlcf	(___fltol@f1+1)& (0+255),f,b
  7197  002E34  37AA               	rlcf	(___fltol@f1+2)& (0+255),f,b
  7198  002E36  37AB               	rlcf	(___fltol@f1+3)& (0+255),f,b
  7199  002E38  07B1               	decf	___fltol@exp1& (0+255),f,b
  7200  002E3A                     l6306:
  7201                           
  7202                           ; BSR set to: 0
  7203  002E3A  51B1               	movf	___fltol@exp1& (0+255),w,b
  7204  002E3C  A4D8               	btfss	status,2,c
  7205  002E3E  EF23  F017         	goto	u5811
  7206  002E42  EF25  F017         	goto	u5810
  7207  002E46                     u5811:
  7208  002E46  EF17  F017         	goto	l6304
  7209  002E4A                     u5810:
  7210  002E4A                     l6308:
  7211                           
  7212                           ; BSR set to: 0
  7213  002E4A  51B0               	movf	___fltol@sign1& (0+255),w,b
  7214  002E4C  B4D8               	btfsc	status,2,c
  7215  002E4E  EF2B  F017         	goto	u5821
  7216  002E52  EF2D  F017         	goto	u5820
  7217  002E56                     u5821:
  7218  002E56  EF35  F017         	goto	l6312
  7219  002E5A                     u5820:
  7220  002E5A                     
  7221                           ; BSR set to: 0
  7222  002E5A  1FAB               	comf	(___fltol@f1+3)& (0+255),f,b
  7223  002E5C  1FAA               	comf	(___fltol@f1+2)& (0+255),f,b
  7224  002E5E  1FA9               	comf	(___fltol@f1+1)& (0+255),f,b
  7225  002E60  6DA8               	negf	___fltol@f1& (0+255),b
  7226  002E62  0E00               	movlw	0
  7227  002E64  23A9               	addwfc	(___fltol@f1+1)& (0+255),f,b
  7228  002E66  23AA               	addwfc	(___fltol@f1+2)& (0+255),f,b
  7229  002E68  23AB               	addwfc	(___fltol@f1+3)& (0+255),f,b
  7230  002E6A                     l6312:
  7231                           
  7232                           ; BSR set to: 0
  7233  002E6A  C0A8  F0A8         	movff	___fltol@f1,?___fltol
  7234  002E6E  C0A9  F0A9         	movff	___fltol@f1+1,?___fltol+1
  7235  002E72  C0AA  F0AA         	movff	___fltol@f1+2,?___fltol+2
  7236  002E76  C0AB  F0AB         	movff	___fltol@f1+3,?___fltol+3
  7237  002E7A                     l1351:
  7238                           
  7239                           ; BSR set to: 0
  7240  002E7A  0012               	return		;funcret
  7241  002E7C                     __end_of___fltol:
  7242                           	callstack 0
  7243                           
  7244 ;; *************** function ___flmul *****************
  7245 ;; Defined at:
  7246 ;;		line 8 in file "C:\Program Files\Microchip\xc8\v2.35\pic\sources\c99\common\sprcmul.c"
  7247 ;; Parameters:    Size  Location     Type
  7248 ;;  b               4    0[BANK0 ] long 
  7249 ;;  a               4    4[BANK0 ] long 
  7250 ;; Auto vars:     Size  Location     Type
  7251 ;;  prod            4   15[BANK0 ] struct .
  7252 ;;  grs             4   10[BANK0 ] unsigned long 
  7253 ;;  temp            2   19[BANK0 ] struct .
  7254 ;;  bexp            1   14[BANK0 ] unsigned char 
  7255 ;;  aexp            1    9[BANK0 ] unsigned char 
  7256 ;;  sign            1    8[BANK0 ] unsigned char 
  7257 ;; Return value:  Size  Location     Type
  7258 ;;                  4    0[BANK0 ] unsigned char 
  7259 ;; Registers used:
  7260 ;;		wreg, status,2, status,0, prodl, prodh
  7261 ;; Tracked objects:
  7262 ;;		On entry : 0/0
  7263 ;;		On exit  : 0/0
  7264 ;;		Unchanged: 0/0
  7265 ;; Data sizes:     COMRAM   BANK0   BANK1   BANK2   BANK3   BANK4   BANK5   BANK6   BANK7   BANK8   BANK9  BANK10  BANK1
      +1  BANK12  BANK13  BANK14
  7266 ;;      Params:         0       8       0       0       0       0       0       0       0       0       0       0       
      +0       0       0       0
  7267 ;;      Locals:         0      13       0       0       0       0       0       0       0       0       0       0       
      +0       0       0       0
  7268 ;;      Temps:          4       0       0       0       0       0       0       0       0       0       0       0       
      +0       0       0       0
  7269 ;;      Totals:         4      21       0       0       0       0       0       0       0       0       0       0       
      +0       0       0       0
  7270 ;;Total ram usage:       25 bytes
  7271 ;; Hardware stack levels used: 1
  7272 ;; Hardware stack levels required when called: 7
  7273 ;; This function calls:
  7274 ;;		Nothing
  7275 ;; This function is called by:
  7276 ;;		_displayHR
  7277 ;;		_millis
  7278 ;;		_roundf
  7279 ;; This function uses a non-reentrant model
  7280 ;;
  7281                           
  7282                           	psect	text38
  7283  0013E6                     __ptext38:
  7284                           	callstack 0
  7285  0013E6                     ___flmul:
  7286                           	callstack 19
  7287  0013E6  0100               	movlb	0	; () banked
  7288  0013E8  5163               	movf	(___flmul@b+3)& (0+255),w,b
  7289  0013EA  0B80               	andlw	128
  7290  0013EC  6F68               	movwf	___flmul@sign& (0+255),b
  7291  0013EE  5163               	movf	(___flmul@b+3)& (0+255),w,b
  7292  0013F0  2563               	addwf	(___flmul@b+3)& (0+255),w,b
  7293  0013F2  6F6E               	movwf	___flmul@bexp& (0+255),b
  7294  0013F4                     
  7295                           ; BSR set to: 0
  7296  0013F4  AF62               	btfss	(___flmul@b+2)& (0+255),7,b
  7297  0013F6  EFFF  F009         	goto	u5511
  7298  0013FA  EF01  F00A         	goto	u5510
  7299  0013FE                     u5511:
  7300  0013FE  EF02  F00A         	goto	l6112
  7301  001402                     u5510:
  7302  001402                     
  7303                           ; BSR set to: 0
  7304  001402  816E               	bsf	___flmul@bexp& (0+255),0,b
  7305  001404                     l6112:
  7306                           
  7307                           ; BSR set to: 0
  7308  001404  516E               	movf	___flmul@bexp& (0+255),w,b
  7309  001406  B4D8               	btfsc	status,2,c
  7310  001408  EF08  F00A         	goto	u5521
  7311  00140C  EF0A  F00A         	goto	u5520
  7312  001410                     u5521:
  7313  001410  EF1D  F00A         	goto	l6120
  7314  001414                     u5520:
  7315  001414                     
  7316                           ; BSR set to: 0
  7317  001414  296E               	incf	___flmul@bexp& (0+255),w,b
  7318  001416  A4D8               	btfss	status,2,c
  7319  001418  EF10  F00A         	goto	u5531
  7320  00141C  EF12  F00A         	goto	u5530
  7321  001420                     u5531:
  7322  001420  EF1A  F00A         	goto	l6118
  7323  001424                     u5530:
  7324  001424                     
  7325                           ; BSR set to: 0
  7326  001424  0E00               	movlw	0
  7327  001426  6F60               	movwf	___flmul@b& (0+255),b
  7328  001428  0E00               	movlw	0
  7329  00142A  6F61               	movwf	(___flmul@b+1)& (0+255),b
  7330  00142C  0E00               	movlw	0
  7331  00142E  6F62               	movwf	(___flmul@b+2)& (0+255),b
  7332  001430  0E00               	movlw	0
  7333  001432  6F63               	movwf	(___flmul@b+3)& (0+255),b
  7334  001434                     l6118:
  7335                           
  7336                           ; BSR set to: 0
  7337  001434  8F62               	bsf	(___flmul@b+2)& (0+255),7,b
  7338  001436  EF25  F00A         	goto	l6122
  7339  00143A                     l6120:
  7340                           
  7341                           ; BSR set to: 0
  7342  00143A  0E00               	movlw	0
  7343  00143C  6F60               	movwf	___flmul@b& (0+255),b
  7344  00143E  0E00               	movlw	0
  7345  001440  6F61               	movwf	(___flmul@b+1)& (0+255),b
  7346  001442  0E00               	movlw	0
  7347  001444  6F62               	movwf	(___flmul@b+2)& (0+255),b
  7348  001446  0E00               	movlw	0
  7349  001448  6F63               	movwf	(___flmul@b+3)& (0+255),b
  7350  00144A                     l6122:
  7351                           
  7352                           ; BSR set to: 0
  7353  00144A  5167               	movf	(___flmul@a+3)& (0+255),w,b
  7354  00144C  0B80               	andlw	128
  7355  00144E  1B68               	xorwf	___flmul@sign& (0+255),f,b
  7356  001450                     
  7357                           ; BSR set to: 0
  7358  001450  5167               	movf	(___flmul@a+3)& (0+255),w,b
  7359  001452  2567               	addwf	(___flmul@a+3)& (0+255),w,b
  7360  001454  6F69               	movwf	___flmul@aexp& (0+255),b
  7361  001456                     
  7362                           ; BSR set to: 0
  7363  001456  AF66               	btfss	(___flmul@a+2)& (0+255),7,b
  7364  001458  EF30  F00A         	goto	u5541
  7365  00145C  EF32  F00A         	goto	u5540
  7366  001460                     u5541:
  7367  001460  EF33  F00A         	goto	l6130
  7368  001464                     u5540:
  7369  001464                     
  7370                           ; BSR set to: 0
  7371  001464  8169               	bsf	___flmul@aexp& (0+255),0,b
  7372  001466                     l6130:
  7373                           
  7374                           ; BSR set to: 0
  7375  001466  5169               	movf	___flmul@aexp& (0+255),w,b
  7376  001468  B4D8               	btfsc	status,2,c
  7377  00146A  EF39  F00A         	goto	u5551
  7378  00146E  EF3B  F00A         	goto	u5550
  7379  001472                     u5551:
  7380  001472  EF4E  F00A         	goto	l6138
  7381  001476                     u5550:
  7382  001476                     
  7383                           ; BSR set to: 0
  7384  001476  2969               	incf	___flmul@aexp& (0+255),w,b
  7385  001478  A4D8               	btfss	status,2,c
  7386  00147A  EF41  F00A         	goto	u5561
  7387  00147E  EF43  F00A         	goto	u5560
  7388  001482                     u5561:
  7389  001482  EF4B  F00A         	goto	l6136
  7390  001486                     u5560:
  7391  001486                     
  7392                           ; BSR set to: 0
  7393  001486  0E00               	movlw	0
  7394  001488  6F64               	movwf	___flmul@a& (0+255),b
  7395  00148A  0E00               	movlw	0
  7396  00148C  6F65               	movwf	(___flmul@a+1)& (0+255),b
  7397  00148E  0E00               	movlw	0
  7398  001490  6F66               	movwf	(___flmul@a+2)& (0+255),b
  7399  001492  0E00               	movlw	0
  7400  001494  6F67               	movwf	(___flmul@a+3)& (0+255),b
  7401  001496                     l6136:
  7402                           
  7403                           ; BSR set to: 0
  7404  001496  8F66               	bsf	(___flmul@a+2)& (0+255),7,b
  7405  001498  EF56  F00A         	goto	l1668
  7406  00149C                     l6138:
  7407                           
  7408                           ; BSR set to: 0
  7409  00149C  0E00               	movlw	0
  7410  00149E  6F64               	movwf	___flmul@a& (0+255),b
  7411  0014A0  0E00               	movlw	0
  7412  0014A2  6F65               	movwf	(___flmul@a+1)& (0+255),b
  7413  0014A4  0E00               	movlw	0
  7414  0014A6  6F66               	movwf	(___flmul@a+2)& (0+255),b
  7415  0014A8  0E00               	movlw	0
  7416  0014AA  6F67               	movwf	(___flmul@a+3)& (0+255),b
  7417  0014AC                     l1668:
  7418                           
  7419                           ; BSR set to: 0
  7420  0014AC  5169               	movf	___flmul@aexp& (0+255),w,b
  7421  0014AE  B4D8               	btfsc	status,2,c
  7422  0014B0  EF5C  F00A         	goto	u5571
  7423  0014B4  EF5E  F00A         	goto	u5570
  7424  0014B8                     u5571:
  7425  0014B8  EF66  F00A         	goto	l6142
  7426  0014BC                     u5570:
  7427  0014BC                     
  7428                           ; BSR set to: 0
  7429  0014BC  516E               	movf	___flmul@bexp& (0+255),w,b
  7430  0014BE  A4D8               	btfss	status,2,c
  7431  0014C0  EF64  F00A         	goto	u5581
  7432  0014C4  EF66  F00A         	goto	u5580
  7433  0014C8                     u5581:
  7434  0014C8  EF70  F00A         	goto	l6146
  7435  0014CC                     u5580:
  7436  0014CC                     l6142:
  7437                           
  7438                           ; BSR set to: 0
  7439  0014CC  0E00               	movlw	0
  7440  0014CE  6F60               	movwf	?___flmul& (0+255),b
  7441  0014D0  0E00               	movlw	0
  7442  0014D2  6F61               	movwf	(?___flmul+1)& (0+255),b
  7443  0014D4  0E00               	movlw	0
  7444  0014D6  6F62               	movwf	(?___flmul+2)& (0+255),b
  7445  0014D8  0E00               	movlw	0
  7446  0014DA  6F63               	movwf	(?___flmul+3)& (0+255),b
  7447  0014DC  EF08  F00C         	goto	l1672
  7448  0014E0                     l6146:
  7449                           
  7450                           ; BSR set to: 0
  7451  0014E0  5166               	movf	(___flmul@a+2)& (0+255),w,b
  7452  0014E2  0360               	mulwf	___flmul@b& (0+255),b
  7453  0014E4  CFF3 F073          	movff	prodl,___flmul@temp
  7454  0014E8  CFF4 F074          	movff	prodh,___flmul@temp+1
  7455  0014EC                     
  7456                           ; BSR set to: 0
  7457  0014EC  5173               	movf	___flmul@temp& (0+255),w,b
  7458  0014EE  6F6A               	movwf	___flmul@grs& (0+255),b
  7459  0014F0  6B6B               	clrf	(___flmul@grs+1)& (0+255),b
  7460  0014F2  6B6C               	clrf	(___flmul@grs+2)& (0+255),b
  7461  0014F4  6B6D               	clrf	(___flmul@grs+3)& (0+255),b
  7462  0014F6                     
  7463                           ; BSR set to: 0
  7464  0014F6  5174               	movf	(___flmul@temp+1)& (0+255),w,b
  7465  0014F8  6F6F               	movwf	___flmul@prod& (0+255),b
  7466  0014FA  6B70               	clrf	(___flmul@prod+1)& (0+255),b
  7467  0014FC  6B71               	clrf	(___flmul@prod+2)& (0+255),b
  7468  0014FE  6B72               	clrf	(___flmul@prod+3)& (0+255),b
  7469  001500  5165               	movf	(___flmul@a+1)& (0+255),w,b
  7470  001502  0361               	mulwf	(___flmul@b+1)& (0+255),b
  7471  001504  CFF3 F073          	movff	prodl,___flmul@temp
  7472  001508  CFF4 F074          	movff	prodh,___flmul@temp+1
  7473  00150C                     
  7474                           ; BSR set to: 0
  7475  00150C  5173               	movf	___flmul@temp& (0+255),w,b
  7476  00150E  276A               	addwf	___flmul@grs& (0+255),f,b
  7477  001510  0E00               	movlw	0
  7478  001512  236B               	addwfc	(___flmul@grs+1)& (0+255),f,b
  7479  001514  236C               	addwfc	(___flmul@grs+2)& (0+255),f,b
  7480  001516  236D               	addwfc	(___flmul@grs+3)& (0+255),f,b
  7481  001518                     
  7482                           ; BSR set to: 0
  7483  001518  5174               	movf	(___flmul@temp+1)& (0+255),w,b
  7484  00151A  276F               	addwf	___flmul@prod& (0+255),f,b
  7485  00151C  0E00               	movlw	0
  7486  00151E  2370               	addwfc	(___flmul@prod+1)& (0+255),f,b
  7487  001520  2371               	addwfc	(___flmul@prod+2)& (0+255),f,b
  7488  001522  2372               	addwfc	(___flmul@prod+3)& (0+255),f,b
  7489  001524  5164               	movf	___flmul@a& (0+255),w,b
  7490  001526  0362               	mulwf	(___flmul@b+2)& (0+255),b
  7491  001528  CFF3 F073          	movff	prodl,___flmul@temp
  7492  00152C  CFF4 F074          	movff	prodh,___flmul@temp+1
  7493  001530                     
  7494                           ; BSR set to: 0
  7495  001530  5173               	movf	___flmul@temp& (0+255),w,b
  7496  001532  276A               	addwf	___flmul@grs& (0+255),f,b
  7497  001534  0E00               	movlw	0
  7498  001536  236B               	addwfc	(___flmul@grs+1)& (0+255),f,b
  7499  001538  236C               	addwfc	(___flmul@grs+2)& (0+255),f,b
  7500  00153A  236D               	addwfc	(___flmul@grs+3)& (0+255),f,b
  7501  00153C                     
  7502                           ; BSR set to: 0
  7503  00153C  5174               	movf	(___flmul@temp+1)& (0+255),w,b
  7504  00153E  276F               	addwf	___flmul@prod& (0+255),f,b
  7505  001540  0E00               	movlw	0
  7506  001542  2370               	addwfc	(___flmul@prod+1)& (0+255),f,b
  7507  001544  2371               	addwfc	(___flmul@prod+2)& (0+255),f,b
  7508  001546  2372               	addwfc	(___flmul@prod+3)& (0+255),f,b
  7509  001548                     
  7510                           ; BSR set to: 0
  7511  001548  C06C  F06D         	movff	___flmul@grs+2,___flmul@grs+3
  7512  00154C  C06B  F06C         	movff	___flmul@grs+1,___flmul@grs+2
  7513  001550  C06A  F06B         	movff	___flmul@grs,___flmul@grs+1
  7514  001554  6B6A               	clrf	___flmul@grs& (0+255),b
  7515  001556                     
  7516                           ; BSR set to: 0
  7517  001556  5164               	movf	___flmul@a& (0+255),w,b
  7518  001558  0361               	mulwf	(___flmul@b+1)& (0+255),b
  7519  00155A  CFF3 F073          	movff	prodl,___flmul@temp
  7520  00155E  CFF4 F074          	movff	prodh,___flmul@temp+1
  7521  001562                     
  7522                           ; BSR set to: 0
  7523  001562  5173               	movf	___flmul@temp& (0+255),w,b
  7524  001564  276A               	addwf	___flmul@grs& (0+255),f,b
  7525  001566  5174               	movf	(___flmul@temp+1)& (0+255),w,b
  7526  001568  236B               	addwfc	(___flmul@grs+1)& (0+255),f,b
  7527  00156A  0E00               	movlw	0
  7528  00156C  236C               	addwfc	(___flmul@grs+2)& (0+255),f,b
  7529  00156E  0E00               	movlw	0
  7530  001570  236D               	addwfc	(___flmul@grs+3)& (0+255),f,b
  7531  001572                     
  7532                           ; BSR set to: 0
  7533  001572  5165               	movf	(___flmul@a+1)& (0+255),w,b
  7534  001574  0360               	mulwf	___flmul@b& (0+255),b
  7535  001576  CFF3 F073          	movff	prodl,___flmul@temp
  7536  00157A  CFF4 F074          	movff	prodh,___flmul@temp+1
  7537  00157E                     
  7538                           ; BSR set to: 0
  7539  00157E  5173               	movf	___flmul@temp& (0+255),w,b
  7540  001580  276A               	addwf	___flmul@grs& (0+255),f,b
  7541  001582  5174               	movf	(___flmul@temp+1)& (0+255),w,b
  7542  001584  236B               	addwfc	(___flmul@grs+1)& (0+255),f,b
  7543  001586  0E00               	movlw	0
  7544  001588  236C               	addwfc	(___flmul@grs+2)& (0+255),f,b
  7545  00158A  0E00               	movlw	0
  7546  00158C  236D               	addwfc	(___flmul@grs+3)& (0+255),f,b
  7547  00158E                     
  7548                           ; BSR set to: 0
  7549  00158E  C06C  F06D         	movff	___flmul@grs+2,___flmul@grs+3
  7550  001592  C06B  F06C         	movff	___flmul@grs+1,___flmul@grs+2
  7551  001596  C06A  F06B         	movff	___flmul@grs,___flmul@grs+1
  7552  00159A  6B6A               	clrf	___flmul@grs& (0+255),b
  7553  00159C  5164               	movf	___flmul@a& (0+255),w,b
  7554  00159E  0360               	mulwf	___flmul@b& (0+255),b
  7555  0015A0  CFF3 F073          	movff	prodl,___flmul@temp
  7556  0015A4  CFF4 F074          	movff	prodh,___flmul@temp+1
  7557  0015A8                     
  7558                           ; BSR set to: 0
  7559  0015A8  5173               	movf	___flmul@temp& (0+255),w,b
  7560  0015AA  276A               	addwf	___flmul@grs& (0+255),f,b
  7561  0015AC  5174               	movf	(___flmul@temp+1)& (0+255),w,b
  7562  0015AE  236B               	addwfc	(___flmul@grs+1)& (0+255),f,b
  7563  0015B0  0E00               	movlw	0
  7564  0015B2  236C               	addwfc	(___flmul@grs+2)& (0+255),f,b
  7565  0015B4  0E00               	movlw	0
  7566  0015B6  236D               	addwfc	(___flmul@grs+3)& (0+255),f,b
  7567  0015B8                     
  7568                           ; BSR set to: 0
  7569  0015B8  5166               	movf	(___flmul@a+2)& (0+255),w,b
  7570  0015BA  0361               	mulwf	(___flmul@b+1)& (0+255),b
  7571  0015BC  CFF3 F073          	movff	prodl,___flmul@temp
  7572  0015C0  CFF4 F074          	movff	prodh,___flmul@temp+1
  7573  0015C4  5173               	movf	___flmul@temp& (0+255),w,b
  7574  0015C6  276F               	addwf	___flmul@prod& (0+255),f,b
  7575  0015C8  5174               	movf	(___flmul@temp+1)& (0+255),w,b
  7576  0015CA  2370               	addwfc	(___flmul@prod+1)& (0+255),f,b
  7577  0015CC  0E00               	movlw	0
  7578  0015CE  2371               	addwfc	(___flmul@prod+2)& (0+255),f,b
  7579  0015D0  0E00               	movlw	0
  7580  0015D2  2372               	addwfc	(___flmul@prod+3)& (0+255),f,b
  7581  0015D4                     
  7582                           ; BSR set to: 0
  7583  0015D4  5165               	movf	(___flmul@a+1)& (0+255),w,b
  7584  0015D6  0362               	mulwf	(___flmul@b+2)& (0+255),b
  7585  0015D8  CFF3 F073          	movff	prodl,___flmul@temp
  7586  0015DC  CFF4 F074          	movff	prodh,___flmul@temp+1
  7587  0015E0                     
  7588                           ; BSR set to: 0
  7589  0015E0  5173               	movf	___flmul@temp& (0+255),w,b
  7590  0015E2  276F               	addwf	___flmul@prod& (0+255),f,b
  7591  0015E4  5174               	movf	(___flmul@temp+1)& (0+255),w,b
  7592  0015E6  2370               	addwfc	(___flmul@prod+1)& (0+255),f,b
  7593  0015E8  0E00               	movlw	0
  7594  0015EA  2371               	addwfc	(___flmul@prod+2)& (0+255),f,b
  7595  0015EC  0E00               	movlw	0
  7596  0015EE  2372               	addwfc	(___flmul@prod+3)& (0+255),f,b
  7597  0015F0  5166               	movf	(___flmul@a+2)& (0+255),w,b
  7598  0015F2  0362               	mulwf	(___flmul@b+2)& (0+255),b
  7599  0015F4  CFF3 F073          	movff	prodl,___flmul@temp
  7600  0015F8  CFF4 F074          	movff	prodh,___flmul@temp+1
  7601  0015FC                     
  7602                           ; BSR set to: 0
  7603  0015FC  5173               	movf	___flmul@temp& (0+255),w,b
  7604  0015FE  6E2E               	movwf	??___flmul^0,c
  7605  001600  5174               	movf	(___flmul@temp+1)& (0+255),w,b
  7606  001602  6E2F               	movwf	(??___flmul+1)^0,c
  7607  001604  6A30               	clrf	(??___flmul+2)^0,c
  7608  001606  6A31               	clrf	(??___flmul+3)^0,c
  7609  001608  C030  F031         	movff	??___flmul+2,??___flmul+3
  7610  00160C  C02F  F030         	movff	??___flmul+1,??___flmul+2
  7611  001610  C02E  F02F         	movff	??___flmul,??___flmul+1
  7612  001614  6A2E               	clrf	??___flmul^0,c
  7613  001616  502E               	movf	??___flmul^0,w,c
  7614  001618  276F               	addwf	___flmul@prod& (0+255),f,b
  7615  00161A  502F               	movf	(??___flmul+1)^0,w,c
  7616  00161C  2370               	addwfc	(___flmul@prod+1)& (0+255),f,b
  7617  00161E  5030               	movf	(??___flmul+2)^0,w,c
  7618  001620  2371               	addwfc	(___flmul@prod+2)& (0+255),f,b
  7619  001622  5031               	movf	(??___flmul+3)^0,w,c
  7620  001624  2372               	addwfc	(___flmul@prod+3)& (0+255),f,b
  7621  001626                     
  7622                           ; BSR set to: 0
  7623  001626  C06A  F02E         	movff	___flmul@grs,??___flmul
  7624  00162A  C06B  F02F         	movff	___flmul@grs+1,??___flmul+1
  7625  00162E  C06C  F030         	movff	___flmul@grs+2,??___flmul+2
  7626  001632  C06D  F031         	movff	___flmul@grs+3,??___flmul+3
  7627  001636  0E19               	movlw	25
  7628  001638  EF23  F00B         	goto	u5590
  7629  00163C                     u5595:
  7630  00163C  90D8               	bcf	status,0,c
  7631  00163E  3231               	rrcf	(??___flmul+3)^0,f,c
  7632  001640  3230               	rrcf	(??___flmul+2)^0,f,c
  7633  001642  322F               	rrcf	(??___flmul+1)^0,f,c
  7634  001644  322E               	rrcf	??___flmul^0,f,c
  7635  001646                     u5590:
  7636  001646  2EE8               	decfsz	wreg,f,c
  7637  001648  EF1E  F00B         	goto	u5595
  7638  00164C  502E               	movf	??___flmul^0,w,c
  7639  00164E  276F               	addwf	___flmul@prod& (0+255),f,b
  7640  001650  502F               	movf	(??___flmul+1)^0,w,c
  7641  001652  2370               	addwfc	(___flmul@prod+1)& (0+255),f,b
  7642  001654  5030               	movf	(??___flmul+2)^0,w,c
  7643  001656  2371               	addwfc	(___flmul@prod+2)& (0+255),f,b
  7644  001658  5031               	movf	(??___flmul+3)^0,w,c
  7645  00165A  2372               	addwfc	(___flmul@prod+3)& (0+255),f,b
  7646  00165C                     
  7647                           ; BSR set to: 0
  7648  00165C  C06C  F06D         	movff	___flmul@grs+2,___flmul@grs+3
  7649  001660  C06B  F06C         	movff	___flmul@grs+1,___flmul@grs+2
  7650  001664  C06A  F06B         	movff	___flmul@grs,___flmul@grs+1
  7651  001668  6B6A               	clrf	___flmul@grs& (0+255),b
  7652  00166A                     
  7653                           ; BSR set to: 0
  7654  00166A  5169               	movf	___flmul@aexp& (0+255),w,b
  7655  00166C  C06E  F02E         	movff	___flmul@bexp,??___flmul
  7656  001670  6A2F               	clrf	(??___flmul+1)^0,c
  7657  001672  262E               	addwf	??___flmul^0,f,c
  7658  001674  0E00               	movlw	0
  7659  001676  222F               	addwfc	(??___flmul+1)^0,f,c
  7660  001678  0E82               	movlw	130
  7661  00167A  242E               	addwf	??___flmul^0,w,c
  7662  00167C  6F73               	movwf	___flmul@temp& (0+255),b
  7663  00167E  0EFF               	movlw	255
  7664  001680  202F               	addwfc	(??___flmul+1)^0,w,c
  7665  001682  6F74               	movwf	(___flmul@temp+1)& (0+255),b
  7666  001684  EF59  F00B         	goto	l6194
  7667  001688                     l6188:
  7668                           
  7669                           ; BSR set to: 0
  7670  001688  90D8               	bcf	status,0,c
  7671  00168A  376F               	rlcf	___flmul@prod& (0+255),f,b
  7672  00168C  3770               	rlcf	(___flmul@prod+1)& (0+255),f,b
  7673  00168E  3771               	rlcf	(___flmul@prod+2)& (0+255),f,b
  7674  001690  3772               	rlcf	(___flmul@prod+3)& (0+255),f,b
  7675  001692                     
  7676                           ; BSR set to: 0
  7677  001692  AF6D               	btfss	(___flmul@grs+3)& (0+255),7,b
  7678  001694  EF4E  F00B         	goto	u5601
  7679  001698  EF50  F00B         	goto	u5600
  7680  00169C                     u5601:
  7681  00169C  EF51  F00B         	goto	l1675
  7682  0016A0                     u5600:
  7683  0016A0                     
  7684                           ; BSR set to: 0
  7685  0016A0  816F               	bsf	___flmul@prod& (0+255),0,b
  7686  0016A2                     l1675:
  7687                           
  7688                           ; BSR set to: 0
  7689  0016A2  90D8               	bcf	status,0,c
  7690  0016A4  376A               	rlcf	___flmul@grs& (0+255),f,b
  7691  0016A6  376B               	rlcf	(___flmul@grs+1)& (0+255),f,b
  7692  0016A8  376C               	rlcf	(___flmul@grs+2)& (0+255),f,b
  7693  0016AA  376D               	rlcf	(___flmul@grs+3)& (0+255),f,b
  7694  0016AC  0773               	decf	___flmul@temp& (0+255),f,b
  7695  0016AE  A0D8               	btfss	status,0,c
  7696  0016B0  0774               	decf	(___flmul@temp+1)& (0+255),f,b
  7697  0016B2                     l6194:
  7698                           
  7699                           ; BSR set to: 0
  7700  0016B2  AF71               	btfss	(___flmul@prod+2)& (0+255),7,b
  7701  0016B4  EF5E  F00B         	goto	u5611
  7702  0016B8  EF60  F00B         	goto	u5610
  7703  0016BC                     u5611:
  7704  0016BC  EF44  F00B         	goto	l6188
  7705  0016C0                     u5610:
  7706  0016C0                     
  7707                           ; BSR set to: 0
  7708  0016C0  0E00               	movlw	0
  7709  0016C2  6F69               	movwf	___flmul@aexp& (0+255),b
  7710  0016C4                     
  7711                           ; BSR set to: 0
  7712  0016C4  AF6D               	btfss	(___flmul@grs+3)& (0+255),7,b
  7713  0016C6  EF67  F00B         	goto	u5621
  7714  0016CA  EF69  F00B         	goto	u5620
  7715  0016CE                     u5621:
  7716  0016CE  EF8D  F00B         	goto	l1677
  7717  0016D2                     u5620:
  7718  0016D2                     
  7719                           ; BSR set to: 0
  7720  0016D2  0EFF               	movlw	255
  7721  0016D4  156A               	andwf	___flmul@grs& (0+255),w,b
  7722  0016D6  6E2E               	movwf	??___flmul^0,c
  7723  0016D8  0EFF               	movlw	255
  7724  0016DA  156B               	andwf	(___flmul@grs+1)& (0+255),w,b
  7725  0016DC  6E2F               	movwf	(??___flmul+1)^0,c
  7726  0016DE  0EFF               	movlw	255
  7727  0016E0  156C               	andwf	(___flmul@grs+2)& (0+255),w,b
  7728  0016E2  6E30               	movwf	(??___flmul+2)^0,c
  7729  0016E4  0E7F               	movlw	127
  7730  0016E6  156D               	andwf	(___flmul@grs+3)& (0+255),w,b
  7731  0016E8  6E31               	movwf	(??___flmul+3)^0,c
  7732  0016EA  502E               	movf	??___flmul^0,w,c
  7733  0016EC  102F               	iorwf	(??___flmul+1)^0,w,c
  7734  0016EE  1030               	iorwf	(??___flmul+2)^0,w,c
  7735  0016F0  1031               	iorwf	(??___flmul+3)^0,w,c
  7736  0016F2  B4D8               	btfsc	status,2,c
  7737  0016F4  EF7E  F00B         	goto	u5631
  7738  0016F8  EF80  F00B         	goto	u5630
  7739  0016FC                     u5631:
  7740  0016FC  EF84  F00B         	goto	l1678
  7741  001700                     u5630:
  7742  001700                     l6202:
  7743                           
  7744                           ; BSR set to: 0
  7745  001700  0E01               	movlw	1
  7746  001702  6F69               	movwf	___flmul@aexp& (0+255),b
  7747  001704  EF8D  F00B         	goto	l1677
  7748  001708                     l1678:
  7749                           
  7750                           ; BSR set to: 0
  7751  001708  A16F               	btfss	___flmul@prod& (0+255),0,b
  7752  00170A  EF89  F00B         	goto	u5641
  7753  00170E  EF8B  F00B         	goto	u5640
  7754  001712                     u5641:
  7755  001712  EF8D  F00B         	goto	l1677
  7756  001716                     u5640:
  7757  001716  EF80  F00B         	goto	l6202
  7758  00171A                     l1677:
  7759                           
  7760                           ; BSR set to: 0
  7761  00171A  5169               	movf	___flmul@aexp& (0+255),w,b
  7762  00171C  B4D8               	btfsc	status,2,c
  7763  00171E  EF93  F00B         	goto	u5651
  7764  001722  EF95  F00B         	goto	u5650
  7765  001726                     u5651:
  7766  001726  EFB9  F00B         	goto	l6214
  7767  00172A                     u5650:
  7768  00172A                     
  7769                           ; BSR set to: 0
  7770  00172A  0E01               	movlw	1
  7771  00172C  276F               	addwf	___flmul@prod& (0+255),f,b
  7772  00172E  0E00               	movlw	0
  7773  001730  2370               	addwfc	(___flmul@prod+1)& (0+255),f,b
  7774  001732  2371               	addwfc	(___flmul@prod+2)& (0+255),f,b
  7775  001734  2372               	addwfc	(___flmul@prod+3)& (0+255),f,b
  7776  001736                     
  7777                           ; BSR set to: 0
  7778  001736  A172               	btfss	(___flmul@prod+3)& (0+255),0,b
  7779  001738  EFA0  F00B         	goto	u5661
  7780  00173C  EFA2  F00B         	goto	u5660
  7781  001740                     u5661:
  7782  001740  EFB9  F00B         	goto	l6214
  7783  001744                     u5660:
  7784  001744                     
  7785                           ; BSR set to: 0
  7786  001744  C06F  F02E         	movff	___flmul@prod,??___flmul
  7787  001748  C070  F02F         	movff	___flmul@prod+1,??___flmul+1
  7788  00174C  C071  F030         	movff	___flmul@prod+2,??___flmul+2
  7789  001750  C072  F031         	movff	___flmul@prod+3,??___flmul+3
  7790  001754  3431               	rlcf	(??___flmul+3)^0,w,c
  7791  001756  3231               	rrcf	(??___flmul+3)^0,f,c
  7792  001758  3230               	rrcf	(??___flmul+2)^0,f,c
  7793  00175A  322F               	rrcf	(??___flmul+1)^0,f,c
  7794  00175C  322E               	rrcf	??___flmul^0,f,c
  7795  00175E  C02E  F06F         	movff	??___flmul,___flmul@prod
  7796  001762  C02F  F070         	movff	??___flmul+1,___flmul@prod+1
  7797  001766  C030  F071         	movff	??___flmul+2,___flmul@prod+2
  7798  00176A  C031  F072         	movff	??___flmul+3,___flmul@prod+3
  7799  00176E                     
  7800                           ; BSR set to: 0
  7801  00176E  4B73               	infsnz	___flmul@temp& (0+255),f,b
  7802  001770  2B74               	incf	(___flmul@temp+1)& (0+255),f,b
  7803  001772                     l6214:
  7804                           
  7805                           ; BSR set to: 0
  7806  001772  BF74               	btfsc	(___flmul@temp+1)& (0+255),7,b
  7807  001774  EFC4  F00B         	goto	u5671
  7808  001778  5174               	movf	(___flmul@temp+1)& (0+255),w,b
  7809  00177A  E108               	bnz	u5670
  7810  00177C  2973               	incf	___flmul@temp& (0+255),w,b
  7811  00177E  A0D8               	btfss	status,0,c
  7812  001780  EFC4  F00B         	goto	u5671
  7813  001784  EFC6  F00B         	goto	u5670
  7814  001788                     u5671:
  7815  001788  EFD0  F00B         	goto	l6218
  7816  00178C                     u5670:
  7817  00178C                     
  7818                           ; BSR set to: 0
  7819  00178C  0E00               	movlw	0
  7820  00178E  6F6F               	movwf	___flmul@prod& (0+255),b
  7821  001790  0E00               	movlw	0
  7822  001792  6F70               	movwf	(___flmul@prod+1)& (0+255),b
  7823  001794  0E80               	movlw	128
  7824  001796  6F71               	movwf	(___flmul@prod+2)& (0+255),b
  7825  001798  0E7F               	movlw	127
  7826  00179A  6F72               	movwf	(___flmul@prod+3)& (0+255),b
  7827  00179C  EFFE  F00B         	goto	l6230
  7828  0017A0                     l6218:
  7829                           
  7830                           ; BSR set to: 0
  7831  0017A0  BF74               	btfsc	(___flmul@temp+1)& (0+255),7,b
  7832  0017A2  EFDD  F00B         	goto	u5680
  7833  0017A6  5174               	movf	(___flmul@temp+1)& (0+255),w,b
  7834  0017A8  E106               	bnz	u5681
  7835  0017AA  0573               	decf	___flmul@temp& (0+255),w,b
  7836  0017AC  B0D8               	btfsc	status,0,c
  7837  0017AE  EFDB  F00B         	goto	u5681
  7838  0017B2  EFDD  F00B         	goto	u5680
  7839  0017B6                     u5681:
  7840  0017B6  EFE9  F00B         	goto	l1685
  7841  0017BA                     u5680:
  7842  0017BA                     
  7843                           ; BSR set to: 0
  7844  0017BA  0E00               	movlw	0
  7845  0017BC  6F6F               	movwf	___flmul@prod& (0+255),b
  7846  0017BE  0E00               	movlw	0
  7847  0017C0  6F70               	movwf	(___flmul@prod+1)& (0+255),b
  7848  0017C2  0E00               	movlw	0
  7849  0017C4  6F71               	movwf	(___flmul@prod+2)& (0+255),b
  7850  0017C6  0E00               	movlw	0
  7851  0017C8  6F72               	movwf	(___flmul@prod+3)& (0+255),b
  7852  0017CA  0E00               	movlw	0
  7853  0017CC  6F68               	movwf	___flmul@sign& (0+255),b
  7854  0017CE  EFFE  F00B         	goto	l6230
  7855  0017D2                     l1685:
  7856                           
  7857                           ; BSR set to: 0
  7858  0017D2  C073  F06E         	movff	___flmul@temp,___flmul@bexp
  7859  0017D6                     
  7860                           ; BSR set to: 0
  7861  0017D6  0EFF               	movlw	255
  7862  0017D8  176F               	andwf	___flmul@prod& (0+255),f,b
  7863  0017DA  0EFF               	movlw	255
  7864  0017DC  1770               	andwf	(___flmul@prod+1)& (0+255),f,b
  7865  0017DE  0E7F               	movlw	127
  7866  0017E0  1771               	andwf	(___flmul@prod+2)& (0+255),f,b
  7867  0017E2  0E00               	movlw	0
  7868  0017E4  1772               	andwf	(___flmul@prod+3)& (0+255),f,b
  7869  0017E6                     
  7870                           ; BSR set to: 0
  7871  0017E6  A16E               	btfss	___flmul@bexp& (0+255),0,b
  7872  0017E8  EFF8  F00B         	goto	u5691
  7873  0017EC  EFFA  F00B         	goto	u5690
  7874  0017F0                     u5691:
  7875  0017F0  EFFB  F00B         	goto	l6228
  7876  0017F4                     u5690:
  7877  0017F4                     
  7878                           ; BSR set to: 0
  7879  0017F4  8F71               	bsf	(___flmul@prod+2)& (0+255),7,b
  7880  0017F6                     l6228:
  7881                           
  7882                           ; BSR set to: 0
  7883  0017F6  90D8               	bcf	status,0,c
  7884  0017F8  316E               	rrcf	___flmul@bexp& (0+255),w,b
  7885  0017FA  6F72               	movwf	(___flmul@prod+3)& (0+255),b
  7886  0017FC                     l6230:
  7887                           
  7888                           ; BSR set to: 0
  7889  0017FC  5168               	movf	___flmul@sign& (0+255),w,b
  7890  0017FE  1372               	iorwf	(___flmul@prod+3)& (0+255),f,b
  7891  001800                     
  7892                           ; BSR set to: 0
  7893  001800  C06F  F060         	movff	___flmul@prod,?___flmul
  7894  001804  C070  F061         	movff	___flmul@prod+1,?___flmul+1
  7895  001808  C071  F062         	movff	___flmul@prod+2,?___flmul+2
  7896  00180C  C072  F063         	movff	___flmul@prod+3,?___flmul+3
  7897  001810                     l1672:
  7898                           
  7899                           ; BSR set to: 0
  7900  001810  0012               	return		;funcret
  7901  001812                     __end_of___flmul:
  7902                           	callstack 0
  7903                           
  7904 ;; *************** function _TMR1_ReadTimer *****************
  7905 ;; Defined at:
  7906 ;;		line 98 in file "mcc_generated_files/tmr1.c"
  7907 ;; Parameters:    Size  Location     Type
  7908 ;;		None
  7909 ;; Auto vars:     Size  Location     Type
  7910 ;;  readVal         2   27[COMRAM] unsigned short 
  7911 ;;  readValLow      1   30[COMRAM] unsigned char 
  7912 ;;  readValHigh     1   29[COMRAM] unsigned char 
  7913 ;; Return value:  Size  Location     Type
  7914 ;;                  2   23[COMRAM] unsigned short 
  7915 ;; Registers used:
  7916 ;;		wreg, status,2
  7917 ;; Tracked objects:
  7918 ;;		On entry : 0/0
  7919 ;;		On exit  : 0/0
  7920 ;;		Unchanged: 0/0
  7921 ;; Data sizes:     COMRAM   BANK0   BANK1   BANK2   BANK3   BANK4   BANK5   BANK6   BANK7   BANK8   BANK9  BANK10  BANK1
      +1  BANK12  BANK13  BANK14
  7922 ;;      Params:         2       0       0       0       0       0       0       0       0       0       0       0       
      +0       0       0       0
  7923 ;;      Locals:         4       0       0       0       0       0       0       0       0       0       0       0       
      +0       0       0       0
  7924 ;;      Temps:          2       0       0       0       0       0       0       0       0       0       0       0       
      +0       0       0       0
  7925 ;;      Totals:         8       0       0       0       0       0       0       0       0       0       0       0       
      +0       0       0       0
  7926 ;;Total ram usage:        8 bytes
  7927 ;; Hardware stack levels used: 1
  7928 ;; Hardware stack levels required when called: 7
  7929 ;; This function calls:
  7930 ;;		Nothing
  7931 ;; This function is called by:
  7932 ;;		_millis
  7933 ;; This function uses a non-reentrant model
  7934 ;;
  7935                           
  7936                           	psect	text39
  7937  003CD0                     __ptext39:
  7938                           	callstack 0
  7939  003CD0                     _TMR1_ReadTimer:
  7940                           	callstack 19
  7941  003CD0                     
  7942                           ;mcc_generated_files/tmr1.c: 100:     uint16_t readVal;;mcc_generated_files/tmr1.c: 101:
      +                               uint8_t readValHigh;;mcc_generated_files/tmr1.c: 102:     uint8_t readValLow;;mcc_g
      +                          enerated_files/tmr1.c: 105:     readValLow = TMR1L;
  7943  003CD0  CFCE F01F          	movff	4046,TMR1_ReadTimer@readValLow	;volatile
  7944                           
  7945                           ;mcc_generated_files/tmr1.c: 106:     readValHigh = TMR1H;
  7946  003CD4  CFCF F01E          	movff	4047,TMR1_ReadTimer@readValHigh	;volatile
  7947  003CD8                     
  7948                           ;mcc_generated_files/tmr1.c: 108:     readVal = ((uint16_t)readValHigh << 8) | readValLo
      +                          w;
  7949  003CD8  501E               	movf	TMR1_ReadTimer@readValHigh^0,w,c
  7950  003CDA  6E1A               	movwf	??_TMR1_ReadTimer^0,c
  7951  003CDC  501F               	movf	TMR1_ReadTimer@readValLow^0,w,c
  7952  003CDE  6E1C               	movwf	TMR1_ReadTimer@readVal^0,c
  7953  003CE0  C01A  F01D         	movff	??_TMR1_ReadTimer,TMR1_ReadTimer@readVal+1
  7954  003CE4                     
  7955                           ;mcc_generated_files/tmr1.c: 110:     return readVal;
  7956  003CE4  C01C  F018         	movff	TMR1_ReadTimer@readVal,?_TMR1_ReadTimer
  7957  003CE8  C01D  F019         	movff	TMR1_ReadTimer@readVal+1,?_TMR1_ReadTimer+1
  7958  003CEC  0012               	return		;funcret
  7959  003CEE                     __end_of_TMR1_ReadTimer:
  7960                           	callstack 0
  7961                           
  7962 ;; *************** function ___wmul *****************
  7963 ;; Defined at:
  7964 ;;		line 15 in file "C:\Program Files\Microchip\xc8\v2.35\pic\sources\c99\common\Umul16.c"
  7965 ;; Parameters:    Size  Location     Type
  7966 ;;  multiplier      2   23[COMRAM] unsigned int 
  7967 ;;  multiplicand    2   25[COMRAM] unsigned int 
  7968 ;; Auto vars:     Size  Location     Type
  7969 ;;  product         2   27[COMRAM] unsigned int 
  7970 ;; Return value:  Size  Location     Type
  7971 ;;                  2   23[COMRAM] unsigned int 
  7972 ;; Registers used:
  7973 ;;		wreg, status,2, status,0, prodl, prodh
  7974 ;; Tracked objects:
  7975 ;;		On entry : 0/0
  7976 ;;		On exit  : 0/0
  7977 ;;		Unchanged: 0/0
  7978 ;; Data sizes:     COMRAM   BANK0   BANK1   BANK2   BANK3   BANK4   BANK5   BANK6   BANK7   BANK8   BANK9  BANK10  BANK1
      +1  BANK12  BANK13  BANK14
  7979 ;;      Params:         4       0       0       0       0       0       0       0       0       0       0       0       
      +0       0       0       0
  7980 ;;      Locals:         2       0       0       0       0       0       0       0       0       0       0       0       
      +0       0       0       0
  7981 ;;      Temps:          0       0       0       0       0       0       0       0       0       0       0       0       
      +0       0       0       0
  7982 ;;      Totals:         6       0       0       0       0       0       0       0       0       0       0       0       
      +0       0       0       0
  7983 ;;Total ram usage:        6 bytes
  7984 ;; Hardware stack levels used: 1
  7985 ;; Hardware stack levels required when called: 7
  7986 ;; This function calls:
  7987 ;;		Nothing
  7988 ;; This function is called by:
  7989 ;;		_displayAlt
  7990 ;; This function uses a non-reentrant model
  7991 ;;
  7992                           
  7993                           	psect	text40
  7994  003C1E                     __ptext40:
  7995                           	callstack 0
  7996  003C1E                     ___wmul:
  7997                           	callstack 20
  7998  003C1E  5018               	movf	___wmul@multiplier^0,w,c
  7999  003C20  021A               	mulwf	___wmul@multiplicand^0,c
  8000  003C22  CFF3 F01C          	movff	prodl,___wmul@product
  8001  003C26  CFF4 F01D          	movff	prodh,___wmul@product+1
  8002  003C2A  5018               	movf	___wmul@multiplier^0,w,c
  8003  003C2C  021B               	mulwf	(___wmul@multiplicand+1)^0,c
  8004  003C2E  50F3               	movf	243,w,c
  8005  003C30  261D               	addwf	(___wmul@product+1)^0,f,c
  8006  003C32  5019               	movf	(___wmul@multiplier+1)^0,w,c
  8007  003C34  021A               	mulwf	___wmul@multiplicand^0,c
  8008  003C36  50F3               	movf	243,w,c
  8009  003C38  261D               	addwf	(___wmul@product+1)^0,f,c
  8010  003C3A  C01C  F018         	movff	___wmul@product,?___wmul
  8011  003C3E  C01D  F019         	movff	___wmul@product+1,?___wmul+1
  8012  003C42  0012               	return		;funcret
  8013  003C44                     __end_of___wmul:
  8014                           	callstack 0
  8015                           
  8016 ;; *************** function ___awmod *****************
  8017 ;; Defined at:
  8018 ;;		line 7 in file "C:\Program Files\Microchip\xc8\v2.35\pic\sources\c99\common\awmod.c"
  8019 ;; Parameters:    Size  Location     Type
  8020 ;;  dividend        2   29[COMRAM] int 
  8021 ;;  divisor         2   31[COMRAM] int 
  8022 ;; Auto vars:     Size  Location     Type
  8023 ;;  sign            1   34[COMRAM] unsigned char 
  8024 ;;  counter         1   33[COMRAM] unsigned char 
  8025 ;; Return value:  Size  Location     Type
  8026 ;;                  2   29[COMRAM] int 
  8027 ;; Registers used:
  8028 ;;		wreg, status,2, status,0
  8029 ;; Tracked objects:
  8030 ;;		On entry : 0/0
  8031 ;;		On exit  : 0/0
  8032 ;;		Unchanged: 0/0
  8033 ;; Data sizes:     COMRAM   BANK0   BANK1   BANK2   BANK3   BANK4   BANK5   BANK6   BANK7   BANK8   BANK9  BANK10  BANK1
      +1  BANK12  BANK13  BANK14
  8034 ;;      Params:         4       0       0       0       0       0       0       0       0       0       0       0       
      +0       0       0       0
  8035 ;;      Locals:         2       0       0       0       0       0       0       0       0       0       0       0       
      +0       0       0       0
  8036 ;;      Temps:          0       0       0       0       0       0       0       0       0       0       0       0       
      +0       0       0       0
  8037 ;;      Totals:         6       0       0       0       0       0       0       0       0       0       0       0       
      +0       0       0       0
  8038 ;;Total ram usage:        6 bytes
  8039 ;; Hardware stack levels used: 1
  8040 ;; Hardware stack levels required when called: 7
  8041 ;; This function calls:
  8042 ;;		Nothing
  8043 ;; This function is called by:
  8044 ;;		_displayAlt
  8045 ;; This function uses a non-reentrant model
  8046 ;;
  8047                           
  8048                           	psect	text41
  8049  0032CC                     __ptext41:
  8050                           	callstack 0
  8051  0032CC                     ___awmod:
  8052                           	callstack 20
  8053  0032CC  0E00               	movlw	0
  8054  0032CE  6E23               	movwf	___awmod@sign^0,c
  8055  0032D0  BE1F               	btfsc	(___awmod@dividend+1)^0,7,c
  8056  0032D2  EF6F  F019         	goto	u6410
  8057  0032D6  EF6D  F019         	goto	u6411
  8058  0032DA                     u6411:
  8059  0032DA  EF75  F019         	goto	l6632
  8060  0032DE                     u6410:
  8061  0032DE  6C1E               	negf	___awmod@dividend^0,c
  8062  0032E0  1E1F               	comf	(___awmod@dividend+1)^0,f,c
  8063  0032E2  B0D8               	btfsc	status,0,c
  8064  0032E4  2A1F               	incf	(___awmod@dividend+1)^0,f,c
  8065  0032E6  0E01               	movlw	1
  8066  0032E8  6E23               	movwf	___awmod@sign^0,c
  8067  0032EA                     l6632:
  8068  0032EA  BE21               	btfsc	(___awmod@divisor+1)^0,7,c
  8069  0032EC  EF7C  F019         	goto	u6420
  8070  0032F0  EF7A  F019         	goto	u6421
  8071  0032F4                     u6421:
  8072  0032F4  EF80  F019         	goto	l6636
  8073  0032F8                     u6420:
  8074  0032F8  6C20               	negf	___awmod@divisor^0,c
  8075  0032FA  1E21               	comf	(___awmod@divisor+1)^0,f,c
  8076  0032FC  B0D8               	btfsc	status,0,c
  8077  0032FE  2A21               	incf	(___awmod@divisor+1)^0,f,c
  8078  003300                     l6636:
  8079  003300  5020               	movf	___awmod@divisor^0,w,c
  8080  003302  1021               	iorwf	(___awmod@divisor+1)^0,w,c
  8081  003304  B4D8               	btfsc	status,2,c
  8082  003306  EF87  F019         	goto	u6431
  8083  00330A  EF89  F019         	goto	u6430
  8084  00330E                     u6431:
  8085  00330E  EFAD  F019         	goto	l6652
  8086  003312                     u6430:
  8087  003312  0E01               	movlw	1
  8088  003314  6E22               	movwf	___awmod@counter^0,c
  8089  003316  EF91  F019         	goto	l6642
  8090  00331A                     l6640:
  8091  00331A  90D8               	bcf	status,0,c
  8092  00331C  3620               	rlcf	___awmod@divisor^0,f,c
  8093  00331E  3621               	rlcf	(___awmod@divisor+1)^0,f,c
  8094  003320  2A22               	incf	___awmod@counter^0,f,c
  8095  003322                     l6642:
  8096  003322  AE21               	btfss	(___awmod@divisor+1)^0,7,c
  8097  003324  EF96  F019         	goto	u6441
  8098  003328  EF98  F019         	goto	u6440
  8099  00332C                     u6441:
  8100  00332C  EF8D  F019         	goto	l6640
  8101  003330                     u6440:
  8102  003330                     l6644:
  8103  003330  5020               	movf	___awmod@divisor^0,w,c
  8104  003332  5C1E               	subwf	___awmod@dividend^0,w,c
  8105  003334  5021               	movf	(___awmod@divisor+1)^0,w,c
  8106  003336  581F               	subwfb	(___awmod@dividend+1)^0,w,c
  8107  003338  A0D8               	btfss	status,0,c
  8108  00333A  EFA1  F019         	goto	u6451
  8109  00333E  EFA3  F019         	goto	u6450
  8110  003342                     u6451:
  8111  003342  EFA7  F019         	goto	l6648
  8112  003346                     u6450:
  8113  003346  5020               	movf	___awmod@divisor^0,w,c
  8114  003348  5E1E               	subwf	___awmod@dividend^0,f,c
  8115  00334A  5021               	movf	(___awmod@divisor+1)^0,w,c
  8116  00334C  5A1F               	subwfb	(___awmod@dividend+1)^0,f,c
  8117  00334E                     l6648:
  8118  00334E  90D8               	bcf	status,0,c
  8119  003350  3221               	rrcf	(___awmod@divisor+1)^0,f,c
  8120  003352  3220               	rrcf	___awmod@divisor^0,f,c
  8121  003354  2E22               	decfsz	___awmod@counter^0,f,c
  8122  003356  EF98  F019         	goto	l6644
  8123  00335A                     l6652:
  8124  00335A  5023               	movf	___awmod@sign^0,w,c
  8125  00335C  B4D8               	btfsc	status,2,c
  8126  00335E  EFB3  F019         	goto	u6461
  8127  003362  EFB5  F019         	goto	u6460
  8128  003366                     u6461:
  8129  003366  EFB9  F019         	goto	l6656
  8130  00336A                     u6460:
  8131  00336A  6C1E               	negf	___awmod@dividend^0,c
  8132  00336C  1E1F               	comf	(___awmod@dividend+1)^0,f,c
  8133  00336E  B0D8               	btfsc	status,0,c
  8134  003370  2A1F               	incf	(___awmod@dividend+1)^0,f,c
  8135  003372                     l6656:
  8136  003372  C01E  F01E         	movff	___awmod@dividend,?___awmod
  8137  003376  C01F  F01F         	movff	___awmod@dividend+1,?___awmod+1
  8138  00337A  0012               	return		;funcret
  8139  00337C                     __end_of___awmod:
  8140                           	callstack 0
  8141                           
  8142 ;; *************** function _SYSTEM_Initialize *****************
  8143 ;; Defined at:
  8144 ;;		line 50 in file "mcc_generated_files/mcc.c"
  8145 ;; Parameters:    Size  Location     Type
  8146 ;;		None
  8147 ;; Auto vars:     Size  Location     Type
  8148 ;;		None
  8149 ;; Return value:  Size  Location     Type
  8150 ;;                  1    wreg      void 
  8151 ;; Registers used:
  8152 ;;		wreg, status,2, status,0, cstack
  8153 ;; Tracked objects:
  8154 ;;		On entry : 0/0
  8155 ;;		On exit  : 0/0
  8156 ;;		Unchanged: 0/0
  8157 ;; Data sizes:     COMRAM   BANK0   BANK1   BANK2   BANK3   BANK4   BANK5   BANK6   BANK7   BANK8   BANK9  BANK10  BANK1
      +1  BANK12  BANK13  BANK14
  8158 ;;      Params:         0       0       0       0       0       0       0       0       0       0       0       0       
      +0       0       0       0
  8159 ;;      Locals:         0       0       0       0       0       0       0       0       0       0       0       0       
      +0       0       0       0
  8160 ;;      Temps:          0       0       0       0       0       0       0       0       0       0       0       0       
      +0       0       0       0
  8161 ;;      Totals:         0       0       0       0       0       0       0       0       0       0       0       0       
      +0       0       0       0
  8162 ;;Total ram usage:        0 bytes
  8163 ;; Hardware stack levels used: 1
  8164 ;; Hardware stack levels required when called: 9
  8165 ;; This function calls:
  8166 ;;		_ADC_Initialize
  8167 ;;		_EUSART2_Initialize
  8168 ;;		_I2C1_Initialize
  8169 ;;		_INTERRUPT_Initialize
  8170 ;;		_OSCILLATOR_Initialize
  8171 ;;		_PIN_MANAGER_Initialize
  8172 ;;		_TMR1_Initialize
  8173 ;;		_TMR2_Initialize
  8174 ;; This function is called by:
  8175 ;;		_main
  8176 ;; This function uses a non-reentrant model
  8177 ;;
  8178                           
  8179                           	psect	text42
  8180  003CAE                     __ptext42:
  8181                           	callstack 0
  8182  003CAE                     _SYSTEM_Initialize:
  8183                           	callstack 21
  8184  003CAE                     
  8185                           ;mcc_generated_files/mcc.c: 53:     INTERRUPT_Initialize();
  8186  003CAE  EC57  F01F         	call	_INTERRUPT_Initialize	;wreg free
  8187  003CB2                     
  8188                           ;mcc_generated_files/mcc.c: 54:     I2C1_Initialize();
  8189  003CB2  ECB4  F01E         	call	_I2C1_Initialize	;wreg free
  8190  003CB6                     
  8191                           ;mcc_generated_files/mcc.c: 55:     PIN_MANAGER_Initialize();
  8192  003CB6  EC00  F01D         	call	_PIN_MANAGER_Initialize	;wreg free
  8193  003CBA                     
  8194                           ;mcc_generated_files/mcc.c: 56:     OSCILLATOR_Initialize();
  8195  003CBA  ECAA  F01E         	call	_OSCILLATOR_Initialize	;wreg free
  8196  003CBE                     
  8197                           ;mcc_generated_files/mcc.c: 57:     ADC_Initialize();
  8198  003CBE  EC77  F01E         	call	_ADC_Initialize	;wreg free
  8199  003CC2                     
  8200                           ;mcc_generated_files/mcc.c: 58:     TMR2_Initialize();
  8201  003CC2  ECD0  F01E         	call	_TMR2_Initialize	;wreg free
  8202  003CC6                     
  8203                           ;mcc_generated_files/mcc.c: 59:     TMR1_Initialize();
  8204  003CC6  EC50  F01D         	call	_TMR1_Initialize	;wreg free
  8205  003CCA                     
  8206                           ;mcc_generated_files/mcc.c: 60:     EUSART2_Initialize();
  8207  003CCA  EC1A  F01B         	call	_EUSART2_Initialize	;wreg free
  8208  003CCE  0012               	return		;funcret
  8209  003CD0                     __end_of_SYSTEM_Initialize:
  8210                           	callstack 0
  8211                           
  8212 ;; *************** function _TMR2_Initialize *****************
  8213 ;; Defined at:
  8214 ;;		line 62 in file "mcc_generated_files/tmr2.c"
  8215 ;; Parameters:    Size  Location     Type
  8216 ;;		None
  8217 ;; Auto vars:     Size  Location     Type
  8218 ;;		None
  8219 ;; Return value:  Size  Location     Type
  8220 ;;                  1    wreg      void 
  8221 ;; Registers used:
  8222 ;;		wreg, status,2
  8223 ;; Tracked objects:
  8224 ;;		On entry : 0/0
  8225 ;;		On exit  : 0/0
  8226 ;;		Unchanged: 0/0
  8227 ;; Data sizes:     COMRAM   BANK0   BANK1   BANK2   BANK3   BANK4   BANK5   BANK6   BANK7   BANK8   BANK9  BANK10  BANK1
      +1  BANK12  BANK13  BANK14
  8228 ;;      Params:         0       0       0       0       0       0       0       0       0       0       0       0       
      +0       0       0       0
  8229 ;;      Locals:         0       0       0       0       0       0       0       0       0       0       0       0       
      +0       0       0       0
  8230 ;;      Temps:          0       0       0       0       0       0       0       0       0       0       0       0       
      +0       0       0       0
  8231 ;;      Totals:         0       0       0       0       0       0       0       0       0       0       0       0       
      +0       0       0       0
  8232 ;;Total ram usage:        0 bytes
  8233 ;; Hardware stack levels used: 1
  8234 ;; Hardware stack levels required when called: 7
  8235 ;; This function calls:
  8236 ;;		Nothing
  8237 ;; This function is called by:
  8238 ;;		_SYSTEM_Initialize
  8239 ;; This function uses a non-reentrant model
  8240 ;;
  8241                           
  8242                           	psect	text43
  8243  003DA0                     __ptext43:
  8244                           	callstack 0
  8245  003DA0                     _TMR2_Initialize:
  8246                           	callstack 22
  8247  003DA0                     
  8248                           ;mcc_generated_files/tmr2.c: 67:     PR2 = 0xF9;
  8249  003DA0  0EF9               	movlw	249
  8250  003DA2  6ECB               	movwf	203,c	;volatile
  8251                           
  8252                           ;mcc_generated_files/tmr2.c: 70:     TMR2 = 0x00;
  8253  003DA4  0E00               	movlw	0
  8254  003DA6  6ECC               	movwf	204,c	;volatile
  8255  003DA8                     
  8256                           ;mcc_generated_files/tmr2.c: 73:     PIR1bits.TMR2IF = 0;
  8257  003DA8  929E               	bcf	158,1,c	;volatile
  8258                           
  8259                           ;mcc_generated_files/tmr2.c: 76:     T2CON = 0x5D;
  8260  003DAA  0E5D               	movlw	93
  8261  003DAC  6ECA               	movwf	202,c	;volatile
  8262  003DAE  0012               	return		;funcret
  8263  003DB0                     __end_of_TMR2_Initialize:
  8264                           	callstack 0
  8265                           
  8266 ;; *************** function _TMR1_Initialize *****************
  8267 ;; Defined at:
  8268 ;;		line 63 in file "mcc_generated_files/tmr1.c"
  8269 ;; Parameters:    Size  Location     Type
  8270 ;;		None
  8271 ;; Auto vars:     Size  Location     Type
  8272 ;;		None
  8273 ;; Return value:  Size  Location     Type
  8274 ;;                  1    wreg      void 
  8275 ;; Registers used:
  8276 ;;		wreg, status,2, status,0
  8277 ;; Tracked objects:
  8278 ;;		On entry : 0/0
  8279 ;;		On exit  : 0/0
  8280 ;;		Unchanged: 0/0
  8281 ;; Data sizes:     COMRAM   BANK0   BANK1   BANK2   BANK3   BANK4   BANK5   BANK6   BANK7   BANK8   BANK9  BANK10  BANK1
      +1  BANK12  BANK13  BANK14
  8282 ;;      Params:         0       0       0       0       0       0       0       0       0       0       0       0       
      +0       0       0       0
  8283 ;;      Locals:         0       0       0       0       0       0       0       0       0       0       0       0       
      +0       0       0       0
  8284 ;;      Temps:          2       0       0       0       0       0       0       0       0       0       0       0       
      +0       0       0       0
  8285 ;;      Totals:         2       0       0       0       0       0       0       0       0       0       0       0       
      +0       0       0       0
  8286 ;;Total ram usage:        2 bytes
  8287 ;; Hardware stack levels used: 1
  8288 ;; Hardware stack levels required when called: 7
  8289 ;; This function calls:
  8290 ;;		Nothing
  8291 ;; This function is called by:
  8292 ;;		_SYSTEM_Initialize
  8293 ;; This function uses a non-reentrant model
  8294 ;;
  8295                           
  8296                           	psect	text44
  8297  003AA0                     __ptext44:
  8298                           	callstack 0
  8299  003AA0                     _TMR1_Initialize:
  8300                           	callstack 22
  8301  003AA0                     
  8302                           ;mcc_generated_files/tmr1.c: 68:     T1GCON = 0x00;
  8303  003AA0  0E00               	movlw	0
  8304  003AA2  6E9A               	movwf	154,c	;volatile
  8305                           
  8306                           ;mcc_generated_files/tmr1.c: 71:     TMR1H = 0xD1;
  8307  003AA4  0ED1               	movlw	209
  8308  003AA6  6ECF               	movwf	207,c	;volatile
  8309                           
  8310                           ;mcc_generated_files/tmr1.c: 74:     TMR1L = 0x20;
  8311  003AA8  0E20               	movlw	32
  8312  003AAA  6ECE               	movwf	206,c	;volatile
  8313  003AAC                     
  8314                           ;mcc_generated_files/tmr1.c: 77:     PIR1bits.TMR1IF = 0;
  8315  003AAC  909E               	bcf	158,0,c	;volatile
  8316  003AAE                     
  8317                           ;mcc_generated_files/tmr1.c: 80:     timer1ReloadVal=(uint16_t)((TMR1H << 8) | TMR1L);
  8318  003AAE  50CE               	movf	206,w,c	;volatile
  8319  003AB0  CFCF F018          	movff	4047,??_TMR1_Initialize	;volatile
  8320  003AB4  6A19               	clrf	(??_TMR1_Initialize+1)^0,c
  8321  003AB6  C018  F019         	movff	??_TMR1_Initialize,??_TMR1_Initialize+1
  8322  003ABA  6A18               	clrf	??_TMR1_Initialize^0,c
  8323  003ABC  1018               	iorwf	??_TMR1_Initialize^0,w,c
  8324  003ABE  0101               	movlb	1	; () banked
  8325  003AC0  6F59               	movwf	_timer1ReloadVal& (0+255),b	;volatile
  8326  003AC2  5019               	movf	(??_TMR1_Initialize+1)^0,w,c
  8327  003AC4  6F5A               	movwf	(_timer1ReloadVal+1)& (0+255),b	;volatile
  8328  003AC6                     
  8329                           ; BSR set to: 1
  8330                           ;mcc_generated_files/tmr1.c: 83:     T1CON = 0x01;
  8331  003AC6  0E01               	movlw	1
  8332  003AC8  6ECD               	movwf	205,c	;volatile
  8333  003ACA                     
  8334                           ; BSR set to: 1
  8335  003ACA  0012               	return		;funcret
  8336  003ACC                     __end_of_TMR1_Initialize:
  8337                           	callstack 0
  8338                           
  8339 ;; *************** function _PIN_MANAGER_Initialize *****************
  8340 ;; Defined at:
  8341 ;;		line 52 in file "mcc_generated_files/pin_manager.c"
  8342 ;; Parameters:    Size  Location     Type
  8343 ;;		None
  8344 ;; Auto vars:     Size  Location     Type
  8345 ;;		None
  8346 ;; Return value:  Size  Location     Type
  8347 ;;                  1    wreg      void 
  8348 ;; Registers used:
  8349 ;;		wreg, status,2
  8350 ;; Tracked objects:
  8351 ;;		On entry : 0/0
  8352 ;;		On exit  : 0/0
  8353 ;;		Unchanged: 0/0
  8354 ;; Data sizes:     COMRAM   BANK0   BANK1   BANK2   BANK3   BANK4   BANK5   BANK6   BANK7   BANK8   BANK9  BANK10  BANK1
      +1  BANK12  BANK13  BANK14
  8355 ;;      Params:         0       0       0       0       0       0       0       0       0       0       0       0       
      +0       0       0       0
  8356 ;;      Locals:         0       0       0       0       0       0       0       0       0       0       0       0       
      +0       0       0       0
  8357 ;;      Temps:          0       0       0       0       0       0       0       0       0       0       0       0       
      +0       0       0       0
  8358 ;;      Totals:         0       0       0       0       0       0       0       0       0       0       0       0       
      +0       0       0       0
  8359 ;;Total ram usage:        0 bytes
  8360 ;; Hardware stack levels used: 1
  8361 ;; Hardware stack levels required when called: 7
  8362 ;; This function calls:
  8363 ;;		Nothing
  8364 ;; This function is called by:
  8365 ;;		_SYSTEM_Initialize
  8366 ;; This function uses a non-reentrant model
  8367 ;;
  8368                           
  8369                           	psect	text45
  8370  003A00                     __ptext45:
  8371                           	callstack 0
  8372  003A00                     _PIN_MANAGER_Initialize:
  8373                           	callstack 22
  8374  003A00                     
  8375                           ;mcc_generated_files/pin_manager.c: 57:     LATA = 0x00;
  8376  003A00  0E00               	movlw	0
  8377  003A02  6E89               	movwf	137,c	;volatile
  8378                           
  8379                           ;mcc_generated_files/pin_manager.c: 58:     LATB = 0x00;
  8380  003A04  0E00               	movlw	0
  8381  003A06  6E8A               	movwf	138,c	;volatile
  8382                           
  8383                           ;mcc_generated_files/pin_manager.c: 59:     LATC = 0x00;
  8384  003A08  0E00               	movlw	0
  8385  003A0A  6E8B               	movwf	139,c	;volatile
  8386                           
  8387                           ;mcc_generated_files/pin_manager.c: 64:     TRISA = 0x2F;
  8388  003A0C  0E2F               	movlw	47
  8389  003A0E  6E92               	movwf	146,c	;volatile
  8390                           
  8391                           ;mcc_generated_files/pin_manager.c: 65:     TRISB = 0xF7;
  8392  003A10  0EF7               	movlw	247
  8393  003A12  6E93               	movwf	147,c	;volatile
  8394                           
  8395                           ;mcc_generated_files/pin_manager.c: 66:     TRISC = 0xC4;
  8396  003A14  0EC4               	movlw	196
  8397  003A16  6E94               	movwf	148,c	;volatile
  8398                           
  8399                           ;mcc_generated_files/pin_manager.c: 71:     ANCON0 = 0x00;
  8400  003A18  0E00               	movlw	0
  8401  003A1A  010F               	movlb	15	; () banked
  8402  003A1C  6F48               	movwf	72,b	;volatile
  8403                           
  8404                           ;mcc_generated_files/pin_manager.c: 72:     ANCON1 = 0x0F;
  8405  003A1E  0E0F               	movlw	15
  8406  003A20  6F49               	movwf	73,b	;volatile
  8407  003A22                     
  8408                           ; BSR set to: 15
  8409                           ;mcc_generated_files/pin_manager.c: 77:     INTCON2bits.nRBPU = 1;
  8410  003A22  8EF1               	bsf	241,7,c	;volatile
  8411                           
  8412                           ;mcc_generated_files/pin_manager.c: 82:     ODCON1 = 0x00;
  8413  003A24  0E00               	movlw	0
  8414  003A26  6F42               	movwf	66,b	;volatile
  8415                           
  8416                           ;mcc_generated_files/pin_manager.c: 83:     ODCON2 = 0x00;
  8417  003A28  0E00               	movlw	0
  8418  003A2A  6F41               	movwf	65,b	;volatile
  8419                           
  8420                           ;mcc_generated_files/pin_manager.c: 84:     ODCON3 = 0x00;
  8421  003A2C  0E00               	movlw	0
  8422  003A2E  6F40               	movwf	64,b	;volatile
  8423                           
  8424                           ;mcc_generated_files/pin_manager.c: 90:     RPINR16 = 0x05;
  8425  003A30  0E05               	movlw	5
  8426  003A32  010E               	movlb	14	; () banked
  8427  003A34  6FF7               	movwf	247,b	;volatile
  8428                           
  8429                           ;mcc_generated_files/pin_manager.c: 91:     RPOR6 = 0x06;
  8430  003A36  0E06               	movlw	6
  8431  003A38  6FC6               	movwf	198,b	;volatile
  8432  003A3A                     
  8433                           ; BSR set to: 14
  8434  003A3A  0012               	return		;funcret
  8435  003A3C                     __end_of_PIN_MANAGER_Initialize:
  8436                           	callstack 0
  8437                           
  8438 ;; *************** function _OSCILLATOR_Initialize *****************
  8439 ;; Defined at:
  8440 ;;		line 63 in file "mcc_generated_files/mcc.c"
  8441 ;; Parameters:    Size  Location     Type
  8442 ;;		None
  8443 ;; Auto vars:     Size  Location     Type
  8444 ;;		None
  8445 ;; Return value:  Size  Location     Type
  8446 ;;                  1    wreg      void 
  8447 ;; Registers used:
  8448 ;;		wreg, status,2
  8449 ;; Tracked objects:
  8450 ;;		On entry : 0/0
  8451 ;;		On exit  : 0/0
  8452 ;;		Unchanged: 0/0
  8453 ;; Data sizes:     COMRAM   BANK0   BANK1   BANK2   BANK3   BANK4   BANK5   BANK6   BANK7   BANK8   BANK9  BANK10  BANK1
      +1  BANK12  BANK13  BANK14
  8454 ;;      Params:         0       0       0       0       0       0       0       0       0       0       0       0       
      +0       0       0       0
  8455 ;;      Locals:         0       0       0       0       0       0       0       0       0       0       0       0       
      +0       0       0       0
  8456 ;;      Temps:          0       0       0       0       0       0       0       0       0       0       0       0       
      +0       0       0       0
  8457 ;;      Totals:         0       0       0       0       0       0       0       0       0       0       0       0       
      +0       0       0       0
  8458 ;;Total ram usage:        0 bytes
  8459 ;; Hardware stack levels used: 1
  8460 ;; Hardware stack levels required when called: 7
  8461 ;; This function calls:
  8462 ;;		Nothing
  8463 ;; This function is called by:
  8464 ;;		_SYSTEM_Initialize
  8465 ;; This function uses a non-reentrant model
  8466 ;;
  8467                           
  8468                           	psect	text46
  8469  003D54                     __ptext46:
  8470                           	callstack 0
  8471  003D54                     _OSCILLATOR_Initialize:
  8472                           	callstack 22
  8473  003D54                     
  8474                           ;mcc_generated_files/mcc.c: 66:     OSCCON = 0x60;
  8475  003D54  0E60               	movlw	96
  8476  003D56  6ED3               	movwf	211,c	;volatile
  8477                           
  8478                           ;mcc_generated_files/mcc.c: 68:     OSCTUNE = 0x00;
  8479  003D58  0E00               	movlw	0
  8480  003D5A  6E9B               	movwf	155,c	;volatile
  8481                           
  8482                           ;mcc_generated_files/mcc.c: 70:     REFOCON = 0x00;
  8483  003D5C  0E00               	movlw	0
  8484  003D5E  010F               	movlb	15	; () banked
  8485  003D60  6F3D               	movwf	61,b	;volatile
  8486                           
  8487                           ;mcc_generated_files/mcc.c: 72:     OSCCON2 = 0x14;
  8488  003D62  0E14               	movlw	20
  8489  003D64  6E87               	movwf	135,c	;volatile
  8490  003D66                     
  8491                           ; BSR set to: 15
  8492  003D66  0012               	return		;funcret
  8493  003D68                     __end_of_OSCILLATOR_Initialize:
  8494                           	callstack 0
  8495                           
  8496 ;; *************** function _INTERRUPT_Initialize *****************
  8497 ;; Defined at:
  8498 ;;		line 52 in file "mcc_generated_files/interrupt_manager.c"
  8499 ;; Parameters:    Size  Location     Type
  8500 ;;		None
  8501 ;; Auto vars:     Size  Location     Type
  8502 ;;		None
  8503 ;; Return value:  Size  Location     Type
  8504 ;;                  1    wreg      void 
  8505 ;; Registers used:
  8506 ;;		None
  8507 ;; Tracked objects:
  8508 ;;		On entry : 0/0
  8509 ;;		On exit  : 0/0
  8510 ;;		Unchanged: 0/0
  8511 ;; Data sizes:     COMRAM   BANK0   BANK1   BANK2   BANK3   BANK4   BANK5   BANK6   BANK7   BANK8   BANK9  BANK10  BANK1
      +1  BANK12  BANK13  BANK14
  8512 ;;      Params:         0       0       0       0       0       0       0       0       0       0       0       0       
      +0       0       0       0
  8513 ;;      Locals:         0       0       0       0       0       0       0       0       0       0       0       0       
      +0       0       0       0
  8514 ;;      Temps:          0       0       0       0       0       0       0       0       0       0       0       0       
      +0       0       0       0
  8515 ;;      Totals:         0       0       0       0       0       0       0       0       0       0       0       0       
      +0       0       0       0
  8516 ;;Total ram usage:        0 bytes
  8517 ;; Hardware stack levels used: 1
  8518 ;; Hardware stack levels required when called: 7
  8519 ;; This function calls:
  8520 ;;		Nothing
  8521 ;; This function is called by:
  8522 ;;		_SYSTEM_Initialize
  8523 ;; This function uses a non-reentrant model
  8524 ;;
  8525                           
  8526                           	psect	text47
  8527  003EAE                     __ptext47:
  8528                           	callstack 0
  8529  003EAE                     _INTERRUPT_Initialize:
  8530                           	callstack 22
  8531  003EAE                     
  8532                           ;mcc_generated_files/interrupt_manager.c: 55:     RCONbits.IPEN = 0;
  8533  003EAE  9ED0               	bcf	208,7,c	;volatile
  8534  003EB0  0012               	return		;funcret
  8535  003EB2                     __end_of_INTERRUPT_Initialize:
  8536                           	callstack 0
  8537                           
  8538 ;; *************** function _I2C1_Initialize *****************
  8539 ;; Defined at:
  8540 ;;		line 167 in file "mcc_generated_files/i2c1_master.c"
  8541 ;; Parameters:    Size  Location     Type
  8542 ;;		None
  8543 ;; Auto vars:     Size  Location     Type
  8544 ;;		None
  8545 ;; Return value:  Size  Location     Type
  8546 ;;                  1    wreg      void 
  8547 ;; Registers used:
  8548 ;;		wreg, status,2
  8549 ;; Tracked objects:
  8550 ;;		On entry : 0/0
  8551 ;;		On exit  : 0/0
  8552 ;;		Unchanged: 0/0
  8553 ;; Data sizes:     COMRAM   BANK0   BANK1   BANK2   BANK3   BANK4   BANK5   BANK6   BANK7   BANK8   BANK9  BANK10  BANK1
      +1  BANK12  BANK13  BANK14
  8554 ;;      Params:         0       0       0       0       0       0       0       0       0       0       0       0       
      +0       0       0       0
  8555 ;;      Locals:         0       0       0       0       0       0       0       0       0       0       0       0       
      +0       0       0       0
  8556 ;;      Temps:          0       0       0       0       0       0       0       0       0       0       0       0       
      +0       0       0       0
  8557 ;;      Totals:         0       0       0       0       0       0       0       0       0       0       0       0       
      +0       0       0       0
  8558 ;;Total ram usage:        0 bytes
  8559 ;; Hardware stack levels used: 1
  8560 ;; Hardware stack levels required when called: 7
  8561 ;; This function calls:
  8562 ;;		Nothing
  8563 ;; This function is called by:
  8564 ;;		_SYSTEM_Initialize
  8565 ;; This function uses a non-reentrant model
  8566 ;;
  8567                           
  8568                           	psect	text48
  8569  003D68                     __ptext48:
  8570                           	callstack 0
  8571  003D68                     _I2C1_Initialize:
  8572                           	callstack 22
  8573  003D68                     
  8574                           ;mcc_generated_files/i2c1_master.c: 169:     SSP1STAT = 0x80;
  8575  003D68  0E80               	movlw	128
  8576  003D6A  6EC7               	movwf	199,c	;volatile
  8577                           
  8578                           ;mcc_generated_files/i2c1_master.c: 170:     SSP1CON1 = 0x08;
  8579  003D6C  0E08               	movlw	8
  8580  003D6E  6EC6               	movwf	198,c	;volatile
  8581                           
  8582                           ;mcc_generated_files/i2c1_master.c: 171:     SSP1CON2 = 0x00;
  8583  003D70  0E00               	movlw	0
  8584  003D72  6EC5               	movwf	197,c	;volatile
  8585                           
  8586                           ;mcc_generated_files/i2c1_master.c: 172:     SSP1ADD = 0xEF;
  8587  003D74  0EEF               	movlw	239
  8588  003D76  6EC8               	movwf	200,c	;volatile
  8589  003D78                     
  8590                           ;mcc_generated_files/i2c1_master.c: 173:     SSP1CON1bits.SSPEN = 0;
  8591  003D78  9AC6               	bcf	198,5,c	;volatile
  8592  003D7A  0012               	return		;funcret
  8593  003D7C                     __end_of_I2C1_Initialize:
  8594                           	callstack 0
  8595                           
  8596 ;; *************** function _EUSART2_Initialize *****************
  8597 ;; Defined at:
  8598 ;;		line 88 in file "mcc_generated_files/eusart2.c"
  8599 ;; Parameters:    Size  Location     Type
  8600 ;;		None
  8601 ;; Auto vars:     Size  Location     Type
  8602 ;;		None
  8603 ;; Return value:  Size  Location     Type
  8604 ;;                  1    wreg      void 
  8605 ;; Registers used:
  8606 ;;		wreg, status,2, status,0, cstack
  8607 ;; Tracked objects:
  8608 ;;		On entry : 0/0
  8609 ;;		On exit  : 0/0
  8610 ;;		Unchanged: 0/0
  8611 ;; Data sizes:     COMRAM   BANK0   BANK1   BANK2   BANK3   BANK4   BANK5   BANK6   BANK7   BANK8   BANK9  BANK10  BANK1
      +1  BANK12  BANK13  BANK14
  8612 ;;      Params:         0       0       0       0       0       0       0       0       0       0       0       0       
      +0       0       0       0
  8613 ;;      Locals:         0       0       0       0       0       0       0       0       0       0       0       0       
      +0       0       0       0
  8614 ;;      Temps:          0       0       0       0       0       0       0       0       0       0       0       0       
      +0       0       0       0
  8615 ;;      Totals:         0       0       0       0       0       0       0       0       0       0       0       0       
      +0       0       0       0
  8616 ;;Total ram usage:        0 bytes
  8617 ;; Hardware stack levels used: 1
  8618 ;; Hardware stack levels required when called: 8
  8619 ;; This function calls:
  8620 ;;		_EUSART2_SetErrorHandler
  8621 ;;		_EUSART2_SetFramingErrorHandler
  8622 ;;		_EUSART2_SetOverrunErrorHandler
  8623 ;;		_EUSART2_SetRxInterruptHandler
  8624 ;;		_EUSART2_SetTxInterruptHandler
  8625 ;; This function is called by:
  8626 ;;		_SYSTEM_Initialize
  8627 ;; This function uses a non-reentrant model
  8628 ;;
  8629                           
  8630                           	psect	text49
  8631  003634                     __ptext49:
  8632                           	callstack 0
  8633  003634                     _EUSART2_Initialize:
  8634                           	callstack 21
  8635  003634                     
  8636                           ;mcc_generated_files/eusart2.c: 91:     PIE3bits.RC2IE = 0;
  8637  003634  9AA3               	bcf	163,5,c	;volatile
  8638  003636                     
  8639                           ;mcc_generated_files/eusart2.c: 92:     EUSART2_SetRxInterruptHandler(EUSART2_Receive_IS
      +                          R);
  8640  003636  0E0A               	movlw	low _EUSART2_Receive_ISR
  8641  003638  6E18               	movwf	EUSART2_SetRxInterruptHandler@interruptHandler^0,c
  8642  00363A  0E32               	movlw	high _EUSART2_Receive_ISR
  8643  00363C  6E19               	movwf	(EUSART2_SetRxInterruptHandler@interruptHandler+1)^0,c
  8644  00363E  EC04  F01F         	call	_EUSART2_SetRxInterruptHandler	;wreg free
  8645  003642                     
  8646                           ;mcc_generated_files/eusart2.c: 93:     PIE3bits.TX2IE = 0;
  8647  003642  98A3               	bcf	163,4,c	;volatile
  8648                           
  8649                           ;mcc_generated_files/eusart2.c: 94:     EUSART2_SetTxInterruptHandler(EUSART2_Transmit_I
      +                          SR);
  8650  003644  0EC0               	movlw	low _EUSART2_Transmit_ISR
  8651  003646  6E18               	movwf	EUSART2_SetTxInterruptHandler@interruptHandler^0,c
  8652  003648  0E39               	movlw	high _EUSART2_Transmit_ISR
  8653  00364A  6E19               	movwf	(EUSART2_SetTxInterruptHandler@interruptHandler+1)^0,c
  8654  00364C  ECFF  F01E         	call	_EUSART2_SetTxInterruptHandler	;wreg free
  8655  003650                     
  8656                           ;mcc_generated_files/eusart2.c: 98:     BAUDCON2 = 0x08;
  8657  003650  0E08               	movlw	8
  8658  003652  6E7C               	movwf	124,c	;volatile
  8659  003654                     
  8660                           ;mcc_generated_files/eusart2.c: 101:     RCSTA2 = 0x90;
  8661  003654  0E90               	movlw	144
  8662  003656  6E9C               	movwf	156,c	;volatile
  8663  003658                     
  8664                           ;mcc_generated_files/eusart2.c: 104:     TXSTA2 = 0x24;
  8665  003658  0E24               	movlw	36
  8666  00365A  6EA8               	movwf	168,c	;volatile
  8667  00365C                     
  8668                           ;mcc_generated_files/eusart2.c: 107:     SPBRG2 = 0x0F;
  8669  00365C  0E0F               	movlw	15
  8670  00365E  6EAB               	movwf	171,c	;volatile
  8671  003660                     
  8672                           ;mcc_generated_files/eusart2.c: 110:     SPBRGH2 = 0x27;
  8673  003660  0E27               	movlw	39
  8674  003662  6E7D               	movwf	125,c	;volatile
  8675  003664                     
  8676                           ;mcc_generated_files/eusart2.c: 113:     EUSART2_SetFramingErrorHandler(EUSART2_DefaultF
      +                          ramingErrorHandler);
  8677  003664  0ED2               	movlw	low _EUSART2_DefaultFramingErrorHandler
  8678  003666  6E18               	movwf	EUSART2_SetFramingErrorHandler@interruptHandler^0,c
  8679  003668  0E3E               	movlw	high _EUSART2_DefaultFramingErrorHandler
  8680  00366A  6E19               	movwf	(EUSART2_SetFramingErrorHandler@interruptHandler+1)^0,c
  8681  00366C  EC0E  F01F         	call	_EUSART2_SetFramingErrorHandler	;wreg free
  8682  003670                     
  8683                           ;mcc_generated_files/eusart2.c: 114:     EUSART2_SetOverrunErrorHandler(EUSART2_DefaultO
      +                          verrunErrorHandler);
  8684  003670  0E8A               	movlw	low _EUSART2_DefaultOverrunErrorHandler
  8685  003672  6E18               	movwf	EUSART2_SetOverrunErrorHandler@interruptHandler^0,c
  8686  003674  0E3E               	movlw	high _EUSART2_DefaultOverrunErrorHandler
  8687  003676  6E19               	movwf	(EUSART2_SetOverrunErrorHandler@interruptHandler+1)^0,c
  8688  003678  EC09  F01F         	call	_EUSART2_SetOverrunErrorHandler	;wreg free
  8689  00367C                     
  8690                           ;mcc_generated_files/eusart2.c: 115:     EUSART2_SetErrorHandler(EUSART2_DefaultErrorHan
      +                          dler);
  8691  00367C  0E90               	movlw	low _EUSART2_DefaultErrorHandler
  8692  00367E  6E18               	movwf	EUSART2_SetErrorHandler@interruptHandler^0,c
  8693  003680  0E3E               	movlw	high _EUSART2_DefaultErrorHandler
  8694  003682  6E19               	movwf	(EUSART2_SetErrorHandler@interruptHandler+1)^0,c
  8695  003684  EC13  F01F         	call	_EUSART2_SetErrorHandler	;wreg free
  8696                           
  8697                           ;mcc_generated_files/eusart2.c: 117:     eusart2RxLastError.status = 0;
  8698  003688  0E00               	movlw	0
  8699  00368A  6E41               	movwf	_eusart2RxLastError^0,c	;volatile
  8700                           
  8701                           ;mcc_generated_files/eusart2.c: 120:     eusart2TxHead = 0;
  8702  00368C  0E00               	movlw	0
  8703  00368E  6E46               	movwf	_eusart2TxHead^0,c	;volatile
  8704                           
  8705                           ;mcc_generated_files/eusart2.c: 121:     eusart2TxTail = 0;
  8706  003690  0E00               	movlw	0
  8707  003692  6E45               	movwf	_eusart2TxTail^0,c	;volatile
  8708                           
  8709                           ;mcc_generated_files/eusart2.c: 122:     eusart2TxBufferRemaining = sizeof(eusart2TxBuff
      +                          er);
  8710  003694  0E08               	movlw	8
  8711  003696  6E47               	movwf	_eusart2TxBufferRemaining^0,c	;volatile
  8712                           
  8713                           ;mcc_generated_files/eusart2.c: 124:     eusart2RxHead = 0;
  8714  003698  0E00               	movlw	0
  8715  00369A  6E44               	movwf	_eusart2RxHead^0,c	;volatile
  8716                           
  8717                           ;mcc_generated_files/eusart2.c: 125:     eusart2RxTail = 0;
  8718  00369C  0E00               	movlw	0
  8719  00369E  6E43               	movwf	_eusart2RxTail^0,c	;volatile
  8720                           
  8721                           ;mcc_generated_files/eusart2.c: 126:     eusart2RxCount = 0;
  8722  0036A0  0E00               	movlw	0
  8723  0036A2  6E42               	movwf	_eusart2RxCount^0,c	;volatile
  8724  0036A4                     
  8725                           ;mcc_generated_files/eusart2.c: 129:     PIE3bits.RC2IE = 1;
  8726  0036A4  8AA3               	bsf	163,5,c	;volatile
  8727  0036A6  0012               	return		;funcret
  8728  0036A8                     __end_of_EUSART2_Initialize:
  8729                           	callstack 0
  8730                           
  8731 ;; *************** function _EUSART2_SetTxInterruptHandler *****************
  8732 ;; Defined at:
  8733 ;;		line 285 in file "mcc_generated_files/eusart2.c"
  8734 ;; Parameters:    Size  Location     Type
  8735 ;;  interruptHan    2   23[COMRAM] PTR FTN()void 
  8736 ;;		 -> EUSART2_Transmit_ISR(1), 
  8737 ;; Auto vars:     Size  Location     Type
  8738 ;;		None
  8739 ;; Return value:  Size  Location     Type
  8740 ;;                  1    wreg      void 
  8741 ;; Registers used:
  8742 ;;		wreg, status,2, status,0
  8743 ;; Tracked objects:
  8744 ;;		On entry : 0/0
  8745 ;;		On exit  : 0/0
  8746 ;;		Unchanged: 0/0
  8747 ;; Data sizes:     COMRAM   BANK0   BANK1   BANK2   BANK3   BANK4   BANK5   BANK6   BANK7   BANK8   BANK9  BANK10  BANK1
      +1  BANK12  BANK13  BANK14
  8748 ;;      Params:         2       0       0       0       0       0       0       0       0       0       0       0       
      +0       0       0       0
  8749 ;;      Locals:         0       0       0       0       0       0       0       0       0       0       0       0       
      +0       0       0       0
  8750 ;;      Temps:          0       0       0       0       0       0       0       0       0       0       0       0       
      +0       0       0       0
  8751 ;;      Totals:         2       0       0       0       0       0       0       0       0       0       0       0       
      +0       0       0       0
  8752 ;;Total ram usage:        2 bytes
  8753 ;; Hardware stack levels used: 1
  8754 ;; Hardware stack levels required when called: 7
  8755 ;; This function calls:
  8756 ;;		Nothing
  8757 ;; This function is called by:
  8758 ;;		_EUSART2_Initialize
  8759 ;; This function uses a non-reentrant model
  8760 ;;
  8761                           
  8762                           	psect	text50
  8763  003DFE                     __ptext50:
  8764                           	callstack 0
  8765  003DFE                     _EUSART2_SetTxInterruptHandler:
  8766                           	callstack 21
  8767  003DFE                     
  8768                           ;mcc_generated_files/eusart2.c: 286:     EUSART2_TxDefaultInterruptHandler = interruptHa
      +                          ndler;
  8769  003DFE  C018  F163         	movff	EUSART2_SetTxInterruptHandler@interruptHandler,_EUSART2_TxDefaultInterruptHandler
  8770  003E02  C019  F164         	movff	EUSART2_SetTxInterruptHandler@interruptHandler+1,_EUSART2_TxDefaultInterruptHandl
      +                          er+1
  8771  003E06  0012               	return		;funcret
  8772  003E08                     __end_of_EUSART2_SetTxInterruptHandler:
  8773                           	callstack 0
  8774                           
  8775 ;; *************** function _EUSART2_SetRxInterruptHandler *****************
  8776 ;; Defined at:
  8777 ;;		line 289 in file "mcc_generated_files/eusart2.c"
  8778 ;; Parameters:    Size  Location     Type
  8779 ;;  interruptHan    2   23[COMRAM] PTR FTN()void 
  8780 ;;		 -> EUSART2_Receive_ISR(1), 
  8781 ;; Auto vars:     Size  Location     Type
  8782 ;;		None
  8783 ;; Return value:  Size  Location     Type
  8784 ;;                  1    wreg      void 
  8785 ;; Registers used:
  8786 ;;		wreg, status,2, status,0
  8787 ;; Tracked objects:
  8788 ;;		On entry : 0/0
  8789 ;;		On exit  : 0/0
  8790 ;;		Unchanged: 0/0
  8791 ;; Data sizes:     COMRAM   BANK0   BANK1   BANK2   BANK3   BANK4   BANK5   BANK6   BANK7   BANK8   BANK9  BANK10  BANK1
      +1  BANK12  BANK13  BANK14
  8792 ;;      Params:         2       0       0       0       0       0       0       0       0       0       0       0       
      +0       0       0       0
  8793 ;;      Locals:         0       0       0       0       0       0       0       0       0       0       0       0       
      +0       0       0       0
  8794 ;;      Temps:          0       0       0       0       0       0       0       0       0       0       0       0       
      +0       0       0       0
  8795 ;;      Totals:         2       0       0       0       0       0       0       0       0       0       0       0       
      +0       0       0       0
  8796 ;;Total ram usage:        2 bytes
  8797 ;; Hardware stack levels used: 1
  8798 ;; Hardware stack levels required when called: 7
  8799 ;; This function calls:
  8800 ;;		Nothing
  8801 ;; This function is called by:
  8802 ;;		_EUSART2_Initialize
  8803 ;; This function uses a non-reentrant model
  8804 ;;
  8805                           
  8806                           	psect	text51
  8807  003E08                     __ptext51:
  8808                           	callstack 0
  8809  003E08                     _EUSART2_SetRxInterruptHandler:
  8810                           	callstack 21
  8811  003E08                     
  8812                           ;mcc_generated_files/eusart2.c: 290:     EUSART2_RxDefaultInterruptHandler = interruptHa
      +                          ndler;
  8813  003E08  C018  F161         	movff	EUSART2_SetRxInterruptHandler@interruptHandler,_EUSART2_RxDefaultInterruptHandler
  8814  003E0C  C019  F162         	movff	EUSART2_SetRxInterruptHandler@interruptHandler+1,_EUSART2_RxDefaultInterruptHandl
      +                          er+1
  8815  003E10  0012               	return		;funcret
  8816  003E12                     __end_of_EUSART2_SetRxInterruptHandler:
  8817                           	callstack 0
  8818                           
  8819 ;; *************** function _EUSART2_SetOverrunErrorHandler *****************
  8820 ;; Defined at:
  8821 ;;		line 277 in file "mcc_generated_files/eusart2.c"
  8822 ;; Parameters:    Size  Location     Type
  8823 ;;  interruptHan    2   23[COMRAM] PTR FTN()void 
  8824 ;;		 -> EUSART2_DefaultOverrunErrorHandler(1), 
  8825 ;; Auto vars:     Size  Location     Type
  8826 ;;		None
  8827 ;; Return value:  Size  Location     Type
  8828 ;;                  1    wreg      void 
  8829 ;; Registers used:
  8830 ;;		wreg, status,2, status,0
  8831 ;; Tracked objects:
  8832 ;;		On entry : 0/0
  8833 ;;		On exit  : 0/0
  8834 ;;		Unchanged: 0/0
  8835 ;; Data sizes:     COMRAM   BANK0   BANK1   BANK2   BANK3   BANK4   BANK5   BANK6   BANK7   BANK8   BANK9  BANK10  BANK1
      +1  BANK12  BANK13  BANK14
  8836 ;;      Params:         2       0       0       0       0       0       0       0       0       0       0       0       
      +0       0       0       0
  8837 ;;      Locals:         0       0       0       0       0       0       0       0       0       0       0       0       
      +0       0       0       0
  8838 ;;      Temps:          0       0       0       0       0       0       0       0       0       0       0       0       
      +0       0       0       0
  8839 ;;      Totals:         2       0       0       0       0       0       0       0       0       0       0       0       
      +0       0       0       0
  8840 ;;Total ram usage:        2 bytes
  8841 ;; Hardware stack levels used: 1
  8842 ;; Hardware stack levels required when called: 7
  8843 ;; This function calls:
  8844 ;;		Nothing
  8845 ;; This function is called by:
  8846 ;;		_EUSART2_Initialize
  8847 ;; This function uses a non-reentrant model
  8848 ;;
  8849                           
  8850                           	psect	text52
  8851  003E12                     __ptext52:
  8852                           	callstack 0
  8853  003E12                     _EUSART2_SetOverrunErrorHandler:
  8854                           	callstack 21
  8855  003E12                     
  8856                           ;mcc_generated_files/eusart2.c: 278:     EUSART2_OverrunErrorHandler = interruptHandler;
  8857  003E12  C018  F15D         	movff	EUSART2_SetOverrunErrorHandler@interruptHandler,_EUSART2_OverrunErrorHandler
  8858  003E16  C019  F15E         	movff	EUSART2_SetOverrunErrorHandler@interruptHandler+1,_EUSART2_OverrunErrorHandler+1
  8859  003E1A  0012               	return		;funcret
  8860  003E1C                     __end_of_EUSART2_SetOverrunErrorHandler:
  8861                           	callstack 0
  8862                           
  8863 ;; *************** function _EUSART2_SetFramingErrorHandler *****************
  8864 ;; Defined at:
  8865 ;;		line 273 in file "mcc_generated_files/eusart2.c"
  8866 ;; Parameters:    Size  Location     Type
  8867 ;;  interruptHan    2   23[COMRAM] PTR FTN()void 
  8868 ;;		 -> EUSART2_DefaultFramingErrorHandler(1), 
  8869 ;; Auto vars:     Size  Location     Type
  8870 ;;		None
  8871 ;; Return value:  Size  Location     Type
  8872 ;;                  1    wreg      void 
  8873 ;; Registers used:
  8874 ;;		wreg, status,2, status,0
  8875 ;; Tracked objects:
  8876 ;;		On entry : 0/0
  8877 ;;		On exit  : 0/0
  8878 ;;		Unchanged: 0/0
  8879 ;; Data sizes:     COMRAM   BANK0   BANK1   BANK2   BANK3   BANK4   BANK5   BANK6   BANK7   BANK8   BANK9  BANK10  BANK1
      +1  BANK12  BANK13  BANK14
  8880 ;;      Params:         2       0       0       0       0       0       0       0       0       0       0       0       
      +0       0       0       0
  8881 ;;      Locals:         0       0       0       0       0       0       0       0       0       0       0       0       
      +0       0       0       0
  8882 ;;      Temps:          0       0       0       0       0       0       0       0       0       0       0       0       
      +0       0       0       0
  8883 ;;      Totals:         2       0       0       0       0       0       0       0       0       0       0       0       
      +0       0       0       0
  8884 ;;Total ram usage:        2 bytes
  8885 ;; Hardware stack levels used: 1
  8886 ;; Hardware stack levels required when called: 7
  8887 ;; This function calls:
  8888 ;;		Nothing
  8889 ;; This function is called by:
  8890 ;;		_EUSART2_Initialize
  8891 ;; This function uses a non-reentrant model
  8892 ;;
  8893                           
  8894                           	psect	text53
  8895  003E1C                     __ptext53:
  8896                           	callstack 0
  8897  003E1C                     _EUSART2_SetFramingErrorHandler:
  8898                           	callstack 21
  8899  003E1C                     
  8900                           ;mcc_generated_files/eusart2.c: 274:     EUSART2_FramingErrorHandler = interruptHandler;
  8901  003E1C  C018  F15F         	movff	EUSART2_SetFramingErrorHandler@interruptHandler,_EUSART2_FramingErrorHandler
  8902  003E20  C019  F160         	movff	EUSART2_SetFramingErrorHandler@interruptHandler+1,_EUSART2_FramingErrorHandler+1
  8903  003E24  0012               	return		;funcret
  8904  003E26                     __end_of_EUSART2_SetFramingErrorHandler:
  8905                           	callstack 0
  8906                           
  8907 ;; *************** function _EUSART2_SetErrorHandler *****************
  8908 ;; Defined at:
  8909 ;;		line 281 in file "mcc_generated_files/eusart2.c"
  8910 ;; Parameters:    Size  Location     Type
  8911 ;;  interruptHan    2   23[COMRAM] PTR FTN()void 
  8912 ;;		 -> EUSART2_DefaultErrorHandler(1), 
  8913 ;; Auto vars:     Size  Location     Type
  8914 ;;		None
  8915 ;; Return value:  Size  Location     Type
  8916 ;;                  1    wreg      void 
  8917 ;; Registers used:
  8918 ;;		wreg, status,2, status,0
  8919 ;; Tracked objects:
  8920 ;;		On entry : 0/0
  8921 ;;		On exit  : 0/0
  8922 ;;		Unchanged: 0/0
  8923 ;; Data sizes:     COMRAM   BANK0   BANK1   BANK2   BANK3   BANK4   BANK5   BANK6   BANK7   BANK8   BANK9  BANK10  BANK1
      +1  BANK12  BANK13  BANK14
  8924 ;;      Params:         2       0       0       0       0       0       0       0       0       0       0       0       
      +0       0       0       0
  8925 ;;      Locals:         0       0       0       0       0       0       0       0       0       0       0       0       
      +0       0       0       0
  8926 ;;      Temps:          0       0       0       0       0       0       0       0       0       0       0       0       
      +0       0       0       0
  8927 ;;      Totals:         2       0       0       0       0       0       0       0       0       0       0       0       
      +0       0       0       0
  8928 ;;Total ram usage:        2 bytes
  8929 ;; Hardware stack levels used: 1
  8930 ;; Hardware stack levels required when called: 7
  8931 ;; This function calls:
  8932 ;;		Nothing
  8933 ;; This function is called by:
  8934 ;;		_EUSART2_Initialize
  8935 ;; This function uses a non-reentrant model
  8936 ;;
  8937                           
  8938                           	psect	text54
  8939  003E26                     __ptext54:
  8940                           	callstack 0
  8941  003E26                     _EUSART2_SetErrorHandler:
  8942                           	callstack 21
  8943  003E26                     
  8944                           ;mcc_generated_files/eusart2.c: 282:     EUSART2_ErrorHandler = interruptHandler;
  8945  003E26  C018  F15B         	movff	EUSART2_SetErrorHandler@interruptHandler,_EUSART2_ErrorHandler
  8946  003E2A  C019  F15C         	movff	EUSART2_SetErrorHandler@interruptHandler+1,_EUSART2_ErrorHandler+1
  8947  003E2E  0012               	return		;funcret
  8948  003E30                     __end_of_EUSART2_SetErrorHandler:
  8949                           	callstack 0
  8950                           
  8951 ;; *************** function _ADC_Initialize *****************
  8952 ;; Defined at:
  8953 ;;		line 61 in file "mcc_generated_files/adc.c"
  8954 ;; Parameters:    Size  Location     Type
  8955 ;;		None
  8956 ;; Auto vars:     Size  Location     Type
  8957 ;;		None
  8958 ;; Return value:  Size  Location     Type
  8959 ;;                  1    wreg      void 
  8960 ;; Registers used:
  8961 ;;		wreg, status,2
  8962 ;; Tracked objects:
  8963 ;;		On entry : 0/0
  8964 ;;		On exit  : 0/0
  8965 ;;		Unchanged: 0/0
  8966 ;; Data sizes:     COMRAM   BANK0   BANK1   BANK2   BANK3   BANK4   BANK5   BANK6   BANK7   BANK8   BANK9  BANK10  BANK1
      +1  BANK12  BANK13  BANK14
  8967 ;;      Params:         0       0       0       0       0       0       0       0       0       0       0       0       
      +0       0       0       0
  8968 ;;      Locals:         0       0       0       0       0       0       0       0       0       0       0       0       
      +0       0       0       0
  8969 ;;      Temps:          0       0       0       0       0       0       0       0       0       0       0       0       
      +0       0       0       0
  8970 ;;      Totals:         0       0       0       0       0       0       0       0       0       0       0       0       
      +0       0       0       0
  8971 ;;Total ram usage:        0 bytes
  8972 ;; Hardware stack levels used: 1
  8973 ;; Hardware stack levels required when called: 7
  8974 ;; This function calls:
  8975 ;;		Nothing
  8976 ;; This function is called by:
  8977 ;;		_SYSTEM_Initialize
  8978 ;; This function uses a non-reentrant model
  8979 ;;
  8980                           
  8981                           	psect	text55
  8982  003CEE                     __ptext55:
  8983                           	callstack 0
  8984  003CEE                     _ADC_Initialize:
  8985                           	callstack 22
  8986  003CEE                     
  8987                           ;mcc_generated_files/adc.c: 66:     ADCON1 = 0x01;
  8988  003CEE  0E01               	movlw	1
  8989  003CF0  6EC1               	movwf	193,c	;volatile
  8990                           
  8991                           ;mcc_generated_files/adc.c: 69:     ADCTRIG = 0x02;
  8992  003CF2  0E02               	movlw	2
  8993  003CF4  010E               	movlb	14	; () banked
  8994  003CF6  6FB8               	movwf	184,b	;volatile
  8995                           
  8996                           ;mcc_generated_files/adc.c: 72:     ANCON1 = 0x00;
  8997  003CF8  0E00               	movlw	0
  8998  003CFA  010F               	movlb	15	; () banked
  8999  003CFC  6F49               	movwf	73,b	;volatile
  9000                           
  9001                           ;mcc_generated_files/adc.c: 75:     ADRESL = 0x00;
  9002  003CFE  0E00               	movlw	0
  9003  003D00  6EC3               	movwf	195,c	;volatile
  9004                           
  9005                           ;mcc_generated_files/adc.c: 78:     ADRESH = 0x00;
  9006  003D02  0E00               	movlw	0
  9007  003D04  6EC4               	movwf	196,c	;volatile
  9008                           
  9009                           ;mcc_generated_files/adc.c: 81:     ADCON0 = 0x01;
  9010  003D06  0E01               	movlw	1
  9011  003D08  6EC2               	movwf	194,c	;volatile
  9012  003D0A                     
  9013                           ; BSR set to: 15
  9014  003D0A  0012               	return		;funcret
  9015  003D0C                     __end_of_ADC_Initialize:
  9016                           	callstack 0
  9017                           
  9018 ;; *************** function _INTERRUPT_InterruptManager *****************
  9019 ;; Defined at:
  9020 ;;		line 58 in file "mcc_generated_files/interrupt_manager.c"
  9021 ;; Parameters:    Size  Location     Type
  9022 ;;		None
  9023 ;; Auto vars:     Size  Location     Type
  9024 ;;		None
  9025 ;; Return value:  Size  Location     Type
  9026 ;;                  1    wreg      void 
  9027 ;; Registers used:
  9028 ;;		wreg, fsr2l, fsr2h, status,2, status,0, pcl, pclath, pclatu, tosl, tblptrl, tblptrh, tblptru, prodl, prodh, cstack
  9029 ;; Tracked objects:
  9030 ;;		On entry : 0/0
  9031 ;;		On exit  : 0/0
  9032 ;;		Unchanged: 0/0
  9033 ;; Data sizes:     COMRAM   BANK0   BANK1   BANK2   BANK3   BANK4   BANK5   BANK6   BANK7   BANK8   BANK9  BANK10  BANK1
      +1  BANK12  BANK13  BANK14
  9034 ;;      Params:         0       0       0       0       0       0       0       0       0       0       0       0       
      +0       0       0       0
  9035 ;;      Locals:         0       0       0       0       0       0       0       0       0       0       0       0       
      +0       0       0       0
  9036 ;;      Temps:         10       0       0       0       0       0       0       0       0       0       0       0       
      +0       0       0       0
  9037 ;;      Totals:        10       0       0       0       0       0       0       0       0       0       0       0       
      +0       0       0       0
  9038 ;;Total ram usage:       10 bytes
  9039 ;; Hardware stack levels used: 1
  9040 ;; Hardware stack levels required when called: 6
  9041 ;; This function calls:
  9042 ;;		Absolute function
  9043 ;;		_EUSART2_Receive_ISR
  9044 ;;		_EUSART2_Transmit_ISR
  9045 ;;		_I2C1_MasterIsr
  9046 ;; This function is called by:
  9047 ;;		Interrupt level 2
  9048 ;; This function uses a non-reentrant model
  9049 ;;
  9050                           
  9051                           	psect	intcode
  9052  000008                     __pintcode:
  9053                           	callstack 0
  9054  000008                     _INTERRUPT_InterruptManager:
  9055                           	callstack 16
  9056                           
  9057                           ; BSR set to: 15
  9058                           ;incstack = 0
  9059  000008  8248               	bsf	int$flags,1,c	;set compiler interrupt flag (level 2)
  9060  00000A  CFFA F00E          	movff	pclath,??_INTERRUPT_InterruptManager
  9061  00000E  CFFB F00F          	movff	pclatu,??_INTERRUPT_InterruptManager+1
  9062  000012  CFD9 F010          	movff	fsr2l,??_INTERRUPT_InterruptManager+2
  9063  000016  CFDA F011          	movff	fsr2h,??_INTERRUPT_InterruptManager+3
  9064  00001A  CFF3 F012          	movff	prodl,??_INTERRUPT_InterruptManager+4
  9065  00001E  CFF4 F013          	movff	prodh,??_INTERRUPT_InterruptManager+5
  9066  000022  CFF6 F014          	movff	tblptrl,??_INTERRUPT_InterruptManager+6
  9067  000026  CFF7 F015          	movff	tblptrh,??_INTERRUPT_InterruptManager+7
  9068  00002A  CFF8 F016          	movff	tblptru,??_INTERRUPT_InterruptManager+8
  9069  00002E  CFF5 F017          	movff	tablat,??_INTERRUPT_InterruptManager+9
  9070  000032                     
  9071                           ;mcc_generated_files/interrupt_manager.c: 61:     if(INTCONbits.PEIE == 1)
  9072  000032  ACF2               	btfss	242,6,c	;volatile
  9073  000034  EF1E  F000         	goto	i2u488_41
  9074  000038  EF20  F000         	goto	i2u488_40
  9075  00003C                     i2u488_41:
  9076  00003C  EF89  F000         	goto	i2l733
  9077  000040                     i2u488_40:
  9078  000040                     
  9079                           ;mcc_generated_files/interrupt_manager.c: 62:     {;mcc_generated_files/interrupt_manage
      +                          r.c: 63:         if(PIE3bits.TX2IE == 1 && PIR3bits.TX2IF == 1)
  9080  000040  A8A3               	btfss	163,4,c	;volatile
  9081  000042  EF25  F000         	goto	i2u489_41
  9082  000046  EF27  F000         	goto	i2u489_40
  9083  00004A                     i2u489_41:
  9084  00004A  EF3E  F000         	goto	i2l724
  9085  00004E                     i2u489_40:
  9086  00004E  A8A4               	btfss	164,4,c	;volatile
  9087  000050  EF2C  F000         	goto	i2u490_41
  9088  000054  EF2E  F000         	goto	i2u490_40
  9089  000058                     i2u490_41:
  9090  000058  EF3E  F000         	goto	i2l724
  9091  00005C                     i2u490_40:
  9092  00005C                     
  9093                           ;mcc_generated_files/interrupt_manager.c: 64:         {;mcc_generated_files/interrupt_ma
      +                          nager.c: 65:             EUSART2_TxDefaultInterruptHandler();
  9094  00005C  D802               	call	i2u491_48
  9095  00005E  EF3C  F000         	goto	i2u491_49
  9096  000062                     i2u491_48:
  9097  000062  0005               	push	
  9098  000064  0101               	movlb	1	; () banked
  9099  000066  6EFA               	movwf	pclath,c
  9100  000068  5163               	movf	_EUSART2_TxDefaultInterruptHandler& (0+255),w,b
  9101  00006A  6EFD               	movwf	tosl,c
  9102  00006C  5164               	movf	(_EUSART2_TxDefaultInterruptHandler+1)& (0+255),w,b
  9103  00006E  6EFE               	movwf	tosh,c
  9104  000070  50F8               	movf	tblptru,w,c
  9105  000072  6EFF               	movwf	tosu,c
  9106  000074  50FA               	movf	pclath,w,c
  9107  000076  0012               	return		;indir
  9108  000078                     i2u491_49:
  9109                           
  9110                           ;mcc_generated_files/interrupt_manager.c: 66:         }
  9111  000078  EF89  F000         	goto	i2l733
  9112  00007C                     i2l724:
  9113  00007C  AAA3               	btfss	163,5,c	;volatile
  9114  00007E  EF43  F000         	goto	i2u492_41
  9115  000082  EF45  F000         	goto	i2u492_40
  9116  000086                     i2u492_41:
  9117  000086  EF5C  F000         	goto	i2l726
  9118  00008A                     i2u492_40:
  9119  00008A  AAA4               	btfss	164,5,c	;volatile
  9120  00008C  EF4A  F000         	goto	i2u493_41
  9121  000090  EF4C  F000         	goto	i2u493_40
  9122  000094                     i2u493_41:
  9123  000094  EF5C  F000         	goto	i2l726
  9124  000098                     i2u493_40:
  9125  000098                     
  9126                           ;mcc_generated_files/interrupt_manager.c: 68:         {;mcc_generated_files/interrupt_ma
      +                          nager.c: 69:             EUSART2_RxDefaultInterruptHandler();
  9127  000098  D802               	call	i2u494_48
  9128  00009A  EF5A  F000         	goto	i2u494_49
  9129  00009E                     i2u494_48:
  9130  00009E  0005               	push	
  9131  0000A0  0101               	movlb	1	; () banked
  9132  0000A2  6EFA               	movwf	pclath,c
  9133  0000A4  5161               	movf	_EUSART2_RxDefaultInterruptHandler& (0+255),w,b
  9134  0000A6  6EFD               	movwf	tosl,c
  9135  0000A8  5162               	movf	(_EUSART2_RxDefaultInterruptHandler+1)& (0+255),w,b
  9136  0000AA  6EFE               	movwf	tosh,c
  9137  0000AC  50F8               	movf	tblptru,w,c
  9138  0000AE  6EFF               	movwf	tosu,c
  9139  0000B0  50FA               	movf	pclath,w,c
  9140  0000B2  0012               	return		;indir
  9141  0000B4                     i2u494_49:
  9142                           
  9143                           ;mcc_generated_files/interrupt_manager.c: 70:         }
  9144  0000B4  EF89  F000         	goto	i2l733
  9145  0000B8                     i2l726:
  9146  0000B8  A6A0               	btfss	160,3,c	;volatile
  9147  0000BA  EF61  F000         	goto	i2u495_41
  9148  0000BE  EF63  F000         	goto	i2u495_40
  9149  0000C2                     i2u495_41:
  9150  0000C2  EF79  F000         	goto	i2l728
  9151  0000C6                     i2u495_40:
  9152  0000C6  A6A1               	btfss	161,3,c	;volatile
  9153  0000C8  EF68  F000         	goto	i2u496_41
  9154  0000CC  EF6A  F000         	goto	i2u496_40
  9155  0000D0                     i2u496_41:
  9156  0000D0  EF79  F000         	goto	i2l728
  9157  0000D4                     i2u496_40:
  9158  0000D4                     i2l5556:
  9159                           
  9160                           ;mcc_generated_files/interrupt_manager.c: 72:         {;mcc_generated_files/interrupt_ma
      +                          nager.c: 73:             MSSP1_InterruptHandler();
  9161  0000D4  D802               	call	i2u497_48
  9162  0000D6  EF77  F000         	goto	i2u497_49
  9163  0000DA                     i2u497_48:
  9164  0000DA  0005               	push	
  9165  0000DC  6EFA               	movwf	pclath,c
  9166  0000DE  503C               	movf	_MSSP1_InterruptHandler^0,w,c
  9167  0000E0  6EFD               	movwf	tosl,c
  9168  0000E2  503D               	movf	(_MSSP1_InterruptHandler+1)^0,w,c
  9169  0000E4  6EFE               	movwf	tosh,c
  9170  0000E6  50F8               	movf	tblptru,w,c
  9171  0000E8  6EFF               	movwf	tosu,c
  9172  0000EA  50FA               	movf	pclath,w,c
  9173  0000EC  0012               	return		;indir
  9174  0000EE                     i2u497_49:
  9175                           
  9176                           ;mcc_generated_files/interrupt_manager.c: 74:         }
  9177  0000EE  EF89  F000         	goto	i2l733
  9178  0000F2                     i2l728:
  9179  0000F2  A69D               	btfss	157,3,c	;volatile
  9180  0000F4  EF7E  F000         	goto	i2u498_41
  9181  0000F8  EF80  F000         	goto	i2u498_40
  9182  0000FC                     i2u498_41:
  9183  0000FC  EF89  F000         	goto	i2l727
  9184  000100                     i2u498_40:
  9185  000100  A69E               	btfss	158,3,c	;volatile
  9186  000102  EF85  F000         	goto	i2u499_41
  9187  000106  EF87  F000         	goto	i2u499_40
  9188  00010A                     i2u499_41:
  9189  00010A  EF89  F000         	goto	i2l727
  9190  00010E                     i2u499_40:
  9191  00010E  EF6A  F000         	goto	i2l5556
  9192  000112                     i2l727:
  9193  000112                     i2l733:
  9194  000112  C017  FFF5         	movff	??_INTERRUPT_InterruptManager+9,tablat
  9195  000116  C016  FFF8         	movff	??_INTERRUPT_InterruptManager+8,tblptru
  9196  00011A  C015  FFF7         	movff	??_INTERRUPT_InterruptManager+7,tblptrh
  9197  00011E  C014  FFF6         	movff	??_INTERRUPT_InterruptManager+6,tblptrl
  9198  000122  C013  FFF4         	movff	??_INTERRUPT_InterruptManager+5,prodh
  9199  000126  C012  FFF3         	movff	??_INTERRUPT_InterruptManager+4,prodl
  9200  00012A  C011  FFDA         	movff	??_INTERRUPT_InterruptManager+3,fsr2h
  9201  00012E  C010  FFD9         	movff	??_INTERRUPT_InterruptManager+2,fsr2l
  9202  000132  C00F  FFFB         	movff	??_INTERRUPT_InterruptManager+1,pclatu
  9203  000136  C00E  FFFA         	movff	??_INTERRUPT_InterruptManager,pclath
  9204  00013A  9248               	bcf	int$flags,1,c	;clear compiler interrupt flag (level 2)
  9205  00013C  0011               	retfie		f
  9206  00013E                     __end_of_INTERRUPT_InterruptManager:
  9207                           	callstack 0
  9208                           
  9209 ;; *************** function _I2C1_MasterIsr *****************
  9210 ;; Defined at:
  9211 ;;		line 318 in file "mcc_generated_files/i2c1_master.c"
  9212 ;; Parameters:    Size  Location     Type
  9213 ;;		None
  9214 ;; Auto vars:     Size  Location     Type
  9215 ;;		None
  9216 ;; Return value:  Size  Location     Type
  9217 ;;                  1    wreg      void 
  9218 ;; Registers used:
  9219 ;;		wreg, fsr2l, fsr2h, status,2, status,0, pcl, pclath, pclatu, tosl, tblptrl, tblptrh, tblptru, prodl, prodh, cstack
  9220 ;; Tracked objects:
  9221 ;;		On entry : 0/0
  9222 ;;		On exit  : 0/0
  9223 ;;		Unchanged: 0/0
  9224 ;; Data sizes:     COMRAM   BANK0   BANK1   BANK2   BANK3   BANK4   BANK5   BANK6   BANK7   BANK8   BANK9  BANK10  BANK1
      +1  BANK12  BANK13  BANK14
  9225 ;;      Params:         0       0       0       0       0       0       0       0       0       0       0       0       
      +0       0       0       0
  9226 ;;      Locals:         0       0       0       0       0       0       0       0       0       0       0       0       
      +0       0       0       0
  9227 ;;      Temps:          0       0       0       0       0       0       0       0       0       0       0       0       
      +0       0       0       0
  9228 ;;      Totals:         0       0       0       0       0       0       0       0       0       0       0       0       
      +0       0       0       0
  9229 ;;Total ram usage:        0 bytes
  9230 ;; Hardware stack levels used: 1
  9231 ;; Hardware stack levels required when called: 5
  9232 ;; This function calls:
  9233 ;;		_I2C1_MasterFsm
  9234 ;; This function is called by:
  9235 ;;		_I2C1_Open
  9236 ;;		_INTERRUPT_InterruptManager
  9237 ;; This function uses a non-reentrant model
  9238 ;;
  9239                           
  9240                           	psect	text57
  9241  003E78                     __ptext57:
  9242                           	callstack 0
  9243  003E78                     _I2C1_MasterIsr:
  9244                           	callstack 16
  9245  003E78                     
  9246                           ;mcc_generated_files/i2c1_master.c: 320:     I2C1_MasterFsm();
  9247  003E78  ECFA  F01B         	call	_I2C1_MasterFsm	;wreg free
  9248  003E7C  0012               	return		;funcret
  9249  003E7E                     __end_of_I2C1_MasterIsr:
  9250                           	callstack 0
  9251                           
  9252 ;; *************** function _I2C1_MasterFsm *****************
  9253 ;; Defined at:
  9254 ;;		line 323 in file "mcc_generated_files/i2c1_master.c"
  9255 ;; Parameters:    Size  Location     Type
  9256 ;;		None
  9257 ;; Auto vars:     Size  Location     Type
  9258 ;;		None
  9259 ;; Return value:  Size  Location     Type
  9260 ;;                  1    wreg      void 
  9261 ;; Registers used:
  9262 ;;		wreg, fsr2l, fsr2h, status,2, status,0, pcl, pclath, pclatu, tosl, tblptrl, tblptrh, tblptru, prodl, prodh, cstack
  9263 ;; Tracked objects:
  9264 ;;		On entry : 0/0
  9265 ;;		On exit  : 0/0
  9266 ;;		Unchanged: 0/0
  9267 ;; Data sizes:     COMRAM   BANK0   BANK1   BANK2   BANK3   BANK4   BANK5   BANK6   BANK7   BANK8   BANK9  BANK10  BANK1
      +1  BANK12  BANK13  BANK14
  9268 ;;      Params:         0       0       0       0       0       0       0       0       0       0       0       0       
      +0       0       0       0
  9269 ;;      Locals:         0       0       0       0       0       0       0       0       0       0       0       0       
      +0       0       0       0
  9270 ;;      Temps:          0       0       0       0       0       0       0       0       0       0       0       0       
      +0       0       0       0
  9271 ;;      Totals:         0       0       0       0       0       0       0       0       0       0       0       0       
      +0       0       0       0
  9272 ;;Total ram usage:        0 bytes
  9273 ;; Hardware stack levels used: 1
  9274 ;; Hardware stack levels required when called: 4
  9275 ;; This function calls:
  9276 ;;		_I2C1_DO_ADDRESS_NACK
  9277 ;;		_I2C1_DO_IDLE
  9278 ;;		_I2C1_DO_RCEN
  9279 ;;		_I2C1_DO_RESET
  9280 ;;		_I2C1_DO_RX
  9281 ;;		_I2C1_DO_RX_ACK
  9282 ;;		_I2C1_DO_RX_NACK_RESTART
  9283 ;;		_I2C1_DO_RX_NACK_STOP
  9284 ;;		_I2C1_DO_SEND_ADR_READ
  9285 ;;		_I2C1_DO_SEND_ADR_WRITE
  9286 ;;		_I2C1_DO_SEND_RESTART
  9287 ;;		_I2C1_DO_SEND_RESTART_READ
  9288 ;;		_I2C1_DO_SEND_RESTART_WRITE
  9289 ;;		_I2C1_DO_SEND_STOP
  9290 ;;		_I2C1_DO_TX
  9291 ;;		_I2C1_DO_TX_EMPTY
  9292 ;;		_I2C1_MasterIsNack
  9293 ;;		i2_I2C1_MasterClearIrq
  9294 ;; This function is called by:
  9295 ;;		_I2C1_MasterIsr
  9296 ;; This function uses a non-reentrant model
  9297 ;;
  9298                           
  9299                           	psect	text58
  9300  0037F4                     __ptext58:
  9301                           	callstack 0
  9302  0037F4                     _I2C1_MasterFsm:
  9303                           	callstack 16
  9304  0037F4                     
  9305                           ;mcc_generated_files/i2c1_master.c: 325:     I2C1_MasterClearIrq();
  9306  0037F4  EC59  F01F         	call	i2_I2C1_MasterClearIrq	;wreg free
  9307  0037F8                     
  9308                           ;mcc_generated_files/i2c1_master.c: 327:     if(I2C1_Status.addressNackCheck && I2C1_Mas
      +                          terIsNack())
  9309  0037F8  0101               	movlb	1	; () banked
  9310  0037FA  A123               	btfss	(_I2C1_Status+35)& (0+255),0,b
  9311  0037FC  EF02  F01C         	goto	i2u452_41
  9312  003800  EF04  F01C         	goto	i2u452_40
  9313  003804                     i2u452_41:
  9314  003804  EF11  F01C         	goto	i2l5262
  9315  003808                     i2u452_40:
  9316  003808                     
  9317                           ; BSR set to: 1
  9318  003808  ECBE  F01E         	call	_I2C1_MasterIsNack	;wreg free
  9319  00380C  0900               	iorlw	0
  9320  00380E  B4D8               	btfsc	status,2,c
  9321  003810  EF0C  F01C         	goto	i2u453_41
  9322  003814  EF0E  F01C         	goto	i2u453_40
  9323  003818                     i2u453_41:
  9324  003818  EF11  F01C         	goto	i2l5262
  9325  00381C                     i2u453_40:
  9326  00381C                     
  9327                           ;mcc_generated_files/i2c1_master.c: 328:     {;mcc_generated_files/i2c1_master.c: 329:  
      +                                 I2C1_Status.state = I2C1_ADDRESS_NACK;
  9328  00381C  0E0F               	movlw	15
  9329  00381E  0101               	movlb	1	; () banked
  9330  003820  6F21               	movwf	(_I2C1_Status+33)& (0+255),b
  9331  003822                     i2l5262:
  9332                           
  9333                           ;mcc_generated_files/i2c1_master.c: 331:     I2C1_Status.state = i2c1_fsmStateTable[I2C1
      +                          _Status.state]();
  9334  003822  0101               	movlb	1	; () banked
  9335  003824  5121               	movf	(_I2C1_Status+33)& (0+255),w,b
  9336  003826  0D02               	mullw	2
  9337  003828  0E01               	movlw	low _i2c1_fsmStateTable
  9338  00382A  24F3               	addwf	243,w,c
  9339  00382C  6EF6               	movwf	tblptrl,c
  9340  00382E  0E0F               	movlw	high _i2c1_fsmStateTable
  9341  003830  20F4               	addwfc	244,w,c
  9342  003832  6EF7               	movwf	tblptrh,c
  9343  003834                     	if	0	;There are less than 3 active tblptr bytes
  9344  003834                     	endif
  9345  003834  D802               	call	i2u454_48
  9346  003836  EF29  F01C         	goto	i2u454_49
  9347  00383A                     i2u454_48:
  9348  00383A  0005               	push	
  9349  00383C  6EFA               	movwf	pclath,c
  9350  00383E  0009               	tblrd		*+
  9351  003840  50F5               	movf	tablat,w,c
  9352  003842  6EFD               	movwf	tosl,c
  9353  003844  0009               	tblrd		*+
  9354  003846  50F5               	movf	tablat,w,c
  9355  003848  6EFE               	movwf	tosh,c
  9356  00384A  50F8               	movf	tblptru,w,c
  9357  00384C  6EFF               	movwf	tosu,c
  9358  00384E  50FA               	movf	pclath,w,c
  9359  003850  0012               	return		;indir
  9360  003852                     i2u454_49:
  9361  003852  0101               	movlb	1	; () banked
  9362  003854  6F21               	movwf	(_I2C1_Status+33)& (0+255),b
  9363  003856                     
  9364                           ; BSR set to: 1
  9365  003856  0012               	return		;funcret
  9366  003858                     __end_of_I2C1_MasterFsm:
  9367                           	callstack 0
  9368                           
  9369 ;; *************** function i2_I2C1_MasterClearIrq *****************
  9370 ;; Defined at:
  9371 ;;		line 642 in file "mcc_generated_files/i2c1_master.c"
  9372 ;; Parameters:    Size  Location     Type
  9373 ;;		None
  9374 ;; Auto vars:     Size  Location     Type
  9375 ;;		None
  9376 ;; Return value:  Size  Location     Type
  9377 ;;                  1    wreg      void 
  9378 ;; Registers used:
  9379 ;;		None
  9380 ;; Tracked objects:
  9381 ;;		On entry : 0/0
  9382 ;;		On exit  : 0/0
  9383 ;;		Unchanged: 0/0
  9384 ;; Data sizes:     COMRAM   BANK0   BANK1   BANK2   BANK3   BANK4   BANK5   BANK6   BANK7   BANK8   BANK9  BANK10  BANK1
      +1  BANK12  BANK13  BANK14
  9385 ;;      Params:         0       0       0       0       0       0       0       0       0       0       0       0       
      +0       0       0       0
  9386 ;;      Locals:         0       0       0       0       0       0       0       0       0       0       0       0       
      +0       0       0       0
  9387 ;;      Temps:          0       0       0       0       0       0       0       0       0       0       0       0       
      +0       0       0       0
  9388 ;;      Totals:         0       0       0       0       0       0       0       0       0       0       0       0       
      +0       0       0       0
  9389 ;;Total ram usage:        0 bytes
  9390 ;; Hardware stack levels used: 1
  9391 ;; This function calls:
  9392 ;;		Nothing
  9393 ;; This function is called by:
  9394 ;;		_I2C1_MasterFsm
  9395 ;; This function uses a non-reentrant model
  9396 ;;
  9397                           
  9398                           	psect	text59
  9399  003EB2                     __ptext59:
  9400                           	callstack 0
  9401  003EB2                     i2_I2C1_MasterClearIrq:
  9402                           	callstack 19
  9403  003EB2                     
  9404                           ;mcc_generated_files/i2c1_master.c: 644:     PIR1bits.SSP1IF = 0;
  9405  003EB2  969E               	bcf	158,3,c	;volatile
  9406  003EB4  0012               	return		;funcret
  9407  003EB6                     __end_ofi2_I2C1_MasterClearIrq:
  9408                           	callstack 0
  9409                           
  9410 ;; *************** function _I2C1_DO_ADDRESS_NACK *****************
  9411 ;; Defined at:
  9412 ;;		line 501 in file "mcc_generated_files/i2c1_master.c"
  9413 ;; Parameters:    Size  Location     Type
  9414 ;;		None
  9415 ;; Auto vars:     Size  Location     Type
  9416 ;;		None
  9417 ;; Return value:  Size  Location     Type
  9418 ;;                  1    wreg      enum E6655
  9419 ;; Registers used:
  9420 ;;		wreg, fsr2l, fsr2h, status,2, status,0, pcl, pclath, pclatu, tosl, prodl, prodh, cstack
  9421 ;; Tracked objects:
  9422 ;;		On entry : 0/0
  9423 ;;		On exit  : 0/0
  9424 ;;		Unchanged: 0/0
  9425 ;; Data sizes:     COMRAM   BANK0   BANK1   BANK2   BANK3   BANK4   BANK5   BANK6   BANK7   BANK8   BANK9  BANK10  BANK1
      +1  BANK12  BANK13  BANK14
  9426 ;;      Params:         0       0       0       0       0       0       0       0       0       0       0       0       
      +0       0       0       0
  9427 ;;      Locals:         0       0       0       0       0       0       0       0       0       0       0       0       
      +0       0       0       0
  9428 ;;      Temps:          2       0       0       0       0       0       0       0       0       0       0       0       
      +0       0       0       0
  9429 ;;      Totals:         2       0       0       0       0       0       0       0       0       0       0       0       
      +0       0       0       0
  9430 ;;Total ram usage:        2 bytes
  9431 ;; Hardware stack levels used: 1
  9432 ;; Hardware stack levels required when called: 3
  9433 ;; This function calls:
  9434 ;;		Absolute function
  9435 ;;		_I2C1_CallbackReturnReset
  9436 ;;		_I2C1_CallbackReturnStop
  9437 ;;		_I2C1_DO_SEND_RESTART
  9438 ;;		_I2C1_DO_SEND_STOP
  9439 ;;		_rd1RegCompleteHandler
  9440 ;;		_rd2RegCompleteHandler
  9441 ;;		_rdBlkRegCompleteHandler
  9442 ;;		_wr1RegCompleteHandler
  9443 ;;		_wr2RegCompleteHandler
  9444 ;; This function is called by:
  9445 ;;		_I2C1_MasterFsm
  9446 ;; This function uses a non-reentrant model
  9447 ;;
  9448                           
  9449                           	psect	text60
  9450  003788                     __ptext60:
  9451                           	callstack 0
  9452  003788                     _I2C1_DO_ADDRESS_NACK:
  9453                           	callstack 16
  9454  003788                     
  9455                           ;mcc_generated_files/i2c1_master.c: 503:     I2C1_Status.addressNackCheck = 0;
  9456  003788  0101               	movlb	1	; () banked
  9457  00378A  9123               	bcf	(_I2C1_Status+35)& (0+255),0,b
  9458  00378C                     
  9459                           ; BSR set to: 1
  9460                           ;mcc_generated_files/i2c1_master.c: 504:     I2C1_Status.error = I2C1_FAIL;
  9461  00378C  0E02               	movlw	2
  9462  00378E  6F22               	movwf	(_I2C1_Status+34)& (0+255),b
  9463                           
  9464                           ;mcc_generated_files/i2c1_master.c: 505:     switch(I2C1_Status.callbackTable[I2C1_ADDR_
      +                          NACK](I2C1_Status.callbackPayload[I2C1_ADDR_NACK]))
  9465  003790  EFD2  F01B         	goto	i2l5000
  9466  003794                     i2l4990:
  9467                           
  9468                           ;mcc_generated_files/i2c1_master.c: 509:             return I2C1_DO_SEND_RESTART();
  9469  003794  EC2C  F01F         	call	_I2C1_DO_SEND_RESTART	;wreg free
  9470  003798  EFF9  F01B         	goto	i2l543
  9471  00379C                     i2l4994:
  9472                           
  9473                           ;mcc_generated_files/i2c1_master.c: 511:             return I2C1_DO_SEND_STOP();
  9474  00379C  EC28  F01F         	call	_I2C1_DO_SEND_STOP	;wreg free
  9475  0037A0  EFF9  F01B         	goto	i2l543
  9476  0037A4                     i2l5000:
  9477                           
  9478                           ; BSR set to: 1
  9479  0037A4  C110  F00A         	movff	_I2C1_Status+16,I2C1_CallbackReturnReset@funPtr
  9480  0037A8  C111  F00B         	movff	_I2C1_Status+17,I2C1_CallbackReturnReset@funPtr+1
  9481  0037AC  EE21  F004         	lfsr	2,_I2C1_Status+4
  9482  0037B0  D802               	call	i2u409_48
  9483  0037B2  EFE5  F01B         	goto	i2u409_49
  9484  0037B6                     i2u409_48:
  9485  0037B6  0005               	push	
  9486  0037B8  6EFA               	movwf	pclath,c
  9487  0037BA  50DE               	movf	postinc2,w,c
  9488  0037BC  6EFD               	movwf	tosl,c
  9489  0037BE  50DE               	movf	postinc2,w,c
  9490  0037C0  6EFE               	movwf	tosh,c
  9491  0037C2  50F8               	movf	tblptru,w,c
  9492  0037C4  6EFF               	movwf	tosu,c
  9493  0037C6  50FA               	movf	pclath,w,c
  9494  0037C8  0012               	return		;indir
  9495  0037CA                     i2u409_49:
  9496  0037CA  6E0C               	movwf	??_I2C1_DO_ADDRESS_NACK^0,c
  9497  0037CC  6A0D               	clrf	(??_I2C1_DO_ADDRESS_NACK+1)^0,c
  9498                           
  9499                           ; Switch on 2 bytes has been partitioned into a top level switch of size 1, and 1 sub-sw
      +                          itches
  9500                           ; Switch size 1, requested type "simple"
  9501                           ; Number of cases is 1, Range of values is 0 to 0
  9502                           ; switch strategies available:
  9503                           ; Name         Instructions Cycles
  9504                           ; simple_byte            4     3 (average)
  9505                           ;	Chosen strategy is simple_byte
  9506  0037CE  500D               	movf	(??_I2C1_DO_ADDRESS_NACK+1)^0,w,c
  9507  0037D0  0A00               	xorlw	0	; case 0
  9508  0037D2  B4D8               	btfsc	status,2,c
  9509  0037D4  EFEE  F01B         	goto	i2l7256
  9510  0037D8  EFCE  F01B         	goto	i2l4994
  9511  0037DC                     i2l7256:
  9512                           
  9513                           ; Switch size 1, requested type "simple"
  9514                           ; Number of cases is 2, Range of values is 2 to 3
  9515                           ; switch strategies available:
  9516                           ; Name         Instructions Cycles
  9517                           ; simple_byte            7     4 (average)
  9518                           ;	Chosen strategy is simple_byte
  9519  0037DC  500C               	movf	??_I2C1_DO_ADDRESS_NACK^0,w,c
  9520  0037DE  0A02               	xorlw	2	; case 2
  9521  0037E0  B4D8               	btfsc	status,2,c
  9522  0037E2  EFCA  F01B         	goto	i2l4990
  9523  0037E6  0A01               	xorlw	1	; case 3
  9524  0037E8  B4D8               	btfsc	status,2,c
  9525  0037EA  EFCA  F01B         	goto	i2l4990
  9526  0037EE  EFCE  F01B         	goto	i2l4994
  9527  0037F2                     i2l543:
  9528  0037F2  0012               	return		;funcret
  9529  0037F4                     __end_of_I2C1_DO_ADDRESS_NACK:
  9530                           	callstack 0
  9531                           
  9532 ;; *************** function _I2C1_DO_RESET *****************
  9533 ;; Defined at:
  9534 ;;		line 495 in file "mcc_generated_files/i2c1_master.c"
  9535 ;; Parameters:    Size  Location     Type
  9536 ;;		None
  9537 ;; Auto vars:     Size  Location     Type
  9538 ;;		None
  9539 ;; Return value:  Size  Location     Type
  9540 ;;                  1    wreg      enum E6655
  9541 ;; Registers used:
  9542 ;;		wreg, status,2
  9543 ;; Tracked objects:
  9544 ;;		On entry : 0/0
  9545 ;;		On exit  : 0/0
  9546 ;;		Unchanged: 0/0
  9547 ;; Data sizes:     COMRAM   BANK0   BANK1   BANK2   BANK3   BANK4   BANK5   BANK6   BANK7   BANK8   BANK9  BANK10  BANK1
      +1  BANK12  BANK13  BANK14
  9548 ;;      Params:         0       0       0       0       0       0       0       0       0       0       0       0       
      +0       0       0       0
  9549 ;;      Locals:         0       0       0       0       0       0       0       0       0       0       0       0       
      +0       0       0       0
  9550 ;;      Temps:          0       0       0       0       0       0       0       0       0       0       0       0       
      +0       0       0       0
  9551 ;;      Totals:         0       0       0       0       0       0       0       0       0       0       0       0       
      +0       0       0       0
  9552 ;;Total ram usage:        0 bytes
  9553 ;; Hardware stack levels used: 1
  9554 ;; This function calls:
  9555 ;;		Nothing
  9556 ;; This function is called by:
  9557 ;;		_I2C1_MasterFsm
  9558 ;; This function uses a non-reentrant model
  9559 ;;
  9560                           
  9561                           	psect	text61
  9562  003DD0                     __ptext61:
  9563                           	callstack 0
  9564  003DD0                     _I2C1_DO_RESET:
  9565                           	callstack 19
  9566  003DD0                     
  9567                           ;mcc_generated_files/i2c1_master.c: 497:     I2C1_Status.busy = 0;
  9568  003DD0  0101               	movlb	1	; () banked
  9569  003DD2  9323               	bcf	(_I2C1_Status+35)& (0+255),1,b
  9570  003DD4                     
  9571                           ; BSR set to: 1
  9572                           ;mcc_generated_files/i2c1_master.c: 498:     I2C1_Status.error = I2C1_NOERR;
  9573  003DD4  0E00               	movlw	0
  9574  003DD6  6F22               	movwf	(_I2C1_Status+34)& (0+255),b
  9575  003DD8                     
  9576                           ; BSR set to: 1
  9577                           ;mcc_generated_files/i2c1_master.c: 499:     return I2C1_RESET;
  9578  003DD8  0E0E               	movlw	14
  9579  003DDA                     
  9580                           ; BSR set to: 1
  9581  003DDA  0012               	return		;funcret
  9582  003DDC                     __end_of_I2C1_DO_RESET:
  9583                           	callstack 0
  9584                           
  9585 ;; *************** function _I2C1_DO_RX_NACK_RESTART *****************
  9586 ;; Defined at:
  9587 ;;		line 489 in file "mcc_generated_files/i2c1_master.c"
  9588 ;; Parameters:    Size  Location     Type
  9589 ;;		None
  9590 ;; Auto vars:     Size  Location     Type
  9591 ;;		None
  9592 ;; Return value:  Size  Location     Type
  9593 ;;                  1    wreg      enum E6655
  9594 ;; Registers used:
  9595 ;;		wreg, cstack
  9596 ;; Tracked objects:
  9597 ;;		On entry : 0/0
  9598 ;;		On exit  : 0/0
  9599 ;;		Unchanged: 0/0
  9600 ;; Data sizes:     COMRAM   BANK0   BANK1   BANK2   BANK3   BANK4   BANK5   BANK6   BANK7   BANK8   BANK9  BANK10  BANK1
      +1  BANK12  BANK13  BANK14
  9601 ;;      Params:         0       0       0       0       0       0       0       0       0       0       0       0       
      +0       0       0       0
  9602 ;;      Locals:         0       0       0       0       0       0       0       0       0       0       0       0       
      +0       0       0       0
  9603 ;;      Temps:          0       0       0       0       0       0       0       0       0       0       0       0       
      +0       0       0       0
  9604 ;;      Totals:         0       0       0       0       0       0       0       0       0       0       0       0       
      +0       0       0       0
  9605 ;;Total ram usage:        0 bytes
  9606 ;; Hardware stack levels used: 1
  9607 ;; Hardware stack levels required when called: 1
  9608 ;; This function calls:
  9609 ;;		_I2C1_MasterSendNack
  9610 ;; This function is called by:
  9611 ;;		_I2C1_DO_RX
  9612 ;;		_I2C1_MasterFsm
  9613 ;; This function uses a non-reentrant model
  9614 ;;
  9615                           
  9616                           	psect	text62
  9617  003E38                     __ptext62:
  9618                           	callstack 0
  9619  003E38                     _I2C1_DO_RX_NACK_RESTART:
  9620                           	callstack 18
  9621  003E38                     
  9622                           ;mcc_generated_files/i2c1_master.c: 491:     I2C1_MasterSendNack();
  9623  003E38  EC42  F01F         	call	_I2C1_MasterSendNack	;wreg free
  9624  003E3C                     
  9625                           ;mcc_generated_files/i2c1_master.c: 492:     return I2C1_SEND_RESTART;
  9626  003E3C  0E09               	movlw	9
  9627  003E3E  0012               	return		;funcret
  9628  003E40                     __end_of_I2C1_DO_RX_NACK_RESTART:
  9629                           	callstack 0
  9630                           
  9631 ;; *************** function _I2C1_DO_RX_NACK_STOP *****************
  9632 ;; Defined at:
  9633 ;;		line 483 in file "mcc_generated_files/i2c1_master.c"
  9634 ;; Parameters:    Size  Location     Type
  9635 ;;		None
  9636 ;; Auto vars:     Size  Location     Type
  9637 ;;		None
  9638 ;; Return value:  Size  Location     Type
  9639 ;;                  1    wreg      enum E6655
  9640 ;; Registers used:
  9641 ;;		wreg, cstack
  9642 ;; Tracked objects:
  9643 ;;		On entry : 0/0
  9644 ;;		On exit  : 0/0
  9645 ;;		Unchanged: 0/0
  9646 ;; Data sizes:     COMRAM   BANK0   BANK1   BANK2   BANK3   BANK4   BANK5   BANK6   BANK7   BANK8   BANK9  BANK10  BANK1
      +1  BANK12  BANK13  BANK14
  9647 ;;      Params:         0       0       0       0       0       0       0       0       0       0       0       0       
      +0       0       0       0
  9648 ;;      Locals:         0       0       0       0       0       0       0       0       0       0       0       0       
      +0       0       0       0
  9649 ;;      Temps:          0       0       0       0       0       0       0       0       0       0       0       0       
      +0       0       0       0
  9650 ;;      Totals:         0       0       0       0       0       0       0       0       0       0       0       0       
      +0       0       0       0
  9651 ;;Total ram usage:        0 bytes
  9652 ;; Hardware stack levels used: 1
  9653 ;; Hardware stack levels required when called: 1
  9654 ;; This function calls:
  9655 ;;		_I2C1_MasterSendNack
  9656 ;; This function is called by:
  9657 ;;		_I2C1_DO_RX
  9658 ;;		_I2C1_MasterFsm
  9659 ;; This function uses a non-reentrant model
  9660 ;;
  9661                           
  9662                           	psect	text63
  9663  003E40                     __ptext63:
  9664                           	callstack 0
  9665  003E40                     _I2C1_DO_RX_NACK_STOP:
  9666                           	callstack 18
  9667  003E40                     
  9668                           ;mcc_generated_files/i2c1_master.c: 485:     I2C1_MasterSendNack();
  9669  003E40  EC42  F01F         	call	_I2C1_MasterSendNack	;wreg free
  9670  003E44                     
  9671                           ;mcc_generated_files/i2c1_master.c: 486:     return I2C1_SEND_STOP;
  9672  003E44  0E0A               	movlw	10
  9673  003E46  0012               	return		;funcret
  9674  003E48                     __end_of_I2C1_DO_RX_NACK_STOP:
  9675                           	callstack 0
  9676                           
  9677 ;; *************** function _I2C1_DO_RX_ACK *****************
  9678 ;; Defined at:
  9679 ;;		line 476 in file "mcc_generated_files/i2c1_master.c"
  9680 ;; Parameters:    Size  Location     Type
  9681 ;;		None
  9682 ;; Auto vars:     Size  Location     Type
  9683 ;;		None
  9684 ;; Return value:  Size  Location     Type
  9685 ;;                  1    wreg      enum E6655
  9686 ;; Registers used:
  9687 ;;		wreg, cstack
  9688 ;; Tracked objects:
  9689 ;;		On entry : 0/0
  9690 ;;		On exit  : 0/0
  9691 ;;		Unchanged: 0/0
  9692 ;; Data sizes:     COMRAM   BANK0   BANK1   BANK2   BANK3   BANK4   BANK5   BANK6   BANK7   BANK8   BANK9  BANK10  BANK1
      +1  BANK12  BANK13  BANK14
  9693 ;;      Params:         0       0       0       0       0       0       0       0       0       0       0       0       
      +0       0       0       0
  9694 ;;      Locals:         0       0       0       0       0       0       0       0       0       0       0       0       
      +0       0       0       0
  9695 ;;      Temps:          0       0       0       0       0       0       0       0       0       0       0       0       
      +0       0       0       0
  9696 ;;      Totals:         0       0       0       0       0       0       0       0       0       0       0       0       
      +0       0       0       0
  9697 ;;Total ram usage:        0 bytes
  9698 ;; Hardware stack levels used: 1
  9699 ;; Hardware stack levels required when called: 1
  9700 ;; This function calls:
  9701 ;;		_I2C1_MasterSendAck
  9702 ;; This function is called by:
  9703 ;;		_I2C1_MasterFsm
  9704 ;; This function uses a non-reentrant model
  9705 ;;
  9706                           
  9707                           	psect	text64
  9708  003E48                     __ptext64:
  9709                           	callstack 0
  9710  003E48                     _I2C1_DO_RX_ACK:
  9711                           	callstack 18
  9712  003E48                     
  9713                           ;mcc_generated_files/i2c1_master.c: 478:     I2C1_MasterSendAck();
  9714  003E48  EC3F  F01F         	call	_I2C1_MasterSendAck	;wreg free
  9715  003E4C                     
  9716                           ;mcc_generated_files/i2c1_master.c: 479:     return I2C1_RCEN;
  9717  003E4C  0E05               	movlw	5
  9718  003E4E  0012               	return		;funcret
  9719  003E50                     __end_of_I2C1_DO_RX_ACK:
  9720                           	callstack 0
  9721                           
  9722 ;; *************** function _I2C1_DO_SEND_STOP *****************
  9723 ;; Defined at:
  9724 ;;		line 470 in file "mcc_generated_files/i2c1_master.c"
  9725 ;; Parameters:    Size  Location     Type
  9726 ;;		None
  9727 ;; Auto vars:     Size  Location     Type
  9728 ;;		None
  9729 ;; Return value:  Size  Location     Type
  9730 ;;                  1    wreg      enum E6655
  9731 ;; Registers used:
  9732 ;;		wreg, cstack
  9733 ;; Tracked objects:
  9734 ;;		On entry : 0/0
  9735 ;;		On exit  : 0/0
  9736 ;;		Unchanged: 0/0
  9737 ;; Data sizes:     COMRAM   BANK0   BANK1   BANK2   BANK3   BANK4   BANK5   BANK6   BANK7   BANK8   BANK9  BANK10  BANK1
      +1  BANK12  BANK13  BANK14
  9738 ;;      Params:         0       0       0       0       0       0       0       0       0       0       0       0       
      +0       0       0       0
  9739 ;;      Locals:         0       0       0       0       0       0       0       0       0       0       0       0       
      +0       0       0       0
  9740 ;;      Temps:          0       0       0       0       0       0       0       0       0       0       0       0       
      +0       0       0       0
  9741 ;;      Totals:         0       0       0       0       0       0       0       0       0       0       0       0       
      +0       0       0       0
  9742 ;;Total ram usage:        0 bytes
  9743 ;; Hardware stack levels used: 1
  9744 ;; Hardware stack levels required when called: 1
  9745 ;; This function calls:
  9746 ;;		_I2C1_MasterStop
  9747 ;; This function is called by:
  9748 ;;		_I2C1_DO_TX
  9749 ;;		_I2C1_DO_TX_EMPTY
  9750 ;;		_I2C1_DO_ADDRESS_NACK
  9751 ;;		_I2C1_MasterFsm
  9752 ;; This function uses a non-reentrant model
  9753 ;;
  9754                           
  9755                           	psect	text65
  9756  003E50                     __ptext65:
  9757                           	callstack 0
  9758  003E50                     _I2C1_DO_SEND_STOP:
  9759                           	callstack 17
  9760  003E50                     
  9761                           ;mcc_generated_files/i2c1_master.c: 472:     I2C1_MasterStop();
  9762  003E50  EC65  F01F         	call	_I2C1_MasterStop	;wreg free
  9763  003E54                     
  9764                           ;mcc_generated_files/i2c1_master.c: 473:     return I2C1_IDLE;
  9765  003E54  0E00               	movlw	0
  9766  003E56  0012               	return		;funcret
  9767  003E58                     __end_of_I2C1_DO_SEND_STOP:
  9768                           	callstack 0
  9769                           
  9770 ;; *************** function _I2C1_DO_SEND_RESTART *****************
  9771 ;; Defined at:
  9772 ;;		line 464 in file "mcc_generated_files/i2c1_master.c"
  9773 ;; Parameters:    Size  Location     Type
  9774 ;;		None
  9775 ;; Auto vars:     Size  Location     Type
  9776 ;;		None
  9777 ;; Return value:  Size  Location     Type
  9778 ;;                  1    wreg      enum E6655
  9779 ;; Registers used:
  9780 ;;		wreg, cstack
  9781 ;; Tracked objects:
  9782 ;;		On entry : 0/0
  9783 ;;		On exit  : 0/0
  9784 ;;		Unchanged: 0/0
  9785 ;; Data sizes:     COMRAM   BANK0   BANK1   BANK2   BANK3   BANK4   BANK5   BANK6   BANK7   BANK8   BANK9  BANK10  BANK1
      +1  BANK12  BANK13  BANK14
  9786 ;;      Params:         0       0       0       0       0       0       0       0       0       0       0       0       
      +0       0       0       0
  9787 ;;      Locals:         0       0       0       0       0       0       0       0       0       0       0       0       
      +0       0       0       0
  9788 ;;      Temps:          0       0       0       0       0       0       0       0       0       0       0       0       
      +0       0       0       0
  9789 ;;      Totals:         0       0       0       0       0       0       0       0       0       0       0       0       
      +0       0       0       0
  9790 ;;Total ram usage:        0 bytes
  9791 ;; Hardware stack levels used: 1
  9792 ;; Hardware stack levels required when called: 1
  9793 ;; This function calls:
  9794 ;;		_I2C1_MasterEnableRestart
  9795 ;; This function is called by:
  9796 ;;		_I2C1_DO_TX_EMPTY
  9797 ;;		_I2C1_DO_ADDRESS_NACK
  9798 ;;		_I2C1_MasterFsm
  9799 ;; This function uses a non-reentrant model
  9800 ;;
  9801                           
  9802                           	psect	text66
  9803  003E58                     __ptext66:
  9804                           	callstack 0
  9805  003E58                     _I2C1_DO_SEND_RESTART:
  9806                           	callstack 17
  9807  003E58                     
  9808                           ;mcc_generated_files/i2c1_master.c: 466:     I2C1_MasterEnableRestart();
  9809  003E58  EC67  F01F         	call	_I2C1_MasterEnableRestart	;wreg free
  9810  003E5C                     
  9811                           ;mcc_generated_files/i2c1_master.c: 467:     return I2C1_SEND_ADR_READ;
  9812  003E5C  0E01               	movlw	1
  9813  003E5E  0012               	return		;funcret
  9814  003E60                     __end_of_I2C1_DO_SEND_RESTART:
  9815                           	callstack 0
  9816                           
  9817 ;; *************** function _I2C1_DO_SEND_RESTART_WRITE *****************
  9818 ;; Defined at:
  9819 ;;		line 457 in file "mcc_generated_files/i2c1_master.c"
  9820 ;; Parameters:    Size  Location     Type
  9821 ;;		None
  9822 ;; Auto vars:     Size  Location     Type
  9823 ;;		None
  9824 ;; Return value:  Size  Location     Type
  9825 ;;                  1    wreg      enum E6655
  9826 ;; Registers used:
  9827 ;;		wreg, cstack
  9828 ;; Tracked objects:
  9829 ;;		On entry : 0/0
  9830 ;;		On exit  : 0/0
  9831 ;;		Unchanged: 0/0
  9832 ;; Data sizes:     COMRAM   BANK0   BANK1   BANK2   BANK3   BANK4   BANK5   BANK6   BANK7   BANK8   BANK9  BANK10  BANK1
      +1  BANK12  BANK13  BANK14
  9833 ;;      Params:         0       0       0       0       0       0       0       0       0       0       0       0       
      +0       0       0       0
  9834 ;;      Locals:         0       0       0       0       0       0       0       0       0       0       0       0       
      +0       0       0       0
  9835 ;;      Temps:          0       0       0       0       0       0       0       0       0       0       0       0       
      +0       0       0       0
  9836 ;;      Totals:         0       0       0       0       0       0       0       0       0       0       0       0       
      +0       0       0       0
  9837 ;;Total ram usage:        0 bytes
  9838 ;; Hardware stack levels used: 1
  9839 ;; Hardware stack levels required when called: 1
  9840 ;; This function calls:
  9841 ;;		_I2C1_MasterEnableRestart
  9842 ;; This function is called by:
  9843 ;;		_I2C1_DO_TX
  9844 ;;		_I2C1_MasterFsm
  9845 ;; This function uses a non-reentrant model
  9846 ;;
  9847                           
  9848                           	psect	text67
  9849  003E60                     __ptext67:
  9850                           	callstack 0
  9851  003E60                     _I2C1_DO_SEND_RESTART_WRITE:
  9852                           	callstack 17
  9853  003E60                     
  9854                           ;mcc_generated_files/i2c1_master.c: 459:     I2C1_MasterEnableRestart();
  9855  003E60  EC67  F01F         	call	_I2C1_MasterEnableRestart	;wreg free
  9856  003E64                     
  9857                           ;mcc_generated_files/i2c1_master.c: 460:     return I2C1_SEND_ADR_WRITE;
  9858  003E64  0E02               	movlw	2
  9859  003E66  0012               	return		;funcret
  9860  003E68                     __end_of_I2C1_DO_SEND_RESTART_WRITE:
  9861                           	callstack 0
  9862                           
  9863 ;; *************** function _I2C1_DO_SEND_RESTART_READ *****************
  9864 ;; Defined at:
  9865 ;;		line 451 in file "mcc_generated_files/i2c1_master.c"
  9866 ;; Parameters:    Size  Location     Type
  9867 ;;		None
  9868 ;; Auto vars:     Size  Location     Type
  9869 ;;		None
  9870 ;; Return value:  Size  Location     Type
  9871 ;;                  1    wreg      enum E6655
  9872 ;; Registers used:
  9873 ;;		wreg, cstack
  9874 ;; Tracked objects:
  9875 ;;		On entry : 0/0
  9876 ;;		On exit  : 0/0
  9877 ;;		Unchanged: 0/0
  9878 ;; Data sizes:     COMRAM   BANK0   BANK1   BANK2   BANK3   BANK4   BANK5   BANK6   BANK7   BANK8   BANK9  BANK10  BANK1
      +1  BANK12  BANK13  BANK14
  9879 ;;      Params:         0       0       0       0       0       0       0       0       0       0       0       0       
      +0       0       0       0
  9880 ;;      Locals:         0       0       0       0       0       0       0       0       0       0       0       0       
      +0       0       0       0
  9881 ;;      Temps:          0       0       0       0       0       0       0       0       0       0       0       0       
      +0       0       0       0
  9882 ;;      Totals:         0       0       0       0       0       0       0       0       0       0       0       0       
      +0       0       0       0
  9883 ;;Total ram usage:        0 bytes
  9884 ;; Hardware stack levels used: 1
  9885 ;; Hardware stack levels required when called: 1
  9886 ;; This function calls:
  9887 ;;		_I2C1_MasterEnableRestart
  9888 ;; This function is called by:
  9889 ;;		_I2C1_DO_TX
  9890 ;;		_I2C1_MasterFsm
  9891 ;; This function uses a non-reentrant model
  9892 ;;
  9893                           
  9894                           	psect	text68
  9895  003E68                     __ptext68:
  9896                           	callstack 0
  9897  003E68                     _I2C1_DO_SEND_RESTART_READ:
  9898                           	callstack 17
  9899  003E68                     
  9900                           ;mcc_generated_files/i2c1_master.c: 453:     I2C1_MasterEnableRestart();
  9901  003E68  EC67  F01F         	call	_I2C1_MasterEnableRestart	;wreg free
  9902  003E6C                     
  9903                           ;mcc_generated_files/i2c1_master.c: 454:     return I2C1_SEND_ADR_READ;
  9904  003E6C  0E01               	movlw	1
  9905  003E6E  0012               	return		;funcret
  9906  003E70                     __end_of_I2C1_DO_SEND_RESTART_READ:
  9907                           	callstack 0
  9908                           
  9909 ;; *************** function _I2C1_DO_RCEN *****************
  9910 ;; Defined at:
  9911 ;;		line 404 in file "mcc_generated_files/i2c1_master.c"
  9912 ;; Parameters:    Size  Location     Type
  9913 ;;		None
  9914 ;; Auto vars:     Size  Location     Type
  9915 ;;		None
  9916 ;; Return value:  Size  Location     Type
  9917 ;;                  1    wreg      enum E6655
  9918 ;; Registers used:
  9919 ;;		wreg, cstack
  9920 ;; Tracked objects:
  9921 ;;		On entry : 0/0
  9922 ;;		On exit  : 0/0
  9923 ;;		Unchanged: 0/0
  9924 ;; Data sizes:     COMRAM   BANK0   BANK1   BANK2   BANK3   BANK4   BANK5   BANK6   BANK7   BANK8   BANK9  BANK10  BANK1
      +1  BANK12  BANK13  BANK14
  9925 ;;      Params:         0       0       0       0       0       0       0       0       0       0       0       0       
      +0       0       0       0
  9926 ;;      Locals:         0       0       0       0       0       0       0       0       0       0       0       0       
      +0       0       0       0
  9927 ;;      Temps:          0       0       0       0       0       0       0       0       0       0       0       0       
      +0       0       0       0
  9928 ;;      Totals:         0       0       0       0       0       0       0       0       0       0       0       0       
      +0       0       0       0
  9929 ;;Total ram usage:        0 bytes
  9930 ;; Hardware stack levels used: 1
  9931 ;; Hardware stack levels required when called: 1
  9932 ;; This function calls:
  9933 ;;		_I2C1_MasterStartRx
  9934 ;; This function is called by:
  9935 ;;		_I2C1_MasterFsm
  9936 ;; This function uses a non-reentrant model
  9937 ;;
  9938                           
  9939                           	psect	text69
  9940  003DDC                     __ptext69:
  9941                           	callstack 0
  9942  003DDC                     _I2C1_DO_RCEN:
  9943                           	callstack 18
  9944  003DDC                     
  9945                           ;mcc_generated_files/i2c1_master.c: 406:     I2C1_Status.addressNackCheck = 0;
  9946  003DDC  0101               	movlb	1	; () banked
  9947  003DDE  9123               	bcf	(_I2C1_Status+35)& (0+255),0,b
  9948  003DE0                     
  9949                           ; BSR set to: 1
  9950                           ;mcc_generated_files/i2c1_master.c: 407:     I2C1_MasterStartRx();
  9951  003DE0  EC5F  F01F         	call	_I2C1_MasterStartRx	;wreg free
  9952  003DE4                     
  9953                           ;mcc_generated_files/i2c1_master.c: 408:     return I2C1_RX;
  9954  003DE4  0E04               	movlw	4
  9955  003DE6  0012               	return		;funcret
  9956  003DE8                     __end_of_I2C1_DO_RCEN:
  9957                           	callstack 0
  9958                           
  9959 ;; *************** function _I2C1_DO_RX *****************
  9960 ;; Defined at:
  9961 ;;		line 380 in file "mcc_generated_files/i2c1_master.c"
  9962 ;; Parameters:    Size  Location     Type
  9963 ;;		None
  9964 ;; Auto vars:     Size  Location     Type
  9965 ;;		None
  9966 ;; Return value:  Size  Location     Type
  9967 ;;                  1    wreg      enum E6655
  9968 ;; Registers used:
  9969 ;;		wreg, fsr2l, fsr2h, status,2, status,0, pcl, pclath, pclatu, tosl, prodl, prodh, cstack
  9970 ;; Tracked objects:
  9971 ;;		On entry : 0/0
  9972 ;;		On exit  : 0/0
  9973 ;;		Unchanged: 0/0
  9974 ;; Data sizes:     COMRAM   BANK0   BANK1   BANK2   BANK3   BANK4   BANK5   BANK6   BANK7   BANK8   BANK9  BANK10  BANK1
      +1  BANK12  BANK13  BANK14
  9975 ;;      Params:         0       0       0       0       0       0       0       0       0       0       0       0       
      +0       0       0       0
  9976 ;;      Locals:         0       0       0       0       0       0       0       0       0       0       0       0       
      +0       0       0       0
  9977 ;;      Temps:          2       0       0       0       0       0       0       0       0       0       0       0       
      +0       0       0       0
  9978 ;;      Totals:         2       0       0       0       0       0       0       0       0       0       0       0       
      +0       0       0       0
  9979 ;;Total ram usage:        2 bytes
  9980 ;; Hardware stack levels used: 1
  9981 ;; Hardware stack levels required when called: 3
  9982 ;; This function calls:
  9983 ;;		Absolute function
  9984 ;;		_I2C1_CallbackReturnReset
  9985 ;;		_I2C1_CallbackReturnStop
  9986 ;;		_I2C1_DO_RX_NACK_RESTART
  9987 ;;		_I2C1_DO_RX_NACK_STOP
  9988 ;;		_I2C1_MasterGetRxData
  9989 ;;		_I2C1_MasterSendAck
  9990 ;;		_rd1RegCompleteHandler
  9991 ;;		_rd2RegCompleteHandler
  9992 ;;		_rdBlkRegCompleteHandler
  9993 ;;		_wr1RegCompleteHandler
  9994 ;;		_wr2RegCompleteHandler
  9995 ;; This function is called by:
  9996 ;;		_I2C1_MasterFsm
  9997 ;; This function uses a non-reentrant model
  9998 ;;
  9999                           
 10000                           	psect	text70
 10001  00337C                     __ptext70:
 10002                           	callstack 0
 10003  00337C                     _I2C1_DO_RX:
 10004                           	callstack 16
 10005  00337C                     
 10006                           ;mcc_generated_files/i2c1_master.c: 382:     *I2C1_Status.data_ptr++ = I2C1_MasterGetRxD
      +                          ata();
 10007  00337C  EC5D  F01F         	call	_I2C1_MasterGetRxData	;wreg free
 10008  003380  C11D  FFD9         	movff	_I2C1_Status+29,fsr2l
 10009  003384  C11E  FFDA         	movff	_I2C1_Status+30,fsr2h
 10010  003388  6EDF               	movwf	indf2,c
 10011  00338A  0101               	movlb	1	; () banked
 10012  00338C  4B1D               	infsnz	(_I2C1_Status+29)& (0+255),f,b
 10013  00338E  2B1E               	incf	(_I2C1_Status+30)& (0+255),f,b
 10014  003390                     
 10015                           ; BSR set to: 1
 10016                           ;mcc_generated_files/i2c1_master.c: 383:     if(--I2C1_Status.data_length)
 10017  003390  071F               	decf	(_I2C1_Status+31)& (0+255),f,b
 10018  003392  A0D8               	btfss	status,0,c
 10019  003394  0720               	decf	(_I2C1_Status+32)& (0+255),f,b
 10020  003396  511F               	movf	(_I2C1_Status+31)& (0+255),w,b
 10021  003398  1120               	iorwf	(_I2C1_Status+32)& (0+255),w,b
 10022  00339A  B4D8               	btfsc	status,2,c
 10023  00339C  EFD2  F019         	goto	i2u406_41
 10024  0033A0  EFD4  F019         	goto	i2u406_40
 10025  0033A4                     i2u406_41:
 10026  0033A4  EFD9  F019         	goto	i2l480
 10027  0033A8                     i2u406_40:
 10028  0033A8                     
 10029                           ; BSR set to: 1
 10030                           ;mcc_generated_files/i2c1_master.c: 384:     {;mcc_generated_files/i2c1_master.c: 385:  
      +                                 I2C1_MasterSendAck();
 10031  0033A8  EC3F  F01F         	call	_I2C1_MasterSendAck	;wreg free
 10032  0033AC                     
 10033                           ;mcc_generated_files/i2c1_master.c: 386:         return I2C1_RCEN;
 10034  0033AC  0E05               	movlw	5
 10035  0033AE  EF11  F01A         	goto	i2l481
 10036  0033B2                     i2l480:
 10037                           
 10038                           ; BSR set to: 1
 10039                           ;mcc_generated_files/i2c1_master.c: 389:     {;mcc_generated_files/i2c1_master.c: 390:  
      +                                 I2C1_Status.bufferFree = 1;
 10040  0033B2  8723               	bsf	(_I2C1_Status+35)& (0+255),3,b
 10041                           
 10042                           ;mcc_generated_files/i2c1_master.c: 391:         switch(I2C1_Status.callbackTable[I2C1_D
      +                          ATA_COMPLETE](I2C1_Status.callbackPayload[I2C1_DATA_COMPLETE]))
 10043  0033B4  EFE4  F019         	goto	i2l4930
 10044  0033B8                     i2l4920:
 10045                           
 10046                           ;mcc_generated_files/i2c1_master.c: 395:                 return I2C1_DO_RX_NACK_RESTART(
      +                          );
 10047  0033B8  EC1C  F01F         	call	_I2C1_DO_RX_NACK_RESTART	;wreg free
 10048  0033BC  EF11  F01A         	goto	i2l481
 10049  0033C0                     i2l4924:
 10050                           
 10051                           ;mcc_generated_files/i2c1_master.c: 399:                 return I2C1_DO_RX_NACK_STOP();
 10052  0033C0  EC20  F01F         	call	_I2C1_DO_RX_NACK_STOP	;wreg free
 10053  0033C4  EF11  F01A         	goto	i2l481
 10054  0033C8                     i2l4930:
 10055                           
 10056                           ; BSR set to: 1
 10057  0033C8  C10C  F00A         	movff	_I2C1_Status+12,I2C1_CallbackReturnReset@funPtr
 10058  0033CC  C10D  F00B         	movff	_I2C1_Status+13,I2C1_CallbackReturnReset@funPtr+1
 10059  0033D0  D802               	call	i2u407_48
 10060  0033D2  EFF5  F019         	goto	i2u407_49
 10061  0033D6                     i2u407_48:
 10062  0033D6  0005               	push	
 10063  0033D8  6EFA               	movwf	pclath,c
 10064  0033DA  5100               	movf	_I2C1_Status& (0+255),w,b
 10065  0033DC  6EFD               	movwf	tosl,c
 10066  0033DE  5101               	movf	(_I2C1_Status+1)& (0+255),w,b
 10067  0033E0  6EFE               	movwf	tosh,c
 10068  0033E2  50F8               	movf	tblptru,w,c
 10069  0033E4  6EFF               	movwf	tosu,c
 10070  0033E6  50FA               	movf	pclath,w,c
 10071  0033E8  0012               	return		;indir
 10072  0033EA                     i2u407_49:
 10073  0033EA  6E0C               	movwf	??_I2C1_DO_RX^0,c
 10074  0033EC  6A0D               	clrf	(??_I2C1_DO_RX+1)^0,c
 10075                           
 10076                           ; Switch on 2 bytes has been partitioned into a top level switch of size 1, and 1 sub-sw
      +                          itches
 10077                           ; Switch size 1, requested type "simple"
 10078                           ; Number of cases is 1, Range of values is 0 to 0
 10079                           ; switch strategies available:
 10080                           ; Name         Instructions Cycles
 10081                           ; simple_byte            4     3 (average)
 10082                           ;	Chosen strategy is simple_byte
 10083  0033EE  500D               	movf	(??_I2C1_DO_RX+1)^0,w,c
 10084  0033F0  0A00               	xorlw	0	; case 0
 10085  0033F2  B4D8               	btfsc	status,2,c
 10086  0033F4  EFFE  F019         	goto	i2l7258
 10087  0033F8  EFE0  F019         	goto	i2l4924
 10088  0033FC                     i2l7258:
 10089                           
 10090                           ; Switch size 1, requested type "simple"
 10091                           ; Number of cases is 4, Range of values is 1 to 4
 10092                           ; switch strategies available:
 10093                           ; Name         Instructions Cycles
 10094                           ; simple_byte           13     7 (average)
 10095                           ;	Chosen strategy is simple_byte
 10096  0033FC  500C               	movf	??_I2C1_DO_RX^0,w,c
 10097  0033FE  0A01               	xorlw	1	; case 1
 10098  003400  B4D8               	btfsc	status,2,c
 10099  003402  EFE0  F019         	goto	i2l4924
 10100  003406  0A03               	xorlw	3	; case 2
 10101  003408  B4D8               	btfsc	status,2,c
 10102  00340A  EFDC  F019         	goto	i2l4920
 10103  00340E  0A01               	xorlw	1	; case 3
 10104  003410  B4D8               	btfsc	status,2,c
 10105  003412  EFDC  F019         	goto	i2l4920
 10106  003416  0A07               	xorlw	7	; case 4
 10107  003418  B4D8               	btfsc	status,2,c
 10108  00341A  EFE0  F019         	goto	i2l4924
 10109  00341E  EFE0  F019         	goto	i2l4924
 10110  003422                     i2l481:
 10111  003422  0012               	return		;funcret
 10112  003424                     __end_of_I2C1_DO_RX:
 10113                           	callstack 0
 10114                           
 10115 ;; *************** function _I2C1_DO_TX *****************
 10116 ;; Defined at:
 10117 ;;		line 356 in file "mcc_generated_files/i2c1_master.c"
 10118 ;; Parameters:    Size  Location     Type
 10119 ;;		None
 10120 ;; Auto vars:     Size  Location     Type
 10121 ;;		None
 10122 ;; Return value:  Size  Location     Type
 10123 ;;                  1    wreg      enum E6655
 10124 ;; Registers used:
 10125 ;;		wreg, fsr2l, fsr2h, status,2, status,0, pcl, pclath, pclatu, tosl, prodl, prodh, cstack
 10126 ;; Tracked objects:
 10127 ;;		On entry : 0/0
 10128 ;;		On exit  : 0/0
 10129 ;;		Unchanged: 0/0
 10130 ;; Data sizes:     COMRAM   BANK0   BANK1   BANK2   BANK3   BANK4   BANK5   BANK6   BANK7   BANK8   BANK9  BANK10  BANK1
      +1  BANK12  BANK13  BANK14
 10131 ;;      Params:         0       0       0       0       0       0       0       0       0       0       0       0       
      +0       0       0       0
 10132 ;;      Locals:         0       0       0       0       0       0       0       0       0       0       0       0       
      +0       0       0       0
 10133 ;;      Temps:          2       0       0       0       0       0       0       0       0       0       0       0       
      +0       0       0       0
 10134 ;;      Totals:         2       0       0       0       0       0       0       0       0       0       0       0       
      +0       0       0       0
 10135 ;;Total ram usage:        2 bytes
 10136 ;; Hardware stack levels used: 1
 10137 ;; Hardware stack levels required when called: 3
 10138 ;; This function calls:
 10139 ;;		Absolute function
 10140 ;;		_I2C1_CallbackReturnReset
 10141 ;;		_I2C1_CallbackReturnStop
 10142 ;;		_I2C1_DO_SEND_RESTART_READ
 10143 ;;		_I2C1_DO_SEND_RESTART_WRITE
 10144 ;;		_I2C1_DO_SEND_STOP
 10145 ;;		_I2C1_MasterIsNack
 10146 ;;		_I2C1_MasterSendTxData
 10147 ;;		_rd1RegCompleteHandler
 10148 ;;		_rd2RegCompleteHandler
 10149 ;;		_rdBlkRegCompleteHandler
 10150 ;;		_wr1RegCompleteHandler
 10151 ;;		_wr2RegCompleteHandler
 10152 ;; This function is called by:
 10153 ;;		_I2C1_MasterFsm
 10154 ;; This function uses a non-reentrant model
 10155 ;;
 10156                           
 10157                           	psect	text71
 10158  00307E                     __ptext71:
 10159                           	callstack 0
 10160  00307E                     _I2C1_DO_TX:
 10161                           	callstack 16
 10162  00307E                     
 10163                           ;mcc_generated_files/i2c1_master.c: 358:     if(I2C1_MasterIsNack())
 10164  00307E  ECBE  F01E         	call	_I2C1_MasterIsNack	;wreg free
 10165  003082  0900               	iorlw	0
 10166  003084  B4D8               	btfsc	status,2,c
 10167  003086  EF47  F018         	goto	i2u403_41
 10168  00308A  EF49  F018         	goto	i2u403_40
 10169  00308E                     i2u403_41:
 10170  00308E  EF86  F018         	goto	i2l464
 10171  003092                     i2u403_40:
 10172  003092  EF57  F018         	goto	i2l4890
 10173  003096                     i2l4876:
 10174                           
 10175                           ;mcc_generated_files/i2c1_master.c: 363:                 return I2C1_DO_SEND_RESTART_REA
      +                          D();
 10176  003096  EC34  F01F         	call	_I2C1_DO_SEND_RESTART_READ	;wreg free
 10177  00309A  EFA2  F018         	goto	i2l467
 10178  00309E                     i2l4880:
 10179                           
 10180                           ;mcc_generated_files/i2c1_master.c: 365:                   return I2C1_DO_SEND_RESTART_W
      +                          RITE();
 10181  00309E  EC30  F01F         	call	_I2C1_DO_SEND_RESTART_WRITE	;wreg free
 10182  0030A2  EFA2  F018         	goto	i2l467
 10183  0030A6                     i2l4884:
 10184                           
 10185                           ;mcc_generated_files/i2c1_master.c: 369:                 return I2C1_DO_SEND_STOP();
 10186  0030A6  EC28  F01F         	call	_I2C1_DO_SEND_STOP	;wreg free
 10187  0030AA  EFA2  F018         	goto	i2l467
 10188  0030AE                     i2l4890:
 10189  0030AE  C112  F00A         	movff	_I2C1_Status+18,I2C1_CallbackReturnReset@funPtr
 10190  0030B2  C113  F00B         	movff	_I2C1_Status+19,I2C1_CallbackReturnReset@funPtr+1
 10191  0030B6  EE21  F006         	lfsr	2,_I2C1_Status+6
 10192  0030BA  D802               	call	i2u404_48
 10193  0030BC  EF6A  F018         	goto	i2u404_49
 10194  0030C0                     i2u404_48:
 10195  0030C0  0005               	push	
 10196  0030C2  6EFA               	movwf	pclath,c
 10197  0030C4  50DE               	movf	postinc2,w,c
 10198  0030C6  6EFD               	movwf	tosl,c
 10199  0030C8  50DE               	movf	postinc2,w,c
 10200  0030CA  6EFE               	movwf	tosh,c
 10201  0030CC  50F8               	movf	tblptru,w,c
 10202  0030CE  6EFF               	movwf	tosu,c
 10203  0030D0  50FA               	movf	pclath,w,c
 10204  0030D2  0012               	return		;indir
 10205  0030D4                     i2u404_49:
 10206  0030D4  6E0C               	movwf	??_I2C1_DO_TX^0,c
 10207  0030D6  6A0D               	clrf	(??_I2C1_DO_TX+1)^0,c
 10208                           
 10209                           ; Switch on 2 bytes has been partitioned into a top level switch of size 1, and 1 sub-sw
      +                          itches
 10210                           ; Switch size 1, requested type "simple"
 10211                           ; Number of cases is 1, Range of values is 0 to 0
 10212                           ; switch strategies available:
 10213                           ; Name         Instructions Cycles
 10214                           ; simple_byte            4     3 (average)
 10215                           ;	Chosen strategy is simple_byte
 10216  0030D8  500D               	movf	(??_I2C1_DO_TX+1)^0,w,c
 10217  0030DA  0A00               	xorlw	0	; case 0
 10218  0030DC  B4D8               	btfsc	status,2,c
 10219  0030DE  EF73  F018         	goto	i2l7260
 10220  0030E2  EF53  F018         	goto	i2l4884
 10221  0030E6                     i2l7260:
 10222                           
 10223                           ; Switch size 1, requested type "simple"
 10224                           ; Number of cases is 4, Range of values is 1 to 4
 10225                           ; switch strategies available:
 10226                           ; Name         Instructions Cycles
 10227                           ; simple_byte           13     7 (average)
 10228                           ;	Chosen strategy is simple_byte
 10229  0030E6  500C               	movf	??_I2C1_DO_TX^0,w,c
 10230  0030E8  0A01               	xorlw	1	; case 1
 10231  0030EA  B4D8               	btfsc	status,2,c
 10232  0030EC  EF53  F018         	goto	i2l4884
 10233  0030F0  0A03               	xorlw	3	; case 2
 10234  0030F2  B4D8               	btfsc	status,2,c
 10235  0030F4  EF4B  F018         	goto	i2l4876
 10236  0030F8  0A01               	xorlw	1	; case 3
 10237  0030FA  B4D8               	btfsc	status,2,c
 10238  0030FC  EF4F  F018         	goto	i2l4880
 10239  003100  0A07               	xorlw	7	; case 4
 10240  003102  B4D8               	btfsc	status,2,c
 10241  003104  EF53  F018         	goto	i2l4884
 10242  003108  EF53  F018         	goto	i2l4884
 10243  00310C                     i2l464:
 10244                           
 10245                           ;mcc_generated_files/i2c1_master.c: 373:     {;mcc_generated_files/i2c1_master.c: 374:  
      +                                 I2C1_Status.addressNackCheck = 0;
 10246  00310C  0101               	movlb	1	; () banked
 10247  00310E  9123               	bcf	(_I2C1_Status+35)& (0+255),0,b
 10248  003110                     
 10249                           ; BSR set to: 1
 10250                           ;mcc_generated_files/i2c1_master.c: 375:         I2C1_MasterSendTxData(*I2C1_Status.data
      +                          _ptr++);
 10251  003110  C11D  FFD9         	movff	_I2C1_Status+29,fsr2l
 10252  003114  C11E  FFDA         	movff	_I2C1_Status+30,fsr2h
 10253  003118  4B1D               	infsnz	(_I2C1_Status+29)& (0+255),f,b
 10254  00311A  2B1E               	incf	(_I2C1_Status+30)& (0+255),f,b
 10255  00311C  50DF               	movf	indf2,w,c
 10256  00311E  EC38  F01F         	call	_I2C1_MasterSendTxData
 10257  003122                     
 10258                           ;mcc_generated_files/i2c1_master.c: 376:         return (--I2C1_Status.data_length)?I2C1
      +                          _TX:I2C1_TX_EMPTY;
 10259  003122  0101               	movlb	1	; () banked
 10260  003124  071F               	decf	(_I2C1_Status+31)& (0+255),f,b
 10261  003126  A0D8               	btfss	status,0,c
 10262  003128  0720               	decf	(_I2C1_Status+32)& (0+255),f,b
 10263  00312A  511F               	movf	(_I2C1_Status+31)& (0+255),w,b
 10264  00312C  1120               	iorwf	(_I2C1_Status+32)& (0+255),w,b
 10265  00312E  A4D8               	btfss	status,2,c
 10266  003130  EF9C  F018         	goto	i2u405_41
 10267  003134  EF9E  F018         	goto	i2u405_40
 10268  003138                     i2u405_41:
 10269  003138  EFA1  F018         	goto	i2l4898
 10270  00313C                     i2u405_40:
 10271  00313C                     
 10272                           ; BSR set to: 1
 10273  00313C  0E06               	movlw	6
 10274  00313E  EFA2  F018         	goto	i2l467
 10275  003142                     i2l4898:
 10276                           
 10277                           ; BSR set to: 1
 10278  003142  0E03               	movlw	3
 10279  003144                     i2l467:
 10280  003144  0012               	return		;funcret
 10281  003146                     __end_of_I2C1_DO_TX:
 10282                           	callstack 0
 10283                           
 10284 ;; *************** function _I2C1_DO_SEND_ADR_WRITE *****************
 10285 ;; Defined at:
 10286 ;;		line 349 in file "mcc_generated_files/i2c1_master.c"
 10287 ;; Parameters:    Size  Location     Type
 10288 ;;		None
 10289 ;; Auto vars:     Size  Location     Type
 10290 ;;		None
 10291 ;; Return value:  Size  Location     Type
 10292 ;;                  1    wreg      enum E6655
 10293 ;; Registers used:
 10294 ;;		wreg, status,2, status,0, cstack
 10295 ;; Tracked objects:
 10296 ;;		On entry : 0/0
 10297 ;;		On exit  : 0/0
 10298 ;;		Unchanged: 0/0
 10299 ;; Data sizes:     COMRAM   BANK0   BANK1   BANK2   BANK3   BANK4   BANK5   BANK6   BANK7   BANK8   BANK9  BANK10  BANK1
      +1  BANK12  BANK13  BANK14
 10300 ;;      Params:         0       0       0       0       0       0       0       0       0       0       0       0       
      +0       0       0       0
 10301 ;;      Locals:         0       0       0       0       0       0       0       0       0       0       0       0       
      +0       0       0       0
 10302 ;;      Temps:          0       0       0       0       0       0       0       0       0       0       0       0       
      +0       0       0       0
 10303 ;;      Totals:         0       0       0       0       0       0       0       0       0       0       0       0       
      +0       0       0       0
 10304 ;;Total ram usage:        0 bytes
 10305 ;; Hardware stack levels used: 1
 10306 ;; Hardware stack levels required when called: 1
 10307 ;; This function calls:
 10308 ;;		_I2C1_MasterSendTxData
 10309 ;; This function is called by:
 10310 ;;		_I2C1_MasterFsm
 10311 ;; This function uses a non-reentrant model
 10312 ;;
 10313                           
 10314                           	psect	text72
 10315  003DB0                     __ptext72:
 10316                           	callstack 0
 10317  003DB0                     _I2C1_DO_SEND_ADR_WRITE:
 10318                           	callstack 18
 10319  003DB0                     
 10320                           ;mcc_generated_files/i2c1_master.c: 351:     I2C1_Status.addressNackCheck = 1;
 10321  003DB0  0101               	movlb	1	; () banked
 10322  003DB2  8123               	bsf	(_I2C1_Status+35)& (0+255),0,b
 10323  003DB4                     
 10324                           ; BSR set to: 1
 10325                           ;mcc_generated_files/i2c1_master.c: 352:     I2C1_MasterSendTxData((uint8_t) (I2C1_Statu
      +                          s.address << 1));
 10326  003DB4  511C               	movf	(_I2C1_Status+28)& (0+255),w,b
 10327  003DB6  251C               	addwf	(_I2C1_Status+28)& (0+255),w,b
 10328  003DB8  EC38  F01F         	call	_I2C1_MasterSendTxData
 10329  003DBC                     
 10330                           ;mcc_generated_files/i2c1_master.c: 353:     return I2C1_TX;
 10331  003DBC  0E03               	movlw	3
 10332  003DBE  0012               	return		;funcret
 10333  003DC0                     __end_of_I2C1_DO_SEND_ADR_WRITE:
 10334                           	callstack 0
 10335                           
 10336 ;; *************** function _I2C1_DO_SEND_ADR_READ *****************
 10337 ;; Defined at:
 10338 ;;		line 342 in file "mcc_generated_files/i2c1_master.c"
 10339 ;; Parameters:    Size  Location     Type
 10340 ;;		None
 10341 ;; Auto vars:     Size  Location     Type
 10342 ;;		None
 10343 ;; Return value:  Size  Location     Type
 10344 ;;                  1    wreg      enum E6655
 10345 ;; Registers used:
 10346 ;;		wreg, status,0, cstack
 10347 ;; Tracked objects:
 10348 ;;		On entry : 0/0
 10349 ;;		On exit  : 0/0
 10350 ;;		Unchanged: 0/0
 10351 ;; Data sizes:     COMRAM   BANK0   BANK1   BANK2   BANK3   BANK4   BANK5   BANK6   BANK7   BANK8   BANK9  BANK10  BANK1
      +1  BANK12  BANK13  BANK14
 10352 ;;      Params:         0       0       0       0       0       0       0       0       0       0       0       0       
      +0       0       0       0
 10353 ;;      Locals:         0       0       0       0       0       0       0       0       0       0       0       0       
      +0       0       0       0
 10354 ;;      Temps:          0       0       0       0       0       0       0       0       0       0       0       0       
      +0       0       0       0
 10355 ;;      Totals:         0       0       0       0       0       0       0       0       0       0       0       0       
      +0       0       0       0
 10356 ;;Total ram usage:        0 bytes
 10357 ;; Hardware stack levels used: 1
 10358 ;; Hardware stack levels required when called: 1
 10359 ;; This function calls:
 10360 ;;		_I2C1_MasterSendTxData
 10361 ;; This function is called by:
 10362 ;;		_I2C1_MasterFsm
 10363 ;; This function uses a non-reentrant model
 10364 ;;
 10365                           
 10366                           	psect	text73
 10367  003DC0                     __ptext73:
 10368                           	callstack 0
 10369  003DC0                     _I2C1_DO_SEND_ADR_READ:
 10370                           	callstack 18
 10371  003DC0                     
 10372                           ;mcc_generated_files/i2c1_master.c: 344:     I2C1_Status.addressNackCheck = 1;
 10373  003DC0  0101               	movlb	1	; () banked
 10374  003DC2  8123               	bsf	(_I2C1_Status+35)& (0+255),0,b
 10375  003DC4                     
 10376                           ; BSR set to: 1
 10377                           ;mcc_generated_files/i2c1_master.c: 345:     I2C1_MasterSendTxData((uint8_t) (I2C1_Statu
      +                          s.address << 1 | 1));
 10378  003DC4  80D8               	bsf	status,0,c
 10379  003DC6  351C               	rlcf	(_I2C1_Status+28)& (0+255),w,b
 10380  003DC8  EC38  F01F         	call	_I2C1_MasterSendTxData
 10381  003DCC                     
 10382                           ;mcc_generated_files/i2c1_master.c: 346:     return I2C1_RCEN;
 10383  003DCC  0E05               	movlw	5
 10384  003DCE  0012               	return		;funcret
 10385  003DD0                     __end_of_I2C1_DO_SEND_ADR_READ:
 10386                           	callstack 0
 10387                           
 10388 ;; *************** function _I2C1_DO_IDLE *****************
 10389 ;; Defined at:
 10390 ;;		line 335 in file "mcc_generated_files/i2c1_master.c"
 10391 ;; Parameters:    Size  Location     Type
 10392 ;;		None
 10393 ;; Auto vars:     Size  Location     Type
 10394 ;;		None
 10395 ;; Return value:  Size  Location     Type
 10396 ;;                  1    wreg      enum E6655
 10397 ;; Registers used:
 10398 ;;		wreg, status,2
 10399 ;; Tracked objects:
 10400 ;;		On entry : 0/0
 10401 ;;		On exit  : 0/0
 10402 ;;		Unchanged: 0/0
 10403 ;; Data sizes:     COMRAM   BANK0   BANK1   BANK2   BANK3   BANK4   BANK5   BANK6   BANK7   BANK8   BANK9  BANK10  BANK1
      +1  BANK12  BANK13  BANK14
 10404 ;;      Params:         0       0       0       0       0       0       0       0       0       0       0       0       
      +0       0       0       0
 10405 ;;      Locals:         0       0       0       0       0       0       0       0       0       0       0       0       
      +0       0       0       0
 10406 ;;      Temps:          0       0       0       0       0       0       0       0       0       0       0       0       
      +0       0       0       0
 10407 ;;      Totals:         0       0       0       0       0       0       0       0       0       0       0       0       
      +0       0       0       0
 10408 ;;Total ram usage:        0 bytes
 10409 ;; Hardware stack levels used: 1
 10410 ;; This function calls:
 10411 ;;		Nothing
 10412 ;; This function is called by:
 10413 ;;		_I2C1_MasterFsm
 10414 ;; This function uses a non-reentrant model
 10415 ;;
 10416                           
 10417                           	psect	text74
 10418  003DE8                     __ptext74:
 10419                           	callstack 0
 10420  003DE8                     _I2C1_DO_IDLE:
 10421                           	callstack 19
 10422  003DE8                     
 10423                           ;mcc_generated_files/i2c1_master.c: 337:     I2C1_Status.busy = 0;
 10424  003DE8  0101               	movlb	1	; () banked
 10425  003DEA  9323               	bcf	(_I2C1_Status+35)& (0+255),1,b
 10426  003DEC                     
 10427                           ; BSR set to: 1
 10428                           ;mcc_generated_files/i2c1_master.c: 338:     I2C1_Status.error = I2C1_NOERR;
 10429  003DEC  0E00               	movlw	0
 10430  003DEE  6F22               	movwf	(_I2C1_Status+34)& (0+255),b
 10431  003DF0                     
 10432                           ; BSR set to: 1
 10433                           ;mcc_generated_files/i2c1_master.c: 339:     return I2C1_RESET;
 10434  003DF0  0E0E               	movlw	14
 10435  003DF2                     
 10436                           ; BSR set to: 1
 10437  003DF2  0012               	return		;funcret
 10438  003DF4                     __end_of_I2C1_DO_IDLE:
 10439                           	callstack 0
 10440                           
 10441 ;; *************** function _I2C1_DO_TX_EMPTY *****************
 10442 ;; Defined at:
 10443 ;;		line 411 in file "mcc_generated_files/i2c1_master.c"
 10444 ;; Parameters:    Size  Location     Type
 10445 ;;		None
 10446 ;; Auto vars:     Size  Location     Type
 10447 ;;		None
 10448 ;; Return value:  Size  Location     Type
 10449 ;;                  1    wreg      enum E6655
 10450 ;; Registers used:
 10451 ;;		wreg, fsr2l, fsr2h, status,2, status,0, pcl, pclath, pclatu, tosl, prodl, prodh, cstack
 10452 ;; Tracked objects:
 10453 ;;		On entry : 0/0
 10454 ;;		On exit  : 0/0
 10455 ;;		Unchanged: 0/0
 10456 ;; Data sizes:     COMRAM   BANK0   BANK1   BANK2   BANK3   BANK4   BANK5   BANK6   BANK7   BANK8   BANK9  BANK10  BANK1
      +1  BANK12  BANK13  BANK14
 10457 ;;      Params:         0       0       0       0       0       0       0       0       0       0       0       0       
      +0       0       0       0
 10458 ;;      Locals:         0       0       0       0       0       0       0       0       0       0       0       0       
      +0       0       0       0
 10459 ;;      Temps:          2       0       0       0       0       0       0       0       0       0       0       0       
      +0       0       0       0
 10460 ;;      Totals:         2       0       0       0       0       0       0       0       0       0       0       0       
      +0       0       0       0
 10461 ;;Total ram usage:        2 bytes
 10462 ;; Hardware stack levels used: 1
 10463 ;; Hardware stack levels required when called: 3
 10464 ;; This function calls:
 10465 ;;		Absolute function
 10466 ;;		_I2C1_CallbackReturnReset
 10467 ;;		_I2C1_CallbackReturnStop
 10468 ;;		_I2C1_DO_SEND_RESTART
 10469 ;;		_I2C1_DO_SEND_STOP
 10470 ;;		_I2C1_MasterSetIrq
 10471 ;;		_rd1RegCompleteHandler
 10472 ;;		_rd2RegCompleteHandler
 10473 ;;		_rdBlkRegCompleteHandler
 10474 ;;		_wr1RegCompleteHandler
 10475 ;;		_wr2RegCompleteHandler
 10476 ;; This function is called by:
 10477 ;;		_I2C1_MasterFsm
 10478 ;; This function uses a non-reentrant model
 10479 ;;
 10480                           
 10481                           	psect	text75
 10482  0034C2                     __ptext75:
 10483                           	callstack 0
 10484  0034C2                     _I2C1_DO_TX_EMPTY:
 10485                           	callstack 16
 10486  0034C2                     
 10487                           ;mcc_generated_files/i2c1_master.c: 413:     I2C1_Status.bufferFree = 1;
 10488  0034C2  0101               	movlb	1	; () banked
 10489  0034C4  8723               	bsf	(_I2C1_Status+35)& (0+255),3,b
 10490                           
 10491                           ;mcc_generated_files/i2c1_master.c: 414:     switch(I2C1_Status.callbackTable[I2C1_DATA_
      +                          COMPLETE](I2C1_Status.callbackPayload[I2C1_DATA_COMPLETE]))
 10492  0034C6  EF72  F01A         	goto	i2l4964
 10493  0034CA                     i2l4948:
 10494                           
 10495                           ;mcc_generated_files/i2c1_master.c: 418:             return I2C1_DO_SEND_RESTART();
 10496  0034CA  EC2C  F01F         	call	_I2C1_DO_SEND_RESTART	;wreg free
 10497  0034CE  EF9F  F01A         	goto	i2l498
 10498  0034D2                     i2l4952:
 10499                           
 10500                           ;mcc_generated_files/i2c1_master.c: 420:             I2C1_MasterSetIrq();
 10501  0034D2  EC5B  F01F         	call	_I2C1_MasterSetIrq	;wreg free
 10502  0034D6                     
 10503                           ;mcc_generated_files/i2c1_master.c: 421:             return I2C1_TX;
 10504  0034D6  0E03               	movlw	3
 10505  0034D8  EF9F  F01A         	goto	i2l498
 10506  0034DC                     i2l4958:
 10507                           
 10508                           ;mcc_generated_files/i2c1_master.c: 424:             return I2C1_DO_SEND_STOP();
 10509  0034DC  EC28  F01F         	call	_I2C1_DO_SEND_STOP	;wreg free
 10510  0034E0  EF9F  F01A         	goto	i2l498
 10511  0034E4                     i2l4964:
 10512                           
 10513                           ; BSR set to: 1
 10514  0034E4  C10C  F00A         	movff	_I2C1_Status+12,I2C1_CallbackReturnReset@funPtr
 10515  0034E8  C10D  F00B         	movff	_I2C1_Status+13,I2C1_CallbackReturnReset@funPtr+1
 10516  0034EC  D802               	call	i2u408_48
 10517  0034EE  EF83  F01A         	goto	i2u408_49
 10518  0034F2                     i2u408_48:
 10519  0034F2  0005               	push	
 10520  0034F4  6EFA               	movwf	pclath,c
 10521  0034F6  5100               	movf	_I2C1_Status& (0+255),w,b
 10522  0034F8  6EFD               	movwf	tosl,c
 10523  0034FA  5101               	movf	(_I2C1_Status+1)& (0+255),w,b
 10524  0034FC  6EFE               	movwf	tosh,c
 10525  0034FE  50F8               	movf	tblptru,w,c
 10526  003500  6EFF               	movwf	tosu,c
 10527  003502  50FA               	movf	pclath,w,c
 10528  003504  0012               	return		;indir
 10529  003506                     i2u408_49:
 10530  003506  6E0C               	movwf	??_I2C1_DO_TX_EMPTY^0,c
 10531  003508  6A0D               	clrf	(??_I2C1_DO_TX_EMPTY+1)^0,c
 10532                           
 10533                           ; Switch on 2 bytes has been partitioned into a top level switch of size 1, and 1 sub-sw
      +                          itches
 10534                           ; Switch size 1, requested type "simple"
 10535                           ; Number of cases is 1, Range of values is 0 to 0
 10536                           ; switch strategies available:
 10537                           ; Name         Instructions Cycles
 10538                           ; simple_byte            4     3 (average)
 10539                           ;	Chosen strategy is simple_byte
 10540  00350A  500D               	movf	(??_I2C1_DO_TX_EMPTY+1)^0,w,c
 10541  00350C  0A00               	xorlw	0	; case 0
 10542  00350E  B4D8               	btfsc	status,2,c
 10543  003510  EF8C  F01A         	goto	i2l7262
 10544  003514  EF6E  F01A         	goto	i2l4958
 10545  003518                     i2l7262:
 10546                           
 10547                           ; Switch size 1, requested type "simple"
 10548                           ; Number of cases is 4, Range of values is 1 to 4
 10549                           ; switch strategies available:
 10550                           ; Name         Instructions Cycles
 10551                           ; simple_byte           13     7 (average)
 10552                           ;	Chosen strategy is simple_byte
 10553  003518  500C               	movf	??_I2C1_DO_TX_EMPTY^0,w,c
 10554  00351A  0A01               	xorlw	1	; case 1
 10555  00351C  B4D8               	btfsc	status,2,c
 10556  00351E  EF6E  F01A         	goto	i2l4958
 10557  003522  0A03               	xorlw	3	; case 2
 10558  003524  B4D8               	btfsc	status,2,c
 10559  003526  EF65  F01A         	goto	i2l4948
 10560  00352A  0A01               	xorlw	1	; case 3
 10561  00352C  B4D8               	btfsc	status,2,c
 10562  00352E  EF65  F01A         	goto	i2l4948
 10563  003532  0A07               	xorlw	7	; case 4
 10564  003534  B4D8               	btfsc	status,2,c
 10565  003536  EF69  F01A         	goto	i2l4952
 10566  00353A  EF6E  F01A         	goto	i2l4958
 10567  00353E                     i2l498:
 10568  00353E  0012               	return		;funcret
 10569  003540                     __end_of_I2C1_DO_TX_EMPTY:
 10570                           	callstack 0
 10571                           
 10572 ;; *************** function _I2C1_MasterSetIrq *****************
 10573 ;; Defined at:
 10574 ;;		line 647 in file "mcc_generated_files/i2c1_master.c"
 10575 ;; Parameters:    Size  Location     Type
 10576 ;;		None
 10577 ;; Auto vars:     Size  Location     Type
 10578 ;;		None
 10579 ;; Return value:  Size  Location     Type
 10580 ;;                  1    wreg      void 
 10581 ;; Registers used:
 10582 ;;		None
 10583 ;; Tracked objects:
 10584 ;;		On entry : 0/0
 10585 ;;		On exit  : 0/0
 10586 ;;		Unchanged: 0/0
 10587 ;; Data sizes:     COMRAM   BANK0   BANK1   BANK2   BANK3   BANK4   BANK5   BANK6   BANK7   BANK8   BANK9  BANK10  BANK1
      +1  BANK12  BANK13  BANK14
 10588 ;;      Params:         0       0       0       0       0       0       0       0       0       0       0       0       
      +0       0       0       0
 10589 ;;      Locals:         0       0       0       0       0       0       0       0       0       0       0       0       
      +0       0       0       0
 10590 ;;      Temps:          0       0       0       0       0       0       0       0       0       0       0       0       
      +0       0       0       0
 10591 ;;      Totals:         0       0       0       0       0       0       0       0       0       0       0       0       
      +0       0       0       0
 10592 ;;Total ram usage:        0 bytes
 10593 ;; Hardware stack levels used: 1
 10594 ;; This function calls:
 10595 ;;		Nothing
 10596 ;; This function is called by:
 10597 ;;		_I2C1_DO_TX_EMPTY
 10598 ;; This function uses a non-reentrant model
 10599 ;;
 10600                           
 10601                           	psect	text76
 10602  003EB6                     __ptext76:
 10603                           	callstack 0
 10604  003EB6                     _I2C1_MasterSetIrq:
 10605                           	callstack 18
 10606  003EB6                     
 10607                           ;mcc_generated_files/i2c1_master.c: 649:     PIR1bits.SSP1IF = 1;
 10608  003EB6  869E               	bsf	158,3,c	;volatile
 10609  003EB8  0012               	return		;funcret
 10610  003EBA                     __end_of_I2C1_MasterSetIrq:
 10611                           	callstack 0
 10612                           
 10613 ;; *************** function _I2C1_MasterIsNack *****************
 10614 ;; Defined at:
 10615 ;;		line 599 in file "mcc_generated_files/i2c1_master.c"
 10616 ;; Parameters:    Size  Location     Type
 10617 ;;		None
 10618 ;; Auto vars:     Size  Location     Type
 10619 ;;		None
 10620 ;; Return value:  Size  Location     Type
 10621 ;;                  1    wreg      _Bool 
 10622 ;; Registers used:
 10623 ;;		wreg
 10624 ;; Tracked objects:
 10625 ;;		On entry : 0/0
 10626 ;;		On exit  : 0/0
 10627 ;;		Unchanged: 0/0
 10628 ;; Data sizes:     COMRAM   BANK0   BANK1   BANK2   BANK3   BANK4   BANK5   BANK6   BANK7   BANK8   BANK9  BANK10  BANK1
      +1  BANK12  BANK13  BANK14
 10629 ;;      Params:         0       0       0       0       0       0       0       0       0       0       0       0       
      +0       0       0       0
 10630 ;;      Locals:         0       0       0       0       0       0       0       0       0       0       0       0       
      +0       0       0       0
 10631 ;;      Temps:          0       0       0       0       0       0       0       0       0       0       0       0       
      +0       0       0       0
 10632 ;;      Totals:         0       0       0       0       0       0       0       0       0       0       0       0       
      +0       0       0       0
 10633 ;;Total ram usage:        0 bytes
 10634 ;; Hardware stack levels used: 1
 10635 ;; This function calls:
 10636 ;;		Nothing
 10637 ;; This function is called by:
 10638 ;;		_I2C1_MasterFsm
 10639 ;;		_I2C1_DO_TX
 10640 ;; This function uses a non-reentrant model
 10641 ;;
 10642                           
 10643                           	psect	text77
 10644  003D7C                     __ptext77:
 10645                           	callstack 0
 10646  003D7C                     _I2C1_MasterIsNack:
 10647                           	callstack 19
 10648  003D7C                     
 10649                           ;mcc_generated_files/i2c1_master.c: 601:     return SSP1CON2bits.ACKSTAT;
 10650  003D7C  BCC5               	btfsc	197,6,c	;volatile
 10651  003D7E  EFC3  F01E         	goto	i2u355_41
 10652  003D82  EFC6  F01E         	goto	i2u355_40
 10653  003D86                     i2u355_41:
 10654  003D86  0E01               	movlw	1
 10655  003D88  EFC7  F01E         	goto	i2u355_46
 10656  003D8C                     i2u355_40:
 10657  003D8C  0E00               	movlw	0
 10658  003D8E                     i2u355_46:
 10659  003D8E  0012               	return		;funcret
 10660  003D90                     __end_of_I2C1_MasterIsNack:
 10661                           	callstack 0
 10662                           
 10663 ;; *************** function _I2C1_MasterSendTxData *****************
 10664 ;; Defined at:
 10665 ;;		line 569 in file "mcc_generated_files/i2c1_master.c"
 10666 ;; Parameters:    Size  Location     Type
 10667 ;;  data            1    wreg     unsigned char 
 10668 ;; Auto vars:     Size  Location     Type
 10669 ;;  data            1    0[COMRAM] unsigned char 
 10670 ;; Return value:  Size  Location     Type
 10671 ;;                  1    wreg      void 
 10672 ;; Registers used:
 10673 ;;		wreg
 10674 ;; Tracked objects:
 10675 ;;		On entry : 0/0
 10676 ;;		On exit  : 0/0
 10677 ;;		Unchanged: 0/0
 10678 ;; Data sizes:     COMRAM   BANK0   BANK1   BANK2   BANK3   BANK4   BANK5   BANK6   BANK7   BANK8   BANK9  BANK10  BANK1
      +1  BANK12  BANK13  BANK14
 10679 ;;      Params:         0       0       0       0       0       0       0       0       0       0       0       0       
      +0       0       0       0
 10680 ;;      Locals:         1       0       0       0       0       0       0       0       0       0       0       0       
      +0       0       0       0
 10681 ;;      Temps:          0       0       0       0       0       0       0       0       0       0       0       0       
      +0       0       0       0
 10682 ;;      Totals:         1       0       0       0       0       0       0       0       0       0       0       0       
      +0       0       0       0
 10683 ;;Total ram usage:        1 bytes
 10684 ;; Hardware stack levels used: 1
 10685 ;; This function calls:
 10686 ;;		Nothing
 10687 ;; This function is called by:
 10688 ;;		_I2C1_DO_SEND_ADR_READ
 10689 ;;		_I2C1_DO_SEND_ADR_WRITE
 10690 ;;		_I2C1_DO_TX
 10691 ;; This function uses a non-reentrant model
 10692 ;;
 10693                           
 10694                           	psect	text78
 10695  003E70                     __ptext78:
 10696                           	callstack 0
 10697  003E70                     _I2C1_MasterSendTxData:
 10698                           	callstack 18
 10699                           
 10700                           ;incstack = 0
 10701                           ;I2C1_MasterSendTxData@data stored from wreg
 10702  003E70  6E01               	movwf	I2C1_MasterSendTxData@data^0,c
 10703  003E72                     
 10704                           ;mcc_generated_files/i2c1_master.c: 569: static __attribute__((inline)) void I2C1_Master
      +                          SendTxData(uint8_t data);mcc_generated_files/i2c1_master.c: 570: {;mcc_generated_files/i
      +                          2c1_master.c: 571:     SSP1BUF = data;
 10705  003E72  C001  FFC9         	movff	I2C1_MasterSendTxData@data,4041	;volatile
 10706  003E76  0012               	return		;funcret
 10707  003E78                     __end_of_I2C1_MasterSendTxData:
 10708                           	callstack 0
 10709                           
 10710 ;; *************** function _I2C1_MasterSendAck *****************
 10711 ;; Defined at:
 10712 ;;		line 604 in file "mcc_generated_files/i2c1_master.c"
 10713 ;; Parameters:    Size  Location     Type
 10714 ;;		None
 10715 ;; Auto vars:     Size  Location     Type
 10716 ;;		None
 10717 ;; Return value:  Size  Location     Type
 10718 ;;                  1    wreg      void 
 10719 ;; Registers used:
 10720 ;;		None
 10721 ;; Tracked objects:
 10722 ;;		On entry : 0/0
 10723 ;;		On exit  : 0/0
 10724 ;;		Unchanged: 0/0
 10725 ;; Data sizes:     COMRAM   BANK0   BANK1   BANK2   BANK3   BANK4   BANK5   BANK6   BANK7   BANK8   BANK9  BANK10  BANK1
      +1  BANK12  BANK13  BANK14
 10726 ;;      Params:         0       0       0       0       0       0       0       0       0       0       0       0       
      +0       0       0       0
 10727 ;;      Locals:         0       0       0       0       0       0       0       0       0       0       0       0       
      +0       0       0       0
 10728 ;;      Temps:          0       0       0       0       0       0       0       0       0       0       0       0       
      +0       0       0       0
 10729 ;;      Totals:         0       0       0       0       0       0       0       0       0       0       0       0       
      +0       0       0       0
 10730 ;;Total ram usage:        0 bytes
 10731 ;; Hardware stack levels used: 1
 10732 ;; This function calls:
 10733 ;;		Nothing
 10734 ;; This function is called by:
 10735 ;;		_I2C1_DO_RX
 10736 ;;		_I2C1_DO_RX_ACK
 10737 ;; This function uses a non-reentrant model
 10738 ;;
 10739                           
 10740                           	psect	text79
 10741  003E7E                     __ptext79:
 10742                           	callstack 0
 10743  003E7E                     _I2C1_MasterSendAck:
 10744                           	callstack 18
 10745  003E7E                     
 10746                           ;mcc_generated_files/i2c1_master.c: 606:     SSP1CON2bits.ACKDT = 0;
 10747  003E7E  9AC5               	bcf	197,5,c	;volatile
 10748                           
 10749                           ;mcc_generated_files/i2c1_master.c: 607:     SSP1CON2bits.ACKEN = 1;
 10750  003E80  88C5               	bsf	197,4,c	;volatile
 10751  003E82  0012               	return		;funcret
 10752  003E84                     __end_of_I2C1_MasterSendAck:
 10753                           	callstack 0
 10754                           
 10755 ;; *************** function _I2C1_MasterGetRxData *****************
 10756 ;; Defined at:
 10757 ;;		line 564 in file "mcc_generated_files/i2c1_master.c"
 10758 ;; Parameters:    Size  Location     Type
 10759 ;;		None
 10760 ;; Auto vars:     Size  Location     Type
 10761 ;;		None
 10762 ;; Return value:  Size  Location     Type
 10763 ;;                  1    wreg      unsigned char 
 10764 ;; Registers used:
 10765 ;;		wreg, status,2
 10766 ;; Tracked objects:
 10767 ;;		On entry : 0/0
 10768 ;;		On exit  : 0/0
 10769 ;;		Unchanged: 0/0
 10770 ;; Data sizes:     COMRAM   BANK0   BANK1   BANK2   BANK3   BANK4   BANK5   BANK6   BANK7   BANK8   BANK9  BANK10  BANK1
      +1  BANK12  BANK13  BANK14
 10771 ;;      Params:         0       0       0       0       0       0       0       0       0       0       0       0       
      +0       0       0       0
 10772 ;;      Locals:         0       0       0       0       0       0       0       0       0       0       0       0       
      +0       0       0       0
 10773 ;;      Temps:          0       0       0       0       0       0       0       0       0       0       0       0       
      +0       0       0       0
 10774 ;;      Totals:         0       0       0       0       0       0       0       0       0       0       0       0       
      +0       0       0       0
 10775 ;;Total ram usage:        0 bytes
 10776 ;; Hardware stack levels used: 1
 10777 ;; This function calls:
 10778 ;;		Nothing
 10779 ;; This function is called by:
 10780 ;;		_I2C1_DO_RX
 10781 ;; This function uses a non-reentrant model
 10782 ;;
 10783                           
 10784                           	psect	text80
 10785  003EBA                     __ptext80:
 10786                           	callstack 0
 10787  003EBA                     _I2C1_MasterGetRxData:
 10788                           	callstack 18
 10789  003EBA                     
 10790                           ;mcc_generated_files/i2c1_master.c: 566:     return SSP1BUF;
 10791  003EBA  50C9               	movf	201,w,c	;volatile
 10792  003EBC  0012               	return		;funcret
 10793  003EBE                     __end_of_I2C1_MasterGetRxData:
 10794                           	callstack 0
 10795                           
 10796 ;; *************** function _I2C1_MasterSendNack *****************
 10797 ;; Defined at:
 10798 ;;		line 610 in file "mcc_generated_files/i2c1_master.c"
 10799 ;; Parameters:    Size  Location     Type
 10800 ;;		None
 10801 ;; Auto vars:     Size  Location     Type
 10802 ;;		None
 10803 ;; Return value:  Size  Location     Type
 10804 ;;                  1    wreg      void 
 10805 ;; Registers used:
 10806 ;;		None
 10807 ;; Tracked objects:
 10808 ;;		On entry : 0/0
 10809 ;;		On exit  : 0/0
 10810 ;;		Unchanged: 0/0
 10811 ;; Data sizes:     COMRAM   BANK0   BANK1   BANK2   BANK3   BANK4   BANK5   BANK6   BANK7   BANK8   BANK9  BANK10  BANK1
      +1  BANK12  BANK13  BANK14
 10812 ;;      Params:         0       0       0       0       0       0       0       0       0       0       0       0       
      +0       0       0       0
 10813 ;;      Locals:         0       0       0       0       0       0       0       0       0       0       0       0       
      +0       0       0       0
 10814 ;;      Temps:          0       0       0       0       0       0       0       0       0       0       0       0       
      +0       0       0       0
 10815 ;;      Totals:         0       0       0       0       0       0       0       0       0       0       0       0       
      +0       0       0       0
 10816 ;;Total ram usage:        0 bytes
 10817 ;; Hardware stack levels used: 1
 10818 ;; This function calls:
 10819 ;;		Nothing
 10820 ;; This function is called by:
 10821 ;;		_I2C1_DO_RX_NACK_STOP
 10822 ;;		_I2C1_DO_RX_NACK_RESTART
 10823 ;; This function uses a non-reentrant model
 10824 ;;
 10825                           
 10826                           	psect	text81
 10827  003E84                     __ptext81:
 10828                           	callstack 0
 10829  003E84                     _I2C1_MasterSendNack:
 10830                           	callstack 18
 10831  003E84                     
 10832                           ;mcc_generated_files/i2c1_master.c: 612:     SSP1CON2bits.ACKDT = 1;
 10833  003E84  8AC5               	bsf	197,5,c	;volatile
 10834                           
 10835                           ;mcc_generated_files/i2c1_master.c: 613:     SSP1CON2bits.ACKEN = 1;
 10836  003E86  88C5               	bsf	197,4,c	;volatile
 10837  003E88  0012               	return		;funcret
 10838  003E8A                     __end_of_I2C1_MasterSendNack:
 10839                           	callstack 0
 10840                           
 10841 ;; *************** function _I2C1_MasterStartRx *****************
 10842 ;; Defined at:
 10843 ;;		line 584 in file "mcc_generated_files/i2c1_master.c"
 10844 ;; Parameters:    Size  Location     Type
 10845 ;;		None
 10846 ;; Auto vars:     Size  Location     Type
 10847 ;;		None
 10848 ;; Return value:  Size  Location     Type
 10849 ;;                  1    wreg      void 
 10850 ;; Registers used:
 10851 ;;		None
 10852 ;; Tracked objects:
 10853 ;;		On entry : 0/0
 10854 ;;		On exit  : 0/0
 10855 ;;		Unchanged: 0/0
 10856 ;; Data sizes:     COMRAM   BANK0   BANK1   BANK2   BANK3   BANK4   BANK5   BANK6   BANK7   BANK8   BANK9  BANK10  BANK1
      +1  BANK12  BANK13  BANK14
 10857 ;;      Params:         0       0       0       0       0       0       0       0       0       0       0       0       
      +0       0       0       0
 10858 ;;      Locals:         0       0       0       0       0       0       0       0       0       0       0       0       
      +0       0       0       0
 10859 ;;      Temps:          0       0       0       0       0       0       0       0       0       0       0       0       
      +0       0       0       0
 10860 ;;      Totals:         0       0       0       0       0       0       0       0       0       0       0       0       
      +0       0       0       0
 10861 ;;Total ram usage:        0 bytes
 10862 ;; Hardware stack levels used: 1
 10863 ;; This function calls:
 10864 ;;		Nothing
 10865 ;; This function is called by:
 10866 ;;		_I2C1_DO_RCEN
 10867 ;; This function uses a non-reentrant model
 10868 ;;
 10869                           
 10870                           	psect	text82
 10871  003EBE                     __ptext82:
 10872                           	callstack 0
 10873  003EBE                     _I2C1_MasterStartRx:
 10874                           	callstack 18
 10875  003EBE                     
 10876                           ;mcc_generated_files/i2c1_master.c: 586:     SSP1CON2bits.RCEN = 1;
 10877  003EBE  86C5               	bsf	197,3,c	;volatile
 10878  003EC0  0012               	return		;funcret
 10879  003EC2                     __end_of_I2C1_MasterStartRx:
 10880                           	callstack 0
 10881                           
 10882 ;; *************** function _I2C1_CallbackReturnReset *****************
 10883 ;; Defined at:
 10884 ;;		line 526 in file "mcc_generated_files/i2c1_master.c"
 10885 ;; Parameters:    Size  Location     Type
 10886 ;;  funPtr          2    9[COMRAM] PTR void 
 10887 ;;		 -> I2C1_ReadDataBlock@bufferBlock(4), I2C1_Write2ByteRegister@data(2), I2C1_Write1ByteRegister@data(1), I2C1_Read2B
      +yteRegister@returnValue(2), 
 10888 ;;		 -> NULL(0), I2C1_Read1ByteRegister@returnValue(1), 
 10889 ;; Auto vars:     Size  Location     Type
 10890 ;;		None
 10891 ;; Return value:  Size  Location     Type
 10892 ;;                  1    wreg      enum E360
 10893 ;; Registers used:
 10894 ;;		wreg
 10895 ;; Tracked objects:
 10896 ;;		On entry : 0/0
 10897 ;;		On exit  : 0/0
 10898 ;;		Unchanged: 0/0
 10899 ;; Data sizes:     COMRAM   BANK0   BANK1   BANK2   BANK3   BANK4   BANK5   BANK6   BANK7   BANK8   BANK9  BANK10  BANK1
      +1  BANK12  BANK13  BANK14
 10900 ;;      Params:         2       0       0       0       0       0       0       0       0       0       0       0       
      +0       0       0       0
 10901 ;;      Locals:         0       0       0       0       0       0       0       0       0       0       0       0       
      +0       0       0       0
 10902 ;;      Temps:          0       0       0       0       0       0       0       0       0       0       0       0       
      +0       0       0       0
 10903 ;;      Totals:         2       0       0       0       0       0       0       0       0       0       0       0       
      +0       0       0       0
 10904 ;;Total ram usage:        2 bytes
 10905 ;; Hardware stack levels used: 1
 10906 ;; This function calls:
 10907 ;;		Nothing
 10908 ;; This function is called by:
 10909 ;;		_I2C1_Open
 10910 ;;		_I2C1_DO_TX
 10911 ;;		_I2C1_DO_RX
 10912 ;;		_I2C1_DO_TX_EMPTY
 10913 ;;		_I2C1_DO_ADDRESS_NACK
 10914 ;;		_I2C1_DO_RX_EMPTY
 10915 ;; This function uses a non-reentrant model
 10916 ;;
 10917                           
 10918                           	psect	text83
 10919  003EC2                     __ptext83:
 10920                           	callstack 0
 10921  003EC2                     _I2C1_CallbackReturnReset:
 10922                           	callstack 18
 10923  003EC2                     
 10924                           ;mcc_generated_files/i2c1_master.c: 526: i2c1_operations_t I2C1_CallbackReturnReset(void
      +                           *funPtr);mcc_generated_files/i2c1_master.c: 527: {;mcc_generated_files/i2c1_master.c: 5
      +                          28:     return I2C1_RESET_LINK;
 10925  003EC2  0E05               	movlw	5
 10926  003EC4  0012               	return		;funcret
 10927  003EC6                     __end_of_I2C1_CallbackReturnReset:
 10928                           	callstack 0
 10929                           
 10930 ;; *************** function _I2C1_CallbackReturnStop *****************
 10931 ;; Defined at:
 10932 ;;		line 521 in file "mcc_generated_files/i2c1_master.c"
 10933 ;; Parameters:    Size  Location     Type
 10934 ;;  funPtr          2    9[COMRAM] PTR void 
 10935 ;;		 -> I2C1_ReadDataBlock@bufferBlock(4), I2C1_Write2ByteRegister@data(2), I2C1_Write1ByteRegister@data(1), I2C1_Read2B
      +yteRegister@returnValue(2), 
 10936 ;;		 -> NULL(0), I2C1_Read1ByteRegister@returnValue(1), 
 10937 ;; Auto vars:     Size  Location     Type
 10938 ;;		None
 10939 ;; Return value:  Size  Location     Type
 10940 ;;                  1    wreg      enum E360
 10941 ;; Registers used:
 10942 ;;		wreg
 10943 ;; Tracked objects:
 10944 ;;		On entry : 0/0
 10945 ;;		On exit  : 0/0
 10946 ;;		Unchanged: 0/0
 10947 ;; Data sizes:     COMRAM   BANK0   BANK1   BANK2   BANK3   BANK4   BANK5   BANK6   BANK7   BANK8   BANK9  BANK10  BANK1
      +1  BANK12  BANK13  BANK14
 10948 ;;      Params:         2       0       0       0       0       0       0       0       0       0       0       0       
      +0       0       0       0
 10949 ;;      Locals:         0       0       0       0       0       0       0       0       0       0       0       0       
      +0       0       0       0
 10950 ;;      Temps:          0       0       0       0       0       0       0       0       0       0       0       0       
      +0       0       0       0
 10951 ;;      Totals:         2       0       0       0       0       0       0       0       0       0       0       0       
      +0       0       0       0
 10952 ;;Total ram usage:        2 bytes
 10953 ;; Hardware stack levels used: 1
 10954 ;; This function calls:
 10955 ;;		Nothing
 10956 ;; This function is called by:
 10957 ;;		_I2C1_Open
 10958 ;;		_I2C1_SetCallback
 10959 ;;		i2_I2C1_SetCallback
 10960 ;;		_I2C1_DO_TX
 10961 ;;		_I2C1_DO_RX
 10962 ;;		_I2C1_DO_TX_EMPTY
 10963 ;;		_I2C1_DO_ADDRESS_NACK
 10964 ;;		_I2C1_DO_RX_EMPTY
 10965 ;; This function uses a non-reentrant model
 10966 ;;
 10967                           
 10968                           	psect	text84
 10969  003EC6                     __ptext84:
 10970                           	callstack 0
 10971  003EC6                     _I2C1_CallbackReturnStop:
 10972                           	callstack 18
 10973  003EC6                     
 10974                           ;mcc_generated_files/i2c1_master.c: 521: i2c1_operations_t I2C1_CallbackReturnStop(void 
      +                          *funPtr);mcc_generated_files/i2c1_master.c: 522: {;mcc_generated_files/i2c1_master.c: 52
      +                          3:     return I2C1_STOP;
 10975  003EC6  0E01               	movlw	1
 10976  003EC8  0012               	return		;funcret
 10977  003ECA                     __end_of_I2C1_CallbackReturnStop:
 10978                           	callstack 0
 10979                           
 10980 ;; *************** function _rdBlkRegCompleteHandler *****************
 10981 ;; Defined at:
 10982 ;;		line 170 in file "mcc_generated_files/examples/i2c1_master_example.c"
 10983 ;; Parameters:    Size  Location     Type
 10984 ;;  ptr             2    9[COMRAM] PTR void 
 10985 ;;		 -> I2C1_ReadDataBlock@bufferBlock(4), I2C1_Write2ByteRegister@data(2), I2C1_Write1ByteRegister@data(1), I2C1_Read2B
      +yteRegister@returnValue(2), 
 10986 ;;		 -> NULL(0), I2C1_Read1ByteRegister@returnValue(1), 
 10987 ;; Auto vars:     Size  Location     Type
 10988 ;;		None
 10989 ;; Return value:  Size  Location     Type
 10990 ;;                  1    wreg      enum E360
 10991 ;; Registers used:
 10992 ;;		wreg, fsr2l, fsr2h, status,2, status,0, prodl, prodh, cstack
 10993 ;; Tracked objects:
 10994 ;;		On entry : 0/0
 10995 ;;		On exit  : 0/0
 10996 ;;		Unchanged: 0/0
 10997 ;; Data sizes:     COMRAM   BANK0   BANK1   BANK2   BANK3   BANK4   BANK5   BANK6   BANK7   BANK8   BANK9  BANK10  BANK1
      +1  BANK12  BANK13  BANK14
 10998 ;;      Params:         2       0       0       0       0       0       0       0       0       0       0       0       
      +0       0       0       0
 10999 ;;      Locals:         0       0       0       0       0       0       0       0       0       0       0       0       
      +0       0       0       0
 11000 ;;      Temps:          0       0       0       0       0       0       0       0       0       0       0       0       
      +0       0       0       0
 11001 ;;      Totals:         2       0       0       0       0       0       0       0       0       0       0       0       
      +0       0       0       0
 11002 ;;Total ram usage:        2 bytes
 11003 ;; Hardware stack levels used: 1
 11004 ;; Hardware stack levels required when called: 2
 11005 ;; This function calls:
 11006 ;;		i2_I2C1_SetBuffer
 11007 ;;		i2_I2C1_SetDataCompleteCallback
 11008 ;; This function is called by:
 11009 ;;		_I2C1_ReadDataBlock
 11010 ;;		_I2C1_DO_TX
 11011 ;;		_I2C1_DO_RX
 11012 ;;		_I2C1_DO_TX_EMPTY
 11013 ;;		_I2C1_DO_ADDRESS_NACK
 11014 ;;		_I2C1_DO_RX_EMPTY
 11015 ;; This function uses a non-reentrant model
 11016 ;;
 11017                           
 11018                           	psect	text85
 11019  003980                     __ptext85:
 11020                           	callstack 0
 11021  003980                     _rdBlkRegCompleteHandler:
 11022                           	callstack 16
 11023  003980                     
 11024                           ;mcc_generated_files/examples/i2c1_master_example.c: 170: static i2c1_operations_t rdBlk
      +                          RegCompleteHandler(void *ptr);mcc_generated_files/examples/i2c1_master_example.c: 171: {
      +                          ;mcc_generated_files/examples/i2c1_master_example.c: 172:     I2C1_SetBuffer(((i2c1_buff
      +                          er_t *)ptr)->data,((i2c1_buffer_t*)ptr)->len);
 11025  003980  EE20 F002          	lfsr	2,2
 11026  003984  500A               	movf	rdBlkRegCompleteHandler@ptr^0,w,c
 11027  003986  26D9               	addwf	fsr2l,f,c
 11028  003988  500B               	movf	(rdBlkRegCompleteHandler@ptr+1)^0,w,c
 11029  00398A  22DA               	addwfc	fsr2h,f,c
 11030  00398C  CFDE F001          	movff	postinc2,i2I2C1_SetBuffer@buffer
 11031  003990  CFDD F002          	movff	postdec2,i2I2C1_SetBuffer@buffer+1
 11032  003994  C00A  FFD9         	movff	rdBlkRegCompleteHandler@ptr,fsr2l
 11033  003998  C00B  FFDA         	movff	rdBlkRegCompleteHandler@ptr+1,fsr2h
 11034  00399C  CFDE F003          	movff	postinc2,i2I2C1_SetBuffer@bufferSize
 11035  0039A0  CFDD F004          	movff	postdec2,i2I2C1_SetBuffer@bufferSize+1
 11036  0039A4  EC34  F01E         	call	i2_I2C1_SetBuffer	;wreg free
 11037  0039A8                     
 11038                           ;mcc_generated_files/examples/i2c1_master_example.c: 173:     I2C1_SetDataCompleteCallba
      +                          ck(((void*)0),((void*)0));
 11039  0039A8  0E00               	movlw	0
 11040  0039AA  6E06               	movwf	i2I2C1_SetDataCompleteCallback@cb^0,c
 11041  0039AC  0E00               	movlw	0
 11042  0039AE  6E07               	movwf	(i2I2C1_SetDataCompleteCallback@cb+1)^0,c
 11043  0039B0  0E00               	movlw	0
 11044  0039B2  6E08               	movwf	i2I2C1_SetDataCompleteCallback@ptr^0,c
 11045  0039B4  0E00               	movlw	0
 11046  0039B6  6E09               	movwf	(i2I2C1_SetDataCompleteCallback@ptr+1)^0,c
 11047  0039B8  EC9E  F01E         	call	i2_I2C1_SetDataCompleteCallback	;wreg free
 11048  0039BC                     
 11049                           ;mcc_generated_files/examples/i2c1_master_example.c: 174:     return I2C1_RESTART_READ;
 11050  0039BC  0E02               	movlw	2
 11051  0039BE  0012               	return		;funcret
 11052  0039C0                     __end_of_rdBlkRegCompleteHandler:
 11053                           	callstack 0
 11054                           
 11055 ;; *************** function _wr1RegCompleteHandler *****************
 11056 ;; Defined at:
 11057 ;;		line 156 in file "mcc_generated_files/examples/i2c1_master_example.c"
 11058 ;; Parameters:    Size  Location     Type
 11059 ;;  ptr             2    9[COMRAM] PTR void 
 11060 ;;		 -> I2C1_ReadDataBlock@bufferBlock(4), I2C1_Write2ByteRegister@data(2), I2C1_Write1ByteRegister@data(1), I2C1_Read2B
      +yteRegister@returnValue(2), 
 11061 ;;		 -> NULL(0), I2C1_Read1ByteRegister@returnValue(1), 
 11062 ;; Auto vars:     Size  Location     Type
 11063 ;;		None
 11064 ;; Return value:  Size  Location     Type
 11065 ;;                  1    wreg      enum E360
 11066 ;; Registers used:
 11067 ;;		wreg, fsr2l, fsr2h, status,2, status,0, prodl, prodh, cstack
 11068 ;; Tracked objects:
 11069 ;;		On entry : 0/0
 11070 ;;		On exit  : 0/0
 11071 ;;		Unchanged: 0/0
 11072 ;; Data sizes:     COMRAM   BANK0   BANK1   BANK2   BANK3   BANK4   BANK5   BANK6   BANK7   BANK8   BANK9  BANK10  BANK1
      +1  BANK12  BANK13  BANK14
 11073 ;;      Params:         2       0       0       0       0       0       0       0       0       0       0       0       
      +0       0       0       0
 11074 ;;      Locals:         0       0       0       0       0       0       0       0       0       0       0       0       
      +0       0       0       0
 11075 ;;      Temps:          0       0       0       0       0       0       0       0       0       0       0       0       
      +0       0       0       0
 11076 ;;      Totals:         2       0       0       0       0       0       0       0       0       0       0       0       
      +0       0       0       0
 11077 ;;Total ram usage:        2 bytes
 11078 ;; Hardware stack levels used: 1
 11079 ;; Hardware stack levels required when called: 2
 11080 ;; This function calls:
 11081 ;;		i2_I2C1_SetBuffer
 11082 ;;		i2_I2C1_SetDataCompleteCallback
 11083 ;; This function is called by:
 11084 ;;		_I2C1_Write1ByteRegister
 11085 ;;		_I2C1_DO_TX
 11086 ;;		_I2C1_DO_RX
 11087 ;;		_I2C1_DO_TX_EMPTY
 11088 ;;		_I2C1_DO_ADDRESS_NACK
 11089 ;;		_I2C1_DO_RX_EMPTY
 11090 ;; This function uses a non-reentrant model
 11091 ;;
 11092                           
 11093                           	psect	text86
 11094  003ACC                     __ptext86:
 11095                           	callstack 0
 11096  003ACC                     _wr1RegCompleteHandler:
 11097                           	callstack 16
 11098  003ACC                     
 11099                           ;mcc_generated_files/examples/i2c1_master_example.c: 156: static i2c1_operations_t wr1Re
      +                          gCompleteHandler(void *ptr);mcc_generated_files/examples/i2c1_master_example.c: 157: {;m
      +                          cc_generated_files/examples/i2c1_master_example.c: 158:     I2C1_SetBuffer(ptr,1);
 11100  003ACC  C00A  F001         	movff	wr1RegCompleteHandler@ptr,i2I2C1_SetBuffer@buffer
 11101  003AD0  C00B  F002         	movff	wr1RegCompleteHandler@ptr+1,i2I2C1_SetBuffer@buffer+1
 11102  003AD4  0E00               	movlw	0
 11103  003AD6  6E04               	movwf	(i2I2C1_SetBuffer@bufferSize+1)^0,c
 11104  003AD8  0E01               	movlw	1
 11105  003ADA  6E03               	movwf	i2I2C1_SetBuffer@bufferSize^0,c
 11106  003ADC  EC34  F01E         	call	i2_I2C1_SetBuffer	;wreg free
 11107  003AE0                     
 11108                           ;mcc_generated_files/examples/i2c1_master_example.c: 159:     I2C1_SetDataCompleteCallba
      +                          ck(((void*)0),((void*)0));
 11109  003AE0  0E00               	movlw	0
 11110  003AE2  6E06               	movwf	i2I2C1_SetDataCompleteCallback@cb^0,c
 11111  003AE4  0E00               	movlw	0
 11112  003AE6  6E07               	movwf	(i2I2C1_SetDataCompleteCallback@cb+1)^0,c
 11113  003AE8  0E00               	movlw	0
 11114  003AEA  6E08               	movwf	i2I2C1_SetDataCompleteCallback@ptr^0,c
 11115  003AEC  0E00               	movlw	0
 11116  003AEE  6E09               	movwf	(i2I2C1_SetDataCompleteCallback@ptr+1)^0,c
 11117  003AF0  EC9E  F01E         	call	i2_I2C1_SetDataCompleteCallback	;wreg free
 11118  003AF4                     
 11119                           ;mcc_generated_files/examples/i2c1_master_example.c: 160:     return I2C1_CONTINUE;
 11120  003AF4  0E04               	movlw	4
 11121  003AF6  0012               	return		;funcret
 11122  003AF8                     __end_of_wr1RegCompleteHandler:
 11123                           	callstack 0
 11124                           
 11125 ;; *************** function _rd2RegCompleteHandler *****************
 11126 ;; Defined at:
 11127 ;;		line 149 in file "mcc_generated_files/examples/i2c1_master_example.c"
 11128 ;; Parameters:    Size  Location     Type
 11129 ;;  ptr             2    9[COMRAM] PTR void 
 11130 ;;		 -> I2C1_ReadDataBlock@bufferBlock(4), I2C1_Write2ByteRegister@data(2), I2C1_Write1ByteRegister@data(1), I2C1_Read2B
      +yteRegister@returnValue(2), 
 11131 ;;		 -> NULL(0), I2C1_Read1ByteRegister@returnValue(1), 
 11132 ;; Auto vars:     Size  Location     Type
 11133 ;;		None
 11134 ;; Return value:  Size  Location     Type
 11135 ;;                  1    wreg      enum E360
 11136 ;; Registers used:
 11137 ;;		wreg, fsr2l, fsr2h, status,2, status,0, prodl, prodh, cstack
 11138 ;; Tracked objects:
 11139 ;;		On entry : 0/0
 11140 ;;		On exit  : 0/0
 11141 ;;		Unchanged: 0/0
 11142 ;; Data sizes:     COMRAM   BANK0   BANK1   BANK2   BANK3   BANK4   BANK5   BANK6   BANK7   BANK8   BANK9  BANK10  BANK1
      +1  BANK12  BANK13  BANK14
 11143 ;;      Params:         2       0       0       0       0       0       0       0       0       0       0       0       
      +0       0       0       0
 11144 ;;      Locals:         0       0       0       0       0       0       0       0       0       0       0       0       
      +0       0       0       0
 11145 ;;      Temps:          0       0       0       0       0       0       0       0       0       0       0       0       
      +0       0       0       0
 11146 ;;      Totals:         2       0       0       0       0       0       0       0       0       0       0       0       
      +0       0       0       0
 11147 ;;Total ram usage:        2 bytes
 11148 ;; Hardware stack levels used: 1
 11149 ;; Hardware stack levels required when called: 2
 11150 ;; This function calls:
 11151 ;;		i2_I2C1_SetBuffer
 11152 ;;		i2_I2C1_SetDataCompleteCallback
 11153 ;; This function is called by:
 11154 ;;		_I2C1_Read2ByteRegister
 11155 ;;		_I2C1_DO_TX
 11156 ;;		_I2C1_DO_RX
 11157 ;;		_I2C1_DO_TX_EMPTY
 11158 ;;		_I2C1_DO_ADDRESS_NACK
 11159 ;;		_I2C1_DO_RX_EMPTY
 11160 ;; This function uses a non-reentrant model
 11161 ;;
 11162                           
 11163                           	psect	text87
 11164  003AF8                     __ptext87:
 11165                           	callstack 0
 11166  003AF8                     _rd2RegCompleteHandler:
 11167                           	callstack 16
 11168  003AF8                     
 11169                           ;mcc_generated_files/examples/i2c1_master_example.c: 149: static i2c1_operations_t rd2Re
      +                          gCompleteHandler(void *ptr);mcc_generated_files/examples/i2c1_master_example.c: 150: {;m
      +                          cc_generated_files/examples/i2c1_master_example.c: 151:     I2C1_SetBuffer(ptr,2);
 11170  003AF8  C00A  F001         	movff	rd2RegCompleteHandler@ptr,i2I2C1_SetBuffer@buffer
 11171  003AFC  C00B  F002         	movff	rd2RegCompleteHandler@ptr+1,i2I2C1_SetBuffer@buffer+1
 11172  003B00  0E00               	movlw	0
 11173  003B02  6E04               	movwf	(i2I2C1_SetBuffer@bufferSize+1)^0,c
 11174  003B04  0E02               	movlw	2
 11175  003B06  6E03               	movwf	i2I2C1_SetBuffer@bufferSize^0,c
 11176  003B08  EC34  F01E         	call	i2_I2C1_SetBuffer	;wreg free
 11177  003B0C                     
 11178                           ;mcc_generated_files/examples/i2c1_master_example.c: 152:     I2C1_SetDataCompleteCallba
      +                          ck(((void*)0),((void*)0));
 11179  003B0C  0E00               	movlw	0
 11180  003B0E  6E06               	movwf	i2I2C1_SetDataCompleteCallback@cb^0,c
 11181  003B10  0E00               	movlw	0
 11182  003B12  6E07               	movwf	(i2I2C1_SetDataCompleteCallback@cb+1)^0,c
 11183  003B14  0E00               	movlw	0
 11184  003B16  6E08               	movwf	i2I2C1_SetDataCompleteCallback@ptr^0,c
 11185  003B18  0E00               	movlw	0
 11186  003B1A  6E09               	movwf	(i2I2C1_SetDataCompleteCallback@ptr+1)^0,c
 11187  003B1C  EC9E  F01E         	call	i2_I2C1_SetDataCompleteCallback	;wreg free
 11188  003B20                     
 11189                           ;mcc_generated_files/examples/i2c1_master_example.c: 153:     return I2C1_RESTART_READ;
 11190  003B20  0E02               	movlw	2
 11191  003B22  0012               	return		;funcret
 11192  003B24                     __end_of_rd2RegCompleteHandler:
 11193                           	callstack 0
 11194                           
 11195 ;; *************** function _rd1RegCompleteHandler *****************
 11196 ;; Defined at:
 11197 ;;		line 142 in file "mcc_generated_files/examples/i2c1_master_example.c"
 11198 ;; Parameters:    Size  Location     Type
 11199 ;;  ptr             2    9[COMRAM] PTR void 
 11200 ;;		 -> I2C1_ReadDataBlock@bufferBlock(4), I2C1_Write2ByteRegister@data(2), I2C1_Write1ByteRegister@data(1), I2C1_Read2B
      +yteRegister@returnValue(2), 
 11201 ;;		 -> NULL(0), I2C1_Read1ByteRegister@returnValue(1), 
 11202 ;; Auto vars:     Size  Location     Type
 11203 ;;		None
 11204 ;; Return value:  Size  Location     Type
 11205 ;;                  1    wreg      enum E360
 11206 ;; Registers used:
 11207 ;;		wreg, fsr2l, fsr2h, status,2, status,0, prodl, prodh, cstack
 11208 ;; Tracked objects:
 11209 ;;		On entry : 0/0
 11210 ;;		On exit  : 0/0
 11211 ;;		Unchanged: 0/0
 11212 ;; Data sizes:     COMRAM   BANK0   BANK1   BANK2   BANK3   BANK4   BANK5   BANK6   BANK7   BANK8   BANK9  BANK10  BANK1
      +1  BANK12  BANK13  BANK14
 11213 ;;      Params:         2       0       0       0       0       0       0       0       0       0       0       0       
      +0       0       0       0
 11214 ;;      Locals:         0       0       0       0       0       0       0       0       0       0       0       0       
      +0       0       0       0
 11215 ;;      Temps:          0       0       0       0       0       0       0       0       0       0       0       0       
      +0       0       0       0
 11216 ;;      Totals:         2       0       0       0       0       0       0       0       0       0       0       0       
      +0       0       0       0
 11217 ;;Total ram usage:        2 bytes
 11218 ;; Hardware stack levels used: 1
 11219 ;; Hardware stack levels required when called: 2
 11220 ;; This function calls:
 11221 ;;		i2_I2C1_SetBuffer
 11222 ;;		i2_I2C1_SetDataCompleteCallback
 11223 ;; This function is called by:
 11224 ;;		_I2C1_Read1ByteRegister
 11225 ;;		_I2C1_DO_TX
 11226 ;;		_I2C1_DO_RX
 11227 ;;		_I2C1_DO_TX_EMPTY
 11228 ;;		_I2C1_DO_ADDRESS_NACK
 11229 ;;		_I2C1_DO_RX_EMPTY
 11230 ;; This function uses a non-reentrant model
 11231 ;;
 11232                           
 11233                           	psect	text88
 11234  003B24                     __ptext88:
 11235                           	callstack 0
 11236  003B24                     _rd1RegCompleteHandler:
 11237                           	callstack 16
 11238  003B24                     
 11239                           ;mcc_generated_files/examples/i2c1_master_example.c: 142: static i2c1_operations_t rd1Re
      +                          gCompleteHandler(void *ptr);mcc_generated_files/examples/i2c1_master_example.c: 143: {;m
      +                          cc_generated_files/examples/i2c1_master_example.c: 144:     I2C1_SetBuffer(ptr,1);
 11240  003B24  C00A  F001         	movff	rd1RegCompleteHandler@ptr,i2I2C1_SetBuffer@buffer
 11241  003B28  C00B  F002         	movff	rd1RegCompleteHandler@ptr+1,i2I2C1_SetBuffer@buffer+1
 11242  003B2C  0E00               	movlw	0
 11243  003B2E  6E04               	movwf	(i2I2C1_SetBuffer@bufferSize+1)^0,c
 11244  003B30  0E01               	movlw	1
 11245  003B32  6E03               	movwf	i2I2C1_SetBuffer@bufferSize^0,c
 11246  003B34  EC34  F01E         	call	i2_I2C1_SetBuffer	;wreg free
 11247  003B38                     
 11248                           ;mcc_generated_files/examples/i2c1_master_example.c: 145:     I2C1_SetDataCompleteCallba
      +                          ck(((void*)0),((void*)0));
 11249  003B38  0E00               	movlw	0
 11250  003B3A  6E06               	movwf	i2I2C1_SetDataCompleteCallback@cb^0,c
 11251  003B3C  0E00               	movlw	0
 11252  003B3E  6E07               	movwf	(i2I2C1_SetDataCompleteCallback@cb+1)^0,c
 11253  003B40  0E00               	movlw	0
 11254  003B42  6E08               	movwf	i2I2C1_SetDataCompleteCallback@ptr^0,c
 11255  003B44  0E00               	movlw	0
 11256  003B46  6E09               	movwf	(i2I2C1_SetDataCompleteCallback@ptr+1)^0,c
 11257  003B48  EC9E  F01E         	call	i2_I2C1_SetDataCompleteCallback	;wreg free
 11258  003B4C                     
 11259                           ;mcc_generated_files/examples/i2c1_master_example.c: 146:     return I2C1_RESTART_READ;
 11260  003B4C  0E02               	movlw	2
 11261  003B4E  0012               	return		;funcret
 11262  003B50                     __end_of_rd1RegCompleteHandler:
 11263                           	callstack 0
 11264                           
 11265 ;; *************** function _wr2RegCompleteHandler *****************
 11266 ;; Defined at:
 11267 ;;		line 163 in file "mcc_generated_files/examples/i2c1_master_example.c"
 11268 ;; Parameters:    Size  Location     Type
 11269 ;;  ptr             2    9[COMRAM] PTR void 
 11270 ;;		 -> I2C1_ReadDataBlock@bufferBlock(4), I2C1_Write2ByteRegister@data(2), I2C1_Write1ByteRegister@data(1), I2C1_Read2B
      +yteRegister@returnValue(2), 
 11271 ;;		 -> NULL(0), I2C1_Read1ByteRegister@returnValue(1), 
 11272 ;; Auto vars:     Size  Location     Type
 11273 ;;		None
 11274 ;; Return value:  Size  Location     Type
 11275 ;;                  1    wreg      enum E360
 11276 ;; Registers used:
 11277 ;;		wreg, fsr2l, fsr2h, status,2, status,0, prodl, prodh, cstack
 11278 ;; Tracked objects:
 11279 ;;		On entry : 0/0
 11280 ;;		On exit  : 0/0
 11281 ;;		Unchanged: 0/0
 11282 ;; Data sizes:     COMRAM   BANK0   BANK1   BANK2   BANK3   BANK4   BANK5   BANK6   BANK7   BANK8   BANK9  BANK10  BANK1
      +1  BANK12  BANK13  BANK14
 11283 ;;      Params:         2       0       0       0       0       0       0       0       0       0       0       0       
      +0       0       0       0
 11284 ;;      Locals:         0       0       0       0       0       0       0       0       0       0       0       0       
      +0       0       0       0
 11285 ;;      Temps:          0       0       0       0       0       0       0       0       0       0       0       0       
      +0       0       0       0
 11286 ;;      Totals:         2       0       0       0       0       0       0       0       0       0       0       0       
      +0       0       0       0
 11287 ;;Total ram usage:        2 bytes
 11288 ;; Hardware stack levels used: 1
 11289 ;; Hardware stack levels required when called: 2
 11290 ;; This function calls:
 11291 ;;		i2_I2C1_SetBuffer
 11292 ;;		i2_I2C1_SetDataCompleteCallback
 11293 ;; This function is called by:
 11294 ;;		_I2C1_Write2ByteRegister
 11295 ;;		_I2C1_DO_TX
 11296 ;;		_I2C1_DO_RX
 11297 ;;		_I2C1_DO_TX_EMPTY
 11298 ;;		_I2C1_DO_ADDRESS_NACK
 11299 ;;		_I2C1_DO_RX_EMPTY
 11300 ;; This function uses a non-reentrant model
 11301 ;;
 11302                           
 11303                           	psect	text89
 11304  003B50                     __ptext89:
 11305                           	callstack 0
 11306  003B50                     _wr2RegCompleteHandler:
 11307                           	callstack 16
 11308  003B50                     
 11309                           ;mcc_generated_files/examples/i2c1_master_example.c: 163: static i2c1_operations_t wr2Re
      +                          gCompleteHandler(void *ptr);mcc_generated_files/examples/i2c1_master_example.c: 164: {;m
      +                          cc_generated_files/examples/i2c1_master_example.c: 165:     I2C1_SetBuffer(ptr,2);
 11310  003B50  C00A  F001         	movff	wr2RegCompleteHandler@ptr,i2I2C1_SetBuffer@buffer
 11311  003B54  C00B  F002         	movff	wr2RegCompleteHandler@ptr+1,i2I2C1_SetBuffer@buffer+1
 11312  003B58  0E00               	movlw	0
 11313  003B5A  6E04               	movwf	(i2I2C1_SetBuffer@bufferSize+1)^0,c
 11314  003B5C  0E02               	movlw	2
 11315  003B5E  6E03               	movwf	i2I2C1_SetBuffer@bufferSize^0,c
 11316  003B60  EC34  F01E         	call	i2_I2C1_SetBuffer	;wreg free
 11317  003B64                     
 11318                           ;mcc_generated_files/examples/i2c1_master_example.c: 166:     I2C1_SetDataCompleteCallba
      +                          ck(((void*)0),((void*)0));
 11319  003B64  0E00               	movlw	0
 11320  003B66  6E06               	movwf	i2I2C1_SetDataCompleteCallback@cb^0,c
 11321  003B68  0E00               	movlw	0
 11322  003B6A  6E07               	movwf	(i2I2C1_SetDataCompleteCallback@cb+1)^0,c
 11323  003B6C  0E00               	movlw	0
 11324  003B6E  6E08               	movwf	i2I2C1_SetDataCompleteCallback@ptr^0,c
 11325  003B70  0E00               	movlw	0
 11326  003B72  6E09               	movwf	(i2I2C1_SetDataCompleteCallback@ptr+1)^0,c
 11327  003B74  EC9E  F01E         	call	i2_I2C1_SetDataCompleteCallback	;wreg free
 11328  003B78                     
 11329                           ;mcc_generated_files/examples/i2c1_master_example.c: 167:     return I2C1_CONTINUE;
 11330  003B78  0E04               	movlw	4
 11331  003B7A  0012               	return		;funcret
 11332  003B7C                     __end_of_wr2RegCompleteHandler:
 11333                           	callstack 0
 11334                           
 11335 ;; *************** function i2_I2C1_SetDataCompleteCallback *****************
 11336 ;; Defined at:
 11337 ;;		line 274 in file "mcc_generated_files/i2c1_master.c"
 11338 ;; Parameters:    Size  Location     Type
 11339 ;;  cb              2    5[COMRAM] PTR FTN(PTR void ,)enum 
 11340 ;;		 -> Absolute function(1), rdBlkRegCompleteHandler(1), wr2RegCompleteHandler(1), wr1RegCompleteHandler(1), 
 11341 ;;		 -> rd2RegCompleteHandler(1), rd1RegCompleteHandler(1), 
 11342 ;;  ptr             2    7[COMRAM] PTR void 
 11343 ;;		 -> I2C1_ReadDataBlock@bufferBlock(4), I2C1_Write2ByteRegister@data(2), I2C1_Write1ByteRegister@data(1), I2C1_Read2B
      +yteRegister@returnValue(2), 
 11344 ;;		 -> NULL(0), I2C1_Read1ByteRegister@returnValue(1), 
 11345 ;; Auto vars:     Size  Location     Type
 11346 ;;		None
 11347 ;; Return value:  Size  Location     Type
 11348 ;;                  1    wreg      void 
 11349 ;; Registers used:
 11350 ;;		wreg, fsr2l, fsr2h, status,2, status,0, prodl, prodh, cstack
 11351 ;; Tracked objects:
 11352 ;;		On entry : 0/0
 11353 ;;		On exit  : 0/0
 11354 ;;		Unchanged: 0/0
 11355 ;; Data sizes:     COMRAM   BANK0   BANK1   BANK2   BANK3   BANK4   BANK5   BANK6   BANK7   BANK8   BANK9  BANK10  BANK1
      +1  BANK12  BANK13  BANK14
 11356 ;;      Params:         4       0       0       0       0       0       0       0       0       0       0       0       
      +0       0       0       0
 11357 ;;      Locals:         0       0       0       0       0       0       0       0       0       0       0       0       
      +0       0       0       0
 11358 ;;      Temps:          0       0       0       0       0       0       0       0       0       0       0       0       
      +0       0       0       0
 11359 ;;      Totals:         4       0       0       0       0       0       0       0       0       0       0       0       
      +0       0       0       0
 11360 ;;Total ram usage:        4 bytes
 11361 ;; Hardware stack levels used: 1
 11362 ;; Hardware stack levels required when called: 1
 11363 ;; This function calls:
 11364 ;;		i2_I2C1_SetCallback
 11365 ;; This function is called by:
 11366 ;;		_rd1RegCompleteHandler
 11367 ;;		_rd2RegCompleteHandler
 11368 ;;		_wr1RegCompleteHandler
 11369 ;;		_wr2RegCompleteHandler
 11370 ;;		_rdBlkRegCompleteHandler
 11371 ;; This function uses a non-reentrant model
 11372 ;;
 11373                           
 11374                           	psect	text90
 11375  003D3C                     __ptext90:
 11376                           	callstack 0
 11377  003D3C                     i2_I2C1_SetDataCompleteCallback:
 11378                           	callstack 16
 11379  003D3C                     
 11380                           ;mcc_generated_files/i2c1_master.c: 274: void I2C1_SetDataCompleteCallback(i2c1_callback
      +                          _t cb, void *ptr);mcc_generated_files/i2c1_master.c: 275: {;mcc_generated_files/i2c1_mas
      +                          ter.c: 276:     I2C1_SetCallback(I2C1_DATA_COMPLETE, cb, ptr);
 11381  003D3C  C006  F001         	movff	i2I2C1_SetDataCompleteCallback@cb,i2I2C1_SetCallback@cb
 11382  003D40  C007  F002         	movff	i2I2C1_SetDataCompleteCallback@cb+1,i2I2C1_SetCallback@cb+1
 11383  003D44  C008  F003         	movff	i2I2C1_SetDataCompleteCallback@ptr,i2I2C1_SetCallback@ptr
 11384  003D48  C009  F004         	movff	i2I2C1_SetDataCompleteCallback@ptr+1,i2I2C1_SetCallback@ptr+1
 11385  003D4C  0E00               	movlw	0
 11386  003D4E  ECDD  F01A         	call	i2_I2C1_SetCallback
 11387  003D52  0012               	return		;funcret
 11388  003D54                     __end_ofi2_I2C1_SetDataCompleteCallback:
 11389                           	callstack 0
 11390                           
 11391 ;; *************** function i2_I2C1_SetCallback *****************
 11392 ;; Defined at:
 11393 ;;		line 304 in file "mcc_generated_files/i2c1_master.c"
 11394 ;; Parameters:    Size  Location     Type
 11395 ;;  idx             1    wreg     enum E6673
 11396 ;;  cb              2    0[COMRAM] PTR FTN(PTR void ,)enum 
 11397 ;;		 -> Absolute function(1), rdBlkRegCompleteHandler(1), wr2RegCompleteHandler(1), wr1RegCompleteHandler(1), 
 11398 ;;		 -> rd2RegCompleteHandler(1), rd1RegCompleteHandler(1), 
 11399 ;;  ptr             2    2[COMRAM] PTR void 
 11400 ;;		 -> I2C1_ReadDataBlock@bufferBlock(4), I2C1_Write2ByteRegister@data(2), I2C1_Write1ByteRegister@data(1), I2C1_Read2B
      +yteRegister@returnValue(2), 
 11401 ;;		 -> NULL(0), I2C1_Read1ByteRegister@returnValue(1), 
 11402 ;; Auto vars:     Size  Location     Type
 11403 ;;  idx             1    4[COMRAM] enum E6673
 11404 ;; Return value:  Size  Location     Type
 11405 ;;                  1    wreg      void 
 11406 ;; Registers used:
 11407 ;;		wreg, fsr2l, fsr2h, status,2, status,0, prodl, prodh
 11408 ;; Tracked objects:
 11409 ;;		On entry : 0/0
 11410 ;;		On exit  : 0/0
 11411 ;;		Unchanged: 0/0
 11412 ;; Data sizes:     COMRAM   BANK0   BANK1   BANK2   BANK3   BANK4   BANK5   BANK6   BANK7   BANK8   BANK9  BANK10  BANK1
      +1  BANK12  BANK13  BANK14
 11413 ;;      Params:         4       0       0       0       0       0       0       0       0       0       0       0       
      +0       0       0       0
 11414 ;;      Locals:         1       0       0       0       0       0       0       0       0       0       0       0       
      +0       0       0       0
 11415 ;;      Temps:          0       0       0       0       0       0       0       0       0       0       0       0       
      +0       0       0       0
 11416 ;;      Totals:         5       0       0       0       0       0       0       0       0       0       0       0       
      +0       0       0       0
 11417 ;;Total ram usage:        5 bytes
 11418 ;; Hardware stack levels used: 1
 11419 ;; This function calls:
 11420 ;;		Nothing
 11421 ;; This function is called by:
 11422 ;;		i2_I2C1_SetDataCompleteCallback
 11423 ;; This function uses a non-reentrant model
 11424 ;;
 11425                           
 11426                           	psect	text91
 11427  0035BA                     __ptext91:
 11428                           	callstack 0
 11429  0035BA                     i2_I2C1_SetCallback:
 11430                           	callstack 16
 11431                           
 11432                           ;incstack = 0
 11433                           ;i2I2C1_SetCallback@idx stored from wreg
 11434  0035BA  6E05               	movwf	i2I2C1_SetCallback@idx^0,c
 11435  0035BC                     
 11436                           ;mcc_generated_files/i2c1_master.c: 304: static void I2C1_SetCallback(i2c1_callbackIndex
      +                          _t idx, i2c1_callback_t cb, void *ptr);mcc_generated_files/i2c1_master.c: 305: {;mcc_gen
      +                          erated_files/i2c1_master.c: 306:     if(cb)
 11437  0035BC  5001               	movf	i2I2C1_SetCallback@cb^0,w,c
 11438  0035BE  1002               	iorwf	(i2I2C1_SetCallback@cb+1)^0,w,c
 11439  0035C0  B4D8               	btfsc	status,2,c
 11440  0035C2  EFE5  F01A         	goto	i2u300_41
 11441  0035C6  EFE7  F01A         	goto	i2u300_40
 11442  0035CA                     i2u300_41:
 11443  0035CA  EF01  F01B         	goto	i2l4126
 11444  0035CE                     i2u300_40:
 11445  0035CE                     
 11446                           ;mcc_generated_files/i2c1_master.c: 307:     {;mcc_generated_files/i2c1_master.c: 308:  
      +                                 I2C1_Status.callbackTable[idx] = cb;
 11447  0035CE  5005               	movf	i2I2C1_SetCallback@idx^0,w,c
 11448  0035D0  0D02               	mullw	2
 11449  0035D2  0E00               	movlw	low _I2C1_Status
 11450  0035D4  24F3               	addwf	243,w,c
 11451  0035D6  6ED9               	movwf	fsr2l,c
 11452  0035D8  0E01               	movlw	high _I2C1_Status
 11453  0035DA  20F4               	addwfc	prodh,w,c
 11454  0035DC  6EDA               	movwf	fsr2h,c
 11455  0035DE  C001  FFDE         	movff	i2I2C1_SetCallback@cb,postinc2
 11456  0035E2  C002  FFDD         	movff	i2I2C1_SetCallback@cb+1,postdec2
 11457                           
 11458                           ;mcc_generated_files/i2c1_master.c: 309:         I2C1_Status.callbackPayload[idx] = ptr;
 11459  0035E6  5005               	movf	i2I2C1_SetCallback@idx^0,w,c
 11460  0035E8  0D02               	mullw	2
 11461  0035EA  0E0C               	movlw	low (_I2C1_Status+12)
 11462  0035EC  24F3               	addwf	243,w,c
 11463  0035EE  6ED9               	movwf	fsr2l,c
 11464  0035F0  0E01               	movlw	high (_I2C1_Status+12)
 11465  0035F2  20F4               	addwfc	prodh,w,c
 11466  0035F4  6EDA               	movwf	fsr2h,c
 11467  0035F6  C003  FFDE         	movff	i2I2C1_SetCallback@ptr,postinc2
 11468  0035FA  C004  FFDD         	movff	i2I2C1_SetCallback@ptr+1,postdec2
 11469                           
 11470                           ;mcc_generated_files/i2c1_master.c: 310:     }
 11471  0035FE  EF19  F01B         	goto	i2l445
 11472  003602                     i2l4126:
 11473                           
 11474                           ;mcc_generated_files/i2c1_master.c: 312:     {;mcc_generated_files/i2c1_master.c: 313:  
      +                                 I2C1_Status.callbackTable[idx] = I2C1_CallbackReturnStop;
 11475  003602  5005               	movf	i2I2C1_SetCallback@idx^0,w,c
 11476  003604  0D02               	mullw	2
 11477  003606  0E00               	movlw	low _I2C1_Status
 11478  003608  24F3               	addwf	243,w,c
 11479  00360A  6ED9               	movwf	fsr2l,c
 11480  00360C  0E01               	movlw	high _I2C1_Status
 11481  00360E  20F4               	addwfc	prodh,w,c
 11482  003610  6EDA               	movwf	fsr2h,c
 11483  003612  0EC6               	movlw	low _I2C1_CallbackReturnStop
 11484  003614  6EDE               	movwf	postinc2,c
 11485  003616  0E3E               	movlw	high _I2C1_CallbackReturnStop
 11486  003618  6EDD               	movwf	postdec2,c
 11487                           
 11488                           ;mcc_generated_files/i2c1_master.c: 314:         I2C1_Status.callbackPayload[idx] = ((vo
      +                          id*)0);
 11489  00361A  5005               	movf	i2I2C1_SetCallback@idx^0,w,c
 11490  00361C  0D02               	mullw	2
 11491  00361E  0E0C               	movlw	low (_I2C1_Status+12)
 11492  003620  24F3               	addwf	243,w,c
 11493  003622  6ED9               	movwf	fsr2l,c
 11494  003624  0E01               	movlw	high (_I2C1_Status+12)
 11495  003626  20F4               	addwfc	prodh,w,c
 11496  003628  6EDA               	movwf	fsr2h,c
 11497  00362A  0E00               	movlw	0
 11498  00362C  6EDE               	movwf	postinc2,c
 11499  00362E  0E00               	movlw	0
 11500  003630  6EDD               	movwf	postdec2,c
 11501  003632                     i2l445:
 11502  003632  0012               	return		;funcret
 11503  003634                     __end_ofi2_I2C1_SetCallback:
 11504                           	callstack 0
 11505                           
 11506 ;; *************** function i2_I2C1_SetBuffer *****************
 11507 ;; Defined at:
 11508 ;;		line 264 in file "mcc_generated_files/i2c1_master.c"
 11509 ;; Parameters:    Size  Location     Type
 11510 ;;  buffer          2    0[COMRAM] PTR void 
 11511 ;;		 -> I2C1_Read1ByteRegister@returnValue.data(3), I2C1_Read2ByteRegister@returnValue.data(3), I2C1_Write1ByteRegister@
      +data.data(3), I2C1_Write2ByteRegister@data.data(3), 
 11512 ;;		 -> I2C1_ReadDataBlock@reg(1), I2C1_ReadDataBlock@bufferBlock(4), bufferBlock.data(3), I2C1_Write2ByteRegister@reg(1
      +), 
 11513 ;;		 -> I2C1_Write2ByteRegister@data(2), I2C1_Write1ByteRegister@reg(1), I2C1_Write1ByteRegister@data(1), I2C1_Read2Byte
      +Register@reg(1), 
 11514 ;;		 -> I2C1_Read2ByteRegister@returnValue(2), NULL(0), I2C1_Read1ByteRegister@reg(1), I2C1_Read1ByteRegister@returnValu
      +e(1), 
 11515 ;;  bufferSize      2    2[COMRAM] unsigned int 
 11516 ;; Auto vars:     Size  Location     Type
 11517 ;;		None
 11518 ;; Return value:  Size  Location     Type
 11519 ;;                  1    wreg      void 
 11520 ;; Registers used:
 11521 ;;		wreg, status,2, status,0
 11522 ;; Tracked objects:
 11523 ;;		On entry : 0/0
 11524 ;;		On exit  : 0/0
 11525 ;;		Unchanged: 0/0
 11526 ;; Data sizes:     COMRAM   BANK0   BANK1   BANK2   BANK3   BANK4   BANK5   BANK6   BANK7   BANK8   BANK9  BANK10  BANK1
      +1  BANK12  BANK13  BANK14
 11527 ;;      Params:         4       0       0       0       0       0       0       0       0       0       0       0       
      +0       0       0       0
 11528 ;;      Locals:         0       0       0       0       0       0       0       0       0       0       0       0       
      +0       0       0       0
 11529 ;;      Temps:          0       0       0       0       0       0       0       0       0       0       0       0       
      +0       0       0       0
 11530 ;;      Totals:         4       0       0       0       0       0       0       0       0       0       0       0       
      +0       0       0       0
 11531 ;;Total ram usage:        4 bytes
 11532 ;; Hardware stack levels used: 1
 11533 ;; This function calls:
 11534 ;;		Nothing
 11535 ;; This function is called by:
 11536 ;;		_rd1RegCompleteHandler
 11537 ;;		_rd2RegCompleteHandler
 11538 ;;		_wr1RegCompleteHandler
 11539 ;;		_wr2RegCompleteHandler
 11540 ;;		_rdBlkRegCompleteHandler
 11541 ;; This function uses a non-reentrant model
 11542 ;;
 11543                           
 11544                           	psect	text92
 11545  003C68                     __ptext92:
 11546                           	callstack 0
 11547  003C68                     i2_I2C1_SetBuffer:
 11548                           	callstack 17
 11549  003C68                     
 11550                           ;mcc_generated_files/i2c1_master.c: 264: void I2C1_SetBuffer(void *buffer, size_t buffer
      +                          Size);mcc_generated_files/i2c1_master.c: 265: {;mcc_generated_files/i2c1_master.c: 266: 
      +                              if(I2C1_Status.bufferFree)
 11551  003C68  0101               	movlb	1	; () banked
 11552  003C6A  A723               	btfss	(_I2C1_Status+35)& (0+255),3,b
 11553  003C6C  EF3A  F01E         	goto	i2u354_41
 11554  003C70  EF3C  F01E         	goto	i2u354_40
 11555  003C74                     i2u354_41:
 11556  003C74  EF45  F01E         	goto	i2l422
 11557  003C78                     i2u354_40:
 11558  003C78                     
 11559                           ; BSR set to: 1
 11560                           ;mcc_generated_files/i2c1_master.c: 267:     {;mcc_generated_files/i2c1_master.c: 268:  
      +                                 I2C1_Status.data_ptr = buffer;
 11561  003C78  C001  F11D         	movff	i2I2C1_SetBuffer@buffer,_I2C1_Status+29
 11562  003C7C  C002  F11E         	movff	i2I2C1_SetBuffer@buffer+1,_I2C1_Status+30
 11563  003C80                     
 11564                           ; BSR set to: 1
 11565                           ;mcc_generated_files/i2c1_master.c: 269:         I2C1_Status.data_length = bufferSize;
 11566  003C80  C003  F11F         	movff	i2I2C1_SetBuffer@bufferSize,_I2C1_Status+31
 11567  003C84  C004  F120         	movff	i2I2C1_SetBuffer@bufferSize+1,_I2C1_Status+32
 11568  003C88                     
 11569                           ; BSR set to: 1
 11570                           ;mcc_generated_files/i2c1_master.c: 270:         I2C1_Status.bufferFree = 0;
 11571  003C88  9723               	bcf	(_I2C1_Status+35)& (0+255),3,b
 11572  003C8A                     i2l422:
 11573                           
 11574                           ; BSR set to: 1
 11575  003C8A  0012               	return		;funcret
 11576  003C8C                     __end_ofi2_I2C1_SetBuffer:
 11577                           	callstack 0
 11578                           
 11579 ;; *************** function _I2C1_MasterStop *****************
 11580 ;; Defined at:
 11581 ;;		line 594 in file "mcc_generated_files/i2c1_master.c"
 11582 ;; Parameters:    Size  Location     Type
 11583 ;;		None
 11584 ;; Auto vars:     Size  Location     Type
 11585 ;;		None
 11586 ;; Return value:  Size  Location     Type
 11587 ;;                  1    wreg      void 
 11588 ;; Registers used:
 11589 ;;		None
 11590 ;; Tracked objects:
 11591 ;;		On entry : 0/0
 11592 ;;		On exit  : 0/0
 11593 ;;		Unchanged: 0/0
 11594 ;; Data sizes:     COMRAM   BANK0   BANK1   BANK2   BANK3   BANK4   BANK5   BANK6   BANK7   BANK8   BANK9  BANK10  BANK1
      +1  BANK12  BANK13  BANK14
 11595 ;;      Params:         0       0       0       0       0       0       0       0       0       0       0       0       
      +0       0       0       0
 11596 ;;      Locals:         0       0       0       0       0       0       0       0       0       0       0       0       
      +0       0       0       0
 11597 ;;      Temps:          0       0       0       0       0       0       0       0       0       0       0       0       
      +0       0       0       0
 11598 ;;      Totals:         0       0       0       0       0       0       0       0       0       0       0       0       
      +0       0       0       0
 11599 ;;Total ram usage:        0 bytes
 11600 ;; Hardware stack levels used: 1
 11601 ;; This function calls:
 11602 ;;		Nothing
 11603 ;; This function is called by:
 11604 ;;		_I2C1_DO_SEND_STOP
 11605 ;; This function uses a non-reentrant model
 11606 ;;
 11607                           
 11608                           	psect	text93
 11609  003ECA                     __ptext93:
 11610                           	callstack 0
 11611  003ECA                     _I2C1_MasterStop:
 11612                           	callstack 17
 11613  003ECA                     
 11614                           ;mcc_generated_files/i2c1_master.c: 596:     SSP1CON2bits.PEN = 1;
 11615  003ECA  84C5               	bsf	197,2,c	;volatile
 11616  003ECC  0012               	return		;funcret
 11617  003ECE                     __end_of_I2C1_MasterStop:
 11618                           	callstack 0
 11619                           
 11620 ;; *************** function _I2C1_MasterEnableRestart *****************
 11621 ;; Defined at:
 11622 ;;		line 574 in file "mcc_generated_files/i2c1_master.c"
 11623 ;; Parameters:    Size  Location     Type
 11624 ;;		None
 11625 ;; Auto vars:     Size  Location     Type
 11626 ;;		None
 11627 ;; Return value:  Size  Location     Type
 11628 ;;                  1    wreg      void 
 11629 ;; Registers used:
 11630 ;;		None
 11631 ;; Tracked objects:
 11632 ;;		On entry : 0/0
 11633 ;;		On exit  : 0/0
 11634 ;;		Unchanged: 0/0
 11635 ;; Data sizes:     COMRAM   BANK0   BANK1   BANK2   BANK3   BANK4   BANK5   BANK6   BANK7   BANK8   BANK9  BANK10  BANK1
      +1  BANK12  BANK13  BANK14
 11636 ;;      Params:         0       0       0       0       0       0       0       0       0       0       0       0       
      +0       0       0       0
 11637 ;;      Locals:         0       0       0       0       0       0       0       0       0       0       0       0       
      +0       0       0       0
 11638 ;;      Temps:          0       0       0       0       0       0       0       0       0       0       0       0       
      +0       0       0       0
 11639 ;;      Totals:         0       0       0       0       0       0       0       0       0       0       0       0       
      +0       0       0       0
 11640 ;;Total ram usage:        0 bytes
 11641 ;; Hardware stack levels used: 1
 11642 ;; This function calls:
 11643 ;;		Nothing
 11644 ;; This function is called by:
 11645 ;;		_I2C1_DO_SEND_RESTART_READ
 11646 ;;		_I2C1_DO_SEND_RESTART_WRITE
 11647 ;;		_I2C1_DO_SEND_RESTART
 11648 ;;		_I2C1_DO_RX_EMPTY
 11649 ;; This function uses a non-reentrant model
 11650 ;;
 11651                           
 11652                           	psect	text94
 11653  003ECE                     __ptext94:
 11654                           	callstack 0
 11655  003ECE                     _I2C1_MasterEnableRestart:
 11656                           	callstack 17
 11657  003ECE                     
 11658                           ;mcc_generated_files/i2c1_master.c: 576:     SSP1CON2bits.RSEN = 1;
 11659  003ECE  82C5               	bsf	197,1,c	;volatile
 11660  003ED0  0012               	return		;funcret
 11661  003ED2                     __end_of_I2C1_MasterEnableRestart:
 11662                           	callstack 0
 11663                           
 11664 ;; *************** function _EUSART2_Transmit_ISR *****************
 11665 ;; Defined at:
 11666 ;;		line 206 in file "mcc_generated_files/eusart2.c"
 11667 ;; Parameters:    Size  Location     Type
 11668 ;;		None
 11669 ;; Auto vars:     Size  Location     Type
 11670 ;;		None
 11671 ;; Return value:  Size  Location     Type
 11672 ;;                  1    wreg      void 
 11673 ;; Registers used:
 11674 ;;		wreg, fsr2l, fsr2h, status,2, status,0
 11675 ;; Tracked objects:
 11676 ;;		On entry : 0/0
 11677 ;;		On exit  : 0/0
 11678 ;;		Unchanged: 0/0
 11679 ;; Data sizes:     COMRAM   BANK0   BANK1   BANK2   BANK3   BANK4   BANK5   BANK6   BANK7   BANK8   BANK9  BANK10  BANK1
      +1  BANK12  BANK13  BANK14
 11680 ;;      Params:         0       0       0       0       0       0       0       0       0       0       0       0       
      +0       0       0       0
 11681 ;;      Locals:         0       0       0       0       0       0       0       0       0       0       0       0       
      +0       0       0       0
 11682 ;;      Temps:          0       0       0       0       0       0       0       0       0       0       0       0       
      +0       0       0       0
 11683 ;;      Totals:         0       0       0       0       0       0       0       0       0       0       0       0       
      +0       0       0       0
 11684 ;;Total ram usage:        0 bytes
 11685 ;; Hardware stack levels used: 1
 11686 ;; This function calls:
 11687 ;;		Nothing
 11688 ;; This function is called by:
 11689 ;;		_EUSART2_Initialize
 11690 ;;		_INTERRUPT_InterruptManager
 11691 ;; This function uses a non-reentrant model
 11692 ;;
 11693                           
 11694                           	psect	text95
 11695  0039C0                     __ptext95:
 11696                           	callstack 0
 11697  0039C0                     _EUSART2_Transmit_ISR:
 11698                           	callstack 21
 11699  0039C0                     
 11700                           ;mcc_generated_files/eusart2.c: 210:     if(sizeof(eusart2TxBuffer) > eusart2TxBufferRem
      +                          aining)
 11701  0039C0  0E08               	movlw	8
 11702  0039C2  6047               	cpfslt	_eusart2TxBufferRemaining^0,c	;volatile
 11703  0039C4  EFE6  F01C         	goto	i2u465_41
 11704  0039C8  EFE8  F01C         	goto	i2u465_40
 11705  0039CC                     i2u465_41:
 11706  0039CC  EFFE  F01C         	goto	i2l216
 11707  0039D0                     i2u465_40:
 11708  0039D0                     
 11709                           ;mcc_generated_files/eusart2.c: 211:     {;mcc_generated_files/eusart2.c: 212:         T
      +                          XREG2 = eusart2TxBuffer[eusart2TxTail++];
 11710  0039D0  0E34               	movlw	low _eusart2TxBuffer
 11711  0039D2  2445               	addwf	_eusart2TxTail^0,w,c	;volatile
 11712  0039D4  6ED9               	movwf	fsr2l,c
 11713  0039D6  6ADA               	clrf	fsr2h,c
 11714  0039D8  0E01               	movlw	high _eusart2TxBuffer
 11715  0039DA  22DA               	addwfc	fsr2h,f,c
 11716  0039DC  50DF               	movf	indf2,w,c
 11717  0039DE  6EA9               	movwf	169,c	;volatile
 11718  0039E0  2A45               	incf	_eusart2TxTail^0,f,c	;volatile
 11719  0039E2                     
 11720                           ;mcc_generated_files/eusart2.c: 213:         if(sizeof(eusart2TxBuffer) <= eusart2TxTail
      +                          )
 11721  0039E2  0E07               	movlw	7
 11722  0039E4  6445               	cpfsgt	_eusart2TxTail^0,c	;volatile
 11723  0039E6  EFF7  F01C         	goto	i2u466_41
 11724  0039EA  EFF9  F01C         	goto	i2u466_40
 11725  0039EE                     i2u466_41:
 11726  0039EE  EFFB  F01C         	goto	i2l5350
 11727  0039F2                     i2u466_40:
 11728  0039F2                     
 11729                           ;mcc_generated_files/eusart2.c: 214:         {;mcc_generated_files/eusart2.c: 215:      
      +                                 eusart2TxTail = 0;
 11730  0039F2  0E00               	movlw	0
 11731  0039F4  6E45               	movwf	_eusart2TxTail^0,c	;volatile
 11732  0039F6                     i2l5350:
 11733                           
 11734                           ;mcc_generated_files/eusart2.c: 217:         eusart2TxBufferRemaining++;
 11735  0039F6  2A47               	incf	_eusart2TxBufferRemaining^0,f,c	;volatile
 11736                           
 11737                           ;mcc_generated_files/eusart2.c: 218:     }
 11738  0039F8  EFFF  F01C         	goto	i2l219
 11739  0039FC                     i2l216:
 11740                           
 11741                           ;mcc_generated_files/eusart2.c: 220:     {;mcc_generated_files/eusart2.c: 221:         P
      +                          IE3bits.TX2IE = 0;
 11742  0039FC  98A3               	bcf	163,4,c	;volatile
 11743  0039FE                     i2l219:
 11744  0039FE  0012               	return		;funcret
 11745  003A00                     __end_of_EUSART2_Transmit_ISR:
 11746                           	callstack 0
 11747                           
 11748 ;; *************** function _EUSART2_Receive_ISR *****************
 11749 ;; Defined at:
 11750 ;;		line 225 in file "mcc_generated_files/eusart2.c"
 11751 ;; Parameters:    Size  Location     Type
 11752 ;;		None
 11753 ;; Auto vars:     Size  Location     Type
 11754 ;;		None
 11755 ;; Return value:  Size  Location     Type
 11756 ;;                  1    wreg      void 
 11757 ;; Registers used:
 11758 ;;		wreg, fsr2l, fsr2h, status,2, status,0, pcl, pclath, pclatu, tosl, cstack
 11759 ;; Tracked objects:
 11760 ;;		On entry : 0/0
 11761 ;;		On exit  : 0/0
 11762 ;;		Unchanged: 0/0
 11763 ;; Data sizes:     COMRAM   BANK0   BANK1   BANK2   BANK3   BANK4   BANK5   BANK6   BANK7   BANK8   BANK9  BANK10  BANK1
      +1  BANK12  BANK13  BANK14
 11764 ;;      Params:         0       0       0       0       0       0       0       0       0       0       0       0       
      +0       0       0       0
 11765 ;;      Locals:         0       0       0       0       0       0       0       0       0       0       0       0       
      +0       0       0       0
 11766 ;;      Temps:          0       0       0       0       0       0       0       0       0       0       0       0       
      +0       0       0       0
 11767 ;;      Totals:         0       0       0       0       0       0       0       0       0       0       0       0       
      +0       0       0       0
 11768 ;;Total ram usage:        0 bytes
 11769 ;; Hardware stack levels used: 1
 11770 ;; Hardware stack levels required when called: 2
 11771 ;; This function calls:
 11772 ;;		Absolute function
 11773 ;;		_EUSART2_DefaultErrorHandler
 11774 ;;		_EUSART2_DefaultFramingErrorHandler
 11775 ;;		_EUSART2_DefaultOverrunErrorHandler
 11776 ;;		_EUSART2_RxDataHandler
 11777 ;; This function is called by:
 11778 ;;		_EUSART2_Initialize
 11779 ;;		_INTERRUPT_InterruptManager
 11780 ;; This function uses a non-reentrant model
 11781 ;;
 11782                           
 11783                           	psect	text96
 11784  00320A                     __ptext96:
 11785                           	callstack 0
 11786  00320A                     _EUSART2_Receive_ISR:
 11787                           	callstack 19
 11788  00320A                     
 11789                           ;mcc_generated_files/eusart2.c: 228:     eusart2RxStatusBuffer[eusart2RxHead].status = 0
      +                          ;
 11790  00320A  0E24               	movlw	low _eusart2RxStatusBuffer
 11791  00320C  2444               	addwf	_eusart2RxHead^0,w,c	;volatile
 11792  00320E  6ED9               	movwf	fsr2l,c
 11793  003210  6ADA               	clrf	fsr2h,c
 11794  003212  0E01               	movlw	high _eusart2RxStatusBuffer
 11795  003214  22DA               	addwfc	fsr2h,f,c
 11796  003216  0E00               	movlw	0
 11797  003218  6EDF               	movwf	indf2,c
 11798  00321A                     
 11799                           ;mcc_generated_files/eusart2.c: 230:     if(RCSTA2bits.FERR){
 11800  00321A  A49C               	btfss	156,2,c	;volatile
 11801  00321C  EF12  F019         	goto	i2u467_41
 11802  003220  EF14  F019         	goto	i2u467_40
 11803  003224                     i2u467_41:
 11804  003224  EF29  F019         	goto	i2l5360
 11805  003228                     i2u467_40:
 11806  003228                     
 11807                           ;mcc_generated_files/eusart2.c: 231:         eusart2RxStatusBuffer[eusart2RxHead].ferr =
      +                           1;
 11808  003228  0E24               	movlw	low _eusart2RxStatusBuffer
 11809  00322A  2444               	addwf	_eusart2RxHead^0,w,c	;volatile
 11810  00322C  6ED9               	movwf	fsr2l,c
 11811  00322E  6ADA               	clrf	fsr2h,c
 11812  003230  0E01               	movlw	high _eusart2RxStatusBuffer
 11813  003232  22DA               	addwfc	fsr2h,f,c
 11814  003234  0101               	movlb	1	; () banked
 11815  003236  82DF               	bsf	indf2,1,c
 11816  003238                     
 11817                           ; BSR set to: 1
 11818                           ;mcc_generated_files/eusart2.c: 232:         EUSART2_FramingErrorHandler();
 11819  003238  D802               	call	i2u468_48
 11820  00323A  EF29  F019         	goto	i2u468_49
 11821  00323E                     i2u468_48:
 11822  00323E  0005               	push	
 11823  003240  6EFA               	movwf	pclath,c
 11824  003242  515F               	movf	_EUSART2_FramingErrorHandler& (0+255),w,b
 11825  003244  6EFD               	movwf	tosl,c
 11826  003246  5160               	movf	(_EUSART2_FramingErrorHandler+1)& (0+255),w,b
 11827  003248  6EFE               	movwf	tosh,c
 11828  00324A  50F8               	movf	tblptru,w,c
 11829  00324C  6EFF               	movwf	tosu,c
 11830  00324E  50FA               	movf	pclath,w,c
 11831  003250  0012               	return		;indir
 11832  003252                     i2u468_49:
 11833  003252                     i2l5360:
 11834                           
 11835                           ;mcc_generated_files/eusart2.c: 235:     if(RCSTA2bits.OERR){
 11836  003252  A29C               	btfss	156,1,c	;volatile
 11837  003254  EF2E  F019         	goto	i2u469_41
 11838  003258  EF30  F019         	goto	i2u469_40
 11839  00325C                     i2u469_41:
 11840  00325C  EF45  F019         	goto	i2l5366
 11841  003260                     i2u469_40:
 11842  003260                     
 11843                           ;mcc_generated_files/eusart2.c: 236:         eusart2RxStatusBuffer[eusart2RxHead].oerr =
      +                           1;
 11844  003260  0E24               	movlw	low _eusart2RxStatusBuffer
 11845  003262  2444               	addwf	_eusart2RxHead^0,w,c	;volatile
 11846  003264  6ED9               	movwf	fsr2l,c
 11847  003266  6ADA               	clrf	fsr2h,c
 11848  003268  0E01               	movlw	high _eusart2RxStatusBuffer
 11849  00326A  22DA               	addwfc	fsr2h,f,c
 11850  00326C  0101               	movlb	1	; () banked
 11851  00326E  84DF               	bsf	indf2,2,c
 11852  003270                     
 11853                           ; BSR set to: 1
 11854                           ;mcc_generated_files/eusart2.c: 237:         EUSART2_OverrunErrorHandler();
 11855  003270  D802               	call	i2u470_48
 11856  003272  EF45  F019         	goto	i2u470_49
 11857  003276                     i2u470_48:
 11858  003276  0005               	push	
 11859  003278  6EFA               	movwf	pclath,c
 11860  00327A  515D               	movf	_EUSART2_OverrunErrorHandler& (0+255),w,b
 11861  00327C  6EFD               	movwf	tosl,c
 11862  00327E  515E               	movf	(_EUSART2_OverrunErrorHandler+1)& (0+255),w,b
 11863  003280  6EFE               	movwf	tosh,c
 11864  003282  50F8               	movf	tblptru,w,c
 11865  003284  6EFF               	movwf	tosu,c
 11866  003286  50FA               	movf	pclath,w,c
 11867  003288  0012               	return		;indir
 11868  00328A                     i2u470_49:
 11869  00328A                     i2l5366:
 11870                           
 11871                           ;mcc_generated_files/eusart2.c: 240:     if(eusart2RxStatusBuffer[eusart2RxHead].status)
      +                          {
 11872  00328A  0E24               	movlw	low _eusart2RxStatusBuffer
 11873  00328C  2444               	addwf	_eusart2RxHead^0,w,c	;volatile
 11874  00328E  6ED9               	movwf	fsr2l,c
 11875  003290  6ADA               	clrf	fsr2h,c
 11876  003292  0E01               	movlw	high _eusart2RxStatusBuffer
 11877  003294  22DA               	addwfc	fsr2h,f,c
 11878  003296  50DF               	movf	indf2,w,c
 11879  003298  B4D8               	btfsc	status,2,c
 11880  00329A  EF51  F019         	goto	i2u471_41
 11881  00329E  EF53  F019         	goto	i2u471_40
 11882  0032A2                     i2u471_41:
 11883  0032A2  EF63  F019         	goto	i2l5370
 11884  0032A6                     i2u471_40:
 11885  0032A6                     
 11886                           ;mcc_generated_files/eusart2.c: 241:         EUSART2_ErrorHandler();
 11887  0032A6  D802               	call	i2u472_48
 11888  0032A8  EF61  F019         	goto	i2u472_49
 11889  0032AC                     i2u472_48:
 11890  0032AC  0005               	push	
 11891  0032AE  0101               	movlb	1	; () banked
 11892  0032B0  6EFA               	movwf	pclath,c
 11893  0032B2  515B               	movf	_EUSART2_ErrorHandler& (0+255),w,b
 11894  0032B4  6EFD               	movwf	tosl,c
 11895  0032B6  515C               	movf	(_EUSART2_ErrorHandler+1)& (0+255),w,b
 11896  0032B8  6EFE               	movwf	tosh,c
 11897  0032BA  50F8               	movf	tblptru,w,c
 11898  0032BC  6EFF               	movwf	tosu,c
 11899  0032BE  50FA               	movf	pclath,w,c
 11900  0032C0  0012               	return		;indir
 11901  0032C2                     i2u472_49:
 11902                           
 11903                           ;mcc_generated_files/eusart2.c: 242:     } else {
 11904  0032C2  EF65  F019         	goto	i2l226
 11905  0032C6                     i2l5370:
 11906                           
 11907                           ;mcc_generated_files/eusart2.c: 243:         EUSART2_RxDataHandler();
 11908  0032C6  ECD3  F01D         	call	_EUSART2_RxDataHandler	;wreg free
 11909  0032CA                     i2l226:
 11910  0032CA  0012               	return		;funcret
 11911  0032CC                     __end_of_EUSART2_Receive_ISR:
 11912                           	callstack 0
 11913                           
 11914 ;; *************** function _EUSART2_DefaultOverrunErrorHandler *****************
 11915 ;; Defined at:
 11916 ;;		line 261 in file "mcc_generated_files/eusart2.c"
 11917 ;; Parameters:    Size  Location     Type
 11918 ;;		None
 11919 ;; Auto vars:     Size  Location     Type
 11920 ;;		None
 11921 ;; Return value:  Size  Location     Type
 11922 ;;                  1    wreg      void 
 11923 ;; Registers used:
 11924 ;;		None
 11925 ;; Tracked objects:
 11926 ;;		On entry : 0/0
 11927 ;;		On exit  : 0/0
 11928 ;;		Unchanged: 0/0
 11929 ;; Data sizes:     COMRAM   BANK0   BANK1   BANK2   BANK3   BANK4   BANK5   BANK6   BANK7   BANK8   BANK9  BANK10  BANK1
      +1  BANK12  BANK13  BANK14
 11930 ;;      Params:         0       0       0       0       0       0       0       0       0       0       0       0       
      +0       0       0       0
 11931 ;;      Locals:         0       0       0       0       0       0       0       0       0       0       0       0       
      +0       0       0       0
 11932 ;;      Temps:          0       0       0       0       0       0       0       0       0       0       0       0       
      +0       0       0       0
 11933 ;;      Totals:         0       0       0       0       0       0       0       0       0       0       0       0       
      +0       0       0       0
 11934 ;;Total ram usage:        0 bytes
 11935 ;; Hardware stack levels used: 1
 11936 ;; This function calls:
 11937 ;;		Nothing
 11938 ;; This function is called by:
 11939 ;;		_EUSART2_Initialize
 11940 ;;		_EUSART2_Receive_ISR
 11941 ;; This function uses a non-reentrant model
 11942 ;;
 11943                           
 11944                           	psect	text97
 11945  003E8A                     __ptext97:
 11946                           	callstack 0
 11947  003E8A                     _EUSART2_DefaultOverrunErrorHandler:
 11948                           	callstack 20
 11949  003E8A                     
 11950                           ;mcc_generated_files/eusart2.c: 264:     RCSTA2bits.CREN = 0;
 11951  003E8A  989C               	bcf	156,4,c	;volatile
 11952                           
 11953                           ;mcc_generated_files/eusart2.c: 265:     RCSTA2bits.CREN = 1;
 11954  003E8C  889C               	bsf	156,4,c	;volatile
 11955  003E8E  0012               	return		;funcret
 11956  003E90                     __end_of_EUSART2_DefaultOverrunErrorHandler:
 11957                           	callstack 0
 11958                           
 11959 ;; *************** function _EUSART2_DefaultFramingErrorHandler *****************
 11960 ;; Defined at:
 11961 ;;		line 259 in file "mcc_generated_files/eusart2.c"
 11962 ;; Parameters:    Size  Location     Type
 11963 ;;		None
 11964 ;; Auto vars:     Size  Location     Type
 11965 ;;		None
 11966 ;; Return value:  Size  Location     Type
 11967 ;;                  1    wreg      void 
 11968 ;; Registers used:
 11969 ;;		None
 11970 ;; Tracked objects:
 11971 ;;		On entry : 0/0
 11972 ;;		On exit  : 0/0
 11973 ;;		Unchanged: 0/0
 11974 ;; Data sizes:     COMRAM   BANK0   BANK1   BANK2   BANK3   BANK4   BANK5   BANK6   BANK7   BANK8   BANK9  BANK10  BANK1
      +1  BANK12  BANK13  BANK14
 11975 ;;      Params:         0       0       0       0       0       0       0       0       0       0       0       0       
      +0       0       0       0
 11976 ;;      Locals:         0       0       0       0       0       0       0       0       0       0       0       0       
      +0       0       0       0
 11977 ;;      Temps:          0       0       0       0       0       0       0       0       0       0       0       0       
      +0       0       0       0
 11978 ;;      Totals:         0       0       0       0       0       0       0       0       0       0       0       0       
      +0       0       0       0
 11979 ;;Total ram usage:        0 bytes
 11980 ;; Hardware stack levels used: 1
 11981 ;; This function calls:
 11982 ;;		Nothing
 11983 ;; This function is called by:
 11984 ;;		_EUSART2_Initialize
 11985 ;;		_EUSART2_Receive_ISR
 11986 ;; This function uses a non-reentrant model
 11987 ;;
 11988                           
 11989                           	psect	text98
 11990  003ED2                     __ptext98:
 11991                           	callstack 0
 11992  003ED2                     _EUSART2_DefaultFramingErrorHandler:
 11993                           	callstack 20
 11994  003ED2  0012               	return		;funcret
 11995  003ED4                     __end_of_EUSART2_DefaultFramingErrorHandler:
 11996                           	callstack 0
 11997                           
 11998 ;; *************** function _EUSART2_DefaultErrorHandler *****************
 11999 ;; Defined at:
 12000 ;;		line 269 in file "mcc_generated_files/eusart2.c"
 12001 ;; Parameters:    Size  Location     Type
 12002 ;;		None
 12003 ;; Auto vars:     Size  Location     Type
 12004 ;;		None
 12005 ;; Return value:  Size  Location     Type
 12006 ;;                  1    wreg      void 
 12007 ;; Registers used:
 12008 ;;		wreg, fsr2l, fsr2h, status,2, status,0, cstack
 12009 ;; Tracked objects:
 12010 ;;		On entry : 0/0
 12011 ;;		On exit  : 0/0
 12012 ;;		Unchanged: 0/0
 12013 ;; Data sizes:     COMRAM   BANK0   BANK1   BANK2   BANK3   BANK4   BANK5   BANK6   BANK7   BANK8   BANK9  BANK10  BANK1
      +1  BANK12  BANK13  BANK14
 12014 ;;      Params:         0       0       0       0       0       0       0       0       0       0       0       0       
      +0       0       0       0
 12015 ;;      Locals:         0       0       0       0       0       0       0       0       0       0       0       0       
      +0       0       0       0
 12016 ;;      Temps:          0       0       0       0       0       0       0       0       0       0       0       0       
      +0       0       0       0
 12017 ;;      Totals:         0       0       0       0       0       0       0       0       0       0       0       0       
      +0       0       0       0
 12018 ;;Total ram usage:        0 bytes
 12019 ;; Hardware stack levels used: 1
 12020 ;; Hardware stack levels required when called: 1
 12021 ;; This function calls:
 12022 ;;		_EUSART2_RxDataHandler
 12023 ;; This function is called by:
 12024 ;;		_EUSART2_Initialize
 12025 ;;		_EUSART2_Receive_ISR
 12026 ;; This function uses a non-reentrant model
 12027 ;;
 12028                           
 12029                           	psect	text99
 12030  003E90                     __ptext99:
 12031                           	callstack 0
 12032  003E90                     _EUSART2_DefaultErrorHandler:
 12033                           	callstack 19
 12034  003E90                     
 12035                           ;mcc_generated_files/eusart2.c: 270:     EUSART2_RxDataHandler();
 12036  003E90  ECD3  F01D         	call	_EUSART2_RxDataHandler	;wreg free
 12037  003E94  0012               	return		;funcret
 12038  003E96                     __end_of_EUSART2_DefaultErrorHandler:
 12039                           	callstack 0
 12040                           
 12041 ;; *************** function _EUSART2_RxDataHandler *****************
 12042 ;; Defined at:
 12043 ;;		line 249 in file "mcc_generated_files/eusart2.c"
 12044 ;; Parameters:    Size  Location     Type
 12045 ;;		None
 12046 ;; Auto vars:     Size  Location     Type
 12047 ;;		None
 12048 ;; Return value:  Size  Location     Type
 12049 ;;                  1    wreg      void 
 12050 ;; Registers used:
 12051 ;;		wreg, fsr2l, fsr2h, status,2, status,0
 12052 ;; Tracked objects:
 12053 ;;		On entry : 0/0
 12054 ;;		On exit  : 0/0
 12055 ;;		Unchanged: 0/0
 12056 ;; Data sizes:     COMRAM   BANK0   BANK1   BANK2   BANK3   BANK4   BANK5   BANK6   BANK7   BANK8   BANK9  BANK10  BANK1
      +1  BANK12  BANK13  BANK14
 12057 ;;      Params:         0       0       0       0       0       0       0       0       0       0       0       0       
      +0       0       0       0
 12058 ;;      Locals:         0       0       0       0       0       0       0       0       0       0       0       0       
      +0       0       0       0
 12059 ;;      Temps:          0       0       0       0       0       0       0       0       0       0       0       0       
      +0       0       0       0
 12060 ;;      Totals:         0       0       0       0       0       0       0       0       0       0       0       0       
      +0       0       0       0
 12061 ;;Total ram usage:        0 bytes
 12062 ;; Hardware stack levels used: 1
 12063 ;; This function calls:
 12064 ;;		Nothing
 12065 ;; This function is called by:
 12066 ;;		_EUSART2_Receive_ISR
 12067 ;;		_EUSART2_DefaultErrorHandler
 12068 ;; This function uses a non-reentrant model
 12069 ;;
 12070                           
 12071                           	psect	text100
 12072  003BA6                     __ptext100:
 12073                           	callstack 0
 12074  003BA6                     _EUSART2_RxDataHandler:
 12075                           	callstack 20
 12076  003BA6                     
 12077                           ;mcc_generated_files/eusart2.c: 251:     eusart2RxBuffer[eusart2RxHead++] = RCREG2;
 12078  003BA6  0E2C               	movlw	low _eusart2RxBuffer
 12079  003BA8  2444               	addwf	_eusart2RxHead^0,w,c	;volatile
 12080  003BAA  6ED9               	movwf	fsr2l,c
 12081  003BAC  6ADA               	clrf	fsr2h,c
 12082  003BAE  0E01               	movlw	high _eusart2RxBuffer
 12083  003BB0  22DA               	addwfc	fsr2h,f,c
 12084  003BB2  CFAA FFDF          	movff	4010,indf2	;volatile
 12085  003BB6  2A44               	incf	_eusart2RxHead^0,f,c	;volatile
 12086  003BB8                     
 12087                           ;mcc_generated_files/eusart2.c: 252:     if(sizeof(eusart2RxBuffer) <= eusart2RxHead)
 12088  003BB8  0E07               	movlw	7
 12089  003BBA  6444               	cpfsgt	_eusart2RxHead^0,c	;volatile
 12090  003BBC  EFE2  F01D         	goto	i2u402_41
 12091  003BC0  EFE4  F01D         	goto	i2u402_40
 12092  003BC4                     i2u402_41:
 12093  003BC4  EFE6  F01D         	goto	i2l4846
 12094  003BC8                     i2u402_40:
 12095  003BC8                     
 12096                           ;mcc_generated_files/eusart2.c: 253:     {;mcc_generated_files/eusart2.c: 254:         e
      +                          usart2RxHead = 0;
 12097  003BC8  0E00               	movlw	0
 12098  003BCA  6E44               	movwf	_eusart2RxHead^0,c	;volatile
 12099  003BCC                     i2l4846:
 12100                           
 12101                           ;mcc_generated_files/eusart2.c: 256:     eusart2RxCount++;
 12102  003BCC  2A42               	incf	_eusart2RxCount^0,f,c	;volatile
 12103  003BCE  0012               	return		;funcret
 12104  003BD0                     __end_of_EUSART2_RxDataHandler:
 12105                           	callstack 0
 12106                           
 12107                           	psect	text101
 12108  000000                     __ptext101:
 12109                           	callstack 0
 12110  000000                     
 12111                           	psect	rparam
 12112  0000                     
 12113                           	psect	temp
 12114  000048                     btemp:
 12115                           	callstack 0
 12116  000048                     	ds	1
 12117  0000                     int$flags	set	btemp
 12118  0000                     wtemp8	set	btemp+1
 12119  0000                     ttemp5	set	btemp+1
 12120  0000                     ttemp6	set	btemp+4
 12121  0000                     ttemp7	set	btemp+8
 12122                           
 12123                           	psect	config
 12124                           
 12125                           ;Config register CONFIG1L @ 0xFFF8
 12126                           ;	Watchdog Timer
 12127                           ;	WDTEN = OFF, Disabled - Controlled by SWDTEN bit
 12128                           ;	PLL Prescaler Selection
 12129                           ;	PLLDIV = 2, Divide by 2 (8 MHz oscillator input)
 12130                           ;	PLL Enable Configuration Bit
 12131                           ;	CFGPLLEN = ON, PLL Enabled
 12132                           ;	Stack Overflow/Underflow Reset
 12133                           ;	STVREN = ON, Enabled
 12134                           ;	Extended Instruction Set
 12135                           ;	XINST = OFF, Disabled
 12136  FFF8                     	org	65528
 12137  FFF8  AC                 	db	172
 12138                           
 12139                           ;Config register CONFIG1H @ 0xFFF9
 12140                           ;	CPU System Clock Postscaler
 12141                           ;	CPUDIV = OSC1, No CPU system clock divide
 12142                           ;	Code Protect
 12143                           ;	CP0 = OFF, Program memory is not code-protected
 12144  FFF9                     	org	65529
 12145  FFF9  F7                 	db	247
 12146                           
 12147                           ;Config register CONFIG2L @ 0xFFFA
 12148                           ;	Oscillator
 12149                           ;	OSC = INTOSCPLL, INTOSCPLL
 12150                           ;	T1OSC/SOSC Power Selection Bits
 12151                           ;	SOSCSEL = DIG, Digital (SCLKI) mode selected
 12152                           ;	EC Clock Out Enable Bit
 12153                           ;	CLKOEC = OFF, CLKO output disabled on the RA6 pin
 12154                           ;	Fail-Safe Clock Monitor
 12155                           ;	FCMEN = ON, Enabled
 12156                           ;	Internal External Oscillator Switch Over Mode
 12157                           ;	IESO = ON, Enabled
 12158  FFFA                     	org	65530
 12159  FFFA  D2                 	db	210
 12160                           
 12161                           ;Config register CONFIG2H @ 0xFFFB
 12162                           ;	Watchdog Postscaler
 12163                           ;	WDTPS = 32768, 1:32768
 12164  FFFB                     	org	65531
 12165  FFFB  FF                 	db	255
 12166                           
 12167                           ;Config register CONFIG3L @ 0xFFFC
 12168                           ;	DSWDT Clock Select
 12169                           ;	DSWDTOSC = INTOSCREF, DSWDT uses INTRC
 12170                           ;	RTCC Clock Select
 12171                           ;	RTCOSC = T1OSCREF, RTCC uses T1OSC/T1CKI
 12172                           ;	Deep Sleep BOR
 12173                           ;	DSBOREN = ON, Enabled
 12174                           ;	Deep Sleep Watchdog Timer
 12175                           ;	DSWDTEN = ON, Enabled
 12176                           ;	Deep Sleep Watchdog Postscaler
 12177                           ;	DSWDTPS = G2, 1:2,147,483,648 (25.7 days)
 12178  FFFC                     	org	65532
 12179  FFFC  FF                 	db	255
 12180                           
 12181                           ;Config register CONFIG3H @ 0xFFFD
 12182                           ;	IOLOCK One-Way Set Enable bit
 12183                           ;	IOL1WAY = ON, The IOLOCK bit (PPSCON<0>) can be set once
 12184                           ;	ADC 10 or 12 Bit Select
 12185                           ;	ADCSEL = BIT10, 10 - Bit ADC Enabled
 12186                           ;	MSSP address masking
 12187                           ;	MSSP7B_EN = MSK7, 7 Bit address masking mode
 12188  FFFD                     	org	65533
 12189  FFFD  FB                 	db	251
 12190                           
 12191                           ;Config register CONFIG4L @ 0xFFFE
 12192                           ;	Write/Erase Protect Page Start/End Location
 12193                           ;	WPFP = PAGE_63, Write Protect Program Flash Page 63
 12194                           ;	Write/Erase Protect Configuration Region
 12195                           ;	WPCFG = OFF, Configuration Words page not erase/write-protected
 12196  FFFE                     	org	65534
 12197  FFFE  BF                 	db	191
 12198                           
 12199                           ;Config register CONFIG4H @ 0xFFFF
 12200                           ;	Write Protect Disable bit
 12201                           ;	WPDIS = OFF, WPFP<6:0>/WPEND region ignored
 12202                           ;	Write/Erase Protect Region Select bit (valid when WPDIS = 0)
 12203                           ;	WPEND = PAGE_WPFP, Pages WPFP<6:0> through Configuration Words erase/write protected
 12204                           ;	Low Speed USB mode with 48 MHz system clock bit
 12205                           ;	LS48MHZ = SYS48X8, System clock at 48 MHz USB CLKEN divide-by is set to 8
 12206  FFFF                     	org	65535
 12207  FFFF  FB                 	db	251
 12208                           tosu	equ	0xFFF
 12209                           tosh	equ	0xFFE
 12210                           tosl	equ	0xFFD
 12211                           stkptr	equ	0xFFC
 12212                           pclatu	equ	0xFFB
 12213                           pclath	equ	0xFFA
 12214                           pcl	equ	0xFF9
 12215                           tblptru	equ	0xFF8
 12216                           tblptrh	equ	0xFF7
 12217                           tblptrl	equ	0xFF6
 12218                           tablat	equ	0xFF5
 12219                           prodh	equ	0xFF4
 12220                           prodl	equ	0xFF3
 12221                           indf0	equ	0xFEF
 12222                           postinc0	equ	0xFEE
 12223                           postdec0	equ	0xFED
 12224                           preinc0	equ	0xFEC
 12225                           plusw0	equ	0xFEB
 12226                           fsr0h	equ	0xFEA
 12227                           fsr0l	equ	0xFE9
 12228                           wreg	equ	0xFE8
 12229                           indf1	equ	0xFE7
 12230                           postinc1	equ	0xFE6
 12231                           postdec1	equ	0xFE5
 12232                           preinc1	equ	0xFE4
 12233                           plusw1	equ	0xFE3
 12234                           fsr1h	equ	0xFE2
 12235                           fsr1l	equ	0xFE1
 12236                           bsr	equ	0xFE0
 12237                           indf2	equ	0xFDF
 12238                           postinc2	equ	0xFDE
 12239                           postdec2	equ	0xFDD
 12240                           preinc2	equ	0xFDC
 12241                           plusw2	equ	0xFDB
 12242                           fsr2h	equ	0xFDA
 12243                           fsr2l	equ	0xFD9
 12244                           status	equ	0xFD8

Data Sizes:
    Strings     0
    Constant    36
    Data        4
    BSS         126
    Persistent  13
    Stack       0

Auto Spaces:
    Space          Size  Autos    Used
    COMRAM           94     49      71
    BANK0           160    123     160
    BANK1           256     21     105
    BANK2           256      0       0
    BANK3           256      0       0
    BANK4           256      0       0
    BANK5           256      0       0
    BANK6           256      0       0
    BANK7           256      0       0
    BANK8           256      0       0
    BANK9           256      0       0
    BANK10          256      0       0
    BANK11          256      0       0
    BANK12          256      0       0
    BANK13          256      0       0
    BANK14          176      0       0

Pointer List with Targets:

    I2C1_Read1ByteRegister@returnValue.data	PTR unsigned char  size(2) Largest target is 0

    I2C1_Read2ByteRegister@returnValue.data	PTR unsigned char  size(2) Largest target is 0

    I2C1_Write1ByteRegister@data.data	PTR unsigned char  size(2) Largest target is 0

    I2C1_Write2ByteRegister@data.data	PTR unsigned char  size(2) Largest target is 0

    I2C1_DO_TX$3185$0	PTR void  size(2) Largest target is 5
		 -> I2C1_ReadDataBlock@bufferBlock(COMRAM[4]), I2C1_Write2ByteRegister@data(COMRAM[2]), I2C1_Write1ByteRegister@data(COMRAM[1]), I2C1_Read2ByteRegister@returnValue(COMRAM[2]), 
		 -> NULL(NULL[0]), I2C1_Read1ByteRegister@returnValue(COMRAM[1]), 

    I2C1_DO_RX$3191$0	PTR void  size(2) Largest target is 5
		 -> I2C1_ReadDataBlock@bufferBlock(COMRAM[4]), I2C1_Write2ByteRegister@data(COMRAM[2]), I2C1_Write1ByteRegister@data(COMRAM[1]), I2C1_Read2ByteRegister@returnValue(COMRAM[2]), 
		 -> NULL(NULL[0]), I2C1_Read1ByteRegister@returnValue(COMRAM[1]), 

    I2C1_DO_TX_EMPTY$3197$0	PTR void  size(2) Largest target is 5
		 -> I2C1_ReadDataBlock@bufferBlock(COMRAM[4]), I2C1_Write2ByteRegister@data(COMRAM[2]), I2C1_Write1ByteRegister@data(COMRAM[1]), I2C1_Read2ByteRegister@returnValue(COMRAM[2]), 
		 -> NULL(NULL[0]), I2C1_Read1ByteRegister@returnValue(COMRAM[1]), 

    I2C1_DO_RX_EMPTY$3203$0	PTR void  size(2) Largest target is 5
		 -> I2C1_ReadDataBlock@bufferBlock(COMRAM[4]), I2C1_Write2ByteRegister@data(COMRAM[2]), I2C1_Write1ByteRegister@data(COMRAM[1]), I2C1_Read2ByteRegister@returnValue(COMRAM[2]), 
		 -> NULL(NULL[0]), I2C1_Read1ByteRegister@returnValue(COMRAM[1]), 

    I2C1_DO_TX_EMPTY$3202	PTR void  size(2) Largest target is 5
		 -> I2C1_ReadDataBlock@bufferBlock(COMRAM[4]), I2C1_Write2ByteRegister@data(COMRAM[2]), I2C1_Write1ByteRegister@data(COMRAM[1]), I2C1_Read2ByteRegister@returnValue(COMRAM[2]), 
		 -> NULL(NULL[0]), I2C1_Read1ByteRegister@returnValue(COMRAM[1]), 

    I2C1_DO_TX_EMPTY$3197	PTR FTN(PTR void ,)enum E360 size(2) Largest target is 1
		 -> I2C1_CallbackReturnReset(), I2C1_CallbackReturnStop(), Absolute function(), rdBlkRegCompleteHandler(), 
		 -> wr2RegCompleteHandler(), wr1RegCompleteHandler(), rd2RegCompleteHandler(), rd1RegCompleteHandler(), 

    I2C1_DO_RX$3196	PTR void  size(2) Largest target is 5
		 -> I2C1_ReadDataBlock@bufferBlock(COMRAM[4]), I2C1_Write2ByteRegister@data(COMRAM[2]), I2C1_Write1ByteRegister@data(COMRAM[1]), I2C1_Read2ByteRegister@returnValue(COMRAM[2]), 
		 -> NULL(NULL[0]), I2C1_Read1ByteRegister@returnValue(COMRAM[1]), 

    I2C1_DO_RX$3191	PTR FTN(PTR void ,)enum E360 size(2) Largest target is 1
		 -> I2C1_CallbackReturnReset(), I2C1_CallbackReturnStop(), Absolute function(), rdBlkRegCompleteHandler(), 
		 -> wr2RegCompleteHandler(), wr1RegCompleteHandler(), rd2RegCompleteHandler(), rd1RegCompleteHandler(), 

    I2C1_DO_TX$3190	PTR void  size(2) Largest target is 5
		 -> I2C1_ReadDataBlock@bufferBlock(COMRAM[4]), I2C1_Write2ByteRegister@data(COMRAM[2]), I2C1_Write1ByteRegister@data(COMRAM[1]), I2C1_Read2ByteRegister@returnValue(COMRAM[2]), 
		 -> NULL(NULL[0]), I2C1_Read1ByteRegister@returnValue(COMRAM[1]), 

    I2C1_DO_TX$3185	PTR FTN(PTR void ,)enum E360 size(2) Largest target is 1
		 -> I2C1_CallbackReturnReset(), I2C1_CallbackReturnStop(), Absolute function(), rdBlkRegCompleteHandler(), 
		 -> wr2RegCompleteHandler(), wr1RegCompleteHandler(), rd2RegCompleteHandler(), rd1RegCompleteHandler(), 

    I2C1_MasterFsm$3184	const PTR FTN()enum E6655 size(2) Largest target is 1
		 -> I2C1_DO_ADDRESS_NACK(), I2C1_DO_RESET(), I2C1_DO_RX_NACK_RESTART(), I2C1_DO_RX_NACK_STOP(), 
		 -> I2C1_DO_RX_ACK(), I2C1_DO_SEND_STOP(), I2C1_DO_SEND_RESTART(), I2C1_DO_SEND_RESTART_WRITE(), 
		 -> I2C1_DO_SEND_RESTART_READ(), I2C1_DO_TX_EMPTY(), I2C1_DO_RCEN(), I2C1_DO_RX(), 
		 -> I2C1_DO_TX(), I2C1_DO_SEND_ADR_WRITE(), I2C1_DO_SEND_ADR_READ(), I2C1_DO_IDLE(), 

    I2C1_CallbackReturnStop@funPtr	PTR void  size(2) Largest target is 5
		 -> I2C1_ReadDataBlock@bufferBlock(COMRAM[4]), I2C1_Write2ByteRegister@data(COMRAM[2]), I2C1_Write1ByteRegister@data(COMRAM[1]), I2C1_Read2ByteRegister@returnValue(COMRAM[2]), 
		 -> NULL(NULL[0]), I2C1_Read1ByteRegister@returnValue(COMRAM[1]), 

    I2C1_CallbackReturnReset@funPtr	PTR void  size(2) Largest target is 5
		 -> I2C1_ReadDataBlock@bufferBlock(COMRAM[4]), I2C1_Write2ByteRegister@data(COMRAM[2]), I2C1_Write1ByteRegister@data(COMRAM[1]), I2C1_Read2ByteRegister@returnValue(COMRAM[2]), 
		 -> NULL(NULL[0]), I2C1_Read1ByteRegister@returnValue(COMRAM[1]), 

    cb$0	PTR void  size(2) Largest target is 5
		 -> I2C1_ReadDataBlock@bufferBlock(COMRAM[4]), I2C1_Write2ByteRegister@data(COMRAM[2]), I2C1_Write1ByteRegister@data(COMRAM[1]), I2C1_Read2ByteRegister@returnValue(COMRAM[2]), 
		 -> NULL(NULL[0]), I2C1_Read1ByteRegister@returnValue(COMRAM[1]), 

    Absolute function$0	PTR void  size(2) Largest target is 5
		 -> I2C1_ReadDataBlock@bufferBlock(COMRAM[4]), I2C1_Write2ByteRegister@data(COMRAM[2]), I2C1_Write1ByteRegister@data(COMRAM[1]), I2C1_Read2ByteRegister@returnValue(COMRAM[2]), 
		 -> NULL(NULL[0]), I2C1_Read1ByteRegister@returnValue(COMRAM[1]), 

    cb$0	PTR void  size(2) Largest target is 5
		 -> I2C1_ReadDataBlock@bufferBlock(COMRAM[4]), I2C1_Write2ByteRegister@data(COMRAM[2]), I2C1_Write1ByteRegister@data(COMRAM[1]), I2C1_Read2ByteRegister@returnValue(COMRAM[2]), 
		 -> NULL(NULL[0]), I2C1_Read1ByteRegister@returnValue(COMRAM[1]), 

    S605$0$0	PTR void  size(2) Largest target is 5
		 -> I2C1_ReadDataBlock@bufferBlock(COMRAM[4]), I2C1_Write2ByteRegister@data(COMRAM[2]), I2C1_Write1ByteRegister@data(COMRAM[1]), I2C1_Read2ByteRegister@returnValue(COMRAM[2]), 
		 -> NULL(NULL[0]), I2C1_Read1ByteRegister@returnValue(COMRAM[1]), 

    ADC_InterruptHandler	PTR FTN()void  size(2) Largest target is 1
		 -> Absolute function(), 

    I2C1_SetCallback@ptr	PTR void  size(2) Largest target is 5
		 -> I2C1_ReadDataBlock@bufferBlock(COMRAM[4]), I2C1_Write2ByteRegister@data(COMRAM[2]), I2C1_Write1ByteRegister@data(COMRAM[1]), I2C1_Read2ByteRegister@returnValue(COMRAM[2]), 
		 -> NULL(NULL[0]), I2C1_Read1ByteRegister@returnValue(COMRAM[1]), 

    I2C1_SetCallback@cb	PTR FTN(PTR void ,)enum E360 size(2) Largest target is 1
		 -> Absolute function(), rdBlkRegCompleteHandler(), wr2RegCompleteHandler(), wr1RegCompleteHandler(), 
		 -> rd2RegCompleteHandler(), rd1RegCompleteHandler(), 

    I2C1_SetInterruptHandler@InterruptHandler	PTR FTN()void  size(2) Largest target is 1
		 -> I2C1_MasterIsr(), 

    MSSP1_InterruptHandler	PTR FTN()void  size(2) Largest target is 1
		 -> I2C1_MasterIsr(), Absolute function(), 

    I2C1_SetAddressNackCallback@ptr	PTR void  size(2) Largest target is 0
		 -> NULL(NULL[0]), 

    I2C1_SetAddressNackCallback@cb	PTR FTN(PTR void ,)enum E360 size(2) Largest target is 1
		 -> Absolute function(), 

    I2C1_SetDataCompleteCallback@ptr	PTR void  size(2) Largest target is 5
		 -> I2C1_ReadDataBlock@bufferBlock(COMRAM[4]), I2C1_Write2ByteRegister@data(COMRAM[2]), I2C1_Write1ByteRegister@data(COMRAM[1]), I2C1_Read2ByteRegister@returnValue(COMRAM[2]), 
		 -> NULL(NULL[0]), I2C1_Read1ByteRegister@returnValue(COMRAM[1]), 

    I2C1_SetDataCompleteCallback@cb	PTR FTN(PTR void ,)enum E360 size(2) Largest target is 1
		 -> Absolute function(), rdBlkRegCompleteHandler(), wr2RegCompleteHandler(), wr1RegCompleteHandler(), 
		 -> rd2RegCompleteHandler(), rd1RegCompleteHandler(), 

    I2C1_SetBuffer@buffer	PTR void  size(2) Largest target is 5
		 -> I2C1_ReadDataBlock@reg(COMRAM[1]), I2C1_ReadDataBlock@bufferBlock(COMRAM[4]), I2C1_Write2ByteRegister@reg(COMRAM[1]), I2C1_Write2ByteRegister@data(COMRAM[2]), 
		 -> I2C1_Write1ByteRegister@reg(COMRAM[1]), I2C1_Write1ByteRegister@data(COMRAM[1]), I2C1_Read2ByteRegister@reg(COMRAM[1]), I2C1_Read2ByteRegister@returnValue(COMRAM[2]), 
		 -> NULL(NULL[0]), I2C1_Read1ByteRegister@reg(COMRAM[1]), I2C1_Read1ByteRegister@returnValue(COMRAM[1]), 

    S605$data_ptr	PTR unsigned char  size(2) Largest target is 5
		 -> I2C1_ReadDataBlock@reg(COMRAM[1]), I2C1_ReadDataBlock@bufferBlock(COMRAM[4]), I2C1_Write2ByteRegister@reg(COMRAM[1]), I2C1_Write2ByteRegister@data(COMRAM[2]), 
		 -> I2C1_Write1ByteRegister@reg(COMRAM[1]), I2C1_Write1ByteRegister@data(COMRAM[1]), I2C1_Read2ByteRegister@reg(COMRAM[1]), I2C1_Read2ByteRegister@returnValue(COMRAM[2]), 
		 -> NULL(NULL[0]), I2C1_Read1ByteRegister@reg(COMRAM[1]), I2C1_Read1ByteRegister@returnValue(COMRAM[1]), 

    I2C1_Status.data_ptr	PTR unsigned char  size(2) Largest target is 5
		 -> I2C1_Read1ByteRegister@returnValue.data(COMRAM[3]), I2C1_Read2ByteRegister@returnValue.data(COMRAM[3]), I2C1_Write1ByteRegister@data.data(COMRAM[3]), I2C1_Write2ByteRegister@data.data(COMRAM[3]), 
		 -> I2C1_ReadDataBlock@reg(COMRAM[1]), I2C1_ReadDataBlock@bufferBlock(COMRAM[4]), bufferBlock.data(COMRAM[3]), I2C1_Write2ByteRegister@reg(COMRAM[1]), 
		 -> I2C1_Write2ByteRegister@data(COMRAM[2]), I2C1_Write1ByteRegister@reg(COMRAM[1]), I2C1_Write1ByteRegister@data(COMRAM[1]), I2C1_Read2ByteRegister@reg(COMRAM[1]), 
		 -> I2C1_Read2ByteRegister@returnValue(COMRAM[2]), NULL(NULL[0]), I2C1_Read1ByteRegister@reg(COMRAM[1]), I2C1_Read1ByteRegister@returnValue(COMRAM[1]), 

    S605$callbackPayload	PTR void [6] size(2) Largest target is 5
		 -> I2C1_ReadDataBlock@bufferBlock(COMRAM[4]), I2C1_Write2ByteRegister@data(COMRAM[2]), I2C1_Write1ByteRegister@data(COMRAM[1]), I2C1_Read2ByteRegister@returnValue(COMRAM[2]), 
		 -> NULL(NULL[0]), I2C1_Read1ByteRegister@returnValue(COMRAM[1]), 

    I2C1_Status.callbackPayload	PTR void [6] size(2) Largest target is 5
		 -> I2C1_ReadDataBlock@bufferBlock(COMRAM[4]), I2C1_Write2ByteRegister@data(COMRAM[2]), I2C1_Write1ByteRegister@data(COMRAM[1]), I2C1_Read2ByteRegister@returnValue(COMRAM[2]), 
		 -> NULL(NULL[0]), I2C1_Read1ByteRegister@returnValue(COMRAM[1]), 

    S605$callbackTable	PTR FTN(PTR void ,)enum E360[6] size(2) Largest target is 1
		 -> I2C1_CallbackReturnReset(), I2C1_CallbackReturnStop(), Absolute function(), rdBlkRegCompleteHandler(), 
		 -> wr2RegCompleteHandler(), wr1RegCompleteHandler(), rd2RegCompleteHandler(), rd1RegCompleteHandler(), 

    I2C1_Status.callbackTable	PTR FTN(PTR void ,)enum E360[6] size(2) Largest target is 1
		 -> I2C1_CallbackReturnReset(), I2C1_CallbackReturnStop(), Absolute function(), rdBlkRegCompleteHandler(), 
		 -> wr2RegCompleteHandler(), wr1RegCompleteHandler(), rd2RegCompleteHandler(), rd1RegCompleteHandler(), 

    i2c1_fsmStateTable	const PTR FTN()enum E6655[16] size(2) Largest target is 1
		 -> I2C1_DO_ADDRESS_NACK(), I2C1_DO_RESET(), I2C1_DO_RX_NACK_RESTART(), I2C1_DO_RX_NACK_STOP(), 
		 -> I2C1_DO_RX_ACK(), I2C1_DO_SEND_STOP(), I2C1_DO_SEND_RESTART(), I2C1_DO_SEND_RESTART_WRITE(), 
		 -> I2C1_DO_SEND_RESTART_READ(), I2C1_DO_TX_EMPTY(), I2C1_DO_RCEN(), I2C1_DO_RX(), 
		 -> I2C1_DO_TX(), I2C1_DO_SEND_ADR_WRITE(), I2C1_DO_SEND_ADR_READ(), I2C1_DO_IDLE(), 

    EUSART2_SetRxInterruptHandler@interruptHandler	PTR FTN()void  size(2) Largest target is 1
		 -> EUSART2_Receive_ISR(), 

    EUSART2_RxDefaultInterruptHandler	PTR FTN()void  size(2) Largest target is 1
		 -> Absolute function(), EUSART2_Receive_ISR(), 

    EUSART2_SetTxInterruptHandler@interruptHandler	PTR FTN()void  size(2) Largest target is 1
		 -> EUSART2_Transmit_ISR(), 

    EUSART2_TxDefaultInterruptHandler	PTR FTN()void  size(2) Largest target is 1
		 -> Absolute function(), EUSART2_Transmit_ISR(), 

    EUSART2_SetErrorHandler@interruptHandler	PTR FTN()void  size(2) Largest target is 1
		 -> EUSART2_DefaultErrorHandler(), 

    EUSART2_SetOverrunErrorHandler@interruptHandler	PTR FTN()void  size(2) Largest target is 1
		 -> EUSART2_DefaultOverrunErrorHandler(), 

    EUSART2_SetFramingErrorHandler@interruptHandler	PTR FTN()void  size(2) Largest target is 1
		 -> EUSART2_DefaultFramingErrorHandler(), 

    EUSART2_ErrorHandler	PTR FTN()void  size(2) Largest target is 1
		 -> Absolute function(), EUSART2_DefaultErrorHandler(), 

    EUSART2_OverrunErrorHandler	PTR FTN()void  size(2) Largest target is 1
		 -> Absolute function(), EUSART2_DefaultOverrunErrorHandler(), 

    EUSART2_FramingErrorHandler	PTR FTN()void  size(2) Largest target is 1
		 -> Absolute function(), EUSART2_DefaultFramingErrorHandler(), 

    rdBlkRegCompleteHandler@ptr.data	PTR unsigned char  size(2) Largest target is 0

    rdBlkRegCompleteHandler@ptr	PTR void  size(2) Largest target is 5
		 -> I2C1_ReadDataBlock@bufferBlock(COMRAM[4]), I2C1_Write2ByteRegister@data(COMRAM[2]), I2C1_Write1ByteRegister@data(COMRAM[1]), I2C1_Read2ByteRegister@returnValue(COMRAM[2]), 
		 -> NULL(NULL[0]), I2C1_Read1ByteRegister@returnValue(COMRAM[1]), 

    wr2RegCompleteHandler@ptr	PTR void  size(2) Largest target is 5
		 -> I2C1_ReadDataBlock@bufferBlock(COMRAM[4]), I2C1_Write2ByteRegister@data(COMRAM[2]), I2C1_Write1ByteRegister@data(COMRAM[1]), I2C1_Read2ByteRegister@returnValue(COMRAM[2]), 
		 -> NULL(NULL[0]), I2C1_Read1ByteRegister@returnValue(COMRAM[1]), 

    wr1RegCompleteHandler@ptr	PTR void  size(2) Largest target is 5
		 -> I2C1_ReadDataBlock@bufferBlock(COMRAM[4]), I2C1_Write2ByteRegister@data(COMRAM[2]), I2C1_Write1ByteRegister@data(COMRAM[1]), I2C1_Read2ByteRegister@returnValue(COMRAM[2]), 
		 -> NULL(NULL[0]), I2C1_Read1ByteRegister@returnValue(COMRAM[1]), 

    rd2RegCompleteHandler@ptr	PTR void  size(2) Largest target is 5
		 -> I2C1_ReadDataBlock@bufferBlock(COMRAM[4]), I2C1_Write2ByteRegister@data(COMRAM[2]), I2C1_Write1ByteRegister@data(COMRAM[1]), I2C1_Read2ByteRegister@returnValue(COMRAM[2]), 
		 -> NULL(NULL[0]), I2C1_Read1ByteRegister@returnValue(COMRAM[1]), 

    rd1RegCompleteHandler@ptr	PTR void  size(2) Largest target is 5
		 -> I2C1_ReadDataBlock@bufferBlock(COMRAM[4]), I2C1_Write2ByteRegister@data(COMRAM[2]), I2C1_Write1ByteRegister@data(COMRAM[1]), I2C1_Read2ByteRegister@returnValue(COMRAM[2]), 
		 -> NULL(NULL[0]), I2C1_Read1ByteRegister@returnValue(COMRAM[1]), 

    S97$data	PTR unsigned char  size(2) Largest target is 0

    bufferBlock.data	PTR unsigned char  size(2) Largest target is 0


Critical Paths under _main in COMRAM

    _displayOff->_setLED
    _displayHR->___flmul
    _roundf->___flmul
    ___flsub->___fladd
    _fminf->___flmul
    ___fldiv->___flmul
    _setLED->_I2C1_Write1ByteRegister
    _I2C1_Write1ByteRegister->_I2C1_SetAddressNackCallback
    _I2C1_Write1ByteRegister->_I2C1_SetDataCompleteCallback
    _I2C1_SetDataCompleteCallback->_I2C1_SetCallback
    _I2C1_SetAddressNackCallback->_I2C1_SetCallback
    _I2C1_Open->_I2C1_SetInterruptHandler
    _I2C1_MasterWrite->_I2C1_MasterOperation
    _millis->___flmul
    ___xxtofl->_TMR1_ReadTimer
    ___fltol->___flmul
    ___flmul->___xxtofl
    ___awmod->___wmul
    _SYSTEM_Initialize->_TMR1_Initialize
    _EUSART2_Initialize->_EUSART2_SetErrorHandler
    _EUSART2_Initialize->_EUSART2_SetFramingErrorHandler
    _EUSART2_Initialize->_EUSART2_SetOverrunErrorHandler
    _EUSART2_Initialize->_EUSART2_SetRxInterruptHandler
    _EUSART2_Initialize->_EUSART2_SetTxInterruptHandler

Critical Paths under _INTERRUPT_InterruptManager in COMRAM

    _I2C1_MasterFsm->_I2C1_DO_ADDRESS_NACK
    _I2C1_MasterFsm->_I2C1_DO_RX
    _I2C1_MasterFsm->_I2C1_DO_TX
    _I2C1_MasterFsm->_I2C1_DO_TX_EMPTY
    _I2C1_DO_TX_EMPTY->_I2C1_CallbackReturnReset
    _I2C1_DO_TX_EMPTY->_I2C1_CallbackReturnStop
    _I2C1_DO_TX_EMPTY->_rd1RegCompleteHandler
    _I2C1_DO_TX_EMPTY->_rd2RegCompleteHandler
    _I2C1_DO_TX_EMPTY->_rdBlkRegCompleteHandler
    _I2C1_DO_TX_EMPTY->_wr1RegCompleteHandler
    _I2C1_DO_TX_EMPTY->_wr2RegCompleteHandler
    _I2C1_DO_TX->_I2C1_CallbackReturnReset
    _I2C1_DO_TX->_I2C1_CallbackReturnStop
    _I2C1_DO_TX->_rd1RegCompleteHandler
    _I2C1_DO_TX->_rd2RegCompleteHandler
    _I2C1_DO_TX->_rdBlkRegCompleteHandler
    _I2C1_DO_TX->_wr1RegCompleteHandler
    _I2C1_DO_TX->_wr2RegCompleteHandler
    _I2C1_DO_SEND_ADR_WRITE->_I2C1_MasterSendTxData
    _I2C1_DO_RX->_I2C1_CallbackReturnReset
    _I2C1_DO_RX->_I2C1_CallbackReturnStop
    _I2C1_DO_RX->_rd1RegCompleteHandler
    _I2C1_DO_RX->_rd2RegCompleteHandler
    _I2C1_DO_RX->_rdBlkRegCompleteHandler
    _I2C1_DO_RX->_wr1RegCompleteHandler
    _I2C1_DO_RX->_wr2RegCompleteHandler
    _I2C1_DO_ADDRESS_NACK->_I2C1_CallbackReturnReset
    _I2C1_DO_ADDRESS_NACK->_I2C1_CallbackReturnStop
    _I2C1_DO_ADDRESS_NACK->_rd1RegCompleteHandler
    _I2C1_DO_ADDRESS_NACK->_rd2RegCompleteHandler
    _I2C1_DO_ADDRESS_NACK->_rdBlkRegCompleteHandler
    _I2C1_DO_ADDRESS_NACK->_wr1RegCompleteHandler
    _I2C1_DO_ADDRESS_NACK->_wr2RegCompleteHandler
    _wr2RegCompleteHandler->i2_I2C1_SetDataCompleteCallback
    _wr1RegCompleteHandler->i2_I2C1_SetDataCompleteCallback
    _rdBlkRegCompleteHandler->i2_I2C1_SetDataCompleteCallback
    _rd2RegCompleteHandler->i2_I2C1_SetDataCompleteCallback
    _rd1RegCompleteHandler->i2_I2C1_SetDataCompleteCallback
    i2_I2C1_SetDataCompleteCallback->i2_I2C1_SetCallback

Critical Paths under _main in BANK0

    _updateDispTemp->_updateLED
    _updateDispAnim->_updateLED
    _updateLED->_displayHR
    _displayTemp->_millis
    _displayHR->_millis
    _roundf->___fldiv
    _fminf->___flmul
    ___fldiv->___flmul
    _displayAlt->_millis
    _millis->___fltol
    ___fltol->_roundf

Critical Paths under _INTERRUPT_InterruptManager in BANK0

    None.

Critical Paths under _main in BANK1

    _main->_updateDispTemp
    _updateDispTemp->_updateLED
    _updateDispAnim->_updateLED

Critical Paths under _INTERRUPT_InterruptManager in BANK1

    None.

Critical Paths under _main in BANK2

    None.

Critical Paths under _INTERRUPT_InterruptManager in BANK2

    None.

Critical Paths under _main in BANK3

    None.

Critical Paths under _INTERRUPT_InterruptManager in BANK3

    None.

Critical Paths under _main in BANK4

    None.

Critical Paths under _INTERRUPT_InterruptManager in BANK4

    None.

Critical Paths under _main in BANK5

    None.

Critical Paths under _INTERRUPT_InterruptManager in BANK5

    None.

Critical Paths under _main in BANK6

    None.

Critical Paths under _INTERRUPT_InterruptManager in BANK6

    None.

Critical Paths under _main in BANK7

    None.

Critical Paths under _INTERRUPT_InterruptManager in BANK7

    None.

Critical Paths under _main in BANK8

    None.

Critical Paths under _INTERRUPT_InterruptManager in BANK8

    None.

Critical Paths under _main in BANK9

    None.

Critical Paths under _INTERRUPT_InterruptManager in BANK9

    None.

Critical Paths under _main in BANK10

    None.

Critical Paths under _INTERRUPT_InterruptManager in BANK10

    None.

Critical Paths under _main in BANK11

    None.

Critical Paths under _INTERRUPT_InterruptManager in BANK11

    None.

Critical Paths under _main in BANK12

    None.

Critical Paths under _INTERRUPT_InterruptManager in BANK12

    None.

Critical Paths under _main in BANK13

    None.

Critical Paths under _INTERRUPT_InterruptManager in BANK13

    None.

Critical Paths under _main in BANK14

    None.

Critical Paths under _INTERRUPT_InterruptManager in BANK14

    None.

Call Graph Tables:

 ---------------------------------------------------------------------------------
 (Depth) Function   	        Calls       Base Space   Used Autos Params    Refs
 ---------------------------------------------------------------------------------
 (0) _main                                                18    18      0  171374
                                              3 BANK1     18    18      0
                  _SYSTEM_Initialize
                             _millis
                     _updateDispAnim
                     _updateDispTemp
 ---------------------------------------------------------------------------------
 (1) _updateDispTemp                                       2     0      2   83007
                                              1 BANK1      2     0      2
                          _updateLED
 ---------------------------------------------------------------------------------
 (1) _updateDispAnim                                       1     1      0   82917
                                              1 BANK1      1     1      0
                          _updateLED
 ---------------------------------------------------------------------------------
 (2) _updateLED                                           10     3      7   82886
                                            114 BANK0      9     2      7
                                              0 BANK1      1     1      0
                         _displayAlt
                          _displayHR
                         _displayOff
                        _displayTemp
 ---------------------------------------------------------------------------------
 (3) _displayTemp                                         22    20      2   15361
                                             90 BANK0     18    16      2
                             _millis
                             _setLED
 ---------------------------------------------------------------------------------
 (3) _displayOff                                           0     0      0    9733
                             _setLED
 ---------------------------------------------------------------------------------
 (3) _displayHR                                           25    23      2   37796
                                             90 BANK0     24    22      2
                            ___fldiv
                            ___flmul
                            ___fltol
                           ___xxtofl
                              _fminf
                             _millis
                             _roundf
                             _setLED
 ---------------------------------------------------------------------------------
 (4) _roundf                                              26    22      4   14437
                                             46 BANK0     26    22      4
                            ___fladd
                            ___fldiv (ARG)
                             ___flge
                            ___flmul
                            ___flneg
                            ___flsub
 ---------------------------------------------------------------------------------
 (5) ___flsub                                              8     0      8    4907
                                             39 COMRAM     8     0      8
                            ___fladd
 ---------------------------------------------------------------------------------
 (6) ___fladd                                             16     8      8    4522
                                             23 COMRAM    16     8      8
 ---------------------------------------------------------------------------------
 (5) ___flneg                                              4     0      4     245
                                             23 COMRAM     4     0      4
 ---------------------------------------------------------------------------------
 (4) _fminf                                               10     2      8    2102
                                             21 BANK0     10     2      8
                             ___flge
                            ___flmul (ARG)
                      ___fpclassifyf
                         ___signbitf
                           ___xxtofl (ARG)
 ---------------------------------------------------------------------------------
 (5) ___signbitf                                          12     8      4     338
                                             23 COMRAM    12     8      4
 ---------------------------------------------------------------------------------
 (5) ___fpclassifyf                                       14    10      4     375
                                             23 COMRAM    14    10      4
 ---------------------------------------------------------------------------------
 (5) ___flge                                              12     4      8     806
                                             23 COMRAM    12     4      8
 ---------------------------------------------------------------------------------
 (4) ___fldiv                                             25    17      8    2003
                                             21 BANK0     25    17      8
                            ___flmul (ARG)
 ---------------------------------------------------------------------------------
 (3) _displayAlt                                          14    12      2   17824
                                             90 BANK0     12    10      2
                            ___awmod
                             ___wmul
                             _millis
                             _setLED
 ---------------------------------------------------------------------------------
 (4) _setLED                                               4     2      2    9733
                                             35 COMRAM     4     2      2
            _I2C1_Write1ByteRegister
                            _byteMin
 ---------------------------------------------------------------------------------
 (5) _byteMin                                              4     3      1     431
                                             23 COMRAM     4     3      1
 ---------------------------------------------------------------------------------
 (5) _I2C1_Write1ByteRegister                              3     1      2    7891
                                             32 COMRAM     3     1      2
                         _I2C1_Close
                   _I2C1_MasterWrite
                          _I2C1_Open
        _I2C1_SetAddressNackCallback
                     _I2C1_SetBuffer
       _I2C1_SetDataCompleteCallback
 ---------------------------------------------------------------------------------
 (6) _I2C1_SetDataCompleteCallback                         4     0      4    2629
                                             28 COMRAM     4     0      4
                   _I2C1_SetCallback
 ---------------------------------------------------------------------------------
 (6) _I2C1_SetBuffer                                       4     0      4    1872
                                             23 COMRAM     4     0      4
 ---------------------------------------------------------------------------------
 (6) _I2C1_SetAddressNackCallback                          4     0      4    2259
                                             28 COMRAM     4     0      4
                   _I2C1_SetCallback
 ---------------------------------------------------------------------------------
 (7) _I2C1_SetCallback                                     5     1      4    1117
                                             23 COMRAM     5     1      4
 ---------------------------------------------------------------------------------
 (6) _I2C1_Open                                            2     2      0     189
                                             25 COMRAM     2     2      0
                _I2C1_MasterClearIrq
               _I2C1_MasterEnableIrq
                    _I2C1_MasterOpen
           _I2C1_SetInterruptHandler
 ---------------------------------------------------------------------------------
 (7) _I2C1_SetInterruptHandler                             2     0      2     121
                                             23 COMRAM     2     0      2
 ---------------------------------------------------------------------------------
 (7) _I2C1_MasterOpen                                      0     0      0       0
 ---------------------------------------------------------------------------------
 (7) _I2C1_MasterEnableIrq                                 0     0      0       0
 ---------------------------------------------------------------------------------
 (6) _I2C1_MasterWrite                                     0     0      0      68
               _I2C1_MasterOperation
 ---------------------------------------------------------------------------------
 (7) _I2C1_MasterOperation                                 2     2      0      68
                                             23 COMRAM     2     2      0
                   _I2C1_MasterStart
 ---------------------------------------------------------------------------------
 (8) _I2C1_MasterStart                                     0     0      0       0
 ---------------------------------------------------------------------------------
 (6) _I2C1_Close                                           1     1      0      37
                                             23 COMRAM     1     1      0
                _I2C1_MasterClearIrq
                   _I2C1_MasterClose
              _I2C1_MasterDisableIrq
 ---------------------------------------------------------------------------------
 (7) _I2C1_MasterDisableIrq                                0     0      0       0
 ---------------------------------------------------------------------------------
 (7) _I2C1_MasterClose                                     0     0      0       0
 ---------------------------------------------------------------------------------
 (7) _I2C1_MasterClearIrq                                  0     0      0       0
 ---------------------------------------------------------------------------------
 (4) _millis                                               8     4      4    4635
                                             82 BANK0      8     4      4
                     _TMR1_ReadTimer
                            ___flmul
                            ___fltol
                           ___xxtofl
 ---------------------------------------------------------------------------------
 (5) ___xxtofl                                            14    10      4     836
                                             31 COMRAM    14    10      4
                     _TMR1_ReadTimer (ARG)
 ---------------------------------------------------------------------------------
 (5) ___fltol                                             10     6      4     607
                                             72 BANK0     10     6      4
                     _TMR1_ReadTimer (ARG)
                            ___fldiv (ARG)
                            ___flmul (ARG)
                           ___xxtofl (ARG)
                              _fminf (ARG)
                             _roundf (ARG)
 ---------------------------------------------------------------------------------
 (5) ___flmul                                             25    17      8    3053
                                             45 COMRAM     4     4      0
                                              0 BANK0     21    13      8
                     _TMR1_ReadTimer (ARG)
                           ___xxtofl (ARG)
 ---------------------------------------------------------------------------------
 (5) _TMR1_ReadTimer                                       8     6      2     102
                                             23 COMRAM     8     6      2
 ---------------------------------------------------------------------------------
 (4) ___wmul                                               6     2      4    2282
                                             23 COMRAM     6     2      4
 ---------------------------------------------------------------------------------
 (4) ___awmod                                              6     2      4     793
                                             29 COMRAM     6     2      4
                             ___wmul (ARG)
 ---------------------------------------------------------------------------------
 (1) _SYSTEM_Initialize                                    0     0      0     605
                     _ADC_Initialize
                 _EUSART2_Initialize
                    _I2C1_Initialize
               _INTERRUPT_Initialize
              _OSCILLATOR_Initialize
             _PIN_MANAGER_Initialize
                    _TMR1_Initialize
                    _TMR2_Initialize
 ---------------------------------------------------------------------------------
 (2) _TMR2_Initialize                                      0     0      0       0
 ---------------------------------------------------------------------------------
 (2) _TMR1_Initialize                                      2     2      0       0
                                             23 COMRAM     2     2      0
 ---------------------------------------------------------------------------------
 (2) _PIN_MANAGER_Initialize                               0     0      0       0
 ---------------------------------------------------------------------------------
 (2) _OSCILLATOR_Initialize                                0     0      0       0
 ---------------------------------------------------------------------------------
 (2) _INTERRUPT_Initialize                                 0     0      0       0
 ---------------------------------------------------------------------------------
 (2) _I2C1_Initialize                                      0     0      0       0
 ---------------------------------------------------------------------------------
 (2) _EUSART2_Initialize                                   0     0      0     605
            _EUSART2_SetErrorHandler
     _EUSART2_SetFramingErrorHandler
     _EUSART2_SetOverrunErrorHandler
      _EUSART2_SetRxInterruptHandler
      _EUSART2_SetTxInterruptHandler
 ---------------------------------------------------------------------------------
 (3) _EUSART2_SetTxInterruptHandler                        2     0      2     121
                                             23 COMRAM     2     0      2
 ---------------------------------------------------------------------------------
 (3) _EUSART2_SetRxInterruptHandler                        2     0      2     121
                                             23 COMRAM     2     0      2
 ---------------------------------------------------------------------------------
 (3) _EUSART2_SetOverrunErrorHandler                       2     0      2     121
                                             23 COMRAM     2     0      2
 ---------------------------------------------------------------------------------
 (3) _EUSART2_SetFramingErrorHandler                       2     0      2     121
                                             23 COMRAM     2     0      2
 ---------------------------------------------------------------------------------
 (3) _EUSART2_SetErrorHandler                              2     0      2     121
                                             23 COMRAM     2     0      2
 ---------------------------------------------------------------------------------
 (2) _ADC_Initialize                                       0     0      0       0
 ---------------------------------------------------------------------------------
 Estimated maximum stack depth 8
 ---------------------------------------------------------------------------------
 (Depth) Function   	        Calls       Base Space   Used Autos Params    Refs
 ---------------------------------------------------------------------------------
 (9) _INTERRUPT_InterruptManager                          10    10      0   17934
                                             13 COMRAM    10    10      0
                   Absolute function *
                _EUSART2_Receive_ISR *
               _EUSART2_Transmit_ISR *
                     _I2C1_MasterIsr *
 ---------------------------------------------------------------------------------
 (10) _I2C1_MasterIsr                                      0     0      0   17934
                     _I2C1_MasterFsm
 ---------------------------------------------------------------------------------
 (11) _I2C1_MasterFsm                                      0     0      0   17934
               _I2C1_DO_ADDRESS_NACK *
                       _I2C1_DO_IDLE *
                       _I2C1_DO_RCEN *
                      _I2C1_DO_RESET *
                         _I2C1_DO_RX *
                     _I2C1_DO_RX_ACK *
            _I2C1_DO_RX_NACK_RESTART *
               _I2C1_DO_RX_NACK_STOP *
              _I2C1_DO_SEND_ADR_READ *
             _I2C1_DO_SEND_ADR_WRITE *
               _I2C1_DO_SEND_RESTART *
          _I2C1_DO_SEND_RESTART_READ *
         _I2C1_DO_SEND_RESTART_WRITE *
                  _I2C1_DO_SEND_STOP *
                         _I2C1_DO_TX *
                   _I2C1_DO_TX_EMPTY *
                  _I2C1_MasterIsNack
              i2_I2C1_MasterClearIrq
 ---------------------------------------------------------------------------------
 (12) i2_I2C1_MasterClearIrq                               0     0      0       0
 ---------------------------------------------------------------------------------
 (12) _I2C1_DO_TX_EMPTY                                    2     2      0    4467
                                             11 COMRAM     2     2      0
                   Absolute function *
           _I2C1_CallbackReturnReset *
            _I2C1_CallbackReturnStop *
               _I2C1_DO_SEND_RESTART
                  _I2C1_DO_SEND_STOP
                  _I2C1_MasterSetIrq
              _rd1RegCompleteHandler *
              _rd2RegCompleteHandler *
            _rdBlkRegCompleteHandler *
              _wr1RegCompleteHandler *
              _wr2RegCompleteHandler *
 ---------------------------------------------------------------------------------
 (13) _I2C1_MasterSetIrq                                   0     0      0       0
 ---------------------------------------------------------------------------------
 (12) _I2C1_DO_TX                                          2     2      0    4489
                                             11 COMRAM     2     2      0
                   Absolute function *
           _I2C1_CallbackReturnReset *
            _I2C1_CallbackReturnStop *
          _I2C1_DO_SEND_RESTART_READ
         _I2C1_DO_SEND_RESTART_WRITE
                  _I2C1_DO_SEND_STOP
                  _I2C1_MasterIsNack
              _I2C1_MasterSendTxData
              _rd1RegCompleteHandler *
              _rd2RegCompleteHandler *
            _rdBlkRegCompleteHandler *
              _wr1RegCompleteHandler *
              _wr2RegCompleteHandler *
 ---------------------------------------------------------------------------------
 (12) _I2C1_MasterIsNack                                   0     0      0       0
 ---------------------------------------------------------------------------------
 (13) _I2C1_DO_SEND_RESTART_WRITE                          0     0      0       0
           _I2C1_MasterEnableRestart
 ---------------------------------------------------------------------------------
 (13) _I2C1_DO_SEND_RESTART_READ                           0     0      0       0
           _I2C1_MasterEnableRestart
 ---------------------------------------------------------------------------------
 (12) _I2C1_DO_SEND_ADR_WRITE                              0     0      0      22
              _I2C1_MasterSendTxData
 ---------------------------------------------------------------------------------
 (12) _I2C1_DO_SEND_ADR_READ                               0     0      0      22
              _I2C1_MasterSendTxData
 ---------------------------------------------------------------------------------
 (13) _I2C1_MasterSendTxData                               1     1      0      22
                                              0 COMRAM     1     1      0
 ---------------------------------------------------------------------------------
 (12) _I2C1_DO_RX_ACK                                      0     0      0       0
                 _I2C1_MasterSendAck
 ---------------------------------------------------------------------------------
 (12) _I2C1_DO_RX                                          2     2      0    4467
                                             11 COMRAM     2     2      0
                   Absolute function *
           _I2C1_CallbackReturnReset *
            _I2C1_CallbackReturnStop *
            _I2C1_DO_RX_NACK_RESTART
               _I2C1_DO_RX_NACK_STOP
               _I2C1_MasterGetRxData
                 _I2C1_MasterSendAck
              _rd1RegCompleteHandler *
              _rd2RegCompleteHandler *
            _rdBlkRegCompleteHandler *
              _wr1RegCompleteHandler *
              _wr2RegCompleteHandler *
 ---------------------------------------------------------------------------------
 (13) _I2C1_MasterSendAck                                  0     0      0       0
 ---------------------------------------------------------------------------------
 (13) _I2C1_MasterGetRxData                                0     0      0       0
 ---------------------------------------------------------------------------------
 (12) _I2C1_DO_RX_NACK_STOP                                0     0      0       0
                _I2C1_MasterSendNack
 ---------------------------------------------------------------------------------
 (12) _I2C1_DO_RX_NACK_RESTART                             0     0      0       0
                _I2C1_MasterSendNack
 ---------------------------------------------------------------------------------
 (13) _I2C1_MasterSendNack                                 0     0      0       0
 ---------------------------------------------------------------------------------
 (12) _I2C1_DO_RESET                                       0     0      0       0
 ---------------------------------------------------------------------------------
 (12) _I2C1_DO_RCEN                                        0     0      0       0
                 _I2C1_MasterStartRx
 ---------------------------------------------------------------------------------
 (13) _I2C1_MasterStartRx                                  0     0      0       0
 ---------------------------------------------------------------------------------
 (12) _I2C1_DO_IDLE                                        0     0      0       0
 ---------------------------------------------------------------------------------
 (12) _I2C1_DO_ADDRESS_NACK                                2     2      0    4467
                                             11 COMRAM     2     2      0
                   Absolute function *
           _I2C1_CallbackReturnReset *
            _I2C1_CallbackReturnStop *
               _I2C1_DO_SEND_RESTART
                  _I2C1_DO_SEND_STOP
              _rd1RegCompleteHandler *
              _rd2RegCompleteHandler *
            _rdBlkRegCompleteHandler *
              _wr1RegCompleteHandler *
              _wr2RegCompleteHandler *
 ---------------------------------------------------------------------------------
 (13) _wr2RegCompleteHandler                               2     0      2     836
                                              9 COMRAM     2     0      2
                   i2_I2C1_SetBuffer
     i2_I2C1_SetDataCompleteCallback
 ---------------------------------------------------------------------------------
 (13) _wr1RegCompleteHandler                               2     0      2     836
                                              9 COMRAM     2     0      2
                   i2_I2C1_SetBuffer
     i2_I2C1_SetDataCompleteCallback
 ---------------------------------------------------------------------------------
 (13) _rdBlkRegCompleteHandler                             2     0      2     858
                                              9 COMRAM     2     0      2
                   i2_I2C1_SetBuffer
     i2_I2C1_SetDataCompleteCallback
 ---------------------------------------------------------------------------------
 (13) _rd2RegCompleteHandler                               2     0      2     836
                                              9 COMRAM     2     0      2
                   i2_I2C1_SetBuffer
     i2_I2C1_SetDataCompleteCallback
 ---------------------------------------------------------------------------------
 (13) _rd1RegCompleteHandler                               2     0      2     836
                                              9 COMRAM     2     0      2
                   i2_I2C1_SetBuffer
     i2_I2C1_SetDataCompleteCallback
 ---------------------------------------------------------------------------------
 (14) i2_I2C1_SetDataCompleteCallback                      4     0      4     510
                                              5 COMRAM     4     0      4
                 i2_I2C1_SetCallback
 ---------------------------------------------------------------------------------
 (15) i2_I2C1_SetCallback                                  5     1      4     206
                                              0 COMRAM     5     1      4
 ---------------------------------------------------------------------------------
 (14) i2_I2C1_SetBuffer                                    4     0      4     304
                                              0 COMRAM     4     0      4
 ---------------------------------------------------------------------------------
 (13) _I2C1_DO_SEND_STOP                                   0     0      0       0
                    _I2C1_MasterStop
 ---------------------------------------------------------------------------------
 (14) _I2C1_MasterStop                                     0     0      0       0
 ---------------------------------------------------------------------------------
 (13) _I2C1_DO_SEND_RESTART                                0     0      0       0
           _I2C1_MasterEnableRestart
 ---------------------------------------------------------------------------------
 (14) _I2C1_MasterEnableRestart                            0     0      0       0
 ---------------------------------------------------------------------------------
 (13) _I2C1_CallbackReturnStop                             2     0      2       0
                                              9 COMRAM     2     0      2
 ---------------------------------------------------------------------------------
 (13) _I2C1_CallbackReturnReset                            2     0      2     265
                                              9 COMRAM     2     0      2
 ---------------------------------------------------------------------------------
 (10) _EUSART2_Transmit_ISR                                0     0      0       0
 ---------------------------------------------------------------------------------
 (10) _EUSART2_Receive_ISR                                 0     0      0       0
                   Absolute function *
        _EUSART2_DefaultErrorHandler *
 _EUSART2_DefaultFramingErrorHandler *
 _EUSART2_DefaultOverrunErrorHandler *
              _EUSART2_RxDataHandler
 ---------------------------------------------------------------------------------
 (11) _EUSART2_DefaultOverrunErrorHandler                  0     0      0       0
 ---------------------------------------------------------------------------------
 (11) _EUSART2_DefaultFramingErrorHandler                  0     0      0       0
 ---------------------------------------------------------------------------------
 (11) _EUSART2_DefaultErrorHandler                         0     0      0       0
              _EUSART2_RxDataHandler
 ---------------------------------------------------------------------------------
 (11) _EUSART2_RxDataHandler                               0     0      0       0
 ---------------------------------------------------------------------------------
 (13) Absolute function(Fake)                              2     0      2       0
 ---------------------------------------------------------------------------------
 Estimated maximum stack depth 15
 ---------------------------------------------------------------------------------

 Call Graph Graphs:

 _main (ROOT)
   _SYSTEM_Initialize
     _ADC_Initialize
     _EUSART2_Initialize
       _EUSART2_SetErrorHandler
       _EUSART2_SetFramingErrorHandler
       _EUSART2_SetOverrunErrorHandler
       _EUSART2_SetRxInterruptHandler
       _EUSART2_SetTxInterruptHandler
     _I2C1_Initialize
     _INTERRUPT_Initialize
     _OSCILLATOR_Initialize
     _PIN_MANAGER_Initialize
     _TMR1_Initialize
     _TMR2_Initialize
   _millis
     _TMR1_ReadTimer
     ___flmul
       _TMR1_ReadTimer (ARG)
       ___xxtofl (ARG)
         _TMR1_ReadTimer (ARG)
     ___fltol
       _TMR1_ReadTimer (ARG)
       ___fldiv (ARG)
         ___flmul (ARG)
       ___flmul (ARG)
       ___xxtofl (ARG)
       _fminf (ARG)
         ___flge
         ___flmul (ARG)
         ___fpclassifyf (ARG)
         ___signbitf (ARG)
         ___xxtofl (ARG)
       _roundf (ARG)
         ___fladd
         ___fldiv (ARG)
         ___flge (ARG)
         ___flmul (ARG)
         ___flneg (ARG)
         ___flsub (ARG)
           ___fladd
     ___xxtofl
   _updateDispAnim
     _updateLED
       _displayAlt
         ___awmod
           ___wmul (ARG)
         ___wmul
         _millis
         _setLED
           _I2C1_Write1ByteRegister
             _I2C1_Close
               _I2C1_MasterClearIrq
               _I2C1_MasterClose
               _I2C1_MasterDisableIrq
             _I2C1_MasterWrite
               _I2C1_MasterOperation
                 _I2C1_MasterStart
             _I2C1_Open
               _I2C1_MasterClearIrq
               _I2C1_MasterEnableIrq
               _I2C1_MasterOpen
               _I2C1_SetInterruptHandler
             _I2C1_SetAddressNackCallback
               _I2C1_SetCallback
             _I2C1_SetBuffer
             _I2C1_SetDataCompleteCallback
               _I2C1_SetCallback
           _byteMin
       _displayHR
         ___fldiv
         ___flmul
         ___fltol
         ___xxtofl
         _fminf
         _millis
         _roundf
         _setLED
       _displayOff
         _setLED
       _displayTemp
         _millis
         _setLED
   _updateDispTemp
     _updateLED

 _INTERRUPT_InterruptManager (ROOT)
   Absolute function(Fake) *
   _EUSART2_Receive_ISR *
     Absolute function(Fake) *
     _EUSART2_DefaultErrorHandler *
       _EUSART2_RxDataHandler
     _EUSART2_DefaultFramingErrorHandler *
     _EUSART2_DefaultOverrunErrorHandler *
     _EUSART2_RxDataHandler *
   _EUSART2_Transmit_ISR *
   _I2C1_MasterIsr *
     _I2C1_MasterFsm
       _I2C1_DO_ADDRESS_NACK *
         Absolute function(Fake) *
         _I2C1_CallbackReturnReset *
         _I2C1_CallbackReturnStop *
         _I2C1_DO_SEND_RESTART *
           _I2C1_MasterEnableRestart
         _I2C1_DO_SEND_STOP *
           _I2C1_MasterStop
         _rd1RegCompleteHandler *
           i2_I2C1_SetBuffer
           i2_I2C1_SetDataCompleteCallback
             i2_I2C1_SetCallback
         _rd2RegCompleteHandler *
           i2_I2C1_SetBuffer
           i2_I2C1_SetDataCompleteCallback
         _rdBlkRegCompleteHandler *
           i2_I2C1_SetBuffer
           i2_I2C1_SetDataCompleteCallback
         _wr1RegCompleteHandler *
           i2_I2C1_SetBuffer
           i2_I2C1_SetDataCompleteCallback
         _wr2RegCompleteHandler *
           i2_I2C1_SetBuffer
           i2_I2C1_SetDataCompleteCallback
       _I2C1_DO_IDLE *
       _I2C1_DO_RCEN *
         _I2C1_MasterStartRx
       _I2C1_DO_RESET *
       _I2C1_DO_RX *
         Absolute function(Fake) *
         _I2C1_CallbackReturnReset *
         _I2C1_CallbackReturnStop *
         _I2C1_DO_RX_NACK_RESTART *
           _I2C1_MasterSendNack
         _I2C1_DO_RX_NACK_STOP *
           _I2C1_MasterSendNack
         _I2C1_MasterGetRxData *
         _I2C1_MasterSendAck *
         _rd1RegCompleteHandler *
         _rd2RegCompleteHandler *
         _rdBlkRegCompleteHandler *
         _wr1RegCompleteHandler *
         _wr2RegCompleteHandler *
       _I2C1_DO_RX_ACK *
         _I2C1_MasterSendAck
       _I2C1_DO_RX_NACK_RESTART *
       _I2C1_DO_RX_NACK_STOP *
       _I2C1_DO_SEND_ADR_READ *
         _I2C1_MasterSendTxData
       _I2C1_DO_SEND_ADR_WRITE *
         _I2C1_MasterSendTxData
       _I2C1_DO_SEND_RESTART *
       _I2C1_DO_SEND_RESTART_READ *
         _I2C1_MasterEnableRestart
       _I2C1_DO_SEND_RESTART_WRITE *
         _I2C1_MasterEnableRestart
       _I2C1_DO_SEND_STOP *
       _I2C1_DO_TX *
         Absolute function(Fake) *
         _I2C1_CallbackReturnReset *
         _I2C1_CallbackReturnStop *
         _I2C1_DO_SEND_RESTART_READ *
         _I2C1_DO_SEND_RESTART_WRITE *
         _I2C1_DO_SEND_STOP *
         _I2C1_MasterIsNack *
         _I2C1_MasterSendTxData *
         _rd1RegCompleteHandler *
         _rd2RegCompleteHandler *
         _rdBlkRegCompleteHandler *
         _wr1RegCompleteHandler *
         _wr2RegCompleteHandler *
       _I2C1_DO_TX_EMPTY *
         Absolute function(Fake) *
         _I2C1_CallbackReturnReset *
         _I2C1_CallbackReturnStop *
         _I2C1_DO_SEND_RESTART *
         _I2C1_DO_SEND_STOP *
         _I2C1_MasterSetIrq *
         _rd1RegCompleteHandler *
         _rd2RegCompleteHandler *
         _rdBlkRegCompleteHandler *
         _wr1RegCompleteHandler *
         _wr2RegCompleteHandler *
       _I2C1_MasterIsNack *
       i2_I2C1_MasterClearIrq *

 Address spaces:
Name               Size   Autos  Total    Cost      Usage
BIGRAM             EAF      0       0      52        0.0%
BITBANK13          100      0       0      29        0.0%
BANK13             100      0       0      30        0.0%
BITBANK12          100      0       0      27        0.0%
BANK12             100      0       0      28        0.0%
BITBANK11          100      0       0      25        0.0%
BANK11             100      0       0      26        0.0%
BITBANK10          100      0       0      23        0.0%
BANK10             100      0       0      24        0.0%
BITBANK9           100      0       0      21        0.0%
BANK9              100      0       0      22        0.0%
BITBANK8           100      0       0      19        0.0%
BANK8              100      0       0      20        0.0%
BITBANK7           100      0       0      17        0.0%
BANK7              100      0       0      18        0.0%
BITBANK6           100      0       0      15        0.0%
BANK6              100      0       0      16        0.0%
BITBANK5           100      0       0      13        0.0%
BANK5              100      0       0      14        0.0%
BITBANK4           100      0       0      11        0.0%
BANK4              100      0       0      12        0.0%
BITBANK3           100      0       0       9        0.0%
BANK3              100      0       0      10        0.0%
BITBANK2           100      0       0       7        0.0%
BANK2              100      0       0       8        0.0%
BITBANK1           100      0       0       5        0.0%
BANK1              100     15      69       6       41.0%
BITBANK14           B0      0       0      31        0.0%
BANK14              B0      0       0      32        0.0%
BITBANK0            A0      0       0       3        0.0%
BANK0               A0     7B      A0       4      100.0%
BITCOMRAM           5E      0       0       0        0.0%
COMRAM              5E     31      47       1       75.5%
BITBIGSFRlllh       45      0       0      47        0.0%
BITBIGSFRllhh       32      0       0      44        0.0%
BITBIGSFRllllh      30      0       0      48        0.0%
BITBIGSFRhhhhl      1D      0       0      34        0.0%
BITBIGSFRhhhlll     15      0       0      36        0.0%
BITBIGSFRlllllh      D      0       0      49        0.0%
BITBIGSFRhhhhh       D      0       0      33        0.0%
BITBIGSFRlhll        9      0       0      43        0.0%
BITBIGSFRllllll      8      0       0      50        0.0%
BITBIGSFRlhlhhl      6      0       0      41        0.0%
BITBIGSFRllhlh       5      0       0      45        0.0%
BITBIGSFRlhlhhh      5      0       0      40        0.0%
BITBIGSFRhl          3      0       0      37        0.0%
BITBIGSFRhhhlhh      2      0       0      35        0.0%
BITBIGSFRllhll       2      0       0      46        0.0%
BITBIGSFRlhhh        1      0       0      38        0.0%
BITBIGSFRlhlhl       1      0       0      42        0.0%
BITBIGSFRlhhl        1      0       0      39        0.0%
BIGSFR               0      0       0     200        0.0%
BITSFR_2             0      0       0     200        0.0%
SFR_2                0      0       0     200        0.0%
BITSFR_1             0      0       0     200        0.0%
SFR_1                0      0       0     200        0.0%
BITSFR               0      0       0     200        0.0%
SFR                  0      0       0     200        0.0%
STACK                0      0       0       2        0.0%
NULL                 0      0       0       0        0.0%
ABS                  0      0     150      51        0.0%
DATA                 0      0     150      53        0.0%
CODE                 0      0       0       0        0.0%


Microchip Technology PIC18 Macro Assembler V2.35 build 20211206165544 
Symbol Table                                                                                   Thu Apr 21 12:07:53 2022

                                  ___fldiv@aexp 008D                                    ___fldiv@bexp 008C  
                        ?_EUSART2_RxDataHandler 0001                           displayTemp@rapidDelay 00C1  
                                  ___fldiv@sign 0085                                    ?_displayTemp 00BA  
                                            l53 3786                             ___wmul@multiplicand 001A  
                        __end_of_updateDispAnim 3BA6                                             l242 3E24  
                                           l251 3E06                                             l403 3A9E  
                                           l245 3E1A                                             l254 3E10  
                                           l422 3C66                                             l415 3E36  
                                           l431 3D3A                                             l248 3E2E  
                                           l440 3DFC                                             l409 397E  
                                           l425 3D22                                             l179 36A6  
                                           l283 3CCE                                             l612 3EA4  
                                           l445 35B8                                             l286 3D66  
                                           l606 3E9C                                             l615 3EAC  
                                           l395 3D7A                                             l564 3CAC  
                                           l718 3EB0                                             l567 3EA8  
                                           l399 34C0                                             l752 3ACA  
                                           l761 3CEC                                             l585 3EA0  
                                           l658 3A3A                                             l674 3DAE  
                                           l923 3BA4                                             l908 2D72  
                                           l917 3C1C                                             l934 286A  
                                           l956 25C8                                             l965 2682  
                                           l799 3D0A                                             l992 1B68  
                                           l896 2CEC                                             _PR2 000FCB  
                        __end_of_updateDispTemp 3C1E                               ?i2_I2C1_SetBuffer 0001  
                         ?_I2C1_MasterOperation 0001          __end_of_EUSART2_SetFramingErrorHandler 3E26  
                _EUSART2_SetFramingErrorHandler 3E1C                                 _timer1ReloadVal 0159  
                                  ___awmod@sign 0023                                 _TMR2_Initialize 3DA0  
                                           prod 000FF3                                             tosl 000FFD  
                                           wreg 000FE8                          ?_I2C1_MasterSendTxData 0001  
                                    _TXSTA2bits 000FA8                            _I2C1_DO_RX_NACK_STOP 3E40  
                                  ___flmul@aexp 0069                       ?_I2C1_MasterEnableRestart 0001  
                                  ___flmul@bexp 006E                        fp__I2C1_DO_SEND_ADR_READ 0000  
                            ??i2_I2C1_SetBuffer 0005                         fp__I2C1_DO_SEND_RESTART 0000  
                                  ___flmul@sign 0068                                    ___flmul@temp 0073  
                             main@currentMillis 0153                                    ___flmul@prod 006F  
                          I2C1_SetBuffer@buffer 0018                                    ___fltol@exp1 00B1  
                                          l1010 1BDC                                            l1013 3D9E  
                                          l1042 3BF6                                            l1051 3718  
                                          l1028 3208                         ??_rd2RegCompleteHandler 000C  
                                          l1054 3C42                                            l1039 3BEE  
                                          l1324 2F7E                                            l1351 2E7A  
                                          l1319 2F38                                            l1328 3A72  
                                          l1712 2A1E                                            l1608 12FE  
                                          l1624 393E                                            l1641 2150  
                                          l1609 12EC                                            l1298 337A  
                                          l1650 2238                                            l1723 29B6  
                                          l1716 295A                                            l1636 232C  
                                          l1709 28C2                                            l1733 2C64  
                                          l1638 218C                                            l1582 1114  
                                          l1647 21D2                                            l1591 13E4  
                                          l1583 1102                                            l1672 1810  
                                          l6000 11C8                                            l1584 10C8  
                                          l1649 224A                                            l1753 307C  
                                          l6010 1244                                            l6002 11FC  
                                          l1675 16A2                                            l1668 14AC  
                                          l6100 3BE4                                            l6020 1280  
                                          l6012 1254                                            l6004 11FE  
                                          l1685 17D2                                            l1677 171A  
                                          l1678 1708                                            l6110 1402  
                                          l6102 3BF4                                            l6030 12AC  
                                          l6022 1282                                            l6006 120E  
                                          l1759 38F8                                            l1599 122E  
                                          l1767 1F90                                            l6200 16D2  
                                          l6120 143A                                            l6112 1404  
                                          l6040 12E4                                            l6024 1290  
                                          l6016 1268                                            l6032 12AE  
                                          l6008 121E                                            l6210 1744  
                                          l6202 1700                                            l6130 1466  
                                          l6122 144A                                            l6114 1414  
                                          l6106 13E6                                            l6050 1362  
                                          l6026 1298                                            l6018 1272  
                                          l6034 12BC                                            l6220 17BA  
                                          l6212 176E                                            l6140 14BC  
                                          l6132 1476                                            l6124 1450  
                                          l6116 1424                                            l6108 13F4  
                                          l6060 13A8                                            l6044 130E  
                                          l6052 1364                                            l6036 12C0  
                                          l6028 129C                                            l7100 2B04  
                                          l6222 17D6                                            l6230 17FC  
                                          l6206 172A                                            l6214 1772  
                                          l6150 14F6                                            l6142 14CC  
                                          l6134 1486                                            l6126 1456  
                                          l6118 1434                                            l6310 2E5A  
                                          l6070 13D2                                            l6062 13B6  
                                          l6054 1374                                            l6046 131A  
                                          l6038 12CE                                            l7102 2B06  
                                          l6232 1800                                            l6224 17E6  
                                          l6216 178C                                            l6208 1736  
                                          l6160 1548                                            l6152 150C  
                                          l6136 1496                                            l6128 1464  
                                          l6312 2E6A                                            l6304 2E2E  
                                          l6320 288C                                            l6080 3732  
                                          l6072 13D4                                            l6064 13BC  
                                          l6056 1384                                            l6048 1328  
                                          l6400 1BFE                                            l7104 2B20  
                                          l6090 3CD0                                            l6226 17F4  
                                          l6218 17A0                                            l6170 158E  
                                          l6162 1556                                            l6154 1518  
                                          l6146 14E0                                            l6138 149C  
                                          l6306 2E3A                                            l6330 2904  
                                          l6322 28D2                                            l6082 3746  
                                          l6250 2EF8                                            l6242 2E7C  
                                          l6066 13BE                                            l6058 13A4  
                                          l6410 1CDA                                            l6402 1C48  
                                          l7106 2B26                                            l6092 3CD8  
                                          l6228 17F6                                            l6180 15FC  
                                          l6172 15A8                                            l6164 1562  
                                          l6156 1530                                            l6148 14EC  
                                          l6308 2E4A                                            l6340 298C  
                                          l6332 2910                                            l6324 28E8  
                                          l6316 286E                                            l6084 375A  
                                          l6076 371C                                            l6500 1FE2  
                                          l6260 2F7C                                            l6252 2F06  
                                          l6244 2EAA                                            l6068 13C4  
                                          l6236 38FA                                            l6420 1E7E  
                                          l6404 1C5C                                            l6094 3CE4  
                                          l6190 1692                                            l6182 1626  
                                          l6174 15B8                                            l6166 1572  
                                          l6158 153C                                            l6350 29CA  
                                          l6342 2998                                            l6334 2942  
                                          l6318 287E                                            l6086 376E  
                                          l6078 371C                                            l6510 2014  
                                          l6502 1FEA                                            l6254 2F18  
                                          l6246 2EBA                                            l6238 390A  
                                          l6422 1EEA                                            l6414 1D12  
                                          l6406 1C98                                            l7070 2A2A  
                                          l7062 2A20                                            l6192 16A0  
                                          l6184 165C                                            l6176 15D4  
                                          l6168 157E                                            l6280 2DCA  
                                          l6272 2D74                                            l6352 29EE  
                                          l6344 29A6                                            l6336 2944  
                                          l6328 28FC                                            l5800 3440  
                                          l6088 3772                                            l6600 22A2  
                                          l6520 2048                                            l6512 2016  
                                          l6504 1FFA                                            l6256 2F26  
                                          l6248 2EE8                                            l6440 2BBA  
                                          l6432 2B46                                            l6264 3A3C  
                                          l6424 1F1E                                            l6416 1DE0  
                                          l6408 1CBC                                            l7080 2A50  
                                          l7072 2A2C                                            l7064 2A24  
                                          l6194 16B2                                            l6186 166A  
                                          l6178 15E0                                            l6282 2DCC  
                                          l6274 2D8C                                            l6354 29FE  
                                          l6346 29C4                                            l6338 2950  
                                          l5810 3452                                            l5802 3442  
                                          l6098 3BD2                                            l6450 3148  
                                          l6610 230C                                            l6602 22BC  
                                          l6530 208E                                            l6514 2026  
                                          l6522 2050                                            l6506 2000  
                                          l6258 2F76                                            l6370 3012  
                                          l6362 2F80                                            l6442 2C04  
                                          l6434 2B6C                                            l6266 3A52  
                                          l6426 1F5C                                            l6418 1E4C  
                                          l7090 2AB8                                            l7082 2A58  
                                          l7074 2A2E                                            l7066 2A26  
                                          l6196 16C0                                            l6188 1688  
                                          l6284 2DDC                                            l6356 2A0C  
                                          l6348 29C6                                            l5820 347A  
                                          l5812 345A                                            l5804 3444  
                                          l6460 3190                                            l6452 316C  
                                          l6612 231A                                            l6604 22D2  
                                          l6540 20B6                                            l6532 2092  
                                          l6524 2060                                            l6516 2036  
                                          l6508 2006                                            l6380 3074  
                                          l6364 2FA0                                            l6436 2B80  
                                          l6268 3A62                                            l5900 0FAC  
                                          l6428 1F80                                            l6700 23C8  
                                          l7092 2AD4                                            l7084 2A6C  
                                          l7076 2A2E                                            l7068 2A28  
                                          l6630 32E6                                            l6198 16C4  
                                          l6294 2E06                                            l6286 2DE0  
                                          l6278 2DA0                                            l6358 2A0E  
                                          l6390 36A8                                            l5750 3EAA  
                                          l5830 34A2                                            l5822 3482  
                                          l5814 3462                                            l5806 3448  
                                          l6470 31CA                                            l6462 31A0  
                                          l6454 3170                                            l6614 2320  
                                          l6606 22EC                                            l6550 2104  
                                          l6526 2076                                            l6518 2046  
                                          l6366 2FDE                                            l6374 301E  
                                          l6446 2C2E                                            l6438 2BA6  
                                          l5910 0FEC                                            l5902 0FBA  
                                          l6710 2420                                            l6702 23CC  
                                          l7254 2CCE                                            l7094 2ADC  
                                          l7086 2AA4                                            l7078 2A40  
                                          l6640 331A                                            l6632 32EA  
                                          l6624 32CC                                            l6480 3C1E  
                                          l6296 2E10                                            l6288 2DEE  
                                          l6392 36A8                                            l5760 3E9A  
                                          l5752 3C8C                                            l5832 34AE  
                                          l5824 348A                                            l5816 346A  
                                          l5808 3450                                            l5840 34BE  
                                          l6472 31D0                                            l6464 31AA  
                                          l6456 3180                                            l6800 1976  
                                          l6616 2322                                            l6608 2308  
                                          l6560 214E                                            l6552 2114  
                                          l6544 20CA                                            l6528 2086  
                                          l6536 20A6                                            l6376 3030  
                                          l6368 3006                                            l6384 38AA  
                                          l5920 1026                                            l5912 0FEE  
                                          l5904 0FBC                                            l6720 249C  
                                          l6712 243C                                            l6704 23E0  
                                          l7096 2AE8                                            l7088 2AB4  
                                          l6650 3354                                            l6642 3322  
                                          l6634 32F8                                            l6626 32D0  
                                          l6482 3C3A                                            l6298 2E1A  
                                          l6394 3708                                            l5762 3EA2  
                                          l5746 3E9E                                            l5770 3956  
                                          l5754 3C9A                                            l5834 34B2  
                                          l5826 3492                                            l5818 3472  
                                          l5850 3C5C                                            l6474 31DE  
                                          l6466 31B0                                            l6458 318A  
                                          l6810 1A06                                            l6802 199A  
                                          l6570 219C                                            l6562 215A  
                                          l6554 211C                                            l6546 20E4  
                                          l6538 20B6                                            l6490 1FAE  
                                          l6386 38CA                                            l5930 103A  
                                          l5922 102A                                            l5906 0FCC  
                                          l5914 0FF6                                            l6730 24FC  
                                          l6722 24A4                                            l6714 2458  
                                          l6706 23FC                                            l7098 2AEA  
                                          l6660 3E08                                            l6900 3DA8  
                                          l6644 3330                                            l6652 335A  
                                          l6636 3300                                            l6628 32DE  
                                          l5764 3EA6                                            l5860 3A74  
                                          l5780 3978                                            l5772 3958  
                                          l5756 3CAA                                            l5748 3DF4  
                                          l5836 34B6                                            l5828 349A  
                                          l5852 3C64                                            l5844 3D0C  
                                          l6476 31EC                                            l6468 31C0  
                                          l6820 1A78                                            l6812 1A0E  
                                          l6804 19AA                                            l6572 21B2  
                                          l6580 21E2                                            l6564 2178  
                                          l6556 212C                                            l6548 20F4  
                                          l6492 1FB0                                            l5940 104E  
                                          l5932 103E                                            l5924 102E  
                                          l5916 1006                                            l5908 0FDC  
                                          l6740 2564                                            l6732 2518  
                                          l6724 24C0                                            l6716 2464  
                                          l6708 2418                                            l6662 3DFE  
                                          l6902 3AA0                                            l6654 336A  
                                          l6646 3346                                            l6638 3312  
                                          l5870 3A9C                                            l5862 3A78  
                                          l5774 395C                                            l5782 397C  
                                          l5766 3942                                            l5838 34BA  
                                          l5790 3588                                            l5854 3D24  
                                          l5846 3C44                                            l6478 31FA  
                                          l6830 1AD0                                            l6822 1A80  
                                          l6814 1A20                                            l6806 19BC  
                                          l6582 21F0                                            l6574 21B8  
                                          l6566 217A                                            l6558 2140  
                                          l6494 1FC0                                            l6486 1F92  
                                          l5950 1062                                            l5942 1052  
                                          l5934 1042                                            l5926 1032  
                                          l5918 1018                                            l6398 1BDE  
                                          l6670 2684                                            l6750 25C0  
                                          l6742 2580                                            l6734 2524  
                                          l6718 2480                                            l6910 2C6A  
                                          l6664 3E1C                                            l6904 3AAC  
                                          l6656 3372                                            l6648 334E  
                                          l5864 3A88                                            l5776 396C  
                                          l5768 3946                                            l5856 3E30  
                                          l5792 3426                                            l5848 3C54  
                                          l6840 1B60                                            l6832 1AF4  
                                          l6824 1ABA                                            l6816 1A30  
                                          l6808 19F6                                            l6592 225A  
                                          l6584 21F4                                            l6576 21C2  
                                          l6568 218A                                            l6496 1FD0  
                                          l6488 1FA0                                            l5960 10C0  
                                          l5944 1056                                            l5936 1046  
                                          l5928 1036                                            l5952 1066  
                                          l5880 0F42                                            l6680 276A  
                                          l6672 269A                                            l6760 263A  
                                          l6744 259C                                            l6736 2540  
                                          l6728 24E0                                            l6920 2CB0  
                                          l6666 3E12                                            l6906 3AAE  
                                          l5866 3A8C                                            l5778 3974  
                                          l5794 342A                                            l5786 3542  
                                          l6850 1B9A                                            l6826 1ACA  
                                          l6818 1A68                                            l6834 1B04  
                                          l6770 182C                                            l6594 2266  
                                          l6586 2202                                            l6578 21D0  
                                          l6498 1FE0                                            l5970 10F6  
                                          l5962 10D6                                            l5954 106A  
                                          l5946 105A                                            l5938 104A  
                                          l5882 0F52                                            l5890 0F7C  
                                          l5874 0F26                                            l6682 27AA  
                                          l6674 26C2                                            l6762 264A  
                                          l6738 255C                                            l6754 25C8  
                                          l6690 235C                                            l6930 2D1C  
                                          l6914 2C80                                            l6668 3E26  
                                          l6860 3634                                            l6908 3AC6  
                                          l5868 3A98                                            l5796 343A  
                                          l5788 3554                                            l6852 1BAA  
                                          l6836 1B16                                            l6828 1ACE  
                                          l6844 1B68                                            l6780 18AC  
                                          l6772 1840                                            l6596 2274  
                                          l6588 2230                                            l5980 1146  
                                          l5972 1100                                            l5964 10E2  
                                          l5956 1094                                            l5948 105E  
                                          l5892 0F8C                                            l5884 0F62  
                                          l5876 0F32                                            l6684 27C2  
                                          l6676 271E                                            l6756 25E6  
                                          l6764 2664                                            l6748 25A4  
                                          l6692 2378                                            l6940 2D6A  
                                          l6932 2D2E                                            l6916 2C90  
                                          l6924 2CB8                                            l6870 3658  
                                          l6862 3636                                            l6950 3CB2  
                                          l5798 343E                                            l6854 1BBC  
                                          l6846 1B78                                            l6838 1B50  
                                          l6790 191E                                            l6774 1852  
                                          l6782 18B6                                            l6598 229E  
                                          l5990 1182                                            l5982 1156  
                                          l5974 1122                                            l5966 10E6  
                                          l5958 10B0                                            l5894 0F92  
                                          l5886 0F72                                            l5878 0F40  
                                          l6686 285A                                            l6678 2756  
                                          l6766 2668                                            l6758 25FA  
                                          l6694 237C                                            l6934 2D3A  
                                          l6918 2CA0                                            l6926 2CF0  
                                          l6880 367C                                            l6872 365C  
                                          l6864 3642                                            l6960 3CC6  
                                          l6952 3CB6                                            l6856 1BCE  
                                          l6848 1B88                                            l6792 1926  
                                          l6784 18C6                                            l6776 185A  
                                          l6768 1812                                            l5992 1190  
                                          l5984 1164                                            l5976 1132  
                                          l5968 10F4                                            l5896 0FA4  
                                          l5888 0F74                                            l6696 2390  
                                          l6688 232E                                            l6936 2D4C  
                                          l6928 2D00                                            l6882 36A4  
                                          l6874 3660                                            l6866 3650  
                                          l6890 3A00                                            l6962 3CCA  
                                          l6954 3CBA                                            l6794 1960  
                                          l6786 18D6                                            l6778 1876  
                                          l5994 1192                                            l5986 1172  
                                          l5898 0FA6                                            l6858 3D90  
                                          l6698 23AC                                            l6938 2D58  
                                          l6876 3664                                            l6868 3654  
                                          l6884 3EAE                                            l6892 3A22  
                                          l6956 3CBE                                            l6948 3CAE  
                                          l6796 1970                                            l6788 190E  
                                          l5996 119C                                            l5988 117E  
                                          l6964 3BF8                                            l6878 3670  
                                          l6886 3D68                                            l6894 3D54  
                                          l6958 3CC2                                            l6798 1974  
                                          l5998 11A2                                            l6966 3B80  
                                          l6896 3CEE                                            l6888 3D78  
                                          l6898 3DA0                                            _LATA 000F89  
                                          _LATB 000F8A                                            _LATC 000F8B  
                                          u5020 3C9A                                            u5100 0F52  
                                          u5021 3C96                                            u5101 0F4E  
                                          u5030 3956                                            u5110 0F62  
                                          u5031 3952                                            u5111 0F5E  
                                          u5040 396C                                            u6000 38EA  
                                          u5200 10AE                                            u5120 0FA4  
                                          u5041 3968                                            u5121 0FA0  
                                          u5050 3554                                            u5210 10D6  
                                          u5130 0FBA                                            u6010 1C20  
                                          u5051 3550                                            u5211 10D2  
                                          u5131 0FB6                                            u5060 343A  
                                          u6100 2B6C                                            u5300 120E  
                                          u5220 10F4                                            u5140 0FCC  
                                          u6020 1C48                                            u5061 3436  
                                          u6005 38E0                                            u6101 2B68  
                                          u5301 120A                                            u5221 10F0  
                                          u5141 0FC8                                            u6021 1C44  
                                          u5070 3C54                                            u6110 2BA6  
                                          u5310 1244                                            u5230 1114  
                                          u5150 0FDC                                            u6030 1C7C  
                                          u5071 3C50                                            u6111 2BA2  
                                          u5311 1240                                            u5231 1110  
                                          u5151 0FD8                                            u6015 1C14  
                                          u5080 3A88                                            u6200 1FD0  
                                          u6120 2C04                                            u5400 130E  
                                          u5320 1254                                            u5240 1122  
                                          u5160 1018                                            u6040 1C98  
                                          u5081 3A84                                            u6201 1FCC  
                                          u6121 2C00                                            u5401 130A  
                                          u5321 1250                                            u5241 111E  
                                          u5161 1014                                            u6041 1C94  
                                          u6210 2014                                            u6130 2C2A  
                                          u5410 1328                                            u5330 1280  
                                          u5250 1132                                            u5170 1026  
                                          u5090 0F40                                            u6050 1CDA  
                                          u6211 2010                                            u6131 2C26  
                                          u5411 1324                                            u5331 127C  
                                          u5251 112E                                            u5171 1022  
                                          u5091 0F3C                                            u6051 1CD6  
                                          u6035 1C72                                            u5500 3BE4  
                                          u6300 21B2                                            u6220 2026  
                                          u6140 2C60                                            u5420 1362  
                                          u5340 1290                                            u5260 1164  
                                          u5180 1094                                            u6060 1DE0  
                                          u5501 3BE0                                            u6301 21AE  
                                          u6221 2022                                            u6141 2C5C  
                                          u5421 135E                                            u5341 128C  
                                          u5261 1160                                            u5181 1090  
                                          u6061 1DDC                                            u5510 1402  
                                          u6150 3180                                            u6310 21D0  
                                          u6230 2036                                            u5430 1374  
                                          u5350 12AC                                            u5270 1172  
                                          u5190 10AC                                            u6070 1E7E  
                                          u5511 13FE                                            u6151 317C  
                                          u6311 21CC                                            u6231 2032  
                                          u5431 1370                                            u5351 12A8  
                                          u5271 116E                                            u5191 10A6  
                                          u6071 1E7A                                            u5600 16A0  
                                          u5520 1414                                            u6160 31A0  
                                          u6400 231A                                            u6320 21F0  
                                          u6240 2076                                            u5440 1384  
                                          u5360 12BC                                            u5280 1190  
                                          u6080 1F40                                            u5601 169C  
                                          u5521 1410                                            u6161 319C  
                                          u6401 2316                                            u6321 21EC  
                                          u6241 2072                                            u5441 1380  
                                          u5361 12B8                                            u5281 118C  
                                          u6410 32DE                                            u5610 16C0  
                                          u5530 1424                                            u6170 31C0  
                                          u6330 2202                                            u6250 20B6  
                                          u5450 13A4                                            u5370 12CE  
                                          u5290 11C8                                            u6090 1F5C  
                                          u6411 32DA                                            u5611 16BC  
                                          u5531 1420                                            u6171 31BC  
                                          u6331 21FE                                            u6251 20B2  
                                          u5451 13A0                                            u5371 12CA  
                                          u5291 11C4                                            u6091 1F58  
                                          u7107 2B32                                            u6420 32F8  
                                          u5620 16D2                                            u5540 1464  
                                          u6340 2230                                            u6260 212C  
                                          u6180 1FAE                                            u5700 2EAA  
                                          u5460 13B6                                            u5380 12E4  
                                          u6500 23C8                                            u7060 2AA4  
                                          u6421 32F4                                            u5621 16CE  
                                          u5541 1460                                            u6341 222C  
                                          u6261 2128                                            u6181 1FAA  
                                          u5701 2EA6                                            u5461 13B2  
                                          u5381 12E0                                            u6085 1F34  
                                          u6501 23C4                                            u7061 2AA0  
                                          u6430 3312                                            u5630 1700  
                                          u5550 1476                                            u6350 2246  
                                          u6270 214E                                            u6190 1FC0  
                                          u5710 2EE8                                            u5470 13D2  
                                          u5390 12FA                                            u6510 23FC  
                                          u7070 2AD4                                            u6431 330E  
                                          u5631 16FC                                            u5551 1472  
                                          u6351 2242                                            u6271 214A  
                                          u6191 1FBC                                            u5711 2EE4  
                                          u5471 13CE                                            u5391 12F6  
                                          u6511 23F8                                            u7071 2AD0  
                                          u6440 3330                                            u5640 1716  
                                          u5560 1486                                            u5800 2E2A  
                                          u5480 3732                                            u6360 225A  
                                          u6280 2178                                            u5720 2F06  
                                          u6600 2518                                            u6520 2418  
                                          u6441 332C                                            u5641 1712  
                                          u5561 1482                                            u5801 2E26  
                                          u5481 372E                                            u6361 2256  
                                          u6281 2174                                            u5721 2F02  
                                          u6601 2514                                            u6521 2414  
                                          u6450 3346                                            u5650 172A  
                                          u5570 14BC                                            u5810 2E4A  
                                          u5490 3786                                            u6370 2274  
                                          u6290 219C                                            u5730 2F26  
                                          u6610 2540                                            u6530 243C  
                                          u6451 3342                                            u5651 1726  
                                          u5571 14B8                                            u5811 2E46  
                                          u5491 3782                                            u6371 2270  
                                          u6291 2198                                            u5731 2F22  
                                          u6611 253C                                            u6531 2438  
                                          u6460 336A                                            u5660 1744  
                                          u5580 14CC                                            u5820 2E5A  
                                          u5900 29C4                                            u6700 1852  
                                          u6380 22BC                                            u5740 2F76  
                                          u6620 255C                                            u6540 2458  
                                          u6461 3366                                            u5661 1740  
                                          u5581 14C8                                            u5821 2E56  
                                          u5901 29C0                                            u6701 184E  
                                          u6381 22B8                                            u5741 2F72  
                                          u6621 2558                                            u6541 2454  
                                          u5670 178C                                            u5590 1646  
                                          u5910 29FE                                            u5830 287E  
                                          u6710 18C6                                            u6390 22EC  
                                          u5750 3A52                                            u6470 27AA  
                                          u6630 2580                                            u6550 2480  
                                          u5671 1788                                            u5911 29FA  
                                          u5831 287A                                            u6711 18C2  
                                          u6391 22E8                                            u5751 3A4E  
                                          u6471 27A6                                            u6631 257C  
                                          u6551 247C                                            u7087 2AF6  
                                          u5680 17BA                                            u5760 2D8C  
                                          u5920 2A0C                                            u5840 288C  
                                          u6800 1A68                                            u6720 18D6  
                                          u6640 259C                                            u6560 249C  
                                          u6480 2378                                            u5681 17B6  
                                          u5761 2D88                                            u5921 2A08  
                                          u5841 2888                                            u6801 1A64  
                                          u6721 18D2                                            u6641 2598  
                                          u6561 2498                                            u6481 2374  
                                          u7097 2B12                                            u5690 17F4  
                                          u5770 2DC0                                            u5850 28E8  
                                          u6810 1ABA                                            u6730 190E  
                                          u5930 2FC0                                            u6650 25C0  
                                          u6570 24C0                                            u6490 23AC  
                                          u5691 17F0                                            u5595 163C  
                                          u5851 28E4                                            u6811 1AB6  
                                          u6731 190A                                            u6651 25BC  
                                          u6571 24BC                                            u6491 23A8  
                                          i2l92 3B4E                                            u5780 2DEE  
                                          u5860 293E                                            u6820 1AF4  
                                          u6740 1960                                            u5940 2FDE  
                                          u6660 25E6                                            u6580 24DC  
                                          u6900 2D00                                            u5781 2DEA  
                                          u5861 293A                                            u6821 1AF0  
                                          u6741 195C                                            u5941 2FDA  
                                          u6661 25E2                                            u6581 24D8  
                                          u6901 2CFC                                            u5790 2E02  
                                          u5870 2988                                            u6830 1B16  
                                          u6750 199A                                            u5950 3006  
                                          u6670 263A                                            u6590 24FC  
                                          u6910 2D2E                                            i2l95 3B22  
                                          u5791 2DFE                                            u5775 2DB6  
                                          u5871 2984                                            u6831 1B12  
                                          u6751 1996                                            u5951 3002  
                                          u5935 2FB6                                            u6671 2636  
                                          u6591 24F8                                            u6911 2D2A  
                                          u5880 29A6                                            u6840 1B50  
                                          u6760 19BC                                            u5960 3030  
                                          u6680 265C                                            u6920 2D4C  
                                          u5881 29A2                                            u6841 1B4C  
                                          u6761 19B8                                            u5961 302C  
                                          u6681 2656                                            u6921 2D48  
                                          i2l98 3AF6                                            u5890 29B6  
                                          u6850 1B78                                            u6770 19F6  
                                          u6690 265E                                            u6930 2D6A  
                                          u5891 29B2                                            u6851 1B74  
                                          u6771 19F2                                            u6931 2D66  
                                          u6860 1B88                                            u6780 1A20  
                                          u5980 306A                                            u6861 1B84  
                                          u6781 1A1C                                            u5981 3064  
                                          u6870 1BAA                                            u6790 1A30  
                                          u5990 306C                                            u6871 1BA6  
                                          u6791 1A2C                                            u5975 3042  
                                          u6880 1BBC                                            u6881 1BB8  
                                          u6890 2C7C                                            u6891 2C78  
                                          _TMR2 000FCC                           ??_EUSART2_Receive_ISR 0001  
                       ??_wr2RegCompleteHandler 000C                                ??_I2C1_MasterFsm 000E  
                              ??_I2C1_MasterIsr 000E                       ??_I2C1_CallbackReturnStop 000C  
                                          _main 2A20                                            fsr2h 000FDA  
                                          indf2 000FDF                                            fsr1l 000FE1  
                                          fsr2l 000FD9                                            btemp 0048  
                                 ___fpclassifyf 2F80                                            prodh 000FF4  
                                          prodl 000FF3                                            start 013E  
                              ??_I2C1_SetBuffer 001C                                 ___fldiv@new_exp 0086  
                  __end_of_EUSART2_Transmit_ISR 3A00                                    ___param_bank 000000  
                            i2_I2C1_SetCallback 35BA                     displayAlt@completeDispDelay 00C2  
                 I2C1_CallbackReturnStop@funPtr 000A                   __end_of_OSCILLATOR_Initialize 3D68  
                           ?i2_I2C1_SetCallback 0001                                   ___fltol@sign1 00B0  
                             __end_of_I2C1_Open 34C2                                 __end_of___fladd 13E6  
                                         ?_main 0001                                 __end_of___fldiv 232E  
                               __end_of___flneg 3A74                                 __end_of___awmod 337C  
                               __end_of___flmul 1812                                 __end_of___flsub 3940  
                               __end_of___fltol 2E7C                                 ?_updateDispAnim 0001  
                                         _T1CON 000FCD                                           _T2CON 000FCA  
                                  updateLED@alt 00D7                                           i2l101 3B7A  
                                         i2l104 39BE                                           i2l230 3BCE  
                                         i2l216 39FC                                           i2l233 3ED2  
                                         i2l226 32CA                                           i2l219 39FE  
                                         i2l236 3E8E                                           i2l422 3C8A  
                                         i2l239 3E94                                           i2l425 3D52  
                                         i2l522 3E5E                                           i2l531 3E46  
                                         i2l516 3E6E                                           i2l452 3856  
                               ?_updateDispTemp 0145                                           i2l445 3632  
                                         i2l461 3DBE                                           i2l525 3E56  
                                         i2l534 3E3E                                           i2l551 3EC8  
                                         i2l455 3DF2                                           i2l519 3E66  
                                         i2l543 37F2                                           i2l615 3EB4  
                                         i2l464 310C                                           i2l480 33B2  
                                         i2l528 3E4E                                           i2l448 3E7C  
                                         i2l481 3422                                           i2l537 3DDA  
                                         i2l554 3EC4                                           i2l570 3EBC  
                                         i2l618 3EB8                                           i2l458 3DCE  
                                         i2l467 3144                                           i2l492 3DE6  
                                         i2l724 007C                                           i2l573 3E76  
                                         i2l733 0112                                           i2l582 3EC0  
                                         i2l726 00B8                                           i2l591 3D8E  
                                         i2l727 0112                                           i2l576 3ED0  
                                         i2l728 00F2                                           i2l594 3E82  
                                         i2l498 353E                                           i2l588 3ECC  
                                         i2l597 3E88                      __end_of_i2c1_fsmStateTable 0F21  
                        ??_I2C1_MasterEnableIrq 0018                                           _TMR1H 000FCF  
                                         _TMR1L 000FCE                                           _RPOR6 000EC6  
                                         _TRISA 000F92                                           _TRISB 000F93  
                                         _TRISC 000F94                          ??_I2C1_MasterGetRxData 0001  
                         ?_I2C1_DO_RX_NACK_STOP 0001                      ??_I2C1_CallbackReturnReset 000C  
                             ??_I2C1_MasterOpen 0018                               ??_I2C1_MasterStop 0001  
                             ??_I2C1_Initialize 0018                                 __end_of_byteMin 3BF8  
                                         _fminf 2B46                                           _scale 0165  
                                         _toint 0F21                         __end_of_TMR1_Initialize 3ACC  
                                         pclath 000FFA                                           pclatu 000FFB  
                                         tablat 000FF5                                    ___signbitf@x 0018  
                                  ___signbitf@y 0020                            ??i2_I2C1_SetCallback 0005  
                                         ttemp5 0049                                           ttemp6 004C  
                                         ttemp7 0050                                           status 000FD8  
                                         wtemp8 0049                                  ?___fpclassifyf 0018  
                                  ??_I2C1_DO_RX 000C                                    ??_I2C1_DO_TX 000C  
                        ??_I2C1_DO_ADDRESS_NACK 000C                                    ??_I2C1_Close 0018  
         __end_of_EUSART2_SetTxInterruptHandler 3E08                   _EUSART2_SetTxInterruptHandler 3DFE  
                      fp__rd1RegCompleteHandler 0000                                 __initialization 3858  
                                  __end_of_main 2B46                        fp__wr1RegCompleteHandler 0000  
                       __end_of_TMR2_Initialize 3DB0                     ?_INTERRUPT_InterruptManager 0001  
                      displayAlt@previousMillis 00DB                    fp__I2C1_DO_SEND_RESTART_READ 0000  
                        ??_I2C1_MasterOperation 0018                                          ??_main 0147  
                                 __activetblptr 000002             __end_of_EUSART2_DefaultErrorHandler 3E96  
                   _EUSART2_DefaultErrorHandler 3E90                              __end_of_I2C1_DO_RX 3424  
                            __end_of_I2C1_DO_TX 3146                              __end_of_I2C1_Close 3AA0  
                    __end_of_EUSART2_Initialize 36A8                                          _ADCON0 000FC2  
                                        _ADCON1 000FC1                        _eusart2TxBufferRemaining 0047  
                                        ?_fminf 0075                                          _ADRESH 000FC4  
                                        _ADRESL 000FC3                                          _ANCON0 000F48  
                                        _ANCON1 000F49                                          _T1GCON 000F9A  
                                        _ODCON1 000F42                                          _ODCON2 000F41  
                                        _ODCON3 000F40                                   updateLED@mode 00D2  
                                        i2l5000 37A4                                   updateLED@temp 00D5  
                                        i2l4122 35BC                                          i2l4124 35CE  
                                        i2l4142 3ECE                                          i2l4126 3602  
                                        i2l4144 3ECA                                          i2l4146 3E84  
                                        i2l4502 3E72                                          i2l4510 3E60  
                                        i2l5224 3E8A                                          i2l4504 3E68  
                                        i2l4512 3E64                                          i2l5226 3E90  
                                        i2l4450 3C78                                          i2l4522 3EBA  
                                        i2l4506 3E6C                                          i2l4530 3E3C  
                                        i2l5340 39C0                                          i2l4452 3C80  
                                        i2l4460 3B38                                          i2l4540 3EBE  
                                        i2l4516 3E50                                          i2l5260 381C  
                                        i2l5350 39F6                                          i2l5342 39D0  
                                        i2l4454 3C88                                          i2l4462 3B4C  
                                        i2l4470 3B20                                          i2l4550 3EC6  
                                        i2l4526 3E7E                                          i2l4542 3E58  
                                        i2l4518 3E54                                          i2l4534 3E40  
                                        i2l5262 3822                                          i2l5254 37F4  
                                        i2l5360 3252                                          i2l5352 320A  
                                        i2l5344 39E0                                          i2l4448 3C68  
                                        i2l4456 3D3C                                          i2l4544 3E5C  
                                        i2l4536 3E44                                          i2l4528 3E38  
                                        i2l5256 37F8                                          i2l5370 32C6  
                                        i2l5362 3260                                          i2l5354 321A  
                                        i2l5346 39E2                                          i2l4482 3B50  
                                        i2l4458 3B24                                          i2l4466 3AF8  
                                        i2l4474 3ACC                                          i2l4490 3980  
                                        i2l4554 3EC2                                          i2l5258 3808  
                                        i2l5364 3270                                          i2l5356 3228  
                                        i2l5348 39F2                                          i2l4484 3B64  
                                        i2l4468 3B0C                                          i2l4476 3AE0  
                                        i2l4492 39A8                                          i2l4548 3EB6  
                                        i2l5366 328A                                          i2l5358 3238  
                                        i2l4486 3B78                                          i2l4478 3AF4  
                                        i2l4494 39BC                                          i2l4910 3390  
                                        i2l5198 3EB2                                          i2l5550 008A  
                                        i2l5542 0032                                          i2l4840 3BB6  
                                        i2l5368 32A6                                          i2l4920 33B8  
                                        i2l4912 33A8                                          i2l5552 0098  
                                        i2l5544 0040                                          i2l4842 3BB8  
                                        i2l4498 3D7C                                          i2l4850 3DEC  
                                        i2l4930 33C8                                          i2l4914 33AC  
                                        i2l4906 337C                                          i2l5554 00C6  
                                        i2l5546 004E                                          i2l4844 3BC8  
                                        i2l4852 3DF0                                          i2l4860 3DCC  
                                        i2l7260 30E6                                          i2l4924 33C0  
                                        i2l4908 338A                                          i2l4940 3DE0  
                                        i2l5388 3E78                                          i2l5556 00D4  
                                        i2l5548 005C                                          i2l4846 3BCC  
                                        i2l4838 3BA6                                          i2l7262 3518  
                                        i2l4942 3DE4                                          i2l5558 0100  
                                        i2l4952 34D2                                          i2l4848 3DE8  
                                        i2l4856 3DC0                                          i2l4864 3DB0  
                                        i2l4880 309E                                          i2l4872 307E  
                                        i2l7256 37DC                                          i2l4954 34D6  
                                        i2l4946 34C2                                          i2l4858 3DC4  
                                        i2l4866 3DB4                                          i2l4890 30AE  
                                        i2l7258 33FC                                          i2l4938 3DDC  
                                        i2l4948 34CA                                          i2l4964 34E4  
                                        i2l4868 3DBC                                          i2l4892 3110  
                                        i2l4884 30A6                                          i2l4876 3096  
                                        i2l4972 3E48                                          i2l4980 3DD4  
                                        i2l4958 34DC                                          i2l4894 3122  
                                        i2l4974 3E4C                                          i2l4982 3DD8  
                                        i2l4990 3794                                          i2l4896 313C  
                                        i2l4898 3142                                          i2l4978 3DD0  
                                        i2l4994 379C                                          i2l4986 3788  
                                        i2l4988 378C                                          _RCREG2 000FAA  
                                        _RCSTA2 000F9C                                          _OSCCON 000FD3  
                                        _SPBRG2 000FAB                               ?_I2C1_MasterClose 0001  
                                        _TXREG2 000FA9                                __end_of___xxtofl 2A20  
                                        _TXSTA2 000FA8                         ??_I2C1_MasterDisableIrq 0018  
                             ?_I2C1_MasterStart 0001                               ?_I2C1_MasterWrite 0001  
                            ??_I2C1_MasterClose 0018                                _I2C1_DO_TX_EMPTY 34C2  
                            ??_I2C1_MasterStart 0018                               displayAlt@altHund 00EF  
                            ??_I2C1_MasterWrite 001A                                   displayAlt@alt 00BA  
                             displayAlt@altThou 00F1                        ?_I2C1_Write1ByteRegister 0021  
                                        ___flge 2E7C                                       ??___fladd 0020  
                                        ___wmul 3C1E                                       ??___fldiv 007D  
                                     ??___flneg 001C                                       ??___awmod 0022  
                                     ??___flmul 002E                                       ??___flsub 0030  
                                     ??___fltol 00AC                               displayAlt@counter 00FB  
                                        _setLED 3146                                     setLED@green 0024  
                                        _millis 36A8                                          clear_0 387E  
                                        clear_1 388A                                          clear_2 3896  
                               ___awmod@divisor 0020                                          isa$std 000001  
                   _EUSART2_FramingErrorHandler 015F                                 ___awmod@counter 0022  
                                        _roundf 1BDE                                          fminf@x 0075  
                                        fminf@y 0079                        ??_I2C1_DO_SEND_ADR_WRITE 0002  
                             ?_I2C1_SetCallback 0018                          ??_I2C1_DO_RX_NACK_STOP 0001  
              __end_of_I2C1_SetInterruptHandler 3DFE                                       ??_byteMin 0019  
                         _I2C1_DO_SEND_ADR_READ 3DC0                   ?_I2C1_SetDataCompleteCallback 001D  
                               ___fpclassifyf@e 0020                                 ___fpclassifyf@u 0022  
                               ___fpclassifyf@x 0018                              ??_I2C1_SetCallback 001C  
                                  __mediumconst 0000                                          tblptrh 000FF7  
                                        tblptrl 000FF6                                          tblptru 000FF8  
                          _EUSART2_Transmit_ISR 39C0        I2C1_SetInterruptHandler@InterruptHandler 0018  
                       _I2C1_DO_RX_NACK_RESTART 3E38                      fp__I2C1_DO_RX_NACK_RESTART 0000  
                         i2_I2C1_MasterClearIrq 3EB2                                 _eusart2RxBuffer 012C  
                                    ___flge@ff1 0018                                      ___flge@ff2 001C  
                               ??___fpclassifyf 001C                                ?_TMR1_Initialize 0001  
                                  ___xxtofl@arg 002A                                    ___xxtofl@exp 0029  
                             _SYSTEM_Initialize 3CAE                                    ___xxtofl@val 0020  
                I2C1_SetDataCompleteCallback@cb 001D                i2I2C1_SetDataCompleteCallback@cb 0006  
                               _eusart2TxBuffer 0134                                      __accesstop 0060  
                       __end_of__initialization 389C                                      ___flneg@f1 0018  
               I2C1_MasterOperation@returnValue 0019                              ?_SYSTEM_Initialize 0001  
                                 ___rparam_used 000001                                      ___fltol@f1 00A8  
                       ??_EUSART2_RxDataHandler 0001                         _rdBlkRegCompleteHandler 3980  
                    fp__rdBlkRegCompleteHandler 0000                                  __pcstackCOMRAM 0001  
                                  __pidataBANK1 3E96                             ??_SYSTEM_Initialize 001A  
              __end_of_I2C1_MasterEnableRestart 3ED2                                   __end_of_fminf 2C66  
                ?_EUSART2_SetTxInterruptHandler 0018                                      ___signbitf 38AA  
                                 __end_of_toint 0F25                                ?_TMR2_Initialize 0001  
                  ??_I2C1_DO_SEND_RESTART_WRITE 0001                         ??_I2C1_MasterSendTxData 0001  
                      ?_EUSART2_SetErrorHandler 0018                           ?_EUSART2_Transmit_ISR 0001  
                         __end_of_I2C1_DO_RESET 3DDC                                         ??_fminf 007D  
                     __end_of_SYSTEM_Initialize 3CD0                                   _eusart2RxHead 0044  
                                 _eusart2TxHead 0046                                      __pbssBANK0 00DB  
                                    __pbssBANK1 0100                                   _eusart2RxTail 0043  
                                 _eusart2TxTail 0045                   __end_of_rd2RegCompleteHandler 3B24  
                         displayAlt@offNumDelay 00C4                          displayHR@currentMillis 00EB  
                          I2C1_Open@returnValue 001B                              main@previousMillis 014F  
              ??_EUSART2_SetFramingErrorHandler 001A                 ?_EUSART2_SetFramingErrorHandler 0018  
                                    __pnvCOMRAM 0047                   __end_of_wr2RegCompleteHandler 3B7C  
               __end_of_I2C1_Write1ByteRegister 3788                      i2I2C1_SetBuffer@bufferSize 0003  
                         _rd1RegCompleteHandler 3B24                               _I2C1_DO_SEND_STOP 3E50  
                         _wr1RegCompleteHandler 3ACC                        rd1RegCompleteHandler@ptr 000A  
                                 fp__I2C1_DO_RX 0000                                   fp__I2C1_DO_TX 0000  
                               fp__I2C1_DO_IDLE 0000                                 fp__I2C1_DO_RCEN 0000  
                                       ?___flge 0018                         fp__I2C1_DO_ADDRESS_NACK 0000  
                            ?_I2C1_DO_SEND_STOP 0001                                         ?___wmul 0018  
                              ??_updateDispAnim 0032                                 _I2C1_MasterOpen 3C8C  
                              ??_updateDispTemp 0032                                 _I2C1_MasterStop 3ECA  
                               _I2C1_Initialize 3D68                                         _ADCTRIG 000EB8  
                                       ?_setLED 0024                                         ?_millis 00B2  
                             fp__I2C1_DO_RX_ACK 0000                                         ?_roundf 008E  
                        ?_I2C1_DO_SEND_ADR_READ 0001                             ??_I2C1_DO_SEND_STOP 0001  
                         _eusart2RxStatusBuffer 0124                                       ?___xxtofl 0020  
                                       _REFOCON 000F3D                               _I2C1_MasterIsNack 3D7C  
                                       _OSCCON2 000F87                                       _I2C1_Open 3424  
                   __end_of_EUSART2_Receive_ISR 32CC                       ??_I2C1_DO_RX_NACK_RESTART 0001  
                                       _OSCTUNE 000F9B                                         _SPBRGH2 000F7D  
                             _I2C1_MasterSetIrq 3EB6                                         _RPINR16 000EF7  
                                       _SSP1ADD 000FC8                                         _SSP1BUF 000FC9  
                                    _displayAlt 1812                        _I2C1_SetInterruptHandler 3DF4  
                            ?_I2C1_MasterIsNack 0001                                      _displayOff 3D90  
                        ?i2_I2C1_MasterClearIrq 0001                                  displayHR@level 00FF  
                    ?_I2C1_DO_SEND_RESTART_READ 0001                  ??_I2C1_SetDataCompleteCallback 0021  
                            ?_I2C1_MasterSetIrq 0001                              _i2c1_fsmStateTable 0F01  
                           ??_I2C1_MasterIsNack 0001                       __end_of_I2C1_DO_SEND_STOP 3E58  
                     ??_rdBlkRegCompleteHandler 000C                              I2C1_SetCallback@cb 0018  
                           ??_I2C1_MasterSetIrq 0001                            _ADC_InterruptHandler 003A  
                                       __Hparam 0000                                         __Lparam 0000  
                fp__EUSART2_DefaultErrorHandler 0000                               __end_of_displayHR 286C  
                                       ___fladd 0F26                                         ___fldiv 1F92  
                           fp__I2C1_DO_TX_EMPTY 0000                                         ___flneg 3A3C  
                                       ___awmod 32CC                                         ___flmul 13E6  
                            displayAlt@dispStep 00FD                                         ___flsub 38FA  
                                       ___fltol 2D74                                    __psmallconst 0F00  
                                   ?___signbitf 0018                                         __pcinit 3858  
               __end_of_EUSART2_SetErrorHandler 3E30                                   ?_I2C1_DO_IDLE 0001  
                                 ?_I2C1_DO_RCEN 0001                                         __ramtop 0F00  
                      TMR1_ReadTimer@readValLow 001F                                         __ptext0 2A20  
                                       __ptext1 3BF8                                         __ptext2 3B7C  
                                       __ptext3 2C66                                         __ptext4 232E  
                                       __ptext5 3D90                                         __ptext6 2684  
                                       __ptext7 1BDE                                         __ptext8 38FA  
                                       __ptext9 0F26                        _I2C1_MasterEnableRestart 3ECE  
                     __end_of_I2C1_MasterIsNack 3D90                    ?_I2C1_SetAddressNackCallback 001D  
                     TMR1_ReadTimer@readValHigh 001E                                       _T1CONbits 000FCD  
                                       _byteMin 3BD0           fp__EUSART2_DefaultOverrunErrorHandler 0000  
    __end_of_EUSART2_DefaultOverrunErrorHandler 3E90            ??_EUSART2_DefaultOverrunErrorHandler 0001  
           ?_EUSART2_DefaultOverrunErrorHandler 0001              _EUSART2_DefaultOverrunErrorHandler 3E8A  
                         _OSCILLATOR_Initialize 3D54                          ??_EUSART2_Transmit_ISR 0001  
                                     _T2CONbits 000FCA                       __end_of_I2C1_MasterSetIrq 3EBA  
                                    ??___xxtofl 0024                        __end_of_I2C1_DO_TX_EMPTY 3540  
                              ___awmod@dividend 001E                        ??_PIN_MANAGER_Initialize 0018  
                      wr1RegCompleteHandler@ptr 000A                                      ?_I2C1_Open 0001  
                       fp__I2C1_DO_RX_NACK_STOP 0000                        ?_I2C1_CallbackReturnStop 000A  
                            updateDispAnim@mode 0145               __end_of_I2C1_DO_SEND_RESTART_READ 3E70  
                          end_of_initialization 389C                      __end_of_I2C1_MasterSendAck 3E84  
                           _I2C1_MasterClearIrq 3EAA          __end_ofi2_I2C1_SetDataCompleteCallback 3D54  
                i2_I2C1_SetDataCompleteCallback 3D3C                         displayAlt@currentMillis 00DF  
                                 __Lmediumconst 0000                      __end_of_I2C1_MasterStartRx 3EC2  
                        ?_rd1RegCompleteHandler 000A                          _I2C1_DO_SEND_ADR_WRITE 3DB0  
                  __end_of_I2C1_DO_SEND_RESTART 3E60                         __end_of_I2C1_MasterOpen 3CAE  
                        ?_wr1RegCompleteHandler 000A                         __end_of_I2C1_MasterStop 3ECE  
                       __end_of_I2C1_Initialize 3D7C                       ?_I2C1_CallbackReturnReset 000A  
                            _EUSART2_Initialize 3634                   __end_of_I2C1_MasterDisableIrq 3EA6  
                                   _I2C1_Status 0100                        fp__rd2RegCompleteHandler 0000  
                             __end_of_updateLED 2D74                                         postdec1 000FE5  
                                       postdec2 000FDD                        fp__wr2RegCompleteHandler 0000  
                                       postinc0 000FEE                                         postinc2 000FDE  
                             fp__I2C1_MasterIsr 0000                             _I2C1_MasterSendNack 3E84  
                                       roundf@e 009A                                         roundf@u 00A0  
                                       roundf@x 008E                                         roundf@y 00A4  
           __end_of_I2C1_SetAddressNackCallback 3D3C                     _I2C1_SetAddressNackCallback 3D24  
                          ?_I2C1_MasterClearIrq 0001                                  ??_I2C1_DO_IDLE 0001  
                                ??_I2C1_DO_RCEN 0001              __end_of_I2C1_DO_SEND_RESTART_WRITE 3E68  
                    _I2C1_DO_SEND_RESTART_WRITE 3E60                             updateLED@currentAlt 00F5  
                           ?_EUSART2_Initialize 0001                 __end_of_rdBlkRegCompleteHandler 39C0  
                                   ___fladd@grs 0027                                  _TMR1_ReadTimer 3CD0  
                 ??_I2C1_SetAddressNackCallback 0021                                   ___xxtofl@sign 0028  
               I2C1_SetDataCompleteCallback@ptr 001F               i2I2C1_SetDataCompleteCallback@ptr 0008  
                   I2C1_Write1ByteRegister@data 0022                                     ___fldiv@grs 0088  
                                   ?_displayAlt 00BA                                     ___fldiv@rem 0081  
                                   ?_displayOff 0001                  I2C1_CallbackReturnReset@funPtr 000A  
                          ?_I2C1_MasterSendNack 0001                              updateDispTemp@temp 0145  
                          ??_EUSART2_Initialize 001A                                     ___flmul@grs 006A  
                    rdBlkRegCompleteHandler@ptr 000A                                i2_I2C1_SetBuffer 3C68  
                 __end_of_EUSART2_RxDataHandler 3BD0                    __end_of_INTERRUPT_Initialize 3EB2  
                                 ??_displayTemp 00BC                           ??_I2C1_MasterClearIrq 0018  
                                __end_of___flge 2F80                                     updateLED@hr 00D3  
                                __end_of___wmul 3C44                                  _I2C1_DO_RX_ACK 3E48  
                                _ADC_Initialize 3CEE                          ?_OSCILLATOR_Initialize 0001  
                        __end_of_TMR1_ReadTimer 3CEE                                  __end_of_setLED 320A  
                                __end_of_millis 371A                 __end_of_I2C1_CallbackReturnStop 3ECA  
                                __end_of_roundf 1F92                   __end_of_I2C1_MasterSendTxData 3E78  
                           start_initialization 3858                                    _byteMin$2358 0019  
                                   ??_I2C1_Open 001A                           ??_I2C1_MasterSendNack 0001  
 EUSART2_SetRxInterruptHandler@interruptHandler 0018   EUSART2_SetTxInterruptHandler@interruptHandler 0018  
                         i2I2C1_SetCallback@idx 0005                           i2I2C1_SetCallback@ptr 0003  
                         __end_of___fpclassifyf 307E                        I2C1_SetBuffer@bufferSize 001A  
                              ?_I2C1_MasterOpen 0001          __end_of_EUSART2_SetOverrunErrorHandler 3E1C  
                _EUSART2_SetOverrunErrorHandler 3E12                                ?_I2C1_MasterStop 0001  
                I2C1_Write1ByteRegister@address 0023                                ?_I2C1_Initialize 0001  
                                      ??___flge 0020                          __end_of_I2C1_DO_RX_ACK 3E50  
                                      ??___wmul 001C                                      setLED@blue 0025  
                       ??_I2C1_DO_SEND_ADR_READ 0001                          __end_of_ADC_Initialize 3D0C  
                                   __pdataBANK1 0165                                        ??_setLED 0026  
                                      ??_millis 0032                      ??_I2C1_SetInterruptHandler 001A  
                                      ??_roundf 0092                                 ?_TMR1_ReadTimer 0018  
                              I2C1_Open@address 001A                                       ___fladd@a 001C  
                                     ___fladd@b 0018                                  _eusart2RxCount 0042  
                                     ___fldiv@a 0079                                       ___fldiv@b 0075  
                           __end_of_displayTemp 2684                         ??i2_I2C1_MasterClearIrq 0001  
                                     ___flmul@a 0064                                       ___flmul@b 0060  
                                   __pbssCOMRAM 0032                            _I2C1_DO_SEND_RESTART 3E58  
                                     ___flsub@a 002C                                       ___flsub@b 0028  
                                 __pcstackBANK0 0060                                   __pcstackBANK1 0144  
                        i2I2C1_SetBuffer@buffer 0001                         fp__EUSART2_Transmit_ISR 0000  
                   ??_I2C1_DO_SEND_RESTART_READ 0001                            __end_of_I2C1_DO_IDLE 3DF4  
               ??_EUSART2_SetRxInterruptHandler 001A                            __end_of_I2C1_DO_RCEN 3DE8  
                        fp__EUSART2_Receive_ISR 0000                   I2C1_SetAddressNackCallback@cb 001D  
                                     __pnvBANK1 0159                           _rd2RegCompleteHandler 3AF8  
                     fp__I2C1_DO_SEND_ADR_WRITE 0000                          _PIN_MANAGER_Initialize 3A00  
                         _wr2RegCompleteHandler 3B50                          _MSSP1_InterruptHandler 003C  
                    ??_I2C1_MasterEnableRestart 0001                        rd2RegCompleteHandler@ptr 000A  
                                     __pintcode 0008                                  _I2C1_MasterFsm 37F4  
                                _I2C1_MasterIsr 3E78                                fp__I2C1_DO_RESET 0000  
                                      ?___fladd 0018                                 ?_I2C1_DO_RX_ACK 0001  
                                      ?___fldiv 0075                                       __ptext100 3BA6  
                                     __ptext101 0000                                        ?___flneg 0018  
                                      ?___awmod 001E                                        ?___flmul 0060  
                                      ?___flsub 0028                                        ?___fltol 00A8  
                               ?_ADC_Initialize 0001                                    ??___signbitf 001C  
             _EUSART2_TxDefaultInterruptHandler 0163                            displayAlt@currentAlt 00F3  
                     displayTemp@previousMillis 0036                                _I2C1_MasterClose 3EA6  
                                _I2C1_SetBuffer 3C44                    ??_INTERRUPT_InterruptManager 000E  
                                     _displayHR 2684                                _I2C1_MasterStart 3E9E  
                              _I2C1_MasterWrite 3E30                                     __smallconst 0F00  
                                      ?_byteMin 0018                         _I2C1_Write1ByteRegister 371A  
                                      _BAUDCON2 000F7C                           ?_I2C1_DO_SEND_RESTART 0001  
                  ?_EUSART2_DefaultErrorHandler 0001                               ?_I2C1_DO_TX_EMPTY 0001  
              __end_of_I2C1_CallbackReturnReset 3EC6                              ??_I2C1_DO_TX_EMPTY 000C  
                       ??_rd1RegCompleteHandler 000C                         ?_I2C1_DO_SEND_ADR_WRITE 0001  
                     I2C1_MasterSendTxData@data 0001                            _INTERRUPT_Initialize 3EAE  
                       ??_wr1RegCompleteHandler 000C                                  setLED@currentB 003E  
                                setLED@currentG 003F                                  setLED@currentR 0040  
                              _I2C1_SetCallback 3540                                  ___wmul@product 001C  
                            __end_of___signbitf 38FA                                        _LATAbits 000F89  
       EUSART2_SetErrorHandler@interruptHandler 0018                                        _LATCbits 000F8B  
                                    _I2C1_DO_RX 337C                                      _I2C1_DO_TX 307E  
                               updateLED@update 0144                                        _PIE1bits 000F9D  
                                      _PIE2bits 000FA0                                        _PIE3bits 000FA3  
                                    _I2C1_Close 3A74                          __end_of_I2C1_MasterFsm 3858  
                        __end_of_I2C1_MasterIsr 3E7E                    __end_of_I2C1_MasterEnableIrq 3E9E  
                                      i2u300_40 35CE                                        i2u300_41 35CA  
                  __end_of_I2C1_MasterGetRxData 3EBE                                        i2u402_40 3BC8  
                                      i2u402_41 3BC4                                        i2u403_40 3092  
                                      i2u403_41 308E                                        i2u405_40 313C  
                                      i2u404_48 30C0                                        i2u405_41 3138  
                                      i2u404_49 30D4                                        i2u406_40 33A8  
                                      i2u406_41 33A4                                        i2u407_48 33D6  
                                      i2u407_49 33EA                                        i2u408_48 34F2  
                                      i2u408_49 3506                                        _PIR1bits 000F9E  
                                      i2u354_40 3C78                                        i2u409_48 37B6  
                                      i2u354_41 3C74                                        i2u409_49 37CA  
                                      i2u355_40 3D8C                                        i2u355_41 3D86  
                                      _PIR2bits 000FA1                                        i2u355_46 3D8E  
                                      i2u452_40 3808                                        i2u452_41 3804  
                                      i2u453_40 381C                                        i2u453_41 3818  
                                      _PIR3bits 000FA4                                        i2u471_40 32A6  
                                      i2u470_48 3276                                        i2u454_48 383A  
                                      i2u471_41 32A2                                        i2u470_49 328A  
                                      i2u454_49 3852                                        i2u472_48 32AC  
                                      i2u465_40 39D0                                        i2u472_49 32C2  
                                      i2u465_41 39CC                                        i2u466_40 39F2  
                                      i2u490_40 005C                                        i2u466_41 39EE  
                                      i2u490_41 0058                                        i2u467_40 3228  
                                      i2u467_41 3224                                        i2u492_40 008A  
                                      i2u491_48 0062                                        i2u492_41 0086  
                                      i2u491_49 0078                                        i2u469_40 3260  
                                      i2u468_48 323E                                        i2u493_40 0098  
                                      i2u469_41 325C                                        i2u468_49 3252  
                                      i2u493_41 0094                                        i2u495_40 00C6  
                                      i2u494_48 009E                                        i2u495_41 00C2  
                                      i2u494_49 00B4                                        i2u496_40 00D4  
                                      i2u488_40 0040                                        i2u496_41 00D0  
                                      i2u488_41 003C                                        i2u489_40 004E  
                                      i2u489_41 004A                                        i2u498_40 0100  
                                      i2u497_48 00DA                                        i2u498_41 00FC  
                                      i2u497_49 00EE                                        i2u499_40 010E  
                                      i2u499_41 010A                                        _RCONbits 000FD0  
                            _I2C1_MasterSendAck 3E7E                       _I2C1_DO_SEND_RESTART_READ 3E68  
                                      _SSP1CON1 000FC6                              updateLED@currentHR 00F9  
                                      _SSP1CON2 000FC5                          __end_of_I2C1_SetBuffer 3C68  
                                      _SSP1STAT 000FC7                                     _displayTemp 232E  
          __end_of_I2C1_SetDataCompleteCallback 3D24                ??i2_I2C1_SetDataCompleteCallback 000A  
               ?i2_I2C1_SetDataCompleteCallback 0006                    _I2C1_SetDataCompleteCallback 3D0C  
                              displayTemp@calcB 00C7                                displayTemp@calcG 00C6  
                              displayTemp@calcR 00C5                              _I2C1_MasterStartRx 3EBE  
                                     _updateLED 2C66                                displayTemp@ledOn 00FE  
                   ?_I2C1_DO_SEND_RESTART_WRITE 0001                               ??_TMR1_Initialize 0018  
                    I2C1_Write1ByteRegister@reg 0021                                      ?_displayHR 00BA  
                           ?_I2C1_MasterSendAck 0001                                      _ADCON0bits 000FC2  
                             ___wmul@multiplier 0018                        ?_I2C1_DO_RX_NACK_RESTART 0001  
                      __end_ofi2_I2C1_SetBuffer 3C8C                            fp__I2C1_DO_SEND_STOP 0000  
                           ?_I2C1_MasterStartRx 0001                    __end_of_I2C1_DO_ADDRESS_NACK 37F4  
                      wr2RegCompleteHandler@ptr 000A                                    ??_displayAlt 00BC  
                __end_of_I2C1_DO_SEND_ADR_WRITE 3DC0                   ??_EUSART2_DefaultErrorHandler 0001  
                                  ??_displayOff 0028                                   _I2C1_DO_RESET 3DD0  
                                   _INTCON2bits 000FF1                                       copy_data0 386C  
                    __end_ofi2_I2C1_SetCallback 3634                           ?_INTERRUPT_Initialize 0001  
                         I2C1_Close@returnValue 0018                        ?_rdBlkRegCompleteHandler 000A  
                           I2C1_SetCallback@idx 001C                             I2C1_SetCallback@ptr 001A  
                       _EUSART2_SetErrorHandler 3E26                            ??_I2C1_MasterSendAck 0001  
                             ??_TMR2_Initialize 0018                          ?_rd2RegCompleteHandler 000A  
                   _EUSART2_OverrunErrorHandler 015D                            i2I2C1_SetCallback@cb 0001  
                  __end_of_I2C1_MasterOperation 3980                                      roundf@F527 013C  
                           displayHR@fadeFactor 00C1                          ?_wr2RegCompleteHandler 000A  
                          ??_I2C1_MasterStartRx 0001                                        __Hrparam 0000  
                               ?_I2C1_MasterFsm 0001                                 ?_I2C1_MasterIsr 0001  
         __end_of_EUSART2_SetRxInterruptHandler 3E12                   _EUSART2_SetRxInterruptHandler 3E08  
                                      __Lrparam 0000                                 displayAlt@ledOn 00FC  
                              setLED@enableByte 0027                                millis@returnTime 00B6  
                         TMR1_ReadTimer@readVal 001C                                       setLED@red 0026  
                         _I2C1_MasterDisableIrq 3EA2                         ??_OSCILLATOR_Initialize 0018  
                               ?_I2C1_SetBuffer 0018                              __end_of_displayAlt 1BDE  
                            __end_of_displayOff 3DA0                                      ?_updateLED 00D2  
                     ??_I2C1_Write1ByteRegister 0023                          ??_I2C1_DO_SEND_RESTART 0001  
                            ___fpclassifyf@F465 0032                                        ___xxtofl 286C  
                          _EUSART2_ErrorHandler 015B                                  ?_I2C1_DO_RESET 0001  
                                      __ptext10 3A3C                                        __ptext11 2B46  
                                      __ptext20 3D0C                                        __ptext12 38AA  
                                      __ptext21 3C44                                        __ptext13 2F80  
                                    _T1GCONbits 000F9A                                        __ptext30 3E9E  
                                      __ptext22 3D24                                        __ptext14 2E7C  
                                      __ptext31 3A74                                        __ptext23 3540  
                                      __ptext15 1F92                                        __ptext40 3C1E  
                                      __ptext32 3EA2                                        __ptext24 3424  
                                      __ptext16 1812                                        __ptext41 32CC  
                                      __ptext33 3EA6                                        __ptext25 3DF4  
                                      __ptext17 3146                                        __ptext50 3DFE  
                                      __ptext42 3CAE                                        __ptext34 3EAA  
                                      __ptext26 3C8C                                        __ptext18 3BD0  
                                      __ptext51 3E08                                        __ptext43 3DA0  
                                      __ptext35 36A8                                        __ptext27 3E9A  
                                      __ptext19 371A                                        __ptext60 3788  
                                      __ptext52 3E12                                        __ptext44 3AA0  
                                      __ptext36 286C                                        __ptext28 3E30  
                                      __ptext61 3DD0                                        __ptext53 3E1C  
                                      __ptext45 3A00                                        __ptext37 2D74  
                                      __ptext29 3940                                        __ptext70 337C  
                                      __ptext62 3E38                                        __ptext54 3E26  
                                      __ptext46 3D54                                        __ptext38 13E6  
                                      __ptext71 307E                                        __ptext63 3E40  
                                      __ptext55 3CEE                                        __ptext47 3EAE  
                                      __ptext39 3CD0                                        __ptext80 3EBA  
                                      __ptext72 3DB0                                        __ptext64 3E48  
                                      __ptext48 3D68                                        __ptext81 3E84  
                                      __ptext73 3DC0                                        __ptext65 3E50  
                                      __ptext57 3E78                                        __ptext49 3634  
                                      __ptext90 3D3C                                        __ptext82 3EBE  
                                      __ptext74 3DE8                                        __ptext66 3E58  
                                      __ptext58 37F4                                        __ptext91 35BA  
                                      __ptext83 3EC2                                        __ptext75 34C2  
                                      __ptext67 3E60                                        __ptext59 3EB2  
                                      __ptext92 3C68                                        __ptext84 3EC6  
                                      __ptext76 3EB6                                        __ptext68 3E68  
                                      __ptext93 3ECA                                        __ptext85 3980  
                                      __ptext77 3D7C                                        __ptext69 3DDC  
                                      __ptext94 3ECE                                        __ptext86 3ACC  
                                      __ptext78 3E70                                        __ptext95 39C0  
                                      __ptext87 3AF8                                        __ptext79 3E7E  
                                      __ptext96 320A                                        __ptext88 3B24  
                                      __ptext97 3E8A                                        __ptext89 3B50  
                                      __ptext98 3ED2                                        __ptext99 3E90  
                                  _SSP1CON1bits 000FC6                                    _SSP1CON2bits 000FC5  
                      _I2C1_CallbackReturnReset 3EC2                     fp__I2C1_CallbackReturnReset 0000  
                                   ?_I2C1_DO_RX 0001                                     ?_I2C1_DO_TX 0001  
         fp__EUSART2_DefaultFramingErrorHandler 0000      __end_of_EUSART2_DefaultFramingErrorHandler 3ED4  
          ??_EUSART2_DefaultFramingErrorHandler 0001             ?_EUSART2_DefaultFramingErrorHandler 0001  
            _EUSART2_DefaultFramingErrorHandler 3ED2                     __end_of_I2C1_MasterClearIrq 3EAE  
                  __end_of_I2C1_DO_RX_NACK_STOP 3E48                                     ?_I2C1_Close 0001  
                               main@tempTesting 0157  EUSART2_SetOverrunErrorHandler@interruptHandler 0018  
                                      isa$xinst 000000                                ??_TMR1_ReadTimer 001A  
                                      int$flags 0048                 __end_of_I2C1_DO_RX_NACK_RESTART 3E40  
                               displayTemp@temp 00BA                        I2C1_MasterOperation@read 0018  
            __end_of_INTERRUPT_InterruptManager 013E                      _INTERRUPT_InterruptManager 0008  
                         _EUSART2_RxDataHandler 3BA6                                    _SSP1STATbits 000FC7  
                 displayAlt@placeSeperatorDelay 00C0                   __end_of_I2C1_DO_SEND_ADR_READ 3DD0  
                                  _I2C1_DO_IDLE 3DE8                                     ??_displayHR 00BC  
                                  _I2C1_DO_RCEN 3DDC                         displayHR@previousMillis 00E7  
                   __end_of_I2C1_MasterSendNack 3E8A                ??_EUSART2_SetOverrunErrorHandler 001A  
               ?_EUSART2_SetOverrunErrorHandler 0018                              displayHR@beatDelay 00C9  
                                      byteMin@a 001B                                        byteMin@b 0018  
                                    _INTCONbits 000FF2                                  _displayHR$3181 00CD  
                 fp__I2C1_DO_SEND_RESTART_WRITE 0000                  I2C1_SetAddressNackCallback@ptr 001F  
                          _I2C1_MasterEnableIrq 3E9A                            _I2C1_MasterGetRxData 3EBA  
                 __end_ofi2_I2C1_MasterClearIrq 3EB6                           _I2C1_MasterSendTxData 3E70  
                        ??_INTERRUPT_Initialize 0018                       ??_EUSART2_SetErrorHandler 001A  
                                      intlevel2 0000                        __end_of_I2C1_MasterClose 3EAA  
                               ___signbitf@F526 0140                         ?_PIN_MANAGER_Initialize 0001  
                      displayTemp@currentMillis 00E3                        __end_of_I2C1_MasterStart 3EA2  
                      __end_of_I2C1_MasterWrite 3E38                                ??_I2C1_DO_RX_ACK 0001  
                                    _RCSTA2bits 000F9C                              displayHR@heartRate 00BA  
                       _I2C1_CallbackReturnStop 3EC6                                 main@updateDelay 014B  
                    fp__I2C1_CallbackReturnStop 0000                                ??_ADC_Initialize 0018  
                          _I2C1_DO_ADDRESS_NACK 3788                          ?_I2C1_MasterDisableIrq 0001  
EUSART2_SetFramingErrorHandler@interruptHandler 0018                  ?_EUSART2_SetRxInterruptHandler 0018  
                                   ??_updateLED 00D9                             _EUSART2_Receive_ISR 320A  
                      __end_of_I2C1_SetCallback 35BA                              displayHR@levelFade 00D1  
                            displayHR@currentHR 00C5                         displayTemp@currentDelay 00C8  
                               ??_I2C1_DO_RESET 0001                            _I2C1_MasterOperation 3940  
                                _updateDispAnim 3B7C                            updateLED@currentTemp 00F7  
                                _updateDispTemp 3BF8                           ?_I2C1_MasterEnableIrq 0001  
                         ?_I2C1_MasterGetRxData 0001                                   ___fladd@signs 0024  
                __end_of_PIN_MANAGER_Initialize 3A3C                 ??_EUSART2_SetTxInterruptHandler 001A  
                     ?_I2C1_SetInterruptHandler 0018                   __end_of_rd1RegCompleteHandler 3B50  
                          ?_EUSART2_Receive_ISR 0001                              _eusart2RxLastError 0041  
                                  ___fladd@aexp 0025                                    ___fladd@bexp 0026  
                 __end_of_wr1RegCompleteHandler 3AF8                                 _TMR1_Initialize 3AA0  
             _EUSART2_RxDefaultInterruptHandler 0161                                     _roundf$3182 009C  
                                   _roundf$3183 0096                           ?_I2C1_DO_ADDRESS_NACK 0001  
