Microchip MPLAB XC8 Compiler V2.36

Linker command line:

-W-3 --edf=C:\Program Files\Microchip\xc8\v2.36\pic\dat\en_msgs.txt -cn \
  -h+dist/default/production\team207_main_v02.X.production.sym \
  --cmf=dist/default/production\team207_main_v02.X.production.cmf -z \
  -Q18F26J53 -oC:\Users\Max\AppData\Local\Temp\xcAs1boo.4 \
  --defsym=__MPLAB_BUILD=1 \
  -Mdist/default/production/team207_main_v02.X.production.map \
  --md=C:\Users\Max\AppData\Local\Temp\xcAs1boo.dat -E1 -ver=XC8 Compiler \
  --acfsm=1493 -ACODE=00h-0FFF7h -ACONST=00h-0FFF7h \
  -ASMALLCONST=0F00h-0FFFhx240,0FF00h-0FFF7h -AMEDIUMCONST=0F00h-0FFF7h \
  -ACOMRAM=01h-05Fh -AABS1=00h-0EAFh -ABIGRAM=01h-0EAFh \
  -ARAM=060h-0FFh,0100h-01FFhx13,0E00h-0EAFh -ABANK0=060h-0FFh \
  -ABANK1=0100h-01FFh -ABANK2=0200h-02FFh -ABANK3=0300h-03FFh \
  -ABANK4=0400h-04FFh -ABANK5=0500h-05FFh -ABANK6=0600h-06FFh \
  -ABANK7=0700h-07FFh -ABANK8=0800h-08FFh -ABANK9=0900h-09FFh \
  -ABANK10=0A00h-0AFFh -ABANK11=0B00h-0BFFh -ABANK12=0C00h-0CFFh \
  -ABANK13=0D00h-0DFFh -ABANK14=0E00h-0EAFh \
  -ASFR=0EB0h-0EFFh,0F00h-0F5Fh,0F60h-0FFFh -ABIGSFR=0EB0h-0FFFh \
  -ACONFIG=0FFF8h-0FFFFh -preset_vec=00h,intcode=08h,intcodelo,powerup,init \
  -pramtop=0F00h -psmallconst=SMALLCONST -pmediumconst=MEDIUMCONST \
  -pconst=CONST -AFARRAM=00h-00h -pjflash_buffer=0F800h \
  -prdata=COMRAM,nvrram=COMRAM,nvbit=COMRAM,rbss=COMRAM,rbit=COMRAM \
  -pfarbss=FARRAM,fardata=FARRAM,nvFARRAM=FARRAM \
  -pintsave_regs=BIGRAM,bigbss=BIGRAM,bigdata=BIGRAM -pbss=RAM \
  -pidata=CODE,irdata=CODE,ibigdata=CODE,ifardata=CODE -prparam=COMRAM \
  C:\Users\Max\AppData\Local\Temp\xcAs1boo.o \
  dist/default/production\team207_main_v02.X.production.o 

Object code version is 3.11

Machine type is 18F26J53



                Name                               Link     Load   Length Selector   Space Scale
C:\Users\Max\AppData\Local\Temp\xcAs1boo.o
                config                             FFF8     FFF8        8        0       4
                init                                 8A       8A        4        4       0
                reset_vec                             0        0        4        0       0
dist/default/production\team207_main_v02.X.production.o
                intcode                               8        8       82        4       0
                config                             FFF8     FFF8        8        0       4
                temp                                 5C       5C        1        1       1
                smallconst                          F00      F00       C4      780       0
                text25                             1298     1298        2      7E2       0
                text24                             1142     1142       2E      7E2       0
                text23                             1288     1288        8      7E2       0
                text22                             1296     1296        2      7E2       0
                text21                             1114     1114       2E      7E2       0
                text20                             1280     1280        8      7E2       0
                text19                             1294     1294        2      7E2       0
                text18                             10E6     10E6       2E      7E2       0
                text17                             1278     1278        8      7E2       0
                text15                             11DC     11DC       1E      7E2       0
                text14                             1266     1266        A      7E2       0
                text13                             125C     125C        A      7E2       0
                text12                             1252     1252        A      7E2       0
                text11                             102A     102A       44      7E2       0
                text10                             1248     1248        A      7E2       0
                text9                              123E     123E        A      7E2       0
                text8                              1234     1234        A      7E2       0
                text7                              106E     106E       3E      7E2       0
                text6                              120E     120E       14      7E2       0
                text5                              1290     1290        4      7E2       0
                text4                              11FA     11FA       14      7E2       0
                text3                              10AC     10AC       3A      7E2       0
                text2                              1222     1222       12      7E2       0
                text1                              11BA     11BA       22      7E2       0
                text0                              1170     1170       26      7E2       0
                cstackCOMRAM                         5A       5A        2        1       1
                cstackBANK1                         100      100        2      100       1
                dataBANK0                            D8       D8       24       60       1
                bssBANK0                             60       60       78       60       1
                dataCOMRAM                           52       52        8        1       1
                bssCOMRAM                             1        1       48        1       1
                cinit                               FC4      FC4       66      7E2       0
                nvBANK0                              FC       FC        4       60       1
                nvCOMRAM                             49       49        9        1       1
                idataBANK0                         1196     1196       24      7E2       0
                idataCOMRAM                        1270     1270        8      7E2       0

TOTAL           Name                               Link     Load   Length     Space
        CLASS   CODE           
                intcode                               8        8       82         0
                init                                 8A       8A        4         0
                reset_vec                             0        0        4         0
                text25                             1298     1298        2         0
                text24                             1142     1142       2E         0
                text23                             1288     1288        8         0
                text22                             1296     1296        2         0
                text21                             1114     1114       2E         0
                text20                             1280     1280        8         0
                text19                             1294     1294        2         0
                text18                             10E6     10E6       2E         0
                text17                             1278     1278        8         0
                text15                             11DC     11DC       1E         0
                text14                             1266     1266        A         0
                text13                             125C     125C        A         0
                text12                             1252     1252        A         0
                text11                             102A     102A       44         0
                text10                             1248     1248        A         0
                text9                              123E     123E        A         0
                text8                              1234     1234        A         0
                text7                              106E     106E       3E         0
                text6                              120E     120E       14         0
                text5                              1290     1290        4         0
                text4                              11FA     11FA       14         0
                text3                              10AC     10AC       3A         0
                text2                              1222     1222       12         0
                text1                              11BA     11BA       22         0
                text0                              1170     1170       26         0
                cinit                               FC4      FC4       66         0
                idataBANK0                         1196     1196       24         0
                idataCOMRAM                        1270     1270        8         0

        CLASS   CONST          

        CLASS   SMALLCONST     
                smallconst                          F00      F00       C4         0

        CLASS   MEDIUMCONST    

        CLASS   COMRAM         
                temp                                 5C       5C        1         1
                cstackCOMRAM                         5A       5A        2         1
                dataCOMRAM                           52       52        8         1
                bssCOMRAM                             1        1       48         1
                nvCOMRAM                             49       49        9         1

        CLASS   ABS1           

        CLASS   BIGRAM         

        CLASS   RAM            

        CLASS   BANK0          
                dataBANK0                            D8       D8       24         1
                bssBANK0                             60       60       78         1
                nvBANK0                              FC       FC        4         1

        CLASS   BANK1          
                cstackBANK1                         100      100        2         1

        CLASS   BANK2          

        CLASS   BANK3          

        CLASS   BANK4          

        CLASS   BANK5          

        CLASS   BANK6          

        CLASS   BANK7          

        CLASS   BANK8          

        CLASS   BANK9          

        CLASS   BANK10         

        CLASS   BANK11         

        CLASS   BANK12         

        CLASS   BANK13         

        CLASS   BANK14         

        CLASS   SFR            

        CLASS   BIGSFR         

        CLASS   CONFIG         
                config                             FFF8     FFF8        8         4

        CLASS   FARRAM         

        CLASS   HEAP           

        CLASS   STACK          

        CLASS   IDLOC          



SEGMENTS        Name                           Load    Length   Top    Selector   Space  Class

                reset_vec                      000000  000004  000004         0       0  CODE    
                bssCOMRAM                      000001  00005C  00005D         1       1  COMRAM  
                intcode                        000008  000086  00008E         4       0  CODE    
                bssBANK0                       000060  0000A0  000100        60       1  BANK0   
                cstackBANK1                    000100  000002  000102       100       1  BANK1   
                smallconst                     000F00  0000C4  000FC4       780       0  SMALLCON
                cinit                          000FC4  0002D6  00129A       7E2       0  CODE    


UNUSED ADDRESS RANGES

        Name                Unused          Largest block    Delta
        BANK1            00102-001FF              FE
        BANK10           00A00-00AFF             100
        BANK11           00B00-00BFF             100
        BANK12           00C00-00CFF             100
        BANK13           00D00-00DFF             100
        BANK14           00E00-00EAF              B0
        BANK2            00200-002FF             100
        BANK3            00300-003FF             100
        BANK4            00400-004FF             100
        BANK5            00500-005FF             100
        BANK6            00600-006FF             100
        BANK7            00700-007FF             100
        BANK8            00800-008FF             100
        BANK9            00900-009FF             100
        BIGRAM           0005D-0005F               3
                         00102-00EAF             DAE
        BIGSFR           00EB0-00FFF             150
        CODE             00004-00007               4
                         0008E-00EFF             E72
                         0129A-0FFF7            ED5E
        COMRAM           0005D-0005F               3
        CONST            00004-00007               4
                         0008E-00EFF             E72
                         0129A-0FFF7            ED5E
        MEDIUMCONST      0129A-0FFF7            ED5E
        RAM              00102-00EAF             100
        SFR              00EB0-00FFF              60
        SMALLCONST       0129A-0FFF7             100

                                  Symbol Table

EUSART1_SetErrorHandler@interruptHandler        cstackBANK1   00100
EUSART1_SetFramingErrorHandler@interruptHandler cstackBANK1   00100
EUSART1_SetOverrunErrorHandler@interruptHandler cstackBANK1   00100
INT0_SetInterruptHandler@InterruptHandler       cstackBANK1   00100
INT1_SetInterruptHandler@InterruptHandler       cstackBANK1   00100
INT2_SetInterruptHandler@InterruptHandler       cstackBANK1   00100
_ADCON0                                         (abs)         00FC2
_ADCON0bits                                     (abs)         00FC2
_ADCON1                                         (abs)         00FC1
_ADCTRIG                                        (abs)         00EB8
_ADC_Initialize                                 text15        011DC
_ADC_InterruptHandler                           bssCOMRAM     00039
_ADRESH                                         (abs)         00FC4
_ADRESL                                         (abs)         00FC3
_ANCON0                                         (abs)         00F48
_ANCON1                                         (abs)         00F49
_BAUDCON1                                       (abs)         00F7E
_EUSART1_DefaultErrorHandler                    (abs)         00000
_EUSART1_DefaultFramingErrorHandler             (abs)         00000
_EUSART1_DefaultOverrunErrorHandler             (abs)         00000
_EUSART1_ErrorHandler                           nvBANK0       000FC
_EUSART1_FramingErrorHandler                    nvCOMRAM      0004F
_EUSART1_Initialize                             text11        0102A
_EUSART1_OverrunErrorHandler                    nvBANK0       000FE
_EUSART1_SetErrorHandler                        text14        01266
_EUSART1_SetFramingErrorHandler                 text13        0125C
_EUSART1_SetOverrunErrorHandler                 text12        01252
_EXT_INT_Initialize                             text7         0106E
_I2C1_CallbackReturnReset                       (abs)         00000
_I2C1_CallbackReturnStop                        (abs)         00000
_I2C1_DO_ADDRESS_NACK                           (abs)         00000
_I2C1_DO_IDLE                                   (abs)         00000
_I2C1_DO_RCEN                                   (abs)         00000
_I2C1_DO_RESET                                  (abs)         00000
_I2C1_DO_RX                                     (abs)         00000
_I2C1_DO_RX_ACK                                 (abs)         00000
_I2C1_DO_RX_NACK_RESTART                        (abs)         00000
_I2C1_DO_RX_NACK_STOP                           (abs)         00000
_I2C1_DO_SEND_ADR_READ                          (abs)         00000
_I2C1_DO_SEND_ADR_WRITE                         (abs)         00000
_I2C1_DO_SEND_RESTART                           (abs)         00000
_I2C1_DO_SEND_RESTART_READ                      (abs)         00000
_I2C1_DO_SEND_RESTART_WRITE                     (abs)         00000
_I2C1_DO_SEND_STOP                              (abs)         00000
_I2C1_DO_TX                                     (abs)         00000
_I2C1_DO_TX_EMPTY                               (abs)         00000
_I2C1_Initialize                                text6         0120E
_I2C1_Status                                    bssBANK0      00060
_INT0_CallBack                                  text24        01142
_INT0_DefaultInterruptHandler                   text25        01298
_INT0_ISR                                       text23        01288
_INT0_InterruptHandler                          nvCOMRAM      0004D
_INT0_SetInterruptHandler                       text10        01248
_INT1_CallBack                                  text21        01114
_INT1_DefaultInterruptHandler                   text22        01296
_INT1_ISR                                       text20        01280
_INT1_InterruptHandler                          nvCOMRAM      0004B
_INT1_SetInterruptHandler                       text9         0123E
_INT2_CallBack                                  text18        010E6
_INT2_DefaultInterruptHandler                   text19        01294
_INT2_ISR                                       text17        01278
_INT2_InterruptHandler                          nvCOMRAM      00049
_INT2_SetInterruptHandler                       text8         01234
_INTCON2bits                                    (abs)         00FF1
_INTCON3bits                                    (abs)         00FF0
_INTCONbits                                     (abs)         00FF2
_INTERRUPT_Initialize                           text5         01290
_INTERRUPT_InterruptManager                     intcode       00008
_LATA                                           (abs)         00F89
_LATB                                           (abs)         00F8A
_LATC                                           (abs)         00F8B
_LATCbits                                       (abs)         00F8B
_ODCON1                                         (abs)         00F42
_ODCON2                                         (abs)         00F41
_ODCON3                                         (abs)         00F40
_OSCCON                                         (abs)         00FD3
_OSCCON2                                        (abs)         00F87
_OSCILLATOR_Initialize                          text4         011FA
_OSCTUNE                                        (abs)         00F9B
_PIE1bits                                       (abs)         00F9D
_PIN_MANAGER_Initialize                         text3         010AC
_PIR1bits                                       (abs)         00F9E
_PIR2bits                                       (abs)         00FA1
_PORTCbits                                      (abs)         00F82
_RCONbits                                       (abs)         00FD0
_RCREG1                                         (abs)         00FAF
_RCSTA1                                         (abs)         00FAC
_RCSTA1bits                                     (abs)         00FAC
_REFOCON                                        (abs)         00F3D
_RPINR1                                         (abs)         00EE1
_RPINR2                                         (abs)         00EE2
_SPBRG1                                         (abs)         00FB0
_SPBRGH1                                        (abs)         00F7F
_SSP1ADD                                        (abs)         00FC8
_SSP1BUF                                        (abs)         00FC9
_SSP1CON1                                       (abs)         00FC6
_SSP1CON1bits                                   (abs)         00FC6
_SSP1CON2                                       (abs)         00FC5
_SSP1CON2bits                                   (abs)         00FC5
_SSP1STAT                                       (abs)         00FC7
_SSP1STATbits                                   (abs)         00FC7
_SYSTEM_Initialize                              text1         011BA
_T0CON                                          (abs)         00FD5
_T0CONbits                                      (abs)         00FD5
_TMR0H                                          (abs)         00FD7
_TMR0L                                          (abs)         00FD6
_TMR0_Initialize                                text2         01222
_TRISA                                          (abs)         00F92
_TRISB                                          (abs)         00F93
_TRISC                                          (abs)         00F94
_TXREG1                                         (abs)         00FAE
_TXSTA1                                         (abs)         00FAD
_TXSTA1bits                                     (abs)         00FAD
__HRAM                                          (abs)         00000
__Habs1                                         abs1          00000
__Hbank0                                        bank0         00000
__Hbank1                                        bank1         00000
__Hbank10                                       bank10        00000
__Hbank11                                       bank11        00000
__Hbank12                                       bank12        00000
__Hbank13                                       bank13        00000
__Hbank14                                       bank14        00000
__Hbank2                                        bank2         00000
__Hbank3                                        bank3         00000
__Hbank4                                        bank4         00000
__Hbank5                                        bank5         00000
__Hbank6                                        bank6         00000
__Hbank7                                        bank7         00000
__Hbank8                                        bank8         00000
__Hbank9                                        bank9         00000
__Hbigbss                                       bigbss        00000
__Hbigdata                                      bigdata       00000
__Hbigram                                       bigram        00000
__Hbigsfr                                       bigsfr        00000
__Hbss                                          bss           00000
__HbssBANK0                                     bssBANK0      00000
__HbssCOMRAM                                    bssCOMRAM     00000
__Hcinit                                        cinit         00000
__Hclrtext                                      clrtext       00000
__Hcomram                                       comram        00000
__Hconfig                                       config        10000
__Hconst                                        const         00000
__HcstackBANK1                                  cstackBANK1   00000
__HcstackCOMRAM                                 cstackCOMRAM  00000
__Hdata                                         data          00000
__HdataBANK0                                    dataBANK0     00000
__HdataCOMRAM                                   dataCOMRAM    00000
__Hfarbss                                       farbss        00000
__Hfardata                                      fardata       00000
__Hheap                                         heap          00000
__Hibigdata                                     ibigdata      00000
__Hidata                                        idata         00000
__HidataBANK0                                   idataBANK0    00000
__HidataCOMRAM                                  idataCOMRAM   00000
__Hidloc                                        idloc         00000
__Hifardata                                     ifardata      00000
__Hinit                                         init          0008E
__Hintcode                                      intcode       0008A
__Hintcode_body                                 intcode_body  00000
__Hintcodelo                                    intcodelo     0008A
__Hintentry                                     intentry      00000
__Hintret                                       intret        00000
__Hintsave_regs                                 intsave_regs  00000
__Hirdata                                       irdata        00000
__Hjflash_buffer                                jflash_buffer 0F800
__Hmediumconst                                  mediumconst   00000
__HnvBANK0                                      nvBANK0       00000
__HnvCOMRAM                                     nvCOMRAM      00000
__HnvFARRAM                                     nvFARRAM      00000
__Hnvbit                                        nvbit         00000
__Hnvrram                                       nvrram        00000
__Hparam                                        rparam        00000
__Hpowerup                                      powerup       0008A
__Hram                                          ram           00000
__Hramtop                                       ramtop        00F00
__Hrbit                                         rbit          00000
__Hrbss                                         rbss          00000
__Hrdata                                        rdata         00000
__Hreset_vec                                    reset_vec     00004
__Hrparam                                       rparam        00000
__Hsfr                                          sfr           00000
__Hsmallconst                                   smallconst    00FC4
__Hspace_0                                      (abs)         0F800
__Hspace_1                                      (abs)         00102
__Hspace_2                                      (abs)         00000
__Hspace_4                                      (abs)         1FFF8
__Hstack                                        stack         00000
__Hstruct                                       struct        00000
__Htemp                                         temp          0005D
__Htext                                         text          00000
__Htext0                                        text0         00000
__Htext1                                        text1         00000
__Htext10                                       text10        00000
__Htext11                                       text11        00000
__Htext12                                       text12        00000
__Htext13                                       text13        00000
__Htext14                                       text14        00000
__Htext15                                       text15        00000
__Htext17                                       text17        00000
__Htext18                                       text18        00000
__Htext19                                       text19        00000
__Htext2                                        text2         00000
__Htext20                                       text20        00000
__Htext21                                       text21        00000
__Htext22                                       text22        00000
__Htext23                                       text23        00000
__Htext24                                       text24        00000
__Htext25                                       text25        00000
__Htext26                                       text26        00000
__Htext3                                        text3         00000
__Htext4                                        text4         00000
__Htext5                                        text5         00000
__Htext6                                        text6         00000
__Htext7                                        text7         00000
__Htext8                                        text8         00000
__Htext9                                        text9         00000
__LRAM                                          (abs)         00001
__Labs1                                         abs1          00000
__Lbank0                                        bank0         00000
__Lbank1                                        bank1         00000
__Lbank10                                       bank10        00000
__Lbank11                                       bank11        00000
__Lbank12                                       bank12        00000
__Lbank13                                       bank13        00000
__Lbank14                                       bank14        00000
__Lbank2                                        bank2         00000
__Lbank3                                        bank3         00000
__Lbank4                                        bank4         00000
__Lbank5                                        bank5         00000
__Lbank6                                        bank6         00000
__Lbank7                                        bank7         00000
__Lbank8                                        bank8         00000
__Lbank9                                        bank9         00000
__Lbigbss                                       bigbss        00000
__Lbigdata                                      bigdata       00000
__Lbigram                                       bigram        00000
__Lbigsfr                                       bigsfr        00000
__Lbss                                          bss           00000
__LbssBANK0                                     bssBANK0      00000
__LbssCOMRAM                                    bssCOMRAM     00000
__Lcinit                                        cinit         00000
__Lclrtext                                      clrtext       00000
__Lcomram                                       comram        00000
__Lconfig                                       config        00000
__Lconst                                        const         00000
__LcstackBANK1                                  cstackBANK1   00000
__LcstackCOMRAM                                 cstackCOMRAM  00000
__Ldata                                         data          00000
__LdataBANK0                                    dataBANK0     00000
__LdataCOMRAM                                   dataCOMRAM    00000
__Lfarbss                                       farbss        00000
__Lfardata                                      fardata       00000
__Lheap                                         heap          00000
__Libigdata                                     ibigdata      00000
__Lidata                                        idata         00000
__LidataBANK0                                   idataBANK0    00000
__LidataCOMRAM                                  idataCOMRAM   00000
__Lidloc                                        idloc         00000
__Lifardata                                     ifardata      00000
__Linit                                         init          0008A
__Lintcode                                      intcode       00008
__Lintcode_body                                 intcode_body  00000
__Lintcodelo                                    intcodelo     0008A
__Lintentry                                     intentry      00000
__Lintret                                       intret        00000
__Lintsave_regs                                 intsave_regs  00000
__Lirdata                                       irdata        00000
__Ljflash_buffer                                jflash_buffer 0F800
__Lmediumconst                                  mediumconst   00000
__LnvBANK0                                      nvBANK0       00000
__LnvCOMRAM                                     nvCOMRAM      00000
__LnvFARRAM                                     nvFARRAM      00000
__Lnvbit                                        nvbit         00000
__Lnvrram                                       nvrram        00000
__Lparam                                        rparam        00000
__Lpowerup                                      powerup       0008A
__Lram                                          ram           00000
__Lramtop                                       ramtop        00F00
__Lrbit                                         rbit          00000
__Lrbss                                         rbss          00000
__Lrdata                                        rdata         00000
__Lreset_vec                                    reset_vec     00000
__Lrparam                                       rparam        00000
__Lsfr                                          sfr           00000
__Lsmallconst                                   smallconst    00F00
__Lspace_0                                      (abs)         00000
__Lspace_1                                      (abs)         00000
__Lspace_2                                      (abs)         00000
__Lspace_4                                      (abs)         00000
__Lstack                                        stack         00000
__Lstruct                                       struct        00000
__Ltemp                                         temp          0005C
__Ltext                                         text          00000
__Ltext0                                        text0         00000
__Ltext1                                        text1         00000
__Ltext10                                       text10        00000
__Ltext11                                       text11        00000
__Ltext12                                       text12        00000
__Ltext13                                       text13        00000
__Ltext14                                       text14        00000
__Ltext15                                       text15        00000
__Ltext17                                       text17        00000
__Ltext18                                       text18        00000
__Ltext19                                       text19        00000
__Ltext2                                        text2         00000
__Ltext20                                       text20        00000
__Ltext21                                       text21        00000
__Ltext22                                       text22        00000
__Ltext23                                       text23        00000
__Ltext24                                       text24        00000
__Ltext25                                       text25        00000
__Ltext26                                       text26        00000
__Ltext3                                        text3         00000
__Ltext4                                        text4         00000
__Ltext5                                        text5         00000
__Ltext6                                        text6         00000
__Ltext7                                        text7         00000
__Ltext8                                        text8         00000
__Ltext9                                        text9         00000
__S0                                            (abs)         0129A
__S1                                            (abs)         00102
__S4                                            (abs)         00000
___fpclassifyf@F465                             bssBANK0      000C4
___heap_hi                                      (abs)         00000
___heap_lo                                      (abs)         00000
___inthi_sp                                     stack         00000
___intlo_sp                                     stack         00000
___param_bank                                   (abs)         00000
___rparam_used                                  (abs)         00001
___signbitf@F526                                bssBANK0      000C0
___sp                                           stack         00000
__accesstop                                     (abs)         00060
__activetblptr                                  (abs)         00002
__end_of_ADC_Initialize                         text15        011FA
__end_of_EUSART1_Initialize                     text11        0106E
__end_of_EUSART1_SetErrorHandler                text14        01270
__end_of_EUSART1_SetFramingErrorHandler         text13        01266
__end_of_EUSART1_SetOverrunErrorHandler         text12        0125C
__end_of_EXT_INT_Initialize                     text7         010AC
__end_of_I2C1_Initialize                        text6         01222
__end_of_INT0_CallBack                          text24        01170
__end_of_INT0_DefaultInterruptHandler           text25        0129A
__end_of_INT0_ISR                               text23        01290
__end_of_INT0_SetInterruptHandler               text10        01252
__end_of_INT1_CallBack                          text21        01142
__end_of_INT1_DefaultInterruptHandler           text22        01298
__end_of_INT1_ISR                               text20        01288
__end_of_INT1_SetInterruptHandler               text9         01248
__end_of_INT2_CallBack                          text18        01114
__end_of_INT2_DefaultInterruptHandler           text19        01296
__end_of_INT2_ISR                               text17        01280
__end_of_INT2_SetInterruptHandler               text8         0123E
__end_of_INTERRUPT_Initialize                   text5         01294
__end_of_INTERRUPT_InterruptManager             intcode       0008A
__end_of_L1                                     smallconst    00F81
__end_of_L2                                     smallconst    00F7D
__end_of_L3                                     smallconst    00F79
__end_of_L4                                     smallconst    00F75
__end_of_L5                                     smallconst    00F71
__end_of_L6                                     smallconst    00F6D
__end_of_Lg1                                    smallconst    00F9D
__end_of_Lg2                                    smallconst    00F99
__end_of_Lg3                                    smallconst    00F95
__end_of_Lg4                                    smallconst    00F91
__end_of_OSCILLATOR_Initialize                  text4         0120E
__end_of_P1                                     smallconst    00F69
__end_of_P2                                     smallconst    00F65
__end_of_P3                                     smallconst    00F61
__end_of_P4                                     smallconst    00F5D
__end_of_P5                                     smallconst    00F59
__end_of_PIN_MANAGER_Initialize                 text3         010E6
__end_of_SYSTEM_Initialize                      text1         011DC
__end_of_TMR0_Initialize                        text2         01234
__end_of__initialization                        cinit         0101C
__end_of_bp                                     smallconst    00FB5
__end_of_cp                                     smallconst    00F45
__end_of_cp_h                                   smallconst    00FC1
__end_of_cp_l                                   smallconst    00FBD
__end_of_dp_h                                   smallconst    00F31
__end_of_dp_l                                   smallconst    00F29
__end_of_huge                                   smallconst    00F89
__end_of_i2c1_fsmStateTable                     smallconst    00F21
__end_of_ivln10hi                               smallconst    00FAD
__end_of_ivln10lo                               smallconst    00FA9
__end_of_ivln2                                  smallconst    00F41
__end_of_ivln2_h                                smallconst    00FB9
__end_of_ivln2_l                                smallconst    00F3D
__end_of_lg2                                    smallconst    00F55
__end_of_lg2_h                                  smallconst    00F51
__end_of_lg2_l                                  smallconst    00F4D
__end_of_log10_2hi                              smallconst    00FA5
__end_of_log10_2lo                              smallconst    00FA1
__end_of_main                                   text0         01196
__end_of_ovt                                    smallconst    00F49
__end_of_tiny                                   smallconst    00F85
__end_of_tiny@sqrtf$F3274                       smallconst    00F35
__end_of_toint                                  smallconst    00F39
__end_of_two24                                  smallconst    00F8D
__initialization                                cinit         00FC4
__mediumconst                                   mediumconst   00000
__pbssBANK0                                     bssBANK0      00060
__pbssCOMRAM                                    bssCOMRAM     00001
__pcinit                                        cinit         00FC4
__pcstackBANK1                                  cstackBANK1   00100
__pcstackCOMRAM                                 cstackCOMRAM  0005A
__pdataBANK0                                    dataBANK0     000D8
__pdataCOMRAM                                   dataCOMRAM    00052
__pidataBANK0                                   idataBANK0    01196
__pidataCOMRAM                                  idataCOMRAM   01270
__pintcode                                      intcode       00008
__pnvBANK0                                      nvBANK0       000FC
__pnvCOMRAM                                     nvCOMRAM      00049
__psmallconst                                   smallconst    00F00
__ptext0                                        text0         01170
__ptext1                                        text1         011BA
__ptext10                                       text10        01248
__ptext11                                       text11        0102A
__ptext12                                       text12        01252
__ptext13                                       text13        0125C
__ptext14                                       text14        01266
__ptext15                                       text15        011DC
__ptext17                                       text17        01278
__ptext18                                       text18        010E6
__ptext19                                       text19        01294
__ptext2                                        text2         01222
__ptext20                                       text20        01280
__ptext21                                       text21        01114
__ptext22                                       text22        01296
__ptext23                                       text23        01288
__ptext24                                       text24        01142
__ptext25                                       text25        01298
__ptext26                                       text26        00000
__ptext3                                        text3         010AC
__ptext4                                        text4         011FA
__ptext5                                        text5         01290
__ptext6                                        text6         0120E
__ptext7                                        text7         0106E
__ptext8                                        text8         01234
__ptext9                                        text9         0123E
__ramtop                                        ramtop        00F00
__smallconst                                    smallconst    00F00
_currentTime                                    bssCOMRAM     00037
_eeprom_coeff                                   bssBANK0      000C8
_errno                                          bssCOMRAM     00029
_eusart1RxLastError                             bssCOMRAM     00048
_hsensor_conversion_time                        dataCOMRAM    00052
_hsensor_heater_on                              bssCOMRAM     0003E
_hsensor_i2c_master_mode                        bssCOMRAM     0003F
_i2c1_fsmStateTable                             smallconst    00F01
_main                                           text0         01170
_psensor_coeff_read                             bssCOMRAM     0003C
_psensor_conversion_time                        dataBANK0     000D8
_psensor_resolution_osr                         bssCOMRAM     0003D
_rd1RegCompleteHandler                          (abs)         00000
_rd2RegCompleteHandler                          (abs)         00000
_rdBlkRegCompleteHandler                        (abs)         00000
_scale                                          dataCOMRAM    00056
_timer0ReloadVal                                nvCOMRAM      00051
_wr1RegCompleteHandler                          (abs)         00000
_wr2RegCompleteHandler                          (abs)         00000
btemp                                           temp          0005C
displayAlt@altHund                              bssCOMRAM     0002B
displayAlt@altThou                              bssCOMRAM     0002D
displayAlt@counter                              bssCOMRAM     00043
displayAlt@currentAlt                           bssCOMRAM     0002F
displayAlt@currentMillis                        bssCOMRAM     00015
displayAlt@dispStep                             bssCOMRAM     00045
displayAlt@ledOn                                bssCOMRAM     00044
displayAlt@previousMillis                       bssCOMRAM     00011
displayHR@currentMillis                         bssCOMRAM     00025
displayHR@level                                 bssCOMRAM     00047
displayHR@previousMillis                        bssCOMRAM     00021
displayTemp@currentMillis                       bssCOMRAM     0001D
displayTemp@ledOn                               bssCOMRAM     00046
displayTemp@previousMillis                      bssCOMRAM     00019
end_of_initialization                           cinit         0101C
fabsf@F465                                      bssBANK0      000B8
hsensor_humidity_conversion_and_read_adc@F7360  bssBANK0      00096
hsensor_is_connected@F7315                      dataBANK0     000F6
hsensor_read_user_register@F7343                bssBANK0      000A2
hsensor_write_command@F7323                     bssBANK0      000AE
hsensor_write_command_no_stop@F7329             bssBANK0      000A8
hsensor_write_user_register@F7351               bssBANK0      0009C
int$flags                                       temp          0005C
intlevel0                                       text          00000
intlevel1                                       text          00000
intlevel2                                       text          00000
intlevel3                                       text          00000
isa$std                                         (abs)         00001
isa$xinst                                       (abs)         00000
log10f@F474                                     bssBANK0      000BC
pollHR@currentHR                                bssCOMRAM     00001
pollHR@currentMillis                            bssCOMRAM     0000D
pollHR@currentReading                           bssCOMRAM     00005
pollHR@scanning                                 bssCOMRAM     0003B
pollHR@startScanMillis                          bssCOMRAM     00009
psensor_conversion_and_read_adc@F7406           bssBANK0      00084
psensor_is_connected@F7378                      dataBANK0     000F0
psensor_read_eeprom_coeff@F7395                 bssBANK0      0008A
psensor_write_command@F7385                     bssBANK0      00090
roundf@F527                                     bssBANK0      000B4
setLED@currentB                                 bssCOMRAM     00040
setLED@currentG                                 bssCOMRAM     00041
setLED@currentR                                 bssCOMRAM     00042
stackhi                                         (abs)         00000
stacklo                                         (abs)         00000
start                                           init          0008A
start_initialization                            cinit         00FC4
ttemp5                                          temp          0005D
ttemp6                                          temp          00060
ttemp7                                          temp          00064
updateLED@currentAlt                            bssCOMRAM     00031
updateLED@currentHR                             bssCOMRAM     00035
updateLED@currentTemp                           bssCOMRAM     00033
wtemp8                                          temp          0005D


MODULE INFORMATION

Module		Function		Class		Link	Load	Size
mcc_generated_files/i2c1_master.c
		_I2C1_Initialize		CODE           	120E	0000	20

mcc_generated_files/i2c1_master.c estimated size: 20

mcc_generated_files/interrupt_manager.c
		_INTERRUPT_Initialize		CODE           	1290	0000	4
		_INTERRUPT_InterruptManager		CODE           	0008	0000	130

mcc_generated_files/interrupt_manager.c estimated size: 134

mcc_generated_files/tmr0.c
		_TMR0_Initialize		CODE           	1222	0000	18

mcc_generated_files/tmr0.c estimated size: 18

mcc_generated_files/pin_manager.c
		_PIN_MANAGER_Initialize		CODE           	10AC	0000	58

mcc_generated_files/pin_manager.c estimated size: 58

mcc_generated_files/adc.c
		_ADC_Initialize		CODE           	11DC	0000	30

mcc_generated_files/adc.c estimated size: 30

mcc_generated_files/ext_int.c
		_INT0_SetInterruptHandler		CODE           	1248	0000	10
		_INT1_SetInterruptHandler		CODE           	123E	0000	10
		_EXT_INT_Initialize		CODE           	106E	0000	62
		_INT2_SetInterruptHandler		CODE           	1234	0000	10
		_INT0_DefaultInterruptHandler		CODE           	1298	0000	2
		_INT0_CallBack 		CODE           	1142	0000	46
		_INT1_DefaultInterruptHandler		CODE           	1296	0000	2
		_INT1_CallBack 		CODE           	1114	0000	46
		_INT2_DefaultInterruptHandler		CODE           	1294	0000	2
		_INT2_CallBack 		CODE           	10E6	0000	46
		_INT0_ISR      		CODE           	1288	0000	8
		_INT1_ISR      		CODE           	1280	0000	8
		_INT2_ISR      		CODE           	1278	0000	8

mcc_generated_files/ext_int.c estimated size: 260

shared
		_L5            		SMALLCONST     	0000	0000	0
		_P3            		SMALLCONST     	0000	0000	0
		_L6            		SMALLCONST     	0000	0000	0
		_P4            		SMALLCONST     	0000	0000	0
		_P5            		SMALLCONST     	0000	0000	0
		_ivln10lo      		SMALLCONST     	0000	0000	0
		_Lg1           		SMALLCONST     	0000	0000	0
		_Lg2           		SMALLCONST     	0000	0000	0
		_Lg3           		SMALLCONST     	0000	0000	0
		_ivln10hi      		SMALLCONST     	0000	0000	0
		_Lg4           		SMALLCONST     	0000	0000	0
		_lg2_l         		SMALLCONST     	0000	0000	0
		_ivln2_l       		SMALLCONST     	0000	0000	0
		_ivln2         		SMALLCONST     	0000	0000	0
		__initialization		CODE           	0FC4	0000	88
		_bp            		SMALLCONST     	0000	0000	0
		_cp            		SMALLCONST     	0000	0000	0
		_cp_h          		SMALLCONST     	0000	0000	0
		_dp_h          		SMALLCONST     	0000	0000	0
		_tiny@sqrtf$F3274		SMALLCONST     	0000	0000	0
		_lg2           		SMALLCONST     	0000	0000	0
		_log10_2hi     		SMALLCONST     	0000	0000	0
		_log10_2lo     		SMALLCONST     	0000	0000	0
		_toint         		SMALLCONST     	0000	0000	0
		_lg2_h         		SMALLCONST     	0000	0000	0
		_i2c1_fsmStateTable		SMALLCONST     	0F01	0000	32
		_ivln2_h       		SMALLCONST     	0000	0000	0
		_tiny          		SMALLCONST     	0000	0000	0
		_ovt           		SMALLCONST     	0000	0000	0
		_huge          		SMALLCONST     	0000	0000	0
		_two24         		SMALLCONST     	0000	0000	0
		_cp_l          		SMALLCONST     	0000	0000	0
		_dp_l          		SMALLCONST     	0000	0000	0
		_L1            		SMALLCONST     	0000	0000	0
		_L2            		SMALLCONST     	0000	0000	0
		_L3            		SMALLCONST     	0000	0000	0
		_P1            		SMALLCONST     	0000	0000	0
		_L4            		SMALLCONST     	0000	0000	0
		_P2            		SMALLCONST     	0000	0000	0

shared estimated size: 120

mcc_generated_files/eusart1.c
		_EUSART1_Initialize		CODE           	102A	0000	68
		_EUSART1_SetFramingErrorHandler		CODE           	125C	0000	10
		_EUSART1_SetOverrunErrorHandler		CODE           	1252	0000	10
		_EUSART1_SetErrorHandler		CODE           	1266	0000	10

mcc_generated_files/eusart1.c estimated size: 98

mcc_generated_files/mcc.c
		_OSCILLATOR_Initialize		CODE           	11FA	0000	20
		_SYSTEM_Initialize		CODE           	11BA	0000	34

mcc_generated_files/mcc.c estimated size: 54

main.c
		_main          		CODE           	1170	0000	38

main.c estimated size: 38

